
fjkdaf.elf:     file format elf32-littlenios2
fjkdaf.elf
architecture: nios2, flags 0x00000112:
EXEC_P, HAS_SYMS, D_PAGED
start address 0x010001b8

Program Header:
    LOAD off    0x00001000 vaddr 0x01000000 paddr 0x01000000 align 2**12
         filesz 0x00000020 memsz 0x00000020 flags r-x
    LOAD off    0x00001020 vaddr 0x01000020 paddr 0x01000020 align 2**12
         filesz 0x00013f04 memsz 0x00013f04 flags r-x
    LOAD off    0x00014f24 vaddr 0x01013f24 paddr 0x01015d54 align 2**12
         filesz 0x00001e30 memsz 0x00001e30 flags rw-
    LOAD off    0x00017b84 vaddr 0x01017b84 paddr 0x01017b84 align 2**12
         filesz 0x00000000 memsz 0x00001b60 flags rw-

Sections:
Idx Name          Size      VMA       LMA       File off  Algn
  0 .entry        00000020  01000000  01000000  00001000  2**5
                  CONTENTS, ALLOC, LOAD, READONLY, CODE
  1 .exceptions   00000198  01000020  01000020  00001020  2**2
                  CONTENTS, ALLOC, LOAD, READONLY, CODE
  2 .text         0001313c  010001b8  010001b8  000011b8  2**2
                  CONTENTS, ALLOC, LOAD, READONLY, CODE
  3 .rodata       00000c30  010132f4  010132f4  000142f4  2**2
                  CONTENTS, ALLOC, LOAD, READONLY, DATA
  4 .rwdata       00001e30  01013f24  01015d54  00014f24  2**2
                  CONTENTS, ALLOC, LOAD, DATA, SMALL_DATA
  5 .bss          00001b60  01017b84  01017b84  00017b84  2**2
                  ALLOC, SMALL_DATA
  6 .comment      00000026  00000000  00000000  00016d54  2**0
                  CONTENTS, READONLY
  7 .debug_aranges 00000f98  00000000  00000000  00016d80  2**3
                  CONTENTS, READONLY, DEBUGGING
  8 .debug_pubnames 00002629  00000000  00000000  00017d18  2**0
                  CONTENTS, READONLY, DEBUGGING
  9 .debug_info   000317a8  00000000  00000000  0001a341  2**0
                  CONTENTS, READONLY, DEBUGGING
 10 .debug_abbrev 00009b2a  00000000  00000000  0004bae9  2**0
                  CONTENTS, READONLY, DEBUGGING
 11 .debug_line   0001a703  00000000  00000000  00055613  2**0
                  CONTENTS, READONLY, DEBUGGING
 12 .debug_frame  00002a68  00000000  00000000  0006fd18  2**2
                  CONTENTS, READONLY, DEBUGGING
 13 .debug_str    000027bb  00000000  00000000  00072780  2**0
                  CONTENTS, READONLY, DEBUGGING
 14 .debug_loc    0000ef72  00000000  00000000  00074f3b  2**0
                  CONTENTS, READONLY, DEBUGGING
 15 .debug_alt_sim_info 00000060  00000000  00000000  00083eb0  2**2
                  CONTENTS, READONLY, DEBUGGING
 16 .debug_ranges 000009e0  00000000  00000000  00083f10  2**3
                  CONTENTS, READONLY, DEBUGGING
 17 .thread_model 00000003  00000000  00000000  000896a0  2**0
                  CONTENTS, READONLY
 18 .cpu          0000000c  00000000  00000000  000896a3  2**0
                  CONTENTS, READONLY
 19 .qsys         00000001  00000000  00000000  000896af  2**0
                  CONTENTS, READONLY
 20 .simulation_enabled 00000001  00000000  00000000  000896b0  2**0
                  CONTENTS, READONLY
 21 .stderr_dev   0000000b  00000000  00000000  000896b1  2**0
                  CONTENTS, READONLY
 22 .stdin_dev    0000000b  00000000  00000000  000896bc  2**0
                  CONTENTS, READONLY
 23 .stdout_dev   0000000b  00000000  00000000  000896c7  2**0
                  CONTENTS, READONLY
 24 .sopc_system_name 00000013  00000000  00000000  000896d2  2**0
                  CONTENTS, READONLY
 25 .quartus_project_dir 00000036  00000000  00000000  000896e5  2**0
                  CONTENTS, READONLY
 26 .sopcinfo     000667ef  00000000  00000000  0008971b  2**0
                  CONTENTS, READONLY
SYMBOL TABLE:
01000000 l    d  .entry	00000000 .entry
01000020 l    d  .exceptions	00000000 .exceptions
010001b8 l    d  .text	00000000 .text
010132f4 l    d  .rodata	00000000 .rodata
01013f24 l    d  .rwdata	00000000 .rwdata
01017b84 l    d  .bss	00000000 .bss
00000000 l    d  .comment	00000000 .comment
00000000 l    d  .debug_aranges	00000000 .debug_aranges
00000000 l    d  .debug_pubnames	00000000 .debug_pubnames
00000000 l    d  .debug_info	00000000 .debug_info
00000000 l    d  .debug_abbrev	00000000 .debug_abbrev
00000000 l    d  .debug_line	00000000 .debug_line
00000000 l    d  .debug_frame	00000000 .debug_frame
00000000 l    d  .debug_str	00000000 .debug_str
00000000 l    d  .debug_loc	00000000 .debug_loc
00000000 l    d  .debug_alt_sim_info	00000000 .debug_alt_sim_info
00000000 l    d  .debug_ranges	00000000 .debug_ranges
01000200 l       .text	00000000 alt_after_alt_main
00000000 l    df *ABS*	00000000 alt_irq_handler.c
00000000 l    df *ABS*	00000000 hello_world.c
01015ce0 l     O .rwdata	00000005 __func__.2508
01013440 l     O .rodata	00000009 __func__.2558
00000000 l    df *ABS*	00000000 usb.c
0101347c l     O .rodata	00000013 __func__.3416
010134a8 l     O .rodata	00000013 __func__.3433
010134bc l     O .rodata	00000010 __func__.3452
00000000 l    df *ABS*	00000000 usb_ISO.c
00000000 l    df *ABS*	00000000 usb_chap_9.c
00000000 l    df *ABS*	00000000 usb_config.c
00000000 l    df *ABS*	00000000 usb_device_bus.c
00000000 l    df *ABS*	00000000 usb_device_hal.c
00000000 l    df *ABS*	00000000 usb_get_info.c
00000000 l    df *ABS*	00000000 usb_isr.c
01013aa8 l     O .rodata	0000000f __func__.4024
00000000 l    df *ABS*	00000000 usb_queue.c
01013ad4 l     O .rodata	0000000e __func__.1882
00000000 l    df *ABS*	00000000 assert.c
00000000 l    df *ABS*	00000000 calloc.c
00000000 l    df *ABS*	00000000 mallocr.c
00000000 l    df *ABS*	00000000 exit.c
00000000 l    df *ABS*	00000000 fiprintf.c
00000000 l    df *ABS*	00000000 impure.c
010141d8 l     O .rwdata	00000400 impure_data
00000000 l    df *ABS*	00000000 malloc.c
00000000 l    df *ABS*	00000000 mallocr.c
00000000 l    df *ABS*	00000000 memcpy.c
00000000 l    df *ABS*	00000000 memset.c
00000000 l    df *ABS*	00000000 printf.c
00000000 l    df *ABS*	00000000 putchar.c
00000000 l    df *ABS*	00000000 puts.c
00000000 l    df *ABS*	00000000 sbrkr.c
00000000 l    df *ABS*	00000000 strlen.c
00000000 l    df *ABS*	00000000 vfiprintfr_1.c
00000000 l    df *ABS*	00000000 vfprintf.c
010060a8 l     F .text	00000058 __sprint_r
01013bb6 l     O .rodata	00000010 blanks.3452
01013ba6 l     O .rodata	00000010 zeroes.3453
00000000 l    df *ABS*	00000000 wsetup.c
00000000 l    df *ABS*	00000000 __call_atexit.c
0100810c l     F .text	00000004 register_fini
00000000 l    df *ABS*	00000000 abort.c
00000000 l    df *ABS*	00000000 dtoa.c
010082d8 l     F .text	00000218 quorem
00000000 l    df *ABS*	00000000 fflush.c
00000000 l    df *ABS*	00000000 findfp.c
01009cd4 l     F .text	00000058 std
01009de0 l     F .text	00000008 __fp_lock
01009de8 l     F .text	00000008 __fp_unlock
00000000 l    df *ABS*	00000000 mallocr.c
00000000 l    df *ABS*	00000000 fvwrite.c
00000000 l    df *ABS*	00000000 fwalk.c
00000000 l    df *ABS*	00000000 int_errno.c
00000000 l    df *ABS*	00000000 locale.c
01015d28 l     O .rwdata	00000004 charset
01013be8 l     O .rodata	00000030 lconv
00000000 l    df *ABS*	00000000 makebuf.c
00000000 l    df *ABS*	00000000 memchr.c
00000000 l    df *ABS*	00000000 memmove.c
00000000 l    df *ABS*	00000000 mprec.c
01013d30 l     O .rodata	0000000c p05.2458
00000000 l    df *ABS*	00000000 putc.c
00000000 l    df *ABS*	00000000 mallocr.c
00000000 l    df *ABS*	00000000 s_isinfd.c
00000000 l    df *ABS*	00000000 s_isnand.c
00000000 l    df *ABS*	00000000 signal.c
00000000 l    df *ABS*	00000000 signalr.c
00000000 l    df *ABS*	00000000 stdio.c
00000000 l    df *ABS*	00000000 strcmp.c
00000000 l    df *ABS*	00000000 vfprintf.c
0100cba8 l     F .text	00000058 __sprint_r
01013d4c l     O .rodata	00000010 blanks.3391
01013d3c l     O .rodata	00000010 zeroes.3392
00000000 l    df *ABS*	00000000 wbuf.c
00000000 l    df *ABS*	00000000 writer.c
00000000 l    df *ABS*	00000000 closer.c
00000000 l    df *ABS*	00000000 fclose.c
00000000 l    df *ABS*	00000000 fstatr.c
00000000 l    df *ABS*	00000000 isattyr.c
00000000 l    df *ABS*	00000000 lseekr.c
00000000 l    df *ABS*	00000000 readr.c
00000000 l    df *ABS*	00000000 libgcc2.c
00000000 l    df *ABS*	00000000 libgcc2.c
00000000 l    df *ABS*	00000000 dp-bit.c
0100ed80 l     F .text	00000410 _fpadd_parts
00000000 l    df *ABS*	00000000 dp-bit.c
00000000 l    df *ABS*	00000000 dp-bit.c
00000000 l    df *ABS*	00000000 dp-bit.c
00000000 l    df *ABS*	00000000 dp-bit.c
00000000 l    df *ABS*	00000000 dp-bit.c
00000000 l    df *ABS*	00000000 dp-bit.c
00000000 l    df *ABS*	00000000 dp-bit.c
00000000 l    df *ABS*	00000000 dp-bit.c
00000000 l    df *ABS*	00000000 dp-bit.c
00000000 l    df *ABS*	00000000 dp-bit.c
00000000 l    df *ABS*	00000000 dp-bit.c
00000000 l    df *ABS*	00000000 lib2-divmod.c
0100feac l     F .text	0000007c udivmodsi4
00000000 l    df *ABS*	00000000 libgcc2.c
00000000 l    df *ABS*	00000000 libgcc2.c
00000000 l    df *ABS*	00000000 libgcc2.c
00000000 l    df *ABS*	00000000 dp-bit.c
00000000 l    df *ABS*	00000000 dp-bit.c
00000000 l    df *ABS*	00000000 dp-bit.c
00000000 l    df *ABS*	00000000 alt_close.c
01010720 l     F .text	00000060 alt_get_errno
00000000 l    df *ABS*	00000000 alt_dev.c
01010780 l     F .text	0000002c alt_dev_null_write
00000000 l    df *ABS*	00000000 alt_errno.c
00000000 l    df *ABS*	00000000 alt_exit.c
010107ac l     F .text	00000040 alt_sim_halt
00000000 l    df *ABS*	00000000 alt_fstat.c
010108e0 l     F .text	00000060 alt_get_errno
00000000 l    df *ABS*	00000000 alt_getpid.c
00000000 l    df *ABS*	00000000 alt_irq_register.c
00000000 l    df *ABS*	00000000 alt_irq_vars.c
00000000 l    df *ABS*	00000000 alt_isatty.c
01010be0 l     F .text	00000060 alt_get_errno
00000000 l    df *ABS*	00000000 alt_kill.c
01010d80 l     F .text	00000060 alt_get_errno
00000000 l    df *ABS*	00000000 alt_load.c
01010e60 l     F .text	0000006c alt_load_section
00000000 l    df *ABS*	00000000 alt_lseek.c
01010fbc l     F .text	00000060 alt_get_errno
00000000 l    df *ABS*	00000000 alt_main.c
00000000 l    df *ABS*	00000000 alt_malloc_lock.c
00000000 l    df *ABS*	00000000 alt_read.c
010111e8 l     F .text	00000060 alt_get_errno
00000000 l    df *ABS*	00000000 alt_release_fd.c
00000000 l    df *ABS*	00000000 alt_sbrk.c
01015d48 l     O .rwdata	00000004 heap_end
00000000 l    df *ABS*	00000000 alt_usleep.c
00000000 l    df *ABS*	00000000 alt_write.c
010114b4 l     F .text	00000060 alt_get_errno
00000000 l    df *ABS*	00000000 alt_sys_init.c
01014b94 l     O .rwdata	00001060 jtag_uart_0
01015bf4 l     O .rwdata	00000030 audio_and_video_config_0
01015c24 l     O .rwdata	00000030 audio_0
01015c54 l     O .rwdata	0000002c parallel_port_0
01015c80 l     O .rwdata	00000034 usb_0
01015cb4 l     O .rwdata	0000002c Altera_UP_SD_Card_Avalon_Interface_0
01011600 l     F .text	00000038 alt_dev_reg
00000000 l    df *ABS*	00000000 altera_avalon_jtag_uart_fd.c
00000000 l    df *ABS*	00000000 altera_avalon_jtag_uart_init.c
01011838 l     F .text	0000022c altera_avalon_jtag_uart_irq
01011a64 l     F .text	000000b0 altera_avalon_jtag_uart_timeout
00000000 l    df *ABS*	00000000 altera_avalon_jtag_uart_ioctl.c
00000000 l    df *ABS*	00000000 altera_avalon_jtag_uart_read.c
00000000 l    df *ABS*	00000000 altera_avalon_jtag_uart_write.c
00000000 l    df *ABS*	00000000 altera_avalon_timer_sc.c
010120e0 l     F .text	00000074 alt_avalon_timer_sc_irq
00000000 l    df *ABS*	00000000 altera_avalon_timer_ts.c
00000000 l    df *ABS*	00000000 altera_avalon_timer_vars.c
00000000 l    df *ABS*	00000000 altera_up_avalon_usb.c
00000000 l    df *ABS*	00000000 alt_alarm_start.c
00000000 l    df *ABS*	00000000 alt_busy_sleep.c
00000000 l    df *ABS*	00000000 alt_dcache_flush_all.c
00000000 l    df *ABS*	00000000 alt_dev_llist_insert.c
0101271c l     F .text	00000060 alt_get_errno
00000000 l    df *ABS*	00000000 alt_do_ctors.c
00000000 l    df *ABS*	00000000 alt_do_dtors.c
00000000 l    df *ABS*	00000000 alt_find_dev.c
00000000 l    df *ABS*	00000000 alt_icache_flush_all.c
00000000 l    df *ABS*	00000000 alt_io_redirect.c
01012908 l     F .text	000000c4 alt_open_fd
00000000 l    df *ABS*	00000000 alt_open.c
01012a44 l     F .text	000000dc alt_file_locked
01012ca8 l     F .text	00000060 alt_get_errno
00000000 l    df *ABS*	00000000 alt_tick.c
00000000 l    df *ABS*	00000000 altera_nios2_qsys_irq.c
00000000 l    df *ABS*	00000000 alt_find_file.c
00000000 l    df *ABS*	00000000 alt_get_fd.c
00000000 l    df *ABS*	00000000 alt_icache_flush.c
00000000 l    df *ABS*	00000000 atexit.c
00000000 l    df *ABS*	00000000 memcmp.c
00000000 l    df *ABS*	00000000 __atexit.c
01002bb4 g     F .text	00000210 read_write_register
01005ed0 g     F .text	0000001c putchar
0100b218 g     F .text	00000094 _mprec_log10
0100413c g     F .text	00000068 Hal4D13_GetErrorCode
0100219c g     F .text	00000064 Chap9_StallEP0InControlRead
0100b304 g     F .text	00000088 __any_on
0100e094 g     F .text	00000070 _isatty_r
01013d08 g     O .rodata	00000028 __mprec_tinytens
0101101c g     F .text	0000006c alt_main
010042ec g     F .text	00000168 Hal4D13_RegAccess
01004078 g     F .text	00000070 Hal4D13_LockDevice
01017b90 g     O .bss	00000004 ISP1362_BASE
01005ef4 g     F .text	000000a0 _puts_r
01019454 g     O .bss	00000100 alt_irq
0100e104 g     F .text	00000078 _lseek_r
01003bbc g     F .text	00000094 Hal4D13_SetIntEnable
01003e2c g     F .text	00000054 Hal4D13_SetDMAConfig
01015d54 g       *ABS*	00000000 __flash_rwdata_start
01013f24 g     O .rwdata	00000012 DeviceDescr
0100f8a0 g     F .text	00000088 __eqdf2
01002eec g     F .text	00000028 D13Bus_StallEP0
01014198 g     O .rwdata	00000040 _NAME_USB_VENDOR_REQUEST
010051b0 g     F .text	000000d8 usb_fifo_push
010196e4 g       *ABS*	00000000 __alt_heap_start
0100182c g     F .text	00000230 Chap9_SetAddress
0100c92c g     F .text	00000074 _kill_r
01002138 g     F .text	00000064 Chap9_StallEP0InControlWrite
01005e58 g     F .text	00000044 printf
01000aa4 g     F .text	0000002c usb_send_queue_is_empty
010004d8 g     F .text	0000006c init_usb
0100c86c g     F .text	000000a0 _signal_r
01005164 g     F .text	0000001c Isr_Ep0EDone
01002aa0 g     F .text	0000002c ML_Reserved
0100c9a8 g     F .text	00000068 __sseek
01009d3c g     F .text	000000a4 __sinit
0100dcc8 g     F .text	00000130 __swbuf_r
0100aa14 g     F .text	00000084 _setlocale_r
01017bc0 g     O .bss	00000002 IsoInPktLen
01009e3c g     F .text	00000068 __sfmoreglue
0101403a g     O .rwdata	0000001a strSerialNum
010110a8 g     F .text	00000020 __malloc_unlock
01002b8c g     F .text	00000028 reserved
01015d0c g     O .rwdata	00000004 rb_wr_ptr
01017bfc g     O .bss	00000004 altera_avalon_timer_ts_freq
0100ad2c g     F .text	000000e0 memmove
01009e2c g     F .text	00000010 _cleanup
0100b38c g     F .text	000000bc _Balloc
01000be4 g     F .text	000000f0 usb_device_poll
01012344 g     F .text	00000040 alt_up_usb_open_dev
0100f9b0 g     F .text	00000088 __gtdf2
00000000  w      *UND*	00000000 __errno
01003ed4 g     F .text	00000054 Hal4D13_SetDMACounter
01003f7c g     F .text	00000054 Hal4D13_GetDataFromChipRam
01000000 g     F .entry	0000001c __reset
01017b94 g     O .bss	00000004 bD13flags
01004fb4 g     F .text	00000030 Isr_Ep03Done
01004fe4 g     F .text	00000030 Isr_Ep04Done
01000020 g       *ABS*	00000000 __flash_exceptions_start
01002908 g     F .text	000000f4 config_endpoint
0100e020 g     F .text	00000074 _fstat_r
01017bd8 g     O .bss	00000004 errno
01017bf0 g     O .bss	00000004 alt_argv
0101dce0 g       *ABS*	00000000 _gp
01002acc g     F .text	00000098 CHECK_CHIP_ID
01011364 g     F .text	00000030 usleep
01003684 g     F .text	00000124 Hal4D13_ReadBulkEndpoint
01010940 g     F .text	00000020 getpid
010045a8 g     F .text	00000050 usb_disable_all_interrupts
01014a14 g     O .rwdata	00000180 alt_fd_list
01002b64 g     F .text	00000028 D13Bus_ControlEntry
01000f64 g     F .text	000000e4 Hal4D13_ReadISOEndpoint
010006cc g     F .text	0000009c usb_recv_queue_pop
01005eec g     F .text	00000008 _putchar_r
010050f4 g     F .text	0000001c Isr_Ep0ADone
01000afc g     F .text	000000e8 usb_device_init
01012844 g     F .text	00000094 alt_find_dev
01005d20 g     F .text	000000a0 memcpy
01017b8c g     O .bss	00000004 usb_send_cb
01009e20 g     F .text	0000000c _cleanup_r
0100fb48 g     F .text	000000f8 __floatsidf
010129cc g     F .text	00000078 alt_io_redirect
0100fac0 g     F .text	00000088 __ltdf2
010132f4 g       *ABS*	00000000 __DTOR_END__
010050d8 g     F .text	0000001c Isr_Ep09Done
01005f94 g     F .text	00000014 puts
01002a28 g     F .text	0000001c suspend_change
0100b168 g     F .text	000000b0 __ratio
01004288 g     F .text	0000001c Hal4D13_ConfigDevice
0100dca4 g     F .text	00000024 __vfiprintf_internal
01005180 g     F .text	00000030 usb_fifo_init
01011c7c g     F .text	00000224 altera_avalon_jtag_uart_read
010055cc g     F .text	00000014 malloc
01005e9c g     F .text	00000034 _printf_r
00000000 g       *ABS*	00000000 __alt_mem_onchip_memory2_0
0100ffe8 g     F .text	00000008 __udivsi3
01010b20 g     F .text	000000c0 isatty
01003e80 g     F .text	00000054 Hal4D13_GetDMAConfig
0100c650 g     F .text	000000cc _raise_r
010053cc g     F .text	00000064 __assert_func
01013c18 g     O .rodata	000000c8 __mprec_tens
0100a9f0 g     F .text	00000008 __locale_charset
010013cc g     F .text	00000238 Chap9_ClearFeature
0100512c g     F .text	0000001c Isr_Ep0CDone
010130a4 g     F .text	00000090 alt_icache_flush
01001a5c g     F .text	000001dc Chap9_GetDescriptor
01013fde g     O .rwdata	00000032 REPORT_DESCRIPTOR
01017bcc g     O .bss	00000004 __malloc_top_pad
0100c928 g     F .text	00000004 _getpid_r
01015cec g     O .rwdata	00000001 IsoDisable
01014114 g     O .rwdata	00000010 _NAME_USB_REQUEST_TYPE
01004024 g     F .text	00000054 Hal4D13_ReadCurrentFrameNumber
01017bc2 g     O .bss	00000001 ALTERNATIVE_SETTING
01015d24 g     O .rwdata	00000004 __mb_cur_max
0100a9f8 g     F .text	0000000c _localeconv_r
0100ba84 g     F .text	0000003c __i2b
0100a3d4 g     F .text	0000049c __sfvwrite_r
01017b98 g     O .bss	00000008 usb_send_queue
01002a44 g     F .text	0000005c ML_AcknowledgeSETUP
0100c7a4 g     F .text	000000b4 __sigtramp_r
0100426c g     F .text	0000001c Hal4D13_UnconfigDevice
01002200 g     F .text	0000009c Chap9_SingleTransmitEP0
01005fa8 g     F .text	00000070 _sbrk_r
01000ebc g     F .text	00000030 Wait4Ns
01000cd4 g     F .text	000001e8 EnableIsoMode
01000898 g     F .text	00000188 usb_device_recv
0100e17c g     F .text	00000078 _read_r
010029fc g     F .text	0000002c reconnect_USB
010050a0 g     F .text	0000001c Isr_Ep07Done
010149e0 g     O .rwdata	0000000c __lc_ctype
01003170 g     F .text	00000038 Hal4D13_ResetDevice
01015d3c g     O .rwdata	00000004 alt_max_fd
01010424 g     F .text	00000138 __unpack_d
0100defc g     F .text	00000110 _fclose_r
01015cf8 g     O .rwdata	00000008 _NAME_USB_REQUEST_DIRECTION
01009ca0 g     F .text	00000034 fflush
01017bd0 g     O .bss	00000004 __malloc_max_sbrked_mem
01000ad0 g     F .text	0000002c usb_recv_queue_is_empty
01010960 g     F .text	000001c0 alt_irq_register
01001fa8 g     F .text	00000100 Chap9_SetInterface
01003c50 g     F .text	0000008c Hal4D13_ReadInterruptRegister
01014096 g     O .rwdata	00000038 strManufacturer
0100f210 g     F .text	00000074 __adddf3
0100b048 g     F .text	00000120 __b2d
01017bbe g     O .bss	00000002 IsoOutPktLen
0100e7d0 g     F .text	000005b0 __umoddi3
01010ecc g     F .text	000000f0 lseek
01005070 g     F .text	00000030 Isr_Ep06Done
01015d18 g     O .rwdata	00000004 _global_impure_ptr
0100229c g     F .text	0000017c Chap9_BurstTransmitEP0
0100bfec g     F .text	000005f4 _realloc_r
010196e4 g       *ABS*	00000000 __bss_end
01015d10 g     O .rwdata	00000004 rb_rd_ptr
01012da0 g     F .text	0000010c alt_tick
01002418 g     F .text	00000274 SetupToken_Handler
01000eec g     F .text	00000078 ISOLOOP
0100e1f4 g     F .text	000005dc __udivdi3
01013ce0 g     O .rodata	00000028 __mprec_bigtens
0100bce0 g     F .text	00000120 __s2b
010082c0 g     F .text	00000018 abort
0100fd18 g     F .text	00000194 __floatunsidf
0100af68 g     F .text	00000060 __mcmp
010140d0 g     O .rwdata	00000034 StandardDeviceRequest
01017ba0 g     O .bss	00000008 usb_recv_queue
01014054 g     O .rwdata	00000042 strProduct
01009e08 g     F .text	00000018 __fp_lock_all
01002878 g     F .text	00000034 disconnect_USB
01012d08 g     F .text	00000098 alt_alarm_stop
01017be8 g     O .bss	00000004 alt_irq_active
010000ec g     F .exceptions	000000cc alt_irq_handler
010149ec g     O .rwdata	00000028 alt_dev_null
01003560 g     F .text	00000124 Hal4D13_ReadEndpoint
01012624 g     F .text	00000044 alt_dcache_flush_all
0100ae34 g     F .text	00000070 __hi0bits
0100fc40 g     F .text	000000d8 __fixdfsi
01005444 g     F .text	0000001c calloc
01002fb0 g     F .text	00000184 D13Bus_BurstTransmitEP0
01017c54 g     O .bss	00000400 IsoOutDataBuff
01015d54 g       *ABS*	00000000 __ram_rwdata_end
01015d34 g     O .rwdata	00000008 alt_dev_list
01011394 g     F .text	00000120 write
0100bf04 g     F .text	000000e8 _putc_r
0101231c g     F .text	00000028 alt_timestamp_freq
01000544 g     F .text	00000034 usb_register_recv_callback
010033e8 g     F .text	000000c0 Hal4D13_SoftConnect
01013f24 g       *ABS*	00000000 __ram_rodata_end
0101080c g     F .text	000000d4 fstat
01017ba8 g     O .bss	00000008 ioRequest
01010c40 g     F .text	00000140 kill
0100bbc0 g     F .text	00000120 __pow5mult
01017bdc g     O .bss	00000004 __nlocale_changed
0100cc00 g     F .text	000010a4 ___vfiprintf_internal_r
0100fff0 g     F .text	00000008 __umodsi3
010034e0 g     F .text	00000040 Hal4D13_ClearBuffer
01005288 g     F .text	00000044 usb_fifo_is_empty
01015cf0 g     O .rwdata	00000002 IsoInPattern
010196e4 g       *ABS*	00000000 end
01003b44 g     F .text	00000078 Hal4D13_GetIntEnable
01014010 g     O .rwdata	00000018 strInterface
01011780 g     F .text	000000b8 altera_avalon_jtag_uart_init
010032a4 g     F .text	00000060 Hal4D13_GetMode
010132f0 g       *ABS*	00000000 __CTOR_LIST__
01800000 g       *ABS*	00000000 __alt_stack_pointer
01012154 g     F .text	00000088 alt_avalon_timer_sc_init
01010090 g     F .text	00000080 __clzsi2
010048cc g     F .text	00000030 Isr_SuspendChange
01011ea0 g     F .text	00000240 altera_avalon_jtag_uart_write
01009d2c g     F .text	00000004 __sfp_lock_acquire
0100ac48 g     F .text	000000e4 memchr
01006100 g     F .text	00001eac ___vfprintf_internal_r
0100a0c0 g     F .text	00000314 _free_r
01013fbe g     O .rwdata	00000020 EP_Descr
01002750 g     F .text	00000128 help_devreq
01008110 g     F .text	000001b0 __call_exitprocs
01017bc4 g     O .bss	00000004 inflight
01017be0 g     O .bss	00000004 __mlocale_changed
01015d20 g     O .rwdata	00000004 __malloc_sbrk_base
010001b8 g     F .text	0000004c _start
01017c00 g     O .bss	00000004 _alt_tick_rate
01004e30 g     F .text	000000bc usb_check_send
010050bc g     F .text	0000001c Isr_Ep08Done
0100b750 g     F .text	0000014c __lshift
01017c04 g     O .bss	00000004 _alt_nticks
010038cc g     F .text	0000015c Hal4D13_WriteEndpoint
0100c90c g     F .text	0000001c signal
010110c8 g     F .text	00000120 read
01011548 g     F .text	000000b8 alt_sys_init
010042a4 g     F .text	00000048 Hal4D13_SingleTransmitEP0
01000630 g     F .text	0000009c usb_send_queue_pop
010131bc g     F .text	00000134 __register_exitproc
010048fc g     F .text	00000030 Isr_SHORT_PACKET
0100b89c g     F .text	000001e8 __multiply
01003dac g     F .text	00000080 Hal4D13_SetEndpointStatus
01011b14 g     F .text	00000074 altera_avalon_jtag_uart_close
01013f24 g       *ABS*	00000000 __ram_rwdata_start
01014158 g     O .rwdata	00000040 VendorDeviceRequest
010132f4 g       *ABS*	00000000 __ram_rodata_start
01017c08 g     O .bss	00000028 __malloc_current_mallinfo
0100b448 g     F .text	0000017c __d2b
01017b88 g     O .bss	00000004 usb_recv_cb
010028ac g     F .text	0000005c connect_USB
01015d08 g     O .rwdata	00000001 INT_Enabled
01011638 g     F .text	00000058 altera_avalon_jtag_uart_read_fd
01012fec g     F .text	000000b8 alt_get_fd
01017bb0 g     O .bss	00000004 usb_send_cb_context
01004670 g     F .text	000001b8 usb_isr
010124d8 g     F .text	0000014c alt_busy_sleep
0101055c g     F .text	000000c8 __fpcmp_parts_d
0100de8c g     F .text	00000070 _close_r
01005110 g     F .text	0000001c Isr_Ep0BDone
010053a4 g     F .text	00000028 usb_fifo_peek
01004490 g     F .text	0000003c Hal4D13_StallEP0InControlRead
01013148 g     F .text	00000074 memcmp
010116e8 g     F .text	00000048 altera_avalon_jtag_uart_close_fd
010196e4 g       *ABS*	00000000 __alt_stack_base
01011730 g     F .text	00000050 altera_avalon_jtag_uart_ioctl_fd
01007fd0 g     F .text	0000013c __swsetup_r
01014104 g     O .rwdata	00000010 _NAME_USB_REQUEST_RECIPIENT
01004c18 g     F .text	00000218 Isr_Ep00TxDone
0100f648 g     F .text	00000258 __divdf3
01009ea4 g     F .text	000000f0 __sfp
01015d04 g     O .rwdata	00000004 _NAME_USB_CLASS_REQUEST
0100b2ac g     F .text	00000058 __copybits
010145d8 g     O .rwdata	00000408 __malloc_av_
01001604 g     F .text	00000228 Chap9_SetFeature
01009d38 g     F .text	00000004 __sinit_lock_release
0100f284 g     F .text	000003c4 __muldf3
0100ca8c g     F .text	00000060 __sread
01012ecc g     F .text	00000120 alt_find_file
01005148 g     F .text	0000001c Isr_Ep0DDone
01012668 g     F .text	000000b4 alt_dev_llist_insert
01011088 g     F .text	00000020 __malloc_lock
010112a8 g     F .text	000000bc sbrk
01004a14 g     F .text	00000204 Isr_Ep00RxDone
01004828 g     F .text	000000a4 Isr_BusReset
01015ce8 g     O .rwdata	00000004 packet_size
01009aa4 g     F .text	000001fc _fflush_r
01005460 g     F .text	000000b4 _calloc_r
01018054 g     O .bss	00000400 IsoInDataBuff
01003cdc g     F .text	00000068 Hal4D13_GetEndpointStatusWInteruptClear
010020a8 g     F .text	00000090 Chap9_StallEP0
01017b84 g       *ABS*	00000000 __bss_start
01005dc0 g     F .text	00000098 memset
01003250 g     F .text	00000054 Hal4D13_SetMode
01000204 g     F .text	000002d4 main
01017bf4 g     O .bss	00000004 alt_envp
01017bd4 g     O .bss	00000004 __malloc_max_total_mem
01011690 g     F .text	00000058 altera_avalon_jtag_uart_write_fd
01017bb4 g     O .bss	00000004 usb_recv_cb_context
0100ddf8 g     F .text	0000001c __swbuf
01004f4c g     F .text	00000068 Isr_Ep02Done
010005ac g     F .text	00000084 usb_recv_queue_push
0100c9a0 g     F .text	00000008 __sclose
01800000 g       *ABS*	00000000 __alt_heap_limit
010041a4 g     F .text	00000068 Hal4D13_GetEndpointConfig
010052cc g     F .text	000000d8 usb_fifo_pop
0100e00c g     F .text	00000014 fclose
01002dc4 g     F .text	000000f0 setup_dma_request
010121dc g     F .text	000000a4 alt_timestamp_start
01019554 g     O .bss	00000190 _atexit0
010084f0 g     F .text	000015b4 _dtoa_r
010055e0 g     F .text	00000740 _malloc_r
01013fac g     O .rwdata	00000009 InterfaceDescr0
01015d40 g     O .rwdata	00000004 alt_errno
01003304 g     F .text	00000060 Hal4D13_GetAddress
01005590 g     F .text	00000028 _fiprintf_r
0100c794 g     F .text	00000010 _init_signal
0100a938 g     F .text	000000b8 _fwalk
01017bbc g     O .bss	00000001 IsoMode
0100be00 g     F .text	00000104 putc
0100ff28 g     F .text	00000060 __divsi3
01013d5c g     O .rodata	00000014 __thenan_df
01004454 g     F .text	0000003c Hal4D13_StallEP0InControlWrite
01009f94 g     F .text	0000012c _malloc_trim_r
010132f4 g       *ABS*	00000000 __CTOR_END__
01013fb5 g     O .rwdata	00000009 InterfaceDescr1
0100caec g     F .text	000000bc strcmp
0100492c g     F .text	000000cc Isr_DmaEot
010132f4 g       *ABS*	00000000 __flash_rodata_start
010132f4 g       *ABS*	00000000 __DTOR_LIST__
0100455c g     F .text	0000004c Read_HC_Config_Reg
01003520 g     F .text	00000040 Hal4D13_ValidBuffer
010040e8 g     F .text	00000054 Hal4D13_ReadChipID
0100268c g     F .text	000000c4 DeviceRequest_Handler
01003a28 g     F .text	0000011c Hal4D13_WriteBulkEndpoint
0100f928 g     F .text	00000088 __nedf2
01011514 g     F .text	00000034 alt_irq_init
01011248 g     F .text	00000060 alt_release_fd
01013d70 g     O .rodata	00000100 __clz_tab
01017be4 g     O .bss	00000004 _PathLocale
01013134 g     F .text	00000014 atexit
010031fc g     F .text	00000054 Hal4D13_SetDevConfig
0100de14 g     F .text	00000078 _write_r
010031a8 g     F .text	00000054 Hal4D13_GetDevConfig
0100aa98 g     F .text	0000001c setlocale
010044cc g     F .text	00000040 Hal4D13_IsSetupPktInvalid
01004eec g     F .text	00000060 Isr_Ep01Done
01017c30 g     O .bss	00000024 ControlData
01015d14 g     O .rwdata	00000004 _impure_ptr
01017bec g     O .bss	00000004 alt_argc
01017bf8 g     O .bss	00000004 altera_avalon_timer_ts_base
010127e0 g     F .text	00000064 _do_dtors
01005014 g     F .text	0000005c Isr_Ep05Done
01001c38 g     F .text	000000c0 Chap9_GetConfiguration
01000020 g       .exceptions	00000000 alt_irq_entry
01001048 g     F .text	000000f4 Hal4D13_WriteISOEndpoint
0100afc8 g     F .text	00000080 __ulp
0100c5e0 g     F .text	00000040 __isinfd
01009df0 g     F .text	00000018 __fp_unlock_all
01015d2c g     O .rwdata	00000008 alt_fs_list
01013f36 g     O .rwdata	0000002e ConfigDescr_a
01014028 g     O .rwdata	00000012 strConfiguration
01000768 g     F .text	00000130 usb_device_send
01000020 g       *ABS*	00000000 __ram_exceptions_start
0100aa04 g     F .text	00000010 localeconv
01012280 g     F .text	0000009c alt_timestamp
01014124 g     O .rwdata	00000034 _NAME_USB_STANDARD_REQUEST
0100420c g     F .text	00000060 Hal4D13_SetEndpointConfig
01015d54 g       *ABS*	00000000 _edata
010045f8 g     F .text	00000044 usb_reenable_all_interrupts
010196e4 g       *ABS*	00000000 _end
010001b8 g       *ABS*	00000000 __ram_exceptions_end
01011b88 g     F .text	000000f4 altera_avalon_jtag_uart_ioctl
0100450c g     F .text	00000050 Write_HC_Config_Reg
01000a20 g     F .text	00000084 usb_send_queue_push
01003364 g     F .text	00000084 Hal4D13_SetAddressEnable
0100ca10 g     F .text	0000007c __swrite
01017bb8 g     O .bss	00000003 bUSBCheck_Device_State
01015d1c g     O .rwdata	00000004 __malloc_trim_threshold
01003fd0 g     F .text	00000054 Hal4D13_SetDataToChipRam
01012eac g     F .text	00000020 altera_nios2_qsys_irq_init
01001f04 g     F .text	000000a4 Chap9_GetInterface
01005514 g     F .text	00000038 exit
0100554c g     F .text	00000044 fiprintf
0100608c g     F .text	0000001c _vfiprintf_r
0100a870 g     F .text	000000c8 _fwalk_reent
0100b5c4 g     F .text	0000018c __mdiff
0100ff88 g     F .text	00000060 __modsi3
01800000 g       *ABS*	00000000 __alt_data_end
01000020 g     F .exceptions	00000000 alt_exception
01009d30 g     F .text	00000004 __sfp_lock_release
01000000 g       *ABS*	00000000 __alt_mem_sdram
010034a8 g     F .text	00000038 Hal4D13_AcknowledgeSETUP
01002f14 g     F .text	0000009c D13Bus_SingleTransmitEP0
01003f28 g     F .text	00000054 Hal4D13_GetDMACounter
0100c620 g     F .text	00000030 __isnand
010107ec g     F .text	00000020 _exit
01012384 g     F .text	00000154 alt_alarm_start
01003d44 g     F .text	00000068 Hal4D13_GetEndpointStatusWOInteruptClear
0100fff8 g     F .text	00000098 __muldi3
01015cee g     O .rwdata	00000002 IsoOutPattern
0100aab4 g     F .text	00000194 __smakebuf_r
01000578 g     F .text	00000034 usb_register_send_callback
01006018 g     F .text	00000074 strlen
0100c730 g     F .text	00000064 _init_signal_r
01012b20 g     F .text	00000188 open
0100fa38 g     F .text	00000088 __gedf2
0100113c g     F .text	00000290 Chap9_GetStatus
01005430 g     F .text	00000014 __assert
010128d8 g     F .text	00000030 alt_icache_flush_all
01015d44 g     O .rwdata	00000004 alt_priority_mask
01013f64 g     O .rwdata	00000048 ConfigDescr
01007fac g     F .text	00000024 __vfprintf_internal
0100f190 g     F .text	00000080 __subdf3
01018454 g     O .bss	00001000 return_buf
0100aea4 g     F .text	000000c4 __lo0bits
01015d4c g     O .rwdata	00000008 alt_alarm_list
0101277c g     F .text	00000064 _do_ctors
0100c858 g     F .text	00000014 __sigtramp
01017bc8 g     O .bss	00000004 status
010037a8 g     F .text	00000124 Hal4D13_ReadEndpointWOClearBuffer
010049f8 g     F .text	0000001c Isr_SOF
01010624 g     F .text	000000fc close
01003134 g     F .text	0000003c Hal4D13_AcquireD13
01001cf8 g     F .text	0000020c Chap9_SetConfiguration
01010de0 g     F .text	00000080 alt_load
01010110 g     F .text	00000314 __pack_d
0100463c g     F .text	00000034 fn_usb_isr
01015cf2 g     O .rwdata	00000004 strLanguage
01015d00 g     O .rwdata	00000004 ClassDeviceRequest
0100c71c g     F .text	00000014 raise
010055b8 g     F .text	00000014 free
01009d34 g     F .text	00000004 __sinit_lock_acquire
0100bac0 g     F .text	00000100 __multadd
0100ae0c g     F .text	00000028 _Bfree
01017b84 g     O .bss	00000004 usb_initialized
01002eb4 g     F .text	00000038 get_firmware_version



Disassembly of section .entry:

01000000 <__reset>:
#if NIOS2_ICACHE_SIZE > 0 && defined(ALT_ALLOW_CODE_AT_RESET) && !defined(ALT_SIM_OPTIMIZE)
    /* Assume the instruction cache size is always a power of two. */
#if NIOS2_ICACHE_SIZE > 0x8000
    movhi r2, %hi(NIOS2_ICACHE_SIZE)
#else
    movui r2, NIOS2_ICACHE_SIZE
 1000000:	00840014 	movui	r2,4096
#endif

0:
    initi r2
 1000004:	1001483a 	initi	r2
    addi r2, r2, -NIOS2_ICACHE_LINE_SIZE
 1000008:	10bff804 	addi	r2,r2,-32
    bgt r2, zero, 0b
 100000c:	00bffd16 	blt	zero,r2,1000004 <__reset+0x4>
 * Jump to the _start entry point in the .text section if reset code
 * is allowed or if optimizing for RTL simulation.
 */
#if defined(ALT_ALLOW_CODE_AT_RESET) || defined(ALT_SIM_OPTIMIZE)
    /* Jump to the _start entry point in the .text section. */
    movhi r1, %hi(_start)
 1000010:	00404034 	movhi	at,256
    ori r1, r1, %lo(_start)
 1000014:	08406e14 	ori	at,at,440
    jmp r1
 1000018:	0800683a 	jmp	at
 100001c:	00000000 	call	0 <__alt_mem_onchip_memory2_0>

Disassembly of section .exceptions:

01000020 <alt_exception>:
         * Process an exception.  For all exceptions we must preserve all
         * caller saved registers on the stack (See the Nios2 ABI
         * documentation for details).
         */

        addi  sp, sp, -76
 1000020:	deffed04 	addi	sp,sp,-76

#endif

#endif

        stw   ra,  0(sp)
 1000024:	dfc00015 	stw	ra,0(sp)
        /*
         * Leave a gap in the stack frame at 4(sp) for the muldiv handler to
         * store zero into.
         */

        stw   r1,   8(sp)
 1000028:	d8400215 	stw	at,8(sp)
        stw   r2,  12(sp)
 100002c:	d8800315 	stw	r2,12(sp)
        stw   r3,  16(sp)
 1000030:	d8c00415 	stw	r3,16(sp)
        stw   r4,  20(sp)
 1000034:	d9000515 	stw	r4,20(sp)
        stw   r5,  24(sp)
 1000038:	d9400615 	stw	r5,24(sp)
        stw   r6,  28(sp)
 100003c:	d9800715 	stw	r6,28(sp)
        stw   r7,  32(sp)
 1000040:	d9c00815 	stw	r7,32(sp)

        rdctl r5, estatus
 1000044:	000b307a 	rdctl	r5,estatus

        stw   r8,  36(sp)
 1000048:	da000915 	stw	r8,36(sp)
        stw   r9,  40(sp)
 100004c:	da400a15 	stw	r9,40(sp)
        stw   r10, 44(sp)
 1000050:	da800b15 	stw	r10,44(sp)
        stw   r11, 48(sp)
 1000054:	dac00c15 	stw	r11,48(sp)
        stw   r12, 52(sp)
 1000058:	db000d15 	stw	r12,52(sp)
        stw   r13, 56(sp)
 100005c:	db400e15 	stw	r13,56(sp)
        stw   r14, 60(sp)
 1000060:	db800f15 	stw	r14,60(sp)
        stw   r15, 64(sp)
 1000064:	dbc01015 	stw	r15,64(sp)
        /*
         * ea-4 contains the address of the instruction being executed
         * when the exception occured. For interrupt exceptions, we will
         * will be re-issue the isntruction. Store it in 72(sp)
         */
        stw   r5,  68(sp)  /* estatus */
 1000068:	d9401115 	stw	r5,68(sp)
        addi  r15, ea, -4  /* instruction that caused exception */
 100006c:	ebffff04 	addi	r15,ea,-4
        stw   r15,  72(sp)
 1000070:	dbc01215 	stw	r15,72(sp)
#else
        /*
         * Test to see if the exception was a software exception or caused 
         * by an external interrupt, and vector accordingly.
         */
        rdctl r4, ipending
 1000074:	0009313a 	rdctl	r4,ipending
        andi  r2, r5, 1
 1000078:	2880004c 	andi	r2,r5,1
        beq   r2, zero, .Lnot_irq
 100007c:	10000326 	beq	r2,zero,100008c <alt_exception+0x6c>
        beq   r4, zero, .Lnot_irq
 1000080:	20000226 	beq	r4,zero,100008c <alt_exception+0x6c>
        /*
         * Now that all necessary registers have been preserved, call 
         * alt_irq_handler() to process the interrupts.
         */

        call alt_irq_handler
 1000084:	10000ec0 	call	10000ec <alt_irq_handler>

        .section .exceptions.irqreturn, "xa"

        br    .Lexception_exit
 1000088:	00000306 	br	1000098 <alt_exception+0x78>
         * upon completion, so we write ea (address of instruction *after*
         * the one where the exception occured) into 72(sp). The actual
         * instruction that caused the exception is written in r2, which these
         * handlers will utilize.
         */
        stw   ea,  72(sp)  /* Don't re-issue */
 100008c:	df401215 	stw	ea,72(sp)
        ldw   r2, -4(ea)   /* Instruction that caused exception */
 1000090:	e8bfff17 	ldw	r2,-4(ea)
#ifdef NIOS2_HAS_DEBUG_STUB
       /*
        *  Either tell the user now (if there is a debugger attached) or go into
        *  the debug monitor which will loop until a debugger is attached.
        */
        break
 1000094:	003da03a 	break	0
        /* 
         * Restore the saved registers, so that all general purpose registers 
         * have been restored to their state at the time the interrupt occured.
         */

        ldw   r5,  68(sp)
 1000098:	d9401117 	ldw	r5,68(sp)
        ldw   ea,  72(sp)  /* This becomes the PC once eret is executed */
 100009c:	df401217 	ldw	ea,72(sp)
        ldw   ra,   0(sp)
 10000a0:	dfc00017 	ldw	ra,0(sp)

        wrctl estatus, r5
 10000a4:	2801707a 	wrctl	estatus,r5

        ldw   r1,   8(sp)
 10000a8:	d8400217 	ldw	at,8(sp)
        ldw   r2,  12(sp)
 10000ac:	d8800317 	ldw	r2,12(sp)
        ldw   r3,  16(sp)
 10000b0:	d8c00417 	ldw	r3,16(sp)
        ldw   r4,  20(sp)
 10000b4:	d9000517 	ldw	r4,20(sp)
        ldw   r5,  24(sp)
 10000b8:	d9400617 	ldw	r5,24(sp)
        ldw   r6,  28(sp)
 10000bc:	d9800717 	ldw	r6,28(sp)
        ldw   r7,  32(sp)
 10000c0:	d9c00817 	ldw	r7,32(sp)
#ifdef ALT_STACK_CHECK
        ldw   et, %gprel(alt_exception_old_stack_limit)(gp)
#endif
#endif

        ldw   r8,  36(sp)
 10000c4:	da000917 	ldw	r8,36(sp)
        ldw   r9,  40(sp)
 10000c8:	da400a17 	ldw	r9,40(sp)
        ldw   r10, 44(sp)
 10000cc:	da800b17 	ldw	r10,44(sp)
        ldw   r11, 48(sp)
 10000d0:	dac00c17 	ldw	r11,48(sp)
        ldw   r12, 52(sp)
 10000d4:	db000d17 	ldw	r12,52(sp)
        ldw   r13, 56(sp)
 10000d8:	db400e17 	ldw	r13,56(sp)
        ldw   r14, 60(sp)
 10000dc:	db800f17 	ldw	r14,60(sp)
        ldw   r15, 64(sp)
 10000e0:	dbc01017 	ldw	r15,64(sp)
#endif

        ldw   sp,  76(sp)

#else
        addi  sp, sp, 76
 10000e4:	dec01304 	addi	sp,sp,76

        /*
         * Return to the interrupted instruction.
         */

        eret
 10000e8:	ef80083a 	eret

010000ec <alt_irq_handler>:
 * instruction is present if the macro ALT_CI_INTERRUPT_VECTOR defined.
 */

void alt_irq_handler (void) __attribute__ ((section (".exceptions")));
void alt_irq_handler (void)
{
 10000ec:	defff904 	addi	sp,sp,-28
 10000f0:	dfc00615 	stw	ra,24(sp)
 10000f4:	df000515 	stw	fp,20(sp)
 10000f8:	df000504 	addi	fp,sp,20
#ifndef NIOS2_EIC_PRESENT
static ALT_INLINE alt_u32 ALT_ALWAYS_INLINE alt_irq_pending (void)
{
  alt_u32 active;

  NIOS2_READ_IPENDING (active);
 10000fc:	0005313a 	rdctl	r2,ipending
 1000100:	e0bffc15 	stw	r2,-16(fp)

  return active;
 1000104:	e0bffc17 	ldw	r2,-16(fp)
   * Consider the case where the high priority interupt is asserted during
   * the interrupt entry sequence for a lower priority interrupt to see why
   * this is the case.
   */

  active = alt_irq_pending ();
 1000108:	e0bfff15 	stw	r2,-4(fp)

  do
  {
    i = 0;
 100010c:	e03ffd15 	stw	zero,-12(fp)
    mask = 1;
 1000110:	00800044 	movi	r2,1
 1000114:	e0bffe15 	stw	r2,-8(fp)
     * called to clear the interrupt condition.
     */

    do
    {
      if (active & mask)
 1000118:	e0ffff17 	ldw	r3,-4(fp)
 100011c:	e0bffe17 	ldw	r2,-8(fp)
 1000120:	1884703a 	and	r2,r3,r2
 1000124:	1005003a 	cmpeq	r2,r2,zero
 1000128:	1000171e 	bne	r2,zero,1000188 <alt_irq_handler+0x9c>
      { 
#ifdef ALT_ENHANCED_INTERRUPT_API_PRESENT
        alt_irq[i].handler(alt_irq[i].context); 
#else
        alt_irq[i].handler(alt_irq[i].context, i); 
 100012c:	e0bffd17 	ldw	r2,-12(fp)
 1000130:	00c040b4 	movhi	r3,258
 1000134:	18e51504 	addi	r3,r3,-27564
 1000138:	100490fa 	slli	r2,r2,3
 100013c:	10c5883a 	add	r2,r2,r3
 1000140:	11800017 	ldw	r6,0(r2)
 1000144:	e0bffd17 	ldw	r2,-12(fp)
 1000148:	00c040b4 	movhi	r3,258
 100014c:	18e51504 	addi	r3,r3,-27564
 1000150:	100490fa 	slli	r2,r2,3
 1000154:	10c5883a 	add	r2,r2,r3
 1000158:	10800104 	addi	r2,r2,4
 100015c:	11000017 	ldw	r4,0(r2)
 1000160:	e17ffd17 	ldw	r5,-12(fp)
 1000164:	303ee83a 	callr	r6
#ifndef NIOS2_EIC_PRESENT
static ALT_INLINE alt_u32 ALT_ALWAYS_INLINE alt_irq_pending (void)
{
  alt_u32 active;

  NIOS2_READ_IPENDING (active);
 1000168:	0005313a 	rdctl	r2,ipending
 100016c:	e0bffb15 	stw	r2,-20(fp)

  return active;
 1000170:	e0bffb17 	ldw	r2,-20(fp)
      mask <<= 1;
      i++;

    } while (1);

    active = alt_irq_pending ();
 1000174:	e0bfff15 	stw	r2,-4(fp)
    
  } while (active);
 1000178:	e0bfff17 	ldw	r2,-4(fp)
 100017c:	1004c03a 	cmpne	r2,r2,zero
 1000180:	103fe21e 	bne	r2,zero,100010c <alt_irq_handler+0x20>
 1000184:	00000706 	br	10001a4 <alt_irq_handler+0xb8>
#else
        alt_irq[i].handler(alt_irq[i].context, i); 
#endif
        break;
      }
      mask <<= 1;
 1000188:	e0bffe17 	ldw	r2,-8(fp)
 100018c:	1085883a 	add	r2,r2,r2
 1000190:	e0bffe15 	stw	r2,-8(fp)
      i++;
 1000194:	e0bffd17 	ldw	r2,-12(fp)
 1000198:	10800044 	addi	r2,r2,1
 100019c:	e0bffd15 	stw	r2,-12(fp)

    } while (1);
 10001a0:	003fdd06 	br	1000118 <alt_irq_handler+0x2c>
  /*
   * Notify the operating system that interrupt processing is complete.
   */ 

  ALT_OS_INT_EXIT();
}
 10001a4:	e037883a 	mov	sp,fp
 10001a8:	dfc00117 	ldw	ra,4(sp)
 10001ac:	df000017 	ldw	fp,0(sp)
 10001b0:	dec00204 	addi	sp,sp,8
 10001b4:	f800283a 	ret

Disassembly of section .text:

010001b8 <_start>:

    /* Assume the data cache size is always a power of two. */
#if NIOS2_DCACHE_SIZE > 0x8000
    movhi r2, %hi(NIOS2_DCACHE_SIZE)
#else
    movui r2, NIOS2_DCACHE_SIZE
 10001b8:	00820014 	movui	r2,2048
#endif

0:
    initd 0(r2)
 10001bc:	10000033 	initd	0(r2)
    addi r2, r2, -NIOS2_DCACHE_LINE_SIZE
 10001c0:	10bff804 	addi	r2,r2,-32
    bgt r2, zero, 0b
 10001c4:	00bffd16 	blt	zero,r2,10001bc <_start+0x4>
#if (NIOS2_NUM_OF_SHADOW_REG_SETS == 0)    
    /*
     * Now that the caches are initialized, set up the stack pointer.
     * The value provided by the linker is assumed to be correctly aligned.
     */
    movhi sp, %hi(__alt_stack_pointer)
 10001c8:	06c06034 	movhi	sp,384
    ori sp, sp, %lo(__alt_stack_pointer)
 10001cc:	dec00014 	ori	sp,sp,0

    /* Set up the global pointer. */
    movhi gp, %hi(_gp)
 10001d0:	06804074 	movhi	gp,257
    ori gp, gp, %lo(_gp)
 10001d4:	d6b73814 	ori	gp,gp,56544
 */
#ifndef ALT_SIM_OPTIMIZE
    /* Log that the BSS is about to be cleared. */
    ALT_LOG_PUTS(alt_log_msg_bss)

    movhi r2, %hi(__bss_start)
 10001d8:	00804074 	movhi	r2,257
    ori r2, r2, %lo(__bss_start)
 10001dc:	109ee114 	ori	r2,r2,31620

    movhi r3, %hi(__bss_end)
 10001e0:	00c04074 	movhi	r3,257
    ori r3, r3, %lo(__bss_end)
 10001e4:	18e5b914 	ori	r3,r3,38628

    beq r2, r3, 1f
 10001e8:	10c00326 	beq	r2,r3,10001f8 <_start+0x40>

0:
    stw zero, (r2)
 10001ec:	10000015 	stw	zero,0(r2)
    addi r2, r2, 4
 10001f0:	10800104 	addi	r2,r2,4
    bltu r2, r3, 0b
 10001f4:	10fffd36 	bltu	r2,r3,10001ec <_start+0x34>
     * section aren't defined until alt_load() has been called).
     */
    mov   et, zero
#endif

    call alt_load
 10001f8:	1010de00 	call	1010de0 <alt_load>

    /* Log that alt_main is about to be called. */
    ALT_LOG_PUTS(alt_log_msg_alt_main)

    /* Call the C entry point. It should never return. */
    call alt_main
 10001fc:	101101c0 	call	101101c <alt_main>

01000200 <alt_after_alt_main>:

    /* Wait in infinite loop in case alt_main does return. */
alt_after_alt_main:
    br alt_after_alt_main
 1000200:	003fff06 	br	1000200 <alt_after_alt_main>

01000204 <main>:
#include "../Bomberman_bsp/HAL/inc/sys/alt_timestamp.h"

#include <assert.h>
int init_usb();

int main() {
 1000204:	deffd504 	addi	sp,sp,-172
 1000208:	dfc02a15 	stw	ra,168(sp)
 100020c:	df002915 	stw	fp,164(sp)
 1000210:	df002904 	addi	fp,sp,164
	int bytes_expected;
	int bytes_recvd;
	int total_recvd;
	unsigned char data;
	unsigned char msgdata;
	unsigned char message_tx[] = "EECE381 is so much fun";
 1000214:	00c04074 	movhi	r3,257
 1000218:	18cd0a04 	addi	r3,r3,13352
 100021c:	1880000b 	ldhu	r2,0(r3)
 1000220:	e0bfe08d 	sth	r2,-126(fp)
 1000224:	1880008b 	ldhu	r2,2(r3)
 1000228:	e0bfe10d 	sth	r2,-124(fp)
 100022c:	1880010b 	ldhu	r2,4(r3)
 1000230:	e0bfe18d 	sth	r2,-122(fp)
 1000234:	1880018b 	ldhu	r2,6(r3)
 1000238:	e0bfe20d 	sth	r2,-120(fp)
 100023c:	1880020b 	ldhu	r2,8(r3)
 1000240:	e0bfe28d 	sth	r2,-118(fp)
 1000244:	1880028b 	ldhu	r2,10(r3)
 1000248:	e0bfe30d 	sth	r2,-116(fp)
 100024c:	1880030b 	ldhu	r2,12(r3)
 1000250:	e0bfe38d 	sth	r2,-114(fp)
 1000254:	1880038b 	ldhu	r2,14(r3)
 1000258:	e0bfe40d 	sth	r2,-112(fp)
 100025c:	1880040b 	ldhu	r2,16(r3)
 1000260:	e0bfe48d 	sth	r2,-110(fp)
 1000264:	1880048b 	ldhu	r2,18(r3)
 1000268:	e0bfe50d 	sth	r2,-108(fp)
 100026c:	1880050b 	ldhu	r2,20(r3)
 1000270:	e0bfe58d 	sth	r2,-106(fp)
 1000274:	18800583 	ldbu	r2,22(r3)
 1000278:	e0bfe605 	stb	r2,-104(fp)
	unsigned char message_rx[100];
	int id;
	int msg_length;

	printf("USB Initialization\n");
 100027c:	01004074 	movhi	r4,257
 1000280:	210cbd04 	addi	r4,r4,13044
 1000284:	1005f940 	call	1005f94 <puts>
	alt_up_usb_dev * usb_dev;
	usb_dev = alt_up_usb_open_dev(USB_0_NAME);
 1000288:	01004074 	movhi	r4,257
 100028c:	210cc204 	addi	r4,r4,13064
 1000290:	10123440 	call	1012344 <alt_up_usb_open_dev>
 1000294:	e0bfd915 	stw	r2,-156(fp)
	assert(usb_dev);
 1000298:	e0bfd917 	ldw	r2,-156(fp)
 100029c:	1004c03a 	cmpne	r2,r2,zero
 10002a0:	1000071e 	bne	r2,zero,10002c0 <main+0xbc>
 10002a4:	01004074 	movhi	r4,257
 10002a8:	210cc504 	addi	r4,r4,13076
 10002ac:	014006c4 	movi	r5,27
 10002b0:	d1a00004 	addi	r6,gp,-32768
 10002b4:	01c04074 	movhi	r7,257
 10002b8:	39ccc904 	addi	r7,r7,13092
 10002bc:	10053cc0 	call	10053cc <__assert_func>
	usb_device_init(usb_dev, USB_0_IRQ);
 10002c0:	e13fd917 	ldw	r4,-156(fp)
 10002c4:	01400084 	movi	r5,2
 10002c8:	1000afc0 	call	1000afc <usb_device_init>

	printf("Polling USB device.  Run middleman now!\n");
 10002cc:	01004074 	movhi	r4,257
 10002d0:	210ccb04 	addi	r4,r4,13100
 10002d4:	1005f940 	call	1005f94 <puts>
	alt_timestamp_start();
 10002d8:	10121dc0 	call	10121dc <alt_timestamp_start>
	int clocks = 0;
 10002dc:	e03fd815 	stw	zero,-160(fp)
	while (clocks < 50000000 * 10) {
 10002e0:	00000306 	br	10002f0 <main+0xec>
		clocks = alt_timestamp();
 10002e4:	10122800 	call	1012280 <alt_timestamp>
 10002e8:	e0bfd815 	stw	r2,-160(fp)
		usb_device_poll();
 10002ec:	1000be40 	call	1000be4 <usb_device_poll>
	usb_device_init(usb_dev, USB_0_IRQ);

	printf("Polling USB device.  Run middleman now!\n");
	alt_timestamp_start();
	int clocks = 0;
	while (clocks < 50000000 * 10) {
 10002f0:	e0ffd817 	ldw	r3,-160(fp)
 10002f4:	00877374 	movhi	r2,7629
 10002f8:	10993fc4 	addi	r2,r2,25855
 10002fc:	10fff90e 	bge	r2,r3,10002e4 <main+0xe0>
		clocks = alt_timestamp();
		usb_device_poll();
	}
	printf("Done polling USB\n");
 1000300:	01004074 	movhi	r4,257
 1000304:	210cd504 	addi	r4,r4,13140
 1000308:	1005f940 	call	1005f94 <puts>

	printf("Sending the message to the Middleman\n");
 100030c:	01004074 	movhi	r4,257
 1000310:	210cda04 	addi	r4,r4,13160
 1000314:	1005f940 	call	1005f94 <puts>

	// Start with the number of bytes in our message
	unsigned char message_length = strlen(message_tx);
 1000318:	e13fe084 	addi	r4,fp,-126
 100031c:	10060180 	call	1006018 <strlen>
 1000320:	e0bfff45 	stb	r2,-3(fp)
	usb_device_send(&message_length, 1);
 1000324:	e13fff44 	addi	r4,fp,-3
 1000328:	01400044 	movi	r5,1
 100032c:	10007680 	call	1000768 <usb_device_send>

	// Now send the actual message to the Middleman
	usb_device_send(message_tx, message_length);
 1000330:	e0bfff43 	ldbu	r2,-3(fp)
 1000334:	11403fcc 	andi	r5,r2,255
 1000338:	e13fe084 	addi	r4,fp,-126
 100033c:	10007680 	call	1000768 <usb_device_send>

	// Now receive the message from the Middleman
	printf("Waiting for data to come back from the Middleman\n");
 1000340:	01004074 	movhi	r4,257
 1000344:	210ce404 	addi	r4,r4,13200
 1000348:	1005f940 	call	1005f94 <puts>
while(1){
	// First byte is the number of characters in our message
	bytes_expected = 1;
 100034c:	00800044 	movi	r2,1
 1000350:	e0bfde15 	stw	r2,-136(fp)
	total_recvd = 0;
 1000354:	e03fdc15 	stw	zero,-144(fp)
	data = 0;
 1000358:	e03fe005 	stb	zero,-128(fp)
	msgdata = 0;
 100035c:	e03fe045 	stb	zero,-127(fp)

	//finds id
	while (total_recvd < bytes_expected) {
 1000360:	00000b06 	br	1000390 <main+0x18c>

			bytes_recvd = usb_device_recv(&data, 1);
 1000364:	e13fe004 	addi	r4,fp,-128
 1000368:	01400044 	movi	r5,1
 100036c:	10008980 	call	1000898 <usb_device_recv>
 1000370:	e0bfdd15 	stw	r2,-140(fp)

			if (bytes_recvd > 0){
 1000374:	e0bfdd17 	ldw	r2,-140(fp)
 1000378:	10800050 	cmplti	r2,r2,1
 100037c:	1000041e 	bne	r2,zero,1000390 <main+0x18c>
				total_recvd += bytes_recvd;
 1000380:	e0bfdc17 	ldw	r2,-144(fp)
 1000384:	e0ffdd17 	ldw	r3,-140(fp)
 1000388:	10c5883a 	add	r2,r2,r3
 100038c:	e0bfdc15 	stw	r2,-144(fp)
	total_recvd = 0;
	data = 0;
	msgdata = 0;

	//finds id
	while (total_recvd < bytes_expected) {
 1000390:	e0ffdc17 	ldw	r3,-144(fp)
 1000394:	e0bfde17 	ldw	r2,-136(fp)
 1000398:	18bff216 	blt	r3,r2,1000364 <main+0x160>
			if (bytes_recvd > 0){
				total_recvd += bytes_recvd;

			}
		}
	id = data;
 100039c:	e0bfe003 	ldbu	r2,-128(fp)
 10003a0:	10803fcc 	andi	r2,r2,255
 10003a4:	e0bfdb15 	stw	r2,-148(fp)
	printf("Id is: %i \t", id);
 10003a8:	01004074 	movhi	r4,257
 10003ac:	210cf104 	addi	r4,r4,13252
 10003b0:	e17fdb17 	ldw	r5,-148(fp)
 10003b4:	1005e580 	call	1005e58 <printf>


	total_recvd = 0;
 10003b8:	e03fdc15 	stw	zero,-144(fp)
//finds msg size
	while (total_recvd < bytes_expected) {
 10003bc:	00000b06 	br	10003ec <main+0x1e8>

		bytes_recvd = usb_device_recv(&msgdata, 1);
 10003c0:	e13fe044 	addi	r4,fp,-127
 10003c4:	01400044 	movi	r5,1
 10003c8:	10008980 	call	1000898 <usb_device_recv>
 10003cc:	e0bfdd15 	stw	r2,-140(fp)

		if (bytes_recvd > 0){
 10003d0:	e0bfdd17 	ldw	r2,-140(fp)
 10003d4:	10800050 	cmplti	r2,r2,1
 10003d8:	1000041e 	bne	r2,zero,10003ec <main+0x1e8>
			total_recvd += bytes_recvd;
 10003dc:	e0bfdc17 	ldw	r2,-144(fp)
 10003e0:	e0ffdd17 	ldw	r3,-140(fp)
 10003e4:	10c5883a 	add	r2,r2,r3
 10003e8:	e0bfdc15 	stw	r2,-144(fp)
	printf("Id is: %i \t", id);


	total_recvd = 0;
//finds msg size
	while (total_recvd < bytes_expected) {
 10003ec:	e0ffdc17 	ldw	r3,-144(fp)
 10003f0:	e0bfde17 	ldw	r2,-136(fp)
 10003f4:	18bff216 	blt	r3,r2,10003c0 <main+0x1bc>
		if (bytes_recvd > 0){
			total_recvd += bytes_recvd;

		}
	}
	msg_length = msgdata;
 10003f8:	e0bfe043 	ldbu	r2,-127(fp)
 10003fc:	10803fcc 	andi	r2,r2,255
 1000400:	e0bfda15 	stw	r2,-152(fp)
	printf("Message Length is: %i \t", msg_length);
 1000404:	01004074 	movhi	r4,257
 1000408:	210cf404 	addi	r4,r4,13264
 100040c:	e17fda17 	ldw	r5,-152(fp)
 1000410:	1005e580 	call	1005e58 <printf>

	int num_to_receive = (int) data;
 1000414:	e0bfe003 	ldbu	r2,-128(fp)
 1000418:	10803fcc 	andi	r2,r2,255
 100041c:	e0bfd715 	stw	r2,-164(fp)
	printf("About to receive %d characters:\n", num_to_receive);
 1000420:	01004074 	movhi	r4,257
 1000424:	210cfa04 	addi	r4,r4,13288
 1000428:	e17fd717 	ldw	r5,-164(fp)
 100042c:	1005e580 	call	1005e58 <printf>

	bytes_expected = num_to_receive;
 1000430:	e0bfd717 	ldw	r2,-164(fp)
 1000434:	e0bfde15 	stw	r2,-136(fp)
	//bytes_expected = 2;

	total_recvd = 0;
 1000438:	e03fdc15 	stw	zero,-144(fp)
	while (total_recvd < num_to_receive) {
 100043c:	00000d06 	br	1000474 <main+0x270>
		bytes_recvd = usb_device_recv(message_rx + total_recvd, 1);
 1000440:	e0bfdc17 	ldw	r2,-144(fp)
 1000444:	e13fe644 	addi	r4,fp,-103
 1000448:	2089883a 	add	r4,r4,r2
 100044c:	01400044 	movi	r5,1
 1000450:	10008980 	call	1000898 <usb_device_recv>
 1000454:	e0bfdd15 	stw	r2,-140(fp)
		if (bytes_recvd > 0)
 1000458:	e0bfdd17 	ldw	r2,-140(fp)
 100045c:	10800050 	cmplti	r2,r2,1
 1000460:	1000041e 	bne	r2,zero,1000474 <main+0x270>
			total_recvd += bytes_recvd;
 1000464:	e0bfdc17 	ldw	r2,-144(fp)
 1000468:	e0ffdd17 	ldw	r3,-140(fp)
 100046c:	10c5883a 	add	r2,r2,r3
 1000470:	e0bfdc15 	stw	r2,-144(fp)

	bytes_expected = num_to_receive;
	//bytes_expected = 2;

	total_recvd = 0;
	while (total_recvd < num_to_receive) {
 1000474:	e0ffdc17 	ldw	r3,-144(fp)
 1000478:	e0bfd717 	ldw	r2,-164(fp)
 100047c:	18bff016 	blt	r3,r2,1000440 <main+0x23c>
		bytes_recvd = usb_device_recv(message_rx + total_recvd, 1);
		if (bytes_recvd > 0)
			total_recvd += bytes_recvd;
	}

	for (i = 0; i < num_to_receive; i++) {
 1000480:	e03fdf15 	stw	zero,-132(fp)
 1000484:	00000b06 	br	10004b4 <main+0x2b0>
		//printf("%i\t", (int)message_rx[i]);
		printf("%c\t", message_rx[i]);
 1000488:	e0ffdf17 	ldw	r3,-132(fp)
 100048c:	e0bfe644 	addi	r2,fp,-103
 1000490:	10c5883a 	add	r2,r2,r3
 1000494:	10800003 	ldbu	r2,0(r2)
 1000498:	11403fcc 	andi	r5,r2,255
 100049c:	01004074 	movhi	r4,257
 10004a0:	210d0304 	addi	r4,r4,13324
 10004a4:	1005e580 	call	1005e58 <printf>
		bytes_recvd = usb_device_recv(message_rx + total_recvd, 1);
		if (bytes_recvd > 0)
			total_recvd += bytes_recvd;
	}

	for (i = 0; i < num_to_receive; i++) {
 10004a8:	e0bfdf17 	ldw	r2,-132(fp)
 10004ac:	10800044 	addi	r2,r2,1
 10004b0:	e0bfdf15 	stw	r2,-132(fp)
 10004b4:	e0ffdf17 	ldw	r3,-132(fp)
 10004b8:	e0bfd717 	ldw	r2,-164(fp)
 10004bc:	18bff216 	blt	r3,r2,1000488 <main+0x284>
		//printf("%i\t", (int)message_rx[i]);
		printf("%c\t", message_rx[i]);
	}

	printf("\n");
 10004c0:	01000284 	movi	r4,10
 10004c4:	1005ed00 	call	1005ed0 <putchar>
	printf("Message Echo Complete\n");
 10004c8:	01004074 	movhi	r4,257
 10004cc:	210d0404 	addi	r4,r4,13328
 10004d0:	1005f940 	call	1005f94 <puts>


}
 10004d4:	003f9d06 	br	100034c <main+0x148>

010004d8 <init_usb>:
	//return 0;
}

int init_usb() {
 10004d8:	defffd04 	addi	sp,sp,-12
 10004dc:	dfc00215 	stw	ra,8(sp)
 10004e0:	df000115 	stw	fp,4(sp)
 10004e4:	df000104 	addi	fp,sp,4

	alt_up_usb_dev * usb_dev;
	usb_dev = alt_up_usb_open_dev(USB_0_NAME);
 10004e8:	01004074 	movhi	r4,257
 10004ec:	210cc204 	addi	r4,r4,13064
 10004f0:	10123440 	call	1012344 <alt_up_usb_open_dev>
 10004f4:	e0bfff15 	stw	r2,-4(fp)
	assert(usb_dev);
 10004f8:	e0bfff17 	ldw	r2,-4(fp)
 10004fc:	1004c03a 	cmpne	r2,r2,zero
 1000500:	1000081e 	bne	r2,zero,1000524 <init_usb+0x4c>
 1000504:	01004074 	movhi	r4,257
 1000508:	210cc504 	addi	r4,r4,13076
 100050c:	01401cc4 	movi	r5,115
 1000510:	01804074 	movhi	r6,257
 1000514:	318d1004 	addi	r6,r6,13376
 1000518:	01c04074 	movhi	r7,257
 100051c:	39ccc904 	addi	r7,r7,13092
 1000520:	10053cc0 	call	10053cc <__assert_func>
	usb_device_init(usb_dev, USB_0_IRQ);
 1000524:	e13fff17 	ldw	r4,-4(fp)
 1000528:	01400084 	movi	r5,2
 100052c:	1000afc0 	call	1000afc <usb_device_init>
	printf("Polling USB device.\nInstall the USB driver now.\n");
 1000530:	01004074 	movhi	r4,257
 1000534:	210d1304 	addi	r4,r4,13388
 1000538:	1005f940 	call	1005f94 <puts>
	while (1) {
		usb_device_poll();
 100053c:	1000be40 	call	1000be4 <usb_device_poll>

	}
 1000540:	003ffe06 	br	100053c <init_usb+0x64>

01000544 <usb_register_recv_callback>:
void (*usb_send_cb)(void*) = NULL;
void * usb_send_cb_context;

const int packet_size = 64;

void usb_register_recv_callback(void (*fcn)(void*), void * context) {
 1000544:	defffd04 	addi	sp,sp,-12
 1000548:	df000215 	stw	fp,8(sp)
 100054c:	df000204 	addi	fp,sp,8
 1000550:	e13ffe15 	stw	r4,-8(fp)
 1000554:	e17fff15 	stw	r5,-4(fp)
	usb_recv_cb = fcn;
 1000558:	e0bffe17 	ldw	r2,-8(fp)
 100055c:	d0a7aa15 	stw	r2,-24920(gp)
	usb_recv_cb_context = context;
 1000560:	e0bfff17 	ldw	r2,-4(fp)
 1000564:	d0a7b515 	stw	r2,-24876(gp)
}
 1000568:	e037883a 	mov	sp,fp
 100056c:	df000017 	ldw	fp,0(sp)
 1000570:	dec00104 	addi	sp,sp,4
 1000574:	f800283a 	ret

01000578 <usb_register_send_callback>:

void usb_register_send_callback(void (*fcn)(void*), void * context) {
 1000578:	defffd04 	addi	sp,sp,-12
 100057c:	df000215 	stw	fp,8(sp)
 1000580:	df000204 	addi	fp,sp,8
 1000584:	e13ffe15 	stw	r4,-8(fp)
 1000588:	e17fff15 	stw	r5,-4(fp)
	usb_send_cb = fcn;
 100058c:	e0bffe17 	ldw	r2,-8(fp)
 1000590:	d0a7ab15 	stw	r2,-24916(gp)
	usb_send_cb_context = context;
 1000594:	e0bfff17 	ldw	r2,-4(fp)
 1000598:	d0a7b415 	stw	r2,-24880(gp)
}
 100059c:	e037883a 	mov	sp,fp
 10005a0:	df000017 	ldw	fp,0(sp)
 10005a4:	dec00104 	addi	sp,sp,4
 10005a8:	f800283a 	ret

010005ac <usb_recv_queue_push>:

void usb_recv_queue_push(unsigned char * data, unsigned int len) {
 10005ac:	defff904 	addi	sp,sp,-28
 10005b0:	dfc00615 	stw	ra,24(sp)
 10005b4:	df000515 	stw	fp,20(sp)
 10005b8:	df000504 	addi	fp,sp,20
 10005bc:	e13ffe15 	stw	r4,-8(fp)
 10005c0:	e17fff15 	stw	r5,-4(fp)
static ALT_INLINE alt_irq_context ALT_ALWAYS_INLINE 
       alt_irq_disable_all (void)
{
  alt_irq_context context;

  NIOS2_READ_STATUS (context);
 10005c4:	0005303a 	rdctl	r2,status
 10005c8:	e0bffc15 	stw	r2,-16(fp)

  NIOS2_WRITE_STATUS (context & ~NIOS2_STATUS_PIE_MSK);
 10005cc:	e0fffc17 	ldw	r3,-16(fp)
 10005d0:	00bfff84 	movi	r2,-2
 10005d4:	1884703a 	and	r2,r3,r2
 10005d8:	1001703a 	wrctl	status,r2
  
  return context;
 10005dc:	e0bffc17 	ldw	r2,-16(fp)
	unsigned int c;
	c = alt_irq_disable_all();
 10005e0:	e0bffd15 	stw	r2,-12(fp)
	usb_fifo_push(&usb_recv_queue, data, len);
 10005e4:	d127b004 	addi	r4,gp,-24896
 10005e8:	e17ffe17 	ldw	r5,-8(fp)
 10005ec:	e1bfff17 	ldw	r6,-4(fp)
 10005f0:	10051b00 	call	10051b0 <usb_fifo_push>
	alt_irq_enable_all(c);
 10005f4:	e0bffd17 	ldw	r2,-12(fp)
 10005f8:	e0bffb15 	stw	r2,-20(fp)
  status &= ~NIOS2_STATUS_PIE_MSK;
  status |= (context & NIOS2_STATUS_PIE_MSK);
  
  NIOS2_WRITE_STATUS (status);
#else
  NIOS2_WRITE_STATUS (context);
 10005fc:	e0bffb17 	ldw	r2,-20(fp)
 1000600:	1001703a 	wrctl	status,r2
	if (usb_recv_cb)
 1000604:	d0a7aa17 	ldw	r2,-24920(gp)
 1000608:	1005003a 	cmpeq	r2,r2,zero
 100060c:	1000031e 	bne	r2,zero,100061c <usb_recv_queue_push+0x70>
		usb_recv_cb(usb_recv_cb_context);
 1000610:	d0a7aa17 	ldw	r2,-24920(gp)
 1000614:	d127b517 	ldw	r4,-24876(gp)
 1000618:	103ee83a 	callr	r2
}
 100061c:	e037883a 	mov	sp,fp
 1000620:	dfc00117 	ldw	ra,4(sp)
 1000624:	df000017 	ldw	fp,0(sp)
 1000628:	dec00204 	addi	sp,sp,8
 100062c:	f800283a 	ret

01000630 <usb_send_queue_pop>:

void usb_send_queue_pop(unsigned char ** data, unsigned int * len) {
 1000630:	defff804 	addi	sp,sp,-32
 1000634:	dfc00715 	stw	ra,28(sp)
 1000638:	df000615 	stw	fp,24(sp)
 100063c:	df000604 	addi	fp,sp,24
 1000640:	e13ffe15 	stw	r4,-8(fp)
 1000644:	e17fff15 	stw	r5,-4(fp)
static ALT_INLINE alt_irq_context ALT_ALWAYS_INLINE 
       alt_irq_disable_all (void)
{
  alt_irq_context context;

  NIOS2_READ_STATUS (context);
 1000648:	0005303a 	rdctl	r2,status
 100064c:	e0bffb15 	stw	r2,-20(fp)

  NIOS2_WRITE_STATUS (context & ~NIOS2_STATUS_PIE_MSK);
 1000650:	e0fffb17 	ldw	r3,-20(fp)
 1000654:	00bfff84 	movi	r2,-2
 1000658:	1884703a 	and	r2,r3,r2
 100065c:	1001703a 	wrctl	status,r2
  
  return context;
 1000660:	e0bffb17 	ldw	r2,-20(fp)
	unsigned int c;
	unsigned int offset;

	c = alt_irq_disable_all();
 1000664:	e0bffc15 	stw	r2,-16(fp)
	usb_fifo_pop(&usb_send_queue, data, len, &offset);
 1000668:	e1fffd04 	addi	r7,fp,-12
 100066c:	d127ae04 	addi	r4,gp,-24904
 1000670:	e17ffe17 	ldw	r5,-8(fp)
 1000674:	e1bfff17 	ldw	r6,-4(fp)
 1000678:	10052cc0 	call	10052cc <usb_fifo_pop>
	alt_irq_enable_all(c);
 100067c:	e0bffc17 	ldw	r2,-16(fp)
 1000680:	e0bffa15 	stw	r2,-24(fp)
  status &= ~NIOS2_STATUS_PIE_MSK;
  status |= (context & NIOS2_STATUS_PIE_MSK);
  
  NIOS2_WRITE_STATUS (status);
#else
  NIOS2_WRITE_STATUS (context);
 1000684:	e0bffa17 	ldw	r2,-24(fp)
 1000688:	1001703a 	wrctl	status,r2

	assert(! offset);
 100068c:	e0bffd17 	ldw	r2,-12(fp)
 1000690:	1005003a 	cmpeq	r2,r2,zero
 1000694:	1000081e 	bne	r2,zero,10006b8 <usb_send_queue_pop+0x88>
 1000698:	01004074 	movhi	r4,257
 100069c:	210d2404 	addi	r4,r4,13456
 10006a0:	01401004 	movi	r5,64
 10006a4:	01804074 	movhi	r6,257
 10006a8:	318d1f04 	addi	r6,r6,13436
 10006ac:	01c04074 	movhi	r7,257
 10006b0:	39cd2704 	addi	r7,r7,13468
 10006b4:	10053cc0 	call	10053cc <__assert_func>
}
 10006b8:	e037883a 	mov	sp,fp
 10006bc:	dfc00117 	ldw	ra,4(sp)
 10006c0:	df000017 	ldw	fp,0(sp)
 10006c4:	dec00204 	addi	sp,sp,8
 10006c8:	f800283a 	ret

010006cc <usb_recv_queue_pop>:

void usb_recv_queue_pop(unsigned char ** data, unsigned int * len) {
 10006cc:	defff804 	addi	sp,sp,-32
 10006d0:	dfc00715 	stw	ra,28(sp)
 10006d4:	df000615 	stw	fp,24(sp)
 10006d8:	df000604 	addi	fp,sp,24
 10006dc:	e13ffe15 	stw	r4,-8(fp)
 10006e0:	e17fff15 	stw	r5,-4(fp)
static ALT_INLINE alt_irq_context ALT_ALWAYS_INLINE 
       alt_irq_disable_all (void)
{
  alt_irq_context context;

  NIOS2_READ_STATUS (context);
 10006e4:	0005303a 	rdctl	r2,status
 10006e8:	e0bffb15 	stw	r2,-20(fp)

  NIOS2_WRITE_STATUS (context & ~NIOS2_STATUS_PIE_MSK);
 10006ec:	e0fffb17 	ldw	r3,-20(fp)
 10006f0:	00bfff84 	movi	r2,-2
 10006f4:	1884703a 	and	r2,r3,r2
 10006f8:	1001703a 	wrctl	status,r2
  
  return context;
 10006fc:	e0bffb17 	ldw	r2,-20(fp)
	unsigned int c;
	unsigned int offset;

	c = alt_irq_disable_all();
 1000700:	e0bffc15 	stw	r2,-16(fp)
	usb_fifo_pop(&usb_recv_queue, data, len, &offset);
 1000704:	e1fffd04 	addi	r7,fp,-12
 1000708:	d127b004 	addi	r4,gp,-24896
 100070c:	e17ffe17 	ldw	r5,-8(fp)
 1000710:	e1bfff17 	ldw	r6,-4(fp)
 1000714:	10052cc0 	call	10052cc <usb_fifo_pop>
	alt_irq_enable_all(c);
 1000718:	e0bffc17 	ldw	r2,-16(fp)
 100071c:	e0bffa15 	stw	r2,-24(fp)
  status &= ~NIOS2_STATUS_PIE_MSK;
  status |= (context & NIOS2_STATUS_PIE_MSK);
  
  NIOS2_WRITE_STATUS (status);
#else
  NIOS2_WRITE_STATUS (context);
 1000720:	e0bffa17 	ldw	r2,-24(fp)
 1000724:	1001703a 	wrctl	status,r2

	assert(! offset);
 1000728:	e0bffd17 	ldw	r2,-12(fp)
 100072c:	1005003a 	cmpeq	r2,r2,zero
 1000730:	1000081e 	bne	r2,zero,1000754 <usb_recv_queue_pop+0x88>
 1000734:	01004074 	movhi	r4,257
 1000738:	210d2404 	addi	r4,r4,13456
 100073c:	014012c4 	movi	r5,75
 1000740:	01804074 	movhi	r6,257
 1000744:	318d2a04 	addi	r6,r6,13480
 1000748:	01c04074 	movhi	r7,257
 100074c:	39cd2704 	addi	r7,r7,13468
 1000750:	10053cc0 	call	10053cc <__assert_func>
}
 1000754:	e037883a 	mov	sp,fp
 1000758:	dfc00117 	ldw	ra,4(sp)
 100075c:	df000017 	ldw	fp,0(sp)
 1000760:	dec00204 	addi	sp,sp,8
 1000764:	f800283a 	ret

01000768 <usb_device_send>:

void usb_device_send(unsigned char * buf, unsigned int len) {
 1000768:	defff604 	addi	sp,sp,-40
 100076c:	dfc00915 	stw	ra,36(sp)
 1000770:	df000815 	stw	fp,32(sp)
 1000774:	df000804 	addi	fp,sp,32
 1000778:	e13ffe15 	stw	r4,-8(fp)
 100077c:	e17fff15 	stw	r5,-4(fp)
static ALT_INLINE alt_irq_context ALT_ALWAYS_INLINE 
       alt_irq_disable_all (void)
{
  alt_irq_context context;

  NIOS2_READ_STATUS (context);
 1000780:	0005303a 	rdctl	r2,status
 1000784:	e0bff915 	stw	r2,-28(fp)

  NIOS2_WRITE_STATUS (context & ~NIOS2_STATUS_PIE_MSK);
 1000788:	e0fff917 	ldw	r3,-28(fp)
 100078c:	00bfff84 	movi	r2,-2
 1000790:	1884703a 	and	r2,r3,r2
 1000794:	1001703a 	wrctl	status,r2
  
  return context;
 1000798:	e0bff917 	ldw	r2,-28(fp)
	unsigned int c;
	c = alt_irq_disable_all();
 100079c:	e0bffd15 	stw	r2,-12(fp)

	unsigned int remaining = len;
 10007a0:	e0bfff17 	ldw	r2,-4(fp)
 10007a4:	e0bffc15 	stw	r2,-16(fp)
	while (remaining) {
 10007a8:	00002f06 	br	1000868 <usb_device_send+0x100>
		// This packet size
		int size = packet_size;
 10007ac:	d0a00217 	ldw	r2,-32760(gp)
 10007b0:	e0bffb15 	stw	r2,-20(fp)
		if (remaining < size)
 10007b4:	e0fffb17 	ldw	r3,-20(fp)
 10007b8:	e0bffc17 	ldw	r2,-16(fp)
 10007bc:	10c0022e 	bgeu	r2,r3,10007c8 <usb_device_send+0x60>
			size = remaining;
 10007c0:	e0bffc17 	ldw	r2,-16(fp)
 10007c4:	e0bffb15 	stw	r2,-20(fp)

		unsigned char * new_buf = calloc(sizeof(unsigned char), size);
 10007c8:	e17ffb17 	ldw	r5,-20(fp)
 10007cc:	01000044 	movi	r4,1
 10007d0:	10054440 	call	1005444 <calloc>
 10007d4:	e0bffa15 	stw	r2,-24(fp)
		assert(new_buf);
 10007d8:	e0bffa17 	ldw	r2,-24(fp)
 10007dc:	1004c03a 	cmpne	r2,r2,zero
 10007e0:	1000081e 	bne	r2,zero,1000804 <usb_device_send+0x9c>
 10007e4:	01004074 	movhi	r4,257
 10007e8:	210d2404 	addi	r4,r4,13456
 10007ec:	01401684 	movi	r5,90
 10007f0:	01804074 	movhi	r6,257
 10007f4:	318d2f04 	addi	r6,r6,13500
 10007f8:	01c04074 	movhi	r7,257
 10007fc:	39cd3304 	addi	r7,r7,13516
 1000800:	10053cc0 	call	10053cc <__assert_func>
		memcpy(new_buf, buf + (len - remaining), size);
 1000804:	e0ffff17 	ldw	r3,-4(fp)
 1000808:	e0bffc17 	ldw	r2,-16(fp)
 100080c:	1885c83a 	sub	r2,r3,r2
 1000810:	1007883a 	mov	r3,r2
 1000814:	e0bffe17 	ldw	r2,-8(fp)
 1000818:	1887883a 	add	r3,r3,r2
 100081c:	e1bffb17 	ldw	r6,-20(fp)
 1000820:	e0bffa17 	ldw	r2,-24(fp)
 1000824:	1009883a 	mov	r4,r2
 1000828:	180b883a 	mov	r5,r3
 100082c:	1005d200 	call	1005d20 <memcpy>
		usb_send_queue_push(new_buf, size);
 1000830:	e17ffb17 	ldw	r5,-20(fp)
 1000834:	e13ffa17 	ldw	r4,-24(fp)
 1000838:	1000a200 	call	1000a20 <usb_send_queue_push>

		if (remaining == packet_size)
 100083c:	d0a00217 	ldw	r2,-32760(gp)
 1000840:	1007883a 	mov	r3,r2
 1000844:	e0bffc17 	ldw	r2,-16(fp)
 1000848:	1880031e 	bne	r3,r2,1000858 <usb_device_send+0xf0>
			usb_send_queue_push(NULL, 0);
 100084c:	0009883a 	mov	r4,zero
 1000850:	000b883a 	mov	r5,zero
 1000854:	1000a200 	call	1000a20 <usb_send_queue_push>

		remaining -= size;
 1000858:	e0bffb17 	ldw	r2,-20(fp)
 100085c:	e0fffc17 	ldw	r3,-16(fp)
 1000860:	1885c83a 	sub	r2,r3,r2
 1000864:	e0bffc15 	stw	r2,-16(fp)
void usb_device_send(unsigned char * buf, unsigned int len) {
	unsigned int c;
	c = alt_irq_disable_all();

	unsigned int remaining = len;
	while (remaining) {
 1000868:	e0bffc17 	ldw	r2,-16(fp)
 100086c:	1004c03a 	cmpne	r2,r2,zero
 1000870:	103fce1e 	bne	r2,zero,10007ac <usb_device_send+0x44>
		if (remaining == packet_size)
			usb_send_queue_push(NULL, 0);

		remaining -= size;
	}
	alt_irq_enable_all(c);
 1000874:	e0bffd17 	ldw	r2,-12(fp)
 1000878:	e0bff815 	stw	r2,-32(fp)
  status &= ~NIOS2_STATUS_PIE_MSK;
  status |= (context & NIOS2_STATUS_PIE_MSK);
  
  NIOS2_WRITE_STATUS (status);
#else
  NIOS2_WRITE_STATUS (context);
 100087c:	e0bff817 	ldw	r2,-32(fp)
 1000880:	1001703a 	wrctl	status,r2
}
 1000884:	e037883a 	mov	sp,fp
 1000888:	dfc00117 	ldw	ra,4(sp)
 100088c:	df000017 	ldw	fp,0(sp)
 1000890:	dec00204 	addi	sp,sp,8
 1000894:	f800283a 	ret

01000898 <usb_device_recv>:

int usb_device_recv(unsigned char * buf, unsigned int len) {
 1000898:	defff304 	addi	sp,sp,-52
 100089c:	dfc00c15 	stw	ra,48(sp)
 10008a0:	df000b15 	stw	fp,44(sp)
 10008a4:	df000b04 	addi	fp,sp,44
 10008a8:	e13ffe15 	stw	r4,-8(fp)
 10008ac:	e17fff15 	stw	r5,-4(fp)
	unsigned int remaining = len;
 10008b0:	e0bfff17 	ldw	r2,-4(fp)
 10008b4:	e0bffa15 	stw	r2,-24(fp)
static ALT_INLINE alt_irq_context ALT_ALWAYS_INLINE 
       alt_irq_disable_all (void)
{
  alt_irq_context context;

  NIOS2_READ_STATUS (context);
 10008b8:	0005303a 	rdctl	r2,status
 10008bc:	e0bff615 	stw	r2,-40(fp)

  NIOS2_WRITE_STATUS (context & ~NIOS2_STATUS_PIE_MSK);
 10008c0:	e0fff617 	ldw	r3,-40(fp)
 10008c4:	00bfff84 	movi	r2,-2
 10008c8:	1884703a 	and	r2,r3,r2
 10008cc:	1001703a 	wrctl	status,r2
  
  return context;
 10008d0:	e0bff617 	ldw	r2,-40(fp)

	unsigned int c;
	c = alt_irq_disable_all();
 10008d4:	e0bff915 	stw	r2,-28(fp)
	while (remaining) {
 10008d8:	00004206 	br	10009e4 <usb_device_recv+0x14c>
		// Get pointer to next packet
		usb_packet * packet = usb_fifo_peek(&usb_recv_queue);
 10008dc:	d127b004 	addi	r4,gp,-24896
 10008e0:	10053a40 	call	10053a4 <usb_fifo_peek>
 10008e4:	e0bff815 	stw	r2,-32(fp)

		if (!packet)
 10008e8:	e0bff817 	ldw	r2,-32(fp)
 10008ec:	1005003a 	cmpeq	r2,r2,zero
 10008f0:	10003f1e 	bne	r2,zero,10009f0 <usb_device_recv+0x158>
			break;

		unsigned int left_in_packet = packet->len - packet->offset;
 10008f4:	e0bff817 	ldw	r2,-32(fp)
 10008f8:	10c00017 	ldw	r3,0(r2)
 10008fc:	e0bff817 	ldw	r2,-32(fp)
 1000900:	10800117 	ldw	r2,4(r2)
 1000904:	1885c83a 	sub	r2,r3,r2
 1000908:	e0bff715 	stw	r2,-36(fp)

		if (left_in_packet <= remaining) {
 100090c:	e0fff717 	ldw	r3,-36(fp)
 1000910:	e0bffa17 	ldw	r2,-24(fp)
 1000914:	10c01c36 	bltu	r2,r3,1000988 <usb_device_recv+0xf0>
			// Pop packet
			unsigned char * packet_data;
			unsigned int packet_len;
			unsigned int packet_offset;
			usb_fifo_pop(&usb_recv_queue, &packet_data, &packet_len,
 1000918:	e17ffb04 	addi	r5,fp,-20
 100091c:	e1bffc04 	addi	r6,fp,-16
 1000920:	e1fffd04 	addi	r7,fp,-12
 1000924:	d127b004 	addi	r4,gp,-24896
 1000928:	10052cc0 	call	10052cc <usb_fifo_pop>
					&packet_offset);
			memcpy(buf + (len - remaining), packet_data + packet_offset,
 100092c:	e0ffff17 	ldw	r3,-4(fp)
 1000930:	e0bffa17 	ldw	r2,-24(fp)
 1000934:	1885c83a 	sub	r2,r3,r2
 1000938:	1007883a 	mov	r3,r2
 100093c:	e0bffe17 	ldw	r2,-8(fp)
 1000940:	1889883a 	add	r4,r3,r2
 1000944:	e0fffb17 	ldw	r3,-20(fp)
 1000948:	e0bffd17 	ldw	r2,-12(fp)
 100094c:	188b883a 	add	r5,r3,r2
 1000950:	e0fffc17 	ldw	r3,-16(fp)
 1000954:	e0bffd17 	ldw	r2,-12(fp)
 1000958:	1885c83a 	sub	r2,r3,r2
 100095c:	100d883a 	mov	r6,r2
 1000960:	1005d200 	call	1005d20 <memcpy>
					packet_len - packet_offset);
			free(packet_data);
 1000964:	e13ffb17 	ldw	r4,-20(fp)
 1000968:	10055b80 	call	10055b8 <free>
			remaining -= packet_len - packet_offset;
 100096c:	e0fffc17 	ldw	r3,-16(fp)
 1000970:	e0bffd17 	ldw	r2,-12(fp)
 1000974:	1887c83a 	sub	r3,r3,r2
 1000978:	e0bffa17 	ldw	r2,-24(fp)
 100097c:	10c5c83a 	sub	r2,r2,r3
 1000980:	e0bffa15 	stw	r2,-24(fp)
 1000984:	00001706 	br	10009e4 <usb_device_recv+0x14c>
		} else {
			// Take partial packet
			memcpy(buf + (len - remaining), packet->data + packet->offset,
 1000988:	e0ffff17 	ldw	r3,-4(fp)
 100098c:	e0bffa17 	ldw	r2,-24(fp)
 1000990:	1885c83a 	sub	r2,r3,r2
 1000994:	1007883a 	mov	r3,r2
 1000998:	e0bffe17 	ldw	r2,-8(fp)
 100099c:	1889883a 	add	r4,r3,r2
 10009a0:	e0bff817 	ldw	r2,-32(fp)
 10009a4:	10c00217 	ldw	r3,8(r2)
 10009a8:	e0bff817 	ldw	r2,-32(fp)
 10009ac:	10800117 	ldw	r2,4(r2)
 10009b0:	1885883a 	add	r2,r3,r2
 10009b4:	100b883a 	mov	r5,r2
 10009b8:	e1bffa17 	ldw	r6,-24(fp)
 10009bc:	1005d200 	call	1005d20 <memcpy>
					remaining);
			packet->offset += remaining;
 10009c0:	e0bff817 	ldw	r2,-32(fp)
 10009c4:	10800117 	ldw	r2,4(r2)
 10009c8:	1007883a 	mov	r3,r2
 10009cc:	e0bffa17 	ldw	r2,-24(fp)
 10009d0:	1885883a 	add	r2,r3,r2
 10009d4:	1007883a 	mov	r3,r2
 10009d8:	e0bff817 	ldw	r2,-32(fp)
 10009dc:	10c00115 	stw	r3,4(r2)
			remaining = 0;
 10009e0:	e03ffa15 	stw	zero,-24(fp)
int usb_device_recv(unsigned char * buf, unsigned int len) {
	unsigned int remaining = len;

	unsigned int c;
	c = alt_irq_disable_all();
	while (remaining) {
 10009e4:	e0bffa17 	ldw	r2,-24(fp)
 10009e8:	1004c03a 	cmpne	r2,r2,zero
 10009ec:	103fbb1e 	bne	r2,zero,10008dc <usb_device_recv+0x44>
			packet->offset += remaining;
			remaining = 0;
		}
	}

	alt_irq_enable_all(c);
 10009f0:	e0bff917 	ldw	r2,-28(fp)
 10009f4:	e0bff515 	stw	r2,-44(fp)
  status &= ~NIOS2_STATUS_PIE_MSK;
  status |= (context & NIOS2_STATUS_PIE_MSK);
  
  NIOS2_WRITE_STATUS (status);
#else
  NIOS2_WRITE_STATUS (context);
 10009f8:	e0bff517 	ldw	r2,-44(fp)
 10009fc:	1001703a 	wrctl	status,r2
	return len - remaining;
 1000a00:	e0ffff17 	ldw	r3,-4(fp)
 1000a04:	e0bffa17 	ldw	r2,-24(fp)
 1000a08:	1885c83a 	sub	r2,r3,r2
}
 1000a0c:	e037883a 	mov	sp,fp
 1000a10:	dfc00117 	ldw	ra,4(sp)
 1000a14:	df000017 	ldw	fp,0(sp)
 1000a18:	dec00204 	addi	sp,sp,8
 1000a1c:	f800283a 	ret

01000a20 <usb_send_queue_push>:

void usb_send_queue_push(unsigned char * data, unsigned int len) {
 1000a20:	defff904 	addi	sp,sp,-28
 1000a24:	dfc00615 	stw	ra,24(sp)
 1000a28:	df000515 	stw	fp,20(sp)
 1000a2c:	df000504 	addi	fp,sp,20
 1000a30:	e13ffe15 	stw	r4,-8(fp)
 1000a34:	e17fff15 	stw	r5,-4(fp)
static ALT_INLINE alt_irq_context ALT_ALWAYS_INLINE 
       alt_irq_disable_all (void)
{
  alt_irq_context context;

  NIOS2_READ_STATUS (context);
 1000a38:	0005303a 	rdctl	r2,status
 1000a3c:	e0bffc15 	stw	r2,-16(fp)

  NIOS2_WRITE_STATUS (context & ~NIOS2_STATUS_PIE_MSK);
 1000a40:	e0fffc17 	ldw	r3,-16(fp)
 1000a44:	00bfff84 	movi	r2,-2
 1000a48:	1884703a 	and	r2,r3,r2
 1000a4c:	1001703a 	wrctl	status,r2
  
  return context;
 1000a50:	e0bffc17 	ldw	r2,-16(fp)
	unsigned int c;
	c = alt_irq_disable_all();
 1000a54:	e0bffd15 	stw	r2,-12(fp)
	usb_fifo_push(&usb_send_queue, data, len);
 1000a58:	d127ae04 	addi	r4,gp,-24904
 1000a5c:	e17ffe17 	ldw	r5,-8(fp)
 1000a60:	e1bfff17 	ldw	r6,-4(fp)
 1000a64:	10051b00 	call	10051b0 <usb_fifo_push>
	alt_irq_enable_all(c);
 1000a68:	e0bffd17 	ldw	r2,-12(fp)
 1000a6c:	e0bffb15 	stw	r2,-20(fp)
  status &= ~NIOS2_STATUS_PIE_MSK;
  status |= (context & NIOS2_STATUS_PIE_MSK);
  
  NIOS2_WRITE_STATUS (status);
#else
  NIOS2_WRITE_STATUS (context);
 1000a70:	e0bffb17 	ldw	r2,-20(fp)
 1000a74:	1001703a 	wrctl	status,r2
	if (usb_send_cb)
 1000a78:	d0a7ab17 	ldw	r2,-24916(gp)
 1000a7c:	1005003a 	cmpeq	r2,r2,zero
 1000a80:	1000031e 	bne	r2,zero,1000a90 <usb_send_queue_push+0x70>
		usb_send_cb(usb_send_cb_context);
 1000a84:	d0a7ab17 	ldw	r2,-24916(gp)
 1000a88:	d127b417 	ldw	r4,-24880(gp)
 1000a8c:	103ee83a 	callr	r2
}
 1000a90:	e037883a 	mov	sp,fp
 1000a94:	dfc00117 	ldw	ra,4(sp)
 1000a98:	df000017 	ldw	fp,0(sp)
 1000a9c:	dec00204 	addi	sp,sp,8
 1000aa0:	f800283a 	ret

01000aa4 <usb_send_queue_is_empty>:

int usb_send_queue_is_empty() {
 1000aa4:	defffe04 	addi	sp,sp,-8
 1000aa8:	dfc00115 	stw	ra,4(sp)
 1000aac:	df000015 	stw	fp,0(sp)
 1000ab0:	d839883a 	mov	fp,sp
	return usb_fifo_is_empty(&usb_send_queue);
 1000ab4:	d127ae04 	addi	r4,gp,-24904
 1000ab8:	10052880 	call	1005288 <usb_fifo_is_empty>
}
 1000abc:	e037883a 	mov	sp,fp
 1000ac0:	dfc00117 	ldw	ra,4(sp)
 1000ac4:	df000017 	ldw	fp,0(sp)
 1000ac8:	dec00204 	addi	sp,sp,8
 1000acc:	f800283a 	ret

01000ad0 <usb_recv_queue_is_empty>:
int usb_recv_queue_is_empty() {
 1000ad0:	defffe04 	addi	sp,sp,-8
 1000ad4:	dfc00115 	stw	ra,4(sp)
 1000ad8:	df000015 	stw	fp,0(sp)
 1000adc:	d839883a 	mov	fp,sp
	return usb_fifo_is_empty(&usb_recv_queue);
 1000ae0:	d127b004 	addi	r4,gp,-24896
 1000ae4:	10052880 	call	1005288 <usb_fifo_is_empty>
}
 1000ae8:	e037883a 	mov	sp,fp
 1000aec:	dfc00117 	ldw	ra,4(sp)
 1000af0:	df000017 	ldw	fp,0(sp)
 1000af4:	dec00204 	addi	sp,sp,8
 1000af8:	f800283a 	ret

01000afc <usb_device_init>:

void usb_device_init(alt_up_usb_dev * usb_dev, alt_u32 usb_irq_id) {
 1000afc:	defffc04 	addi	sp,sp,-16
 1000b00:	dfc00315 	stw	ra,12(sp)
 1000b04:	df000215 	stw	fp,8(sp)
 1000b08:	df000204 	addi	fp,sp,8
 1000b0c:	e13ffe15 	stw	r4,-8(fp)
 1000b10:	e17fff15 	stw	r5,-4(fp)
	ISP1362_BASE = usb_dev->base;
 1000b14:	e0bffe17 	ldw	r2,-8(fp)
 1000b18:	10800a17 	ldw	r2,40(r2)
 1000b1c:	d0a7ac15 	stw	r2,-24912(gp)

	usb_fifo_init(&usb_recv_queue);
 1000b20:	d127b004 	addi	r4,gp,-24896
 1000b24:	10051800 	call	1005180 <usb_fifo_init>
	usb_fifo_init(&usb_send_queue);
 1000b28:	d127ae04 	addi	r4,gp,-24904
 1000b2c:	10051800 	call	1005180 <usb_fifo_init>

	usb_disable_all_interrupts();
 1000b30:	10045a80 	call	10045a8 <usb_disable_all_interrupts>
	disconnect_USB();
 1000b34:	10028780 	call	1002878 <disconnect_USB>
	usleep(1000000);
 1000b38:	010003f4 	movhi	r4,15
 1000b3c:	21109004 	addi	r4,r4,16960
 1000b40:	10113640 	call	1011364 <usleep>
	Hal4D13_ResetDevice();
 1000b44:	10031700 	call	1003170 <Hal4D13_ResetDevice>
	bUSBCheck_Device_State.State_bits.DEVICE_DEFAULT_STATE = 1;
 1000b48:	d0a7b603 	ldbu	r2,-24872(gp)
 1000b4c:	10800054 	ori	r2,r2,1
 1000b50:	d0a7b605 	stb	r2,-24872(gp)
	bUSBCheck_Device_State.State_bits.DEVICE_ADDRESS_STATE = 0;
 1000b54:	d0e7b603 	ldbu	r3,-24872(gp)
 1000b58:	00bfff44 	movi	r2,-3
 1000b5c:	1884703a 	and	r2,r3,r2
 1000b60:	d0a7b605 	stb	r2,-24872(gp)
	bUSBCheck_Device_State.State_bits.DEVICE_CONFIGURATION_STATE = 0;
 1000b64:	d0e7b603 	ldbu	r3,-24872(gp)
 1000b68:	00bffec4 	movi	r2,-5
 1000b6c:	1884703a 	and	r2,r3,r2
 1000b70:	d0a7b605 	stb	r2,-24872(gp)
	bUSBCheck_Device_State.State_bits.RESET_BITS = 0;
 1000b74:	00804074 	movhi	r2,257
 1000b78:	109eee84 	addi	r2,r2,31674
 1000b7c:	10000005 	stb	zero,0(r2)
	usleep(1000000);
 1000b80:	010003f4 	movhi	r4,15
 1000b84:	21109004 	addi	r4,r4,16960
 1000b88:	10113640 	call	1011364 <usleep>
	reconnect_USB();
 1000b8c:	10029fc0 	call	10029fc <reconnect_USB>
	CHECK_CHIP_ID();
 1000b90:	1002acc0 	call	1002acc <CHECK_CHIP_ID>
	Hal4D13_AcquireD13(usb_irq_id, (void*) usb_isr);
 1000b94:	e0bfff17 	ldw	r2,-4(fp)
 1000b98:	11003fcc 	andi	r4,r2,255
 1000b9c:	01404034 	movhi	r5,256
 1000ba0:	29519c04 	addi	r5,r5,18032
 1000ba4:	10031340 	call	1003134 <Hal4D13_AcquireD13>
	usb_reenable_all_interrupts();
 1000ba8:	10045f80 	call	10045f8 <usb_reenable_all_interrupts>
	bD13flags.bits.verbose = 1;
 1000bac:	d0a7ad17 	ldw	r2,-24908(gp)
 1000bb0:	10804034 	orhi	r2,r2,256
 1000bb4:	d0a7ad15 	stw	r2,-24908(gp)
	usb_register_send_callback(usb_check_send, NULL);
 1000bb8:	01004034 	movhi	r4,256
 1000bbc:	21138c04 	addi	r4,r4,20016
 1000bc0:	000b883a 	mov	r5,zero
 1000bc4:	10005780 	call	1000578 <usb_register_send_callback>
	usb_initialized = 1;
 1000bc8:	00800044 	movi	r2,1
 1000bcc:	d0a7a915 	stw	r2,-24924(gp)
}
 1000bd0:	e037883a 	mov	sp,fp
 1000bd4:	dfc00117 	ldw	ra,4(sp)
 1000bd8:	df000017 	ldw	fp,0(sp)
 1000bdc:	dec00204 	addi	sp,sp,8
 1000be0:	f800283a 	ret

01000be4 <usb_device_poll>:

void usb_device_poll() {
 1000be4:	defffe04 	addi	sp,sp,-8
 1000be8:	dfc00115 	stw	ra,4(sp)
 1000bec:	df000015 	stw	fp,0(sp)
 1000bf0:	d839883a 	mov	fp,sp
	if (!usb_initialized) {
 1000bf4:	d0a7a917 	ldw	r2,-24924(gp)
 1000bf8:	1004c03a 	cmpne	r2,r2,zero
 1000bfc:	1000051e 	bne	r2,zero,1000c14 <usb_device_poll+0x30>
		printf("You called usb_device_poll before calling usb_device_init().  Exiting program.\n");
 1000c00:	01004074 	movhi	r4,257
 1000c04:	210d3504 	addi	r4,r4,13524
 1000c08:	1005f940 	call	1005f94 <puts>
		exit(-1);
 1000c0c:	013fffc4 	movi	r4,-1
 1000c10:	10055140 	call	1005514 <exit>
	}
	if (bUSBCheck_Device_State.State_bits.RESET_BITS == 1) {
 1000c14:	00804074 	movhi	r2,257
 1000c18:	109eee84 	addi	r2,r2,31674
 1000c1c:	10800003 	ldbu	r2,0(r2)
 1000c20:	10803fcc 	andi	r2,r2,255
 1000c24:	10800058 	cmpnei	r2,r2,1
 1000c28:	1000021e 	bne	r2,zero,1000c34 <usb_device_poll+0x50>
		usb_disable_all_interrupts();
 1000c2c:	10045a80 	call	10045a8 <usb_disable_all_interrupts>
		return;
 1000c30:	00002306 	br	1000cc0 <usb_device_poll+0xdc>
	}
	if (bD13flags.bits.suspend) {
 1000c34:	d0a7ad17 	ldw	r2,-24908(gp)
 1000c38:	1080008c 	andi	r2,r2,2
 1000c3c:	1005003a 	cmpeq	r2,r2,zero
 1000c40:	1000071e 	bne	r2,zero,1000c60 <usb_device_poll+0x7c>
		usb_disable_all_interrupts();
 1000c44:	10045a80 	call	10045a8 <usb_disable_all_interrupts>
		bD13flags.bits.suspend = 0;
 1000c48:	d0a7ad17 	ldw	r2,-24908(gp)
 1000c4c:	00ffff44 	movi	r3,-3
 1000c50:	10c4703a 	and	r2,r2,r3
 1000c54:	d0a7ad15 	stw	r2,-24908(gp)
		usb_reenable_all_interrupts();
 1000c58:	10045f80 	call	10045f8 <usb_reenable_all_interrupts>
		suspend_change();
 1000c5c:	1002a280 	call	1002a28 <suspend_change>
	} // Suspend Change Handler
	if (bD13flags.bits.DCP_state == USBFSM4DCP_SETUPPROC) {
 1000c60:	d0a7ad17 	ldw	r2,-24908(gp)
 1000c64:	1083c00c 	andi	r2,r2,3840
 1000c68:	10814018 	cmpnei	r2,r2,1280
 1000c6c:	1000031e 	bne	r2,zero,1000c7c <usb_device_poll+0x98>
		usb_disable_all_interrupts();
 1000c70:	10045a80 	call	10045a8 <usb_disable_all_interrupts>
		SetupToken_Handler();
 1000c74:	10024180 	call	1002418 <SetupToken_Handler>
		usb_reenable_all_interrupts();
 1000c78:	10045f80 	call	10045f8 <usb_reenable_all_interrupts>
	} // Setup Token Handler
	if ((bD13flags.bits.DCP_state == USBFSM4DCP_REQUESTPROC)
 1000c7c:	d0a7ad17 	ldw	r2,-24908(gp)
 1000c80:	1083c00c 	andi	r2,r2,3840
 1000c84:	1080c018 	cmpnei	r2,r2,768
 1000c88:	10000d1e 	bne	r2,zero,1000cc0 <usb_device_poll+0xdc>
 1000c8c:	00804074 	movhi	r2,257
 1000c90:	109f0c04 	addi	r2,r2,31792
 1000c94:	10800003 	ldbu	r2,0(r2)
 1000c98:	10803fcc 	andi	r2,r2,255
 1000c9c:	1004c03a 	cmpne	r2,r2,zero
 1000ca0:	1000071e 	bne	r2,zero,1000cc0 <usb_device_poll+0xdc>
			&& !ControlData.Abort) {
		usb_disable_all_interrupts();
 1000ca4:	10045a80 	call	10045a8 <usb_disable_all_interrupts>
		bD13flags.bits.DCP_state = 0x00;
 1000ca8:	d0a7ad17 	ldw	r2,-24908(gp)
 1000cac:	00fc3fc4 	movi	r3,-3841
 1000cb0:	10c4703a 	and	r2,r2,r3
 1000cb4:	d0a7ad15 	stw	r2,-24908(gp)
		DeviceRequest_Handler();
 1000cb8:	100268c0 	call	100268c <DeviceRequest_Handler>
		usb_reenable_all_interrupts();
 1000cbc:	10045f80 	call	10045f8 <usb_reenable_all_interrupts>
	} // Device Request Handler
}
 1000cc0:	e037883a 	mov	sp,fp
 1000cc4:	dfc00117 	ldw	ra,4(sp)
 1000cc8:	df000017 	ldw	fp,0(sp)
 1000ccc:	dec00204 	addi	sp,sp,8
 1000cd0:	f800283a 	ret

01000cd4 <EnableIsoMode>:
unsigned short IsoInPattern=0xF8;
unsigned short IsoInPktLen=0;
unsigned short IsoInDataBuff[ISO_FIFOSIZE_512];

void EnableIsoMode()
{
 1000cd4:	defffe04 	addi	sp,sp,-8
 1000cd8:	dfc00115 	stw	ra,4(sp)
 1000cdc:	df000015 	stw	fp,0(sp)
 1000ce0:	d839883a 	mov	fp,sp
    IsoMode = 0;
 1000ce4:	d027b705 	stb	zero,-24868(gp)
    if( ControlData.DeviceRequest.wLength == 0)
 1000ce8:	00804074 	movhi	r2,257
 1000cec:	109f0c04 	addi	r2,r2,31792
 1000cf0:	1080020b 	ldhu	r2,8(r2)
 1000cf4:	10bfffcc 	andi	r2,r2,65535
 1000cf8:	1004c03a 	cmpne	r2,r2,zero
 1000cfc:	1000691e 	bne	r2,zero,1000ea4 <EnableIsoMode+0x1d0>
    {
        IsoMode &= ~ControlData.DeviceRequest.wIndex;
 1000d00:	00804074 	movhi	r2,257
 1000d04:	109f0c04 	addi	r2,r2,31792
 1000d08:	1080018b 	ldhu	r2,6(r2)
 1000d0c:	0084303a 	nor	r2,zero,r2
 1000d10:	1007883a 	mov	r3,r2
 1000d14:	d0a7b703 	ldbu	r2,-24868(gp)
 1000d18:	1884703a 	and	r2,r3,r2
 1000d1c:	d0a7b705 	stb	r2,-24868(gp)
        IsoMode |= ControlData.DeviceRequest.wValue;
 1000d20:	00804074 	movhi	r2,257
 1000d24:	109f0c04 	addi	r2,r2,31792
 1000d28:	1080010b 	ldhu	r2,4(r2)
 1000d2c:	1007883a 	mov	r3,r2
 1000d30:	d0a7b703 	ldbu	r2,-24868(gp)
 1000d34:	1884b03a 	or	r2,r3,r2
 1000d38:	d0a7b705 	stb	r2,-24868(gp)

        printf("IsoMode %x\n",IsoMode );
 1000d3c:	d0a7b703 	ldbu	r2,-24868(gp)
 1000d40:	11403fcc 	andi	r5,r2,255
 1000d44:	01004074 	movhi	r4,257
 1000d48:	210d4904 	addi	r4,r4,13604
 1000d4c:	1005e580 	call	1005e58 <printf>

        if(IsoMode&ISO_LOOP)
 1000d50:	d0a7b703 	ldbu	r2,-24868(gp)
 1000d54:	10803fcc 	andi	r2,r2,255
 1000d58:	1080010c 	andi	r2,r2,4
 1000d5c:	1005003a 	cmpeq	r2,r2,zero
 1000d60:	1000121e 	bne	r2,zero,1000dac <EnableIsoMode+0xd8>
        {

           RaiseIRQL();
 1000d64:	10045a80 	call	10045a8 <usb_disable_all_interrupts>
           bD13flags.bits.ISO_state = ISO_LOOP;
 1000d68:	01004074 	movhi	r4,257
 1000d6c:	211ee504 	addi	r4,r4,31636
 1000d70:	20c00017 	ldw	r3,0(r4)
 1000d74:	00bffff4 	movhi	r2,65535
 1000d78:	1087ffc4 	addi	r2,r2,8191
 1000d7c:	1884703a 	and	r2,r3,r2
 1000d80:	10a00014 	ori	r2,r2,32768
 1000d84:	20800015 	stw	r2,0(r4)
           LowerIRQL();
 1000d88:	10045f80 	call	10045f8 <usb_reenable_all_interrupts>

           IsoDisable =0;
 1000d8c:	d0200305 	stb	zero,-32756(gp)
           IsoInPattern = 0;
 1000d90:	d020040d 	sth	zero,-32752(gp)
           IsoInPktLen = ISO_FIFOSIZE_512;
 1000d94:	00808004 	movi	r2,512
 1000d98:	d0a7b80d 	sth	r2,-24864(gp)
           IsoOutPattern = 0;
 1000d9c:	d020038d 	sth	zero,-32754(gp)
           IsoOutPktLen = ISO_FIFOSIZE_512;
 1000da0:	00808004 	movi	r2,512
 1000da4:	d0a7b78d 	sth	r2,-24866(gp)
 1000da8:	00003a06 	br	1000e94 <EnableIsoMode+0x1c0>

        }
        else
        {

             if(IsoMode&ISO_OUT)
 1000dac:	d0a7b703 	ldbu	r2,-24868(gp)
 1000db0:	10803fcc 	andi	r2,r2,255
 1000db4:	1080008c 	andi	r2,r2,2
 1000db8:	1005003a 	cmpeq	r2,r2,zero
 1000dbc:	1000151e 	bne	r2,zero,1000e14 <EnableIsoMode+0x140>
             {

               RaiseIRQL();
 1000dc0:	10045a80 	call	10045a8 <usb_disable_all_interrupts>
               bD13flags.bits.ISO_state = ISO_OUT;
 1000dc4:	01004074 	movhi	r4,257
 1000dc8:	211ee504 	addi	r4,r4,31636
 1000dcc:	20c00017 	ldw	r3,0(r4)
 1000dd0:	00bffff4 	movhi	r2,65535
 1000dd4:	1087ffc4 	addi	r2,r2,8191
 1000dd8:	1884703a 	and	r2,r3,r2
 1000ddc:	10900014 	ori	r2,r2,16384
 1000de0:	20800015 	stw	r2,0(r4)
               LowerIRQL();
 1000de4:	10045f80 	call	10045f8 <usb_reenable_all_interrupts>

               IsoDisable =0;
 1000de8:	d0200305 	stb	zero,-32756(gp)
               IsoOutPattern = 0;
 1000dec:	d020038d 	sth	zero,-32754(gp)
               IsoOutPktLen = ISO_FIFOSIZE_512;
 1000df0:	00808004 	movi	r2,512
 1000df4:	d0a7b78d 	sth	r2,-24866(gp)
               printf("Iso-Out Pattern %x, PktLen %u bytes\n",IsoInPattern,IsoOutPktLen);
 1000df8:	d0a0040b 	ldhu	r2,-32752(gp)
 1000dfc:	117fffcc 	andi	r5,r2,65535
 1000e00:	d0a7b78b 	ldhu	r2,-24866(gp)
 1000e04:	11bfffcc 	andi	r6,r2,65535
 1000e08:	01004074 	movhi	r4,257
 1000e0c:	210d4c04 	addi	r4,r4,13616
 1000e10:	1005e580 	call	1005e58 <printf>

             }
             if(IsoMode&ISO_IN)
 1000e14:	d0a7b703 	ldbu	r2,-24868(gp)
 1000e18:	10803fcc 	andi	r2,r2,255
 1000e1c:	1080004c 	andi	r2,r2,1
 1000e20:	10803fcc 	andi	r2,r2,255
 1000e24:	1005003a 	cmpeq	r2,r2,zero
 1000e28:	10001a1e 	bne	r2,zero,1000e94 <EnableIsoMode+0x1c0>
             {
                bD13flags.bits.ISO_state = ISO_IN;
 1000e2c:	01004074 	movhi	r4,257
 1000e30:	211ee504 	addi	r4,r4,31636
 1000e34:	20c00017 	ldw	r3,0(r4)
 1000e38:	00bffff4 	movhi	r2,65535
 1000e3c:	1087ffc4 	addi	r2,r2,8191
 1000e40:	1884703a 	and	r2,r3,r2
 1000e44:	10880014 	ori	r2,r2,8192
 1000e48:	20800015 	stw	r2,0(r4)

               IsoDisable =0;
 1000e4c:	d0200305 	stb	zero,-32756(gp)
               IsoInPattern = 0;
 1000e50:	d020040d 	sth	zero,-32752(gp)
               IsoInPktLen = ISO_FIFOSIZE_512;
 1000e54:	00808004 	movi	r2,512
 1000e58:	d0a7b80d 	sth	r2,-24864(gp)

                IOWR(ISP1362_BASE,D13_COMMAND_PORT, D13CMD_EP_VALID_BUF+EPINDEX4EP06);
 1000e5c:	00804074 	movhi	r2,257
 1000e60:	109ee404 	addi	r2,r2,31632
 1000e64:	10800017 	ldw	r2,0(r2)
 1000e68:	10800304 	addi	r2,r2,12
 1000e6c:	1007883a 	mov	r3,r2
 1000e70:	008019c4 	movi	r2,103
 1000e74:	18800035 	stwio	r2,0(r3)
                printf("Iso-IN  Pattern %x, PktLen %u bytes\n",IsoInPattern,IsoInPktLen);
 1000e78:	d0a0040b 	ldhu	r2,-32752(gp)
 1000e7c:	117fffcc 	andi	r5,r2,65535
 1000e80:	d0a7b80b 	ldhu	r2,-24864(gp)
 1000e84:	11bfffcc 	andi	r6,r2,65535
 1000e88:	01004074 	movhi	r4,257
 1000e8c:	210d5604 	addi	r4,r4,13656
 1000e90:	1005e580 	call	1005e58 <printf>
             }

        }

        Chap9_SingleTransmitEP0(0, 0);
 1000e94:	0009883a 	mov	r4,zero
 1000e98:	000b883a 	mov	r5,zero
 1000e9c:	10022000 	call	1002200 <Chap9_SingleTransmitEP0>
 1000ea0:	00000106 	br	1000ea8 <EnableIsoMode+0x1d4>
    }
    else
    {
        Chap9_StallEP0();
 1000ea4:	10020a80 	call	10020a8 <Chap9_StallEP0>
    }
}
 1000ea8:	e037883a 	mov	sp,fp
 1000eac:	dfc00117 	ldw	ra,4(sp)
 1000eb0:	df000017 	ldw	fp,0(sp)
 1000eb4:	dec00204 	addi	sp,sp,8
 1000eb8:	f800283a 	ret

01000ebc <Wait4Ns>:


void Wait4Ns( unsigned long timeNs)
{
 1000ebc:	defffd04 	addi	sp,sp,-12
 1000ec0:	dfc00215 	stw	ra,8(sp)
 1000ec4:	df000115 	stw	fp,4(sp)
 1000ec8:	df000104 	addi	fp,sp,4
 1000ecc:	e13fff15 	stw	r4,-4(fp)
    usleep(timeNs);
 1000ed0:	e13fff17 	ldw	r4,-4(fp)
 1000ed4:	10113640 	call	1011364 <usleep>
}
 1000ed8:	e037883a 	mov	sp,fp
 1000edc:	dfc00117 	ldw	ra,4(sp)
 1000ee0:	df000017 	ldw	fp,0(sp)
 1000ee4:	dec00204 	addi	sp,sp,8
 1000ee8:	f800283a 	ret

01000eec <ISOLOOP>:

USHORT ISOLOOP(UCHAR bOUTEPIndex, UCHAR bINEPIndex, USHORT len)
{
 1000eec:	defefa04 	addi	sp,sp,-1048
 1000ef0:	dfc10515 	stw	ra,1044(sp)
 1000ef4:	df010415 	stw	fp,1040(sp)
 1000ef8:	df010404 	addi	fp,sp,1040
 1000efc:	e13ffd05 	stb	r4,-12(fp)
 1000f00:	e17ffe05 	stb	r5,-8(fp)
 1000f04:	e1bfff0d 	sth	r6,-4(fp)
    USHORT  ISOBuffer[512];
    UCHAR   ep_last;
    USHORT  j=0;
 1000f08:	e03efc0d 	sth	zero,-1040(fp)

    ep_last = (UCHAR)Hal4D13_GetEndpointStatusWInteruptClear(bOUTEPIndex);
 1000f0c:	e13ffd03 	ldbu	r4,-12(fp)
 1000f10:	1003cdc0 	call	1003cdc <Hal4D13_GetEndpointStatusWInteruptClear>
 1000f14:	e0befc85 	stb	r2,-1038(fp)
    if(ep_last & 0x60)
 1000f18:	e0befc83 	ldbu	r2,-1038(fp)
 1000f1c:	1080180c 	andi	r2,r2,96
 1000f20:	1005003a 	cmpeq	r2,r2,zero
 1000f24:	1000091e 	bne	r2,zero,1000f4c <ISOLOOP+0x60>
    {
        j = Hal4D13_ReadISOEndpoint(bOUTEPIndex, ISOBuffer, len);
 1000f28:	e13ffd03 	ldbu	r4,-12(fp)
 1000f2c:	e1bfff0b 	ldhu	r6,-4(fp)
 1000f30:	e17efd04 	addi	r5,fp,-1036
 1000f34:	1000f640 	call	1000f64 <Hal4D13_ReadISOEndpoint>
 1000f38:	e0befc0d 	sth	r2,-1040(fp)
        Hal4D13_WriteISOEndpoint(bINEPIndex, ISOBuffer, j);
 1000f3c:	e13ffe03 	ldbu	r4,-8(fp)
 1000f40:	e1befc0b 	ldhu	r6,-1040(fp)
 1000f44:	e17efd04 	addi	r5,fp,-1036
 1000f48:	10010480 	call	1001048 <Hal4D13_WriteISOEndpoint>
    }

    return j;
 1000f4c:	e0befc0b 	ldhu	r2,-1040(fp)
}
 1000f50:	e037883a 	mov	sp,fp
 1000f54:	dfc00117 	ldw	ra,4(sp)
 1000f58:	df000017 	ldw	fp,0(sp)
 1000f5c:	dec00204 	addi	sp,sp,8
 1000f60:	f800283a 	ret

01000f64 <Hal4D13_ReadISOEndpoint>:

USHORT Hal4D13_ReadISOEndpoint(UCHAR bEPIndex, USHORT ISOBuffer[512], USHORT len)
{
 1000f64:	defffb04 	addi	sp,sp,-20
 1000f68:	df000415 	stw	fp,16(sp)
 1000f6c:	df000404 	addi	fp,sp,16
 1000f70:	e17ffe15 	stw	r5,-8(fp)
 1000f74:	e13ffd05 	stb	r4,-12(fp)
 1000f78:	e1bfff0d 	sth	r6,-4(fp)
    USHORT i, j;

    IOWR(ISP1362_BASE,D13_COMMAND_PORT, D13CMD_EP_RD_FIFO + bEPIndex);
 1000f7c:	00804074 	movhi	r2,257
 1000f80:	109ee404 	addi	r2,r2,31632
 1000f84:	10800017 	ldw	r2,0(r2)
 1000f88:	11000304 	addi	r4,r2,12
 1000f8c:	e0bffd03 	ldbu	r2,-12(fp)
 1000f90:	10c00404 	addi	r3,r2,16
 1000f94:	2005883a 	mov	r2,r4
 1000f98:	10c00035 	stwio	r3,0(r2)

    j = IORD(ISP1362_BASE,D13_DATA_PORT);
 1000f9c:	00804074 	movhi	r2,257
 1000fa0:	109ee404 	addi	r2,r2,31632
 1000fa4:	10800017 	ldw	r2,0(r2)
 1000fa8:	10800204 	addi	r2,r2,8
 1000fac:	10800037 	ldwio	r2,0(r2)
 1000fb0:	e0bffc0d 	sth	r2,-16(fp)

    if(j != len)
 1000fb4:	e0fffc0b 	ldhu	r3,-16(fp)
 1000fb8:	e0bfff0b 	ldhu	r2,-4(fp)
 1000fbc:	18800226 	beq	r3,r2,1000fc8 <Hal4D13_ReadISOEndpoint+0x64>
        j = len;
 1000fc0:	e0bfff0b 	ldhu	r2,-4(fp)
 1000fc4:	e0bffc0d 	sth	r2,-16(fp)

    for(i=0; i<j; i++)
 1000fc8:	e03ffc8d 	sth	zero,-14(fp)
 1000fcc:	00000e06 	br	1001008 <Hal4D13_ReadISOEndpoint+0xa4>
    {
        ISOBuffer[i] = IORD(ISP1362_BASE,D13_DATA_PORT);
 1000fd0:	e0bffc8b 	ldhu	r2,-14(fp)
 1000fd4:	1085883a 	add	r2,r2,r2
 1000fd8:	1007883a 	mov	r3,r2
 1000fdc:	e0bffe17 	ldw	r2,-8(fp)
 1000fe0:	1887883a 	add	r3,r3,r2
 1000fe4:	00804074 	movhi	r2,257
 1000fe8:	109ee404 	addi	r2,r2,31632
 1000fec:	10800017 	ldw	r2,0(r2)
 1000ff0:	10800204 	addi	r2,r2,8
 1000ff4:	10800037 	ldwio	r2,0(r2)
 1000ff8:	1880000d 	sth	r2,0(r3)
    j = IORD(ISP1362_BASE,D13_DATA_PORT);

    if(j != len)
        j = len;

    for(i=0; i<j; i++)
 1000ffc:	e0bffc8b 	ldhu	r2,-14(fp)
 1001000:	10800044 	addi	r2,r2,1
 1001004:	e0bffc8d 	sth	r2,-14(fp)
 1001008:	e0fffc8b 	ldhu	r3,-14(fp)
 100100c:	e0bffc0b 	ldhu	r2,-16(fp)
 1001010:	18bfef36 	bltu	r3,r2,1000fd0 <Hal4D13_ReadISOEndpoint+0x6c>
        ISOBuffer[i] = IORD(ISP1362_BASE,D13_DATA_PORT);

    }

    /* Clear Buffer */
    IOWR(ISP1362_BASE,D13_COMMAND_PORT, D13CMD_EP_CLEAR_BUF+bEPIndex);
 1001014:	00804074 	movhi	r2,257
 1001018:	109ee404 	addi	r2,r2,31632
 100101c:	10800017 	ldw	r2,0(r2)
 1001020:	11000304 	addi	r4,r2,12
 1001024:	e0bffd03 	ldbu	r2,-12(fp)
 1001028:	10c01c04 	addi	r3,r2,112
 100102c:	2005883a 	mov	r2,r4
 1001030:	10c00035 	stwio	r3,0(r2)

    return j;
 1001034:	e0bffc0b 	ldhu	r2,-16(fp)
}
 1001038:	e037883a 	mov	sp,fp
 100103c:	df000017 	ldw	fp,0(sp)
 1001040:	dec00104 	addi	sp,sp,4
 1001044:	f800283a 	ret

01001048 <Hal4D13_WriteISOEndpoint>:

USHORT Hal4D13_WriteISOEndpoint(UCHAR bEPIndex, USHORT ISOBuffer[512], USHORT len)
{
 1001048:	defffa04 	addi	sp,sp,-24
 100104c:	dfc00515 	stw	ra,20(sp)
 1001050:	df000415 	stw	fp,16(sp)
 1001054:	df000404 	addi	fp,sp,16
 1001058:	e17ffe15 	stw	r5,-8(fp)
 100105c:	e13ffd05 	stb	r4,-12(fp)
 1001060:	e1bfff0d 	sth	r6,-4(fp)
    USHORT i;

    if(bD13flags.bits.At_IRQL1 == 0)
 1001064:	00804074 	movhi	r2,257
 1001068:	109ee504 	addi	r2,r2,31636
 100106c:	10800017 	ldw	r2,0(r2)
 1001070:	1080010c 	andi	r2,r2,4
 1001074:	1004c03a 	cmpne	r2,r2,zero
 1001078:	1000011e 	bne	r2,zero,1001080 <Hal4D13_WriteISOEndpoint+0x38>
        RaiseIRQL();
 100107c:	10045a80 	call	10045a8 <usb_disable_all_interrupts>

    IOWR(ISP1362_BASE,D13_COMMAND_PORT, D13CMD_EP_WR_FIFO + bEPIndex);
 1001080:	00804074 	movhi	r2,257
 1001084:	109ee404 	addi	r2,r2,31632
 1001088:	10800017 	ldw	r2,0(r2)
 100108c:	10800304 	addi	r2,r2,12
 1001090:	e0fffd03 	ldbu	r3,-12(fp)
 1001094:	10c00035 	stwio	r3,0(r2)

    IOWR(ISP1362_BASE,D13_DATA_PORT, 512);
 1001098:	00804074 	movhi	r2,257
 100109c:	109ee404 	addi	r2,r2,31632
 10010a0:	10800017 	ldw	r2,0(r2)
 10010a4:	10800204 	addi	r2,r2,8
 10010a8:	1007883a 	mov	r3,r2
 10010ac:	00808004 	movi	r2,512
 10010b0:	18800035 	stwio	r2,0(r3)

    /* Write Buffer */

    for(i=0; i<len; i++)
 10010b4:	e03ffc0d 	sth	zero,-16(fp)
 10010b8:	00001006 	br	10010fc <Hal4D13_WriteISOEndpoint+0xb4>
    {
        IOWR(ISP1362_BASE,D13_DATA_PORT, ISOBuffer[i]);
 10010bc:	00804074 	movhi	r2,257
 10010c0:	109ee404 	addi	r2,r2,31632
 10010c4:	10800017 	ldw	r2,0(r2)
 10010c8:	11000204 	addi	r4,r2,8
 10010cc:	e0bffc0b 	ldhu	r2,-16(fp)
 10010d0:	1085883a 	add	r2,r2,r2
 10010d4:	1007883a 	mov	r3,r2
 10010d8:	e0bffe17 	ldw	r2,-8(fp)
 10010dc:	1885883a 	add	r2,r3,r2
 10010e0:	1080000b 	ldhu	r2,0(r2)
 10010e4:	10ffffcc 	andi	r3,r2,65535
 10010e8:	2005883a 	mov	r2,r4
 10010ec:	10c00035 	stwio	r3,0(r2)

    IOWR(ISP1362_BASE,D13_DATA_PORT, 512);

    /* Write Buffer */

    for(i=0; i<len; i++)
 10010f0:	e0bffc0b 	ldhu	r2,-16(fp)
 10010f4:	10800044 	addi	r2,r2,1
 10010f8:	e0bffc0d 	sth	r2,-16(fp)
 10010fc:	e0fffc0b 	ldhu	r3,-16(fp)
 1001100:	e0bfff0b 	ldhu	r2,-4(fp)
 1001104:	18bfed36 	bltu	r3,r2,10010bc <Hal4D13_WriteISOEndpoint+0x74>
        IOWR(ISP1362_BASE,D13_DATA_PORT, ISOBuffer[i]);
    }



    if(bD13flags.bits.At_IRQL1 == 0)
 1001108:	00804074 	movhi	r2,257
 100110c:	109ee504 	addi	r2,r2,31636
 1001110:	10800017 	ldw	r2,0(r2)
 1001114:	1080010c 	andi	r2,r2,4
 1001118:	1004c03a 	cmpne	r2,r2,zero
 100111c:	1000011e 	bne	r2,zero,1001124 <Hal4D13_WriteISOEndpoint+0xdc>
        LowerIRQL();
 1001120:	10045f80 	call	10045f8 <usb_reenable_all_interrupts>

    return i;
 1001124:	e0bffc0b 	ldhu	r2,-16(fp)
}
 1001128:	e037883a 	mov	sp,fp
 100112c:	dfc00117 	ldw	ra,4(sp)
 1001130:	df000017 	ldw	fp,0(sp)
 1001134:	dec00204 	addi	sp,sp,8
 1001138:	f800283a 	ret

0100113c <Chap9_GetStatus>:
// *************************************************************************
// USB standard device requests
// *************************************************************************

void Chap9_GetStatus(void)
{
 100113c:	defffa04 	addi	sp,sp,-24
 1001140:	dfc00515 	stw	ra,20(sp)
 1001144:	df000415 	stw	fp,16(sp)
 1001148:	df000404 	addi	fp,sp,16
    UCHAR   endp, txdat[2];
    UCHAR   c;
    UCHAR   bRecipient = ControlData.DeviceRequest.bmRequestType & USB_RECIPIENT;
 100114c:	00804074 	movhi	r2,257
 1001150:	109f0c04 	addi	r2,r2,31792
 1001154:	10800083 	ldbu	r2,2(r2)
 1001158:	108007cc 	andi	r2,r2,31
 100115c:	e0bffc05 	stb	r2,-16(fp)


    if(bUSBCheck_Device_State.State_bits.DEVICE_ADDRESS_STATE)
 1001160:	00804074 	movhi	r2,257
 1001164:	109eee04 	addi	r2,r2,31672
 1001168:	10800003 	ldbu	r2,0(r2)
 100116c:	1080008c 	andi	r2,r2,2
 1001170:	10803fcc 	andi	r2,r2,255
 1001174:	1005003a 	cmpeq	r2,r2,zero
 1001178:	10003e1e 	bne	r2,zero,1001274 <Chap9_GetStatus+0x138>
    {
    switch(bRecipient)
 100117c:	e0bffc03 	ldbu	r2,-16(fp)
 1001180:	e0bfff15 	stw	r2,-4(fp)
 1001184:	e0ffff17 	ldw	r3,-4(fp)
 1001188:	18800060 	cmpeqi	r2,r3,1
 100118c:	1000171e 	bne	r2,zero,10011ec <Chap9_GetStatus+0xb0>
 1001190:	e0ffff17 	ldw	r3,-4(fp)
 1001194:	188000a0 	cmpeqi	r2,r3,2
 1001198:	1000161e 	bne	r2,zero,10011f4 <Chap9_GetStatus+0xb8>
 100119c:	e0ffff17 	ldw	r3,-4(fp)
 10011a0:	1805003a 	cmpeq	r2,r3,zero
 10011a4:	1000011e 	bne	r2,zero,10011ac <Chap9_GetStatus+0x70>
 10011a8:	00003006 	br	100126c <Chap9_GetStatus+0x130>
            {
            case USB_RECIPIENT_DEVICE:
                    if(bD13flags.bits.remote_wakeup == 1)
 10011ac:	00804074 	movhi	r2,257
 10011b0:	109ee504 	addi	r2,r2,31636
 10011b4:	10800017 	ldw	r2,0(r2)
 10011b8:	1080040c 	andi	r2,r2,16
 10011bc:	1005003a 	cmpeq	r2,r2,zero
 10011c0:	1000031e 	bne	r2,zero,10011d0 <Chap9_GetStatus+0x94>
                        txdat[0] = DEVSTS_SELFPOWERED|DEVSTS_REMOTEWAKEUP;   /* remote wakeup and Self-powered */
 10011c4:	008000c4 	movi	r2,3
 10011c8:	e0bffcc5 	stb	r2,-13(fp)
 10011cc:	00000206 	br	10011d8 <Chap9_GetStatus+0x9c>
                    else
                        txdat[0] = DEVSTS_SELFPOWERED;   /* Self-powered*/
 10011d0:	00800044 	movi	r2,1
 10011d4:	e0bffcc5 	stb	r2,-13(fp)
                    txdat[1]=0;
 10011d8:	e03ffd05 	stb	zero,-12(fp)

                    Chap9_SingleTransmitEP0(txdat, 2);
 10011dc:	e13ffcc4 	addi	r4,fp,-13
 10011e0:	01400084 	movi	r5,2
 10011e4:	10022000 	call	1002200 <Chap9_SingleTransmitEP0>
                    break;
 10011e8:	00007306 	br	10013b8 <Chap9_GetStatus+0x27c>

            case USB_RECIPIENT_INTERFACE:

                    Chap9_StallEP0InControlRead();
 10011ec:	100219c0 	call	100219c <Chap9_StallEP0InControlRead>
                    break;
 10011f0:	00007106 	br	10013b8 <Chap9_GetStatus+0x27c>

            case USB_RECIPIENT_ENDPOINT:

                    if( ControlData.DeviceRequest.wIndex == 0x00 )
 10011f4:	00804074 	movhi	r2,257
 10011f8:	109f0c04 	addi	r2,r2,31792
 10011fc:	1080018b 	ldhu	r2,6(r2)
 1001200:	10bfffcc 	andi	r2,r2,65535
 1001204:	1004c03a 	cmpne	r2,r2,zero
 1001208:	1000161e 	bne	r2,zero,1001264 <Chap9_GetStatus+0x128>
                    {
                        endp = -1;
 100120c:	00bfffc4 	movi	r2,-1
 1001210:	e0bffc85 	stb	r2,-14(fp)
                        c = Hal4D13_GetEndpointStatusWOInteruptClear(endp + 1);
 1001214:	e0bffc83 	ldbu	r2,-14(fp)
 1001218:	10800044 	addi	r2,r2,1
 100121c:	11003fcc 	andi	r4,r2,255
 1001220:	1003d440 	call	1003d44 <Hal4D13_GetEndpointStatusWOInteruptClear>
 1001224:	e0bffc45 	stb	r2,-15(fp)
                        if(c & D13REG_EPSTS_STALL)
 1001228:	e0bffc43 	ldbu	r2,-15(fp)
 100122c:	10803fcc 	andi	r2,r2,255
 1001230:	1080201c 	xori	r2,r2,128
 1001234:	10bfe004 	addi	r2,r2,-128
 1001238:	1004403a 	cmpge	r2,r2,zero
 100123c:	1000031e 	bne	r2,zero,100124c <Chap9_GetStatus+0x110>
                            txdat[0] = ENDPSTS_HALT;   /* Halt */
 1001240:	00800044 	movi	r2,1
 1001244:	e0bffcc5 	stb	r2,-13(fp)
 1001248:	00000106 	br	1001250 <Chap9_GetStatus+0x114>
                        else
                            txdat[0] = 0;
 100124c:	e03ffcc5 	stb	zero,-13(fp)

                        txdat[1] = 0;
 1001250:	e03ffd05 	stb	zero,-12(fp)

                        Chap9_SingleTransmitEP0(txdat, 2);
 1001254:	e13ffcc4 	addi	r4,fp,-13
 1001258:	01400084 	movi	r5,2
 100125c:	10022000 	call	1002200 <Chap9_SingleTransmitEP0>
 1001260:	00005506 	br	10013b8 <Chap9_GetStatus+0x27c>
                    }
                    else
                        Chap9_StallEP0InControlRead();
 1001264:	100219c0 	call	100219c <Chap9_StallEP0InControlRead>

                    break;
 1001268:	00005306 	br	10013b8 <Chap9_GetStatus+0x27c>

            default:
                    Chap9_StallEP0InControlRead();
 100126c:	100219c0 	call	100219c <Chap9_StallEP0InControlRead>
 1001270:	00005106 	br	10013b8 <Chap9_GetStatus+0x27c>
    }


    else
    {
        if(ControlData.DeviceRequest.wValue == 0 && ControlData.DeviceRequest.wLength == 2 )
 1001274:	00804074 	movhi	r2,257
 1001278:	109f0c04 	addi	r2,r2,31792
 100127c:	1080010b 	ldhu	r2,4(r2)
 1001280:	10bfffcc 	andi	r2,r2,65535
 1001284:	1004c03a 	cmpne	r2,r2,zero
 1001288:	10004b1e 	bne	r2,zero,10013b8 <Chap9_GetStatus+0x27c>
 100128c:	00804074 	movhi	r2,257
 1001290:	109f0c04 	addi	r2,r2,31792
 1001294:	1080020b 	ldhu	r2,8(r2)
 1001298:	10bfffcc 	andi	r2,r2,65535
 100129c:	10800098 	cmpnei	r2,r2,2
 10012a0:	1000451e 	bne	r2,zero,10013b8 <Chap9_GetStatus+0x27c>
        {
            switch(bRecipient)
 10012a4:	e0bffc03 	ldbu	r2,-16(fp)
 10012a8:	e0bffe15 	stw	r2,-8(fp)
 10012ac:	e0fffe17 	ldw	r3,-8(fp)
 10012b0:	18800060 	cmpeqi	r2,r3,1
 10012b4:	1000171e 	bne	r2,zero,1001314 <Chap9_GetStatus+0x1d8>
 10012b8:	e0fffe17 	ldw	r3,-8(fp)
 10012bc:	188000a0 	cmpeqi	r2,r3,2
 10012c0:	10001a1e 	bne	r2,zero,100132c <Chap9_GetStatus+0x1f0>
 10012c4:	e0fffe17 	ldw	r3,-8(fp)
 10012c8:	1805003a 	cmpeq	r2,r3,zero
 10012cc:	1000011e 	bne	r2,zero,10012d4 <Chap9_GetStatus+0x198>
 10012d0:	00003806 	br	10013b4 <Chap9_GetStatus+0x278>
            {
            case USB_RECIPIENT_DEVICE:
                    if(bD13flags.bits.remote_wakeup == 1)
 10012d4:	00804074 	movhi	r2,257
 10012d8:	109ee504 	addi	r2,r2,31636
 10012dc:	10800017 	ldw	r2,0(r2)
 10012e0:	1080040c 	andi	r2,r2,16
 10012e4:	1005003a 	cmpeq	r2,r2,zero
 10012e8:	1000031e 	bne	r2,zero,10012f8 <Chap9_GetStatus+0x1bc>
                        txdat[0] = DEVSTS_SELFPOWERED|DEVSTS_REMOTEWAKEUP;   /* remote wakeup and Self-powered */
 10012ec:	008000c4 	movi	r2,3
 10012f0:	e0bffcc5 	stb	r2,-13(fp)
 10012f4:	00000206 	br	1001300 <Chap9_GetStatus+0x1c4>
                    else
                        txdat[0] = DEVSTS_SELFPOWERED;   /* Self-powered*/
 10012f8:	00800044 	movi	r2,1
 10012fc:	e0bffcc5 	stb	r2,-13(fp)
                    txdat[1]=0;
 1001300:	e03ffd05 	stb	zero,-12(fp)

                    Chap9_SingleTransmitEP0(txdat, 2);
 1001304:	e13ffcc4 	addi	r4,fp,-13
 1001308:	01400084 	movi	r5,2
 100130c:	10022000 	call	1002200 <Chap9_SingleTransmitEP0>
                    break;
 1001310:	00002906 	br	10013b8 <Chap9_GetStatus+0x27c>

            case USB_RECIPIENT_INTERFACE:
                    txdat[0]=0;
 1001314:	e03ffcc5 	stb	zero,-13(fp)
                    txdat[1]=0;
 1001318:	e03ffd05 	stb	zero,-12(fp)

                    Chap9_SingleTransmitEP0(txdat, 2);
 100131c:	e13ffcc4 	addi	r4,fp,-13
 1001320:	01400084 	movi	r5,2
 1001324:	10022000 	call	1002200 <Chap9_SingleTransmitEP0>
                    break;
 1001328:	00002306 	br	10013b8 <Chap9_GetStatus+0x27c>

            case USB_RECIPIENT_ENDPOINT:

                    if( ControlData.DeviceRequest.wIndex == 0x00 )
 100132c:	00804074 	movhi	r2,257
 1001330:	109f0c04 	addi	r2,r2,31792
 1001334:	1080018b 	ldhu	r2,6(r2)
 1001338:	10bfffcc 	andi	r2,r2,65535
 100133c:	1004c03a 	cmpne	r2,r2,zero
 1001340:	1000031e 	bne	r2,zero,1001350 <Chap9_GetStatus+0x214>
                        endp = -1;
 1001344:	00bfffc4 	movi	r2,-1
 1001348:	e0bffc85 	stb	r2,-14(fp)
 100134c:	00000506 	br	1001364 <Chap9_GetStatus+0x228>
                    else
                        endp = (UCHAR)(ControlData.DeviceRequest.wIndex & MAX_ENDPOINTS);
 1001350:	00804074 	movhi	r2,257
 1001354:	109f0c04 	addi	r2,r2,31792
 1001358:	1080018b 	ldhu	r2,6(r2)
 100135c:	108003cc 	andi	r2,r2,15
 1001360:	e0bffc85 	stb	r2,-14(fp)

                    c = Hal4D13_GetEndpointStatusWOInteruptClear(endp + 1);
 1001364:	e0bffc83 	ldbu	r2,-14(fp)
 1001368:	10800044 	addi	r2,r2,1
 100136c:	11003fcc 	andi	r4,r2,255
 1001370:	1003d440 	call	1003d44 <Hal4D13_GetEndpointStatusWOInteruptClear>
 1001374:	e0bffc45 	stb	r2,-15(fp)
                    if(c & D13REG_EPSTS_STALL)
 1001378:	e0bffc43 	ldbu	r2,-15(fp)
 100137c:	10803fcc 	andi	r2,r2,255
 1001380:	1080201c 	xori	r2,r2,128
 1001384:	10bfe004 	addi	r2,r2,-128
 1001388:	1004403a 	cmpge	r2,r2,zero
 100138c:	1000031e 	bne	r2,zero,100139c <Chap9_GetStatus+0x260>
                        txdat[0] = ENDPSTS_HALT;   /* Halt */
 1001390:	00800044 	movi	r2,1
 1001394:	e0bffcc5 	stb	r2,-13(fp)
 1001398:	00000106 	br	10013a0 <Chap9_GetStatus+0x264>
                    else
                        txdat[0] = 0;
 100139c:	e03ffcc5 	stb	zero,-13(fp)

                    txdat[1] = 0;
 10013a0:	e03ffd05 	stb	zero,-12(fp)

                    Chap9_SingleTransmitEP0(txdat, 2);
 10013a4:	e13ffcc4 	addi	r4,fp,-13
 10013a8:	01400084 	movi	r5,2
 10013ac:	10022000 	call	1002200 <Chap9_SingleTransmitEP0>
                    break;
 10013b0:	00000106 	br	10013b8 <Chap9_GetStatus+0x27c>

            default:
                    Chap9_StallEP0InControlRead();
 10013b4:	100219c0 	call	100219c <Chap9_StallEP0InControlRead>
                    break;
            }
        }
    }

}
 10013b8:	e037883a 	mov	sp,fp
 10013bc:	dfc00117 	ldw	ra,4(sp)
 10013c0:	df000017 	ldw	fp,0(sp)
 10013c4:	dec00204 	addi	sp,sp,8
 10013c8:	f800283a 	ret

010013cc <Chap9_ClearFeature>:

void Chap9_ClearFeature(void)
{
 10013cc:	defffb04 	addi	sp,sp,-20
 10013d0:	dfc00415 	stw	ra,16(sp)
 10013d4:	df000315 	stw	fp,12(sp)
 10013d8:	df000304 	addi	fp,sp,12
    UCHAR   endp;
    UCHAR   bRecipient = ControlData.DeviceRequest.bmRequestType & USB_RECIPIENT;
 10013dc:	00804074 	movhi	r2,257
 10013e0:	109f0c04 	addi	r2,r2,31792
 10013e4:	10800083 	ldbu	r2,2(r2)
 10013e8:	108007cc 	andi	r2,r2,31
 10013ec:	e0bffd85 	stb	r2,-10(fp)
    USHORT  wFeature = ControlData.DeviceRequest.wValue;
 10013f0:	00804074 	movhi	r2,257
 10013f4:	109f0c04 	addi	r2,r2,31792
 10013f8:	1080010b 	ldhu	r2,4(r2)
 10013fc:	e0bffd0d 	sth	r2,-12(fp)

    if(bUSBCheck_Device_State.State_bits.DEVICE_ADDRESS_STATE)
 1001400:	00804074 	movhi	r2,257
 1001404:	109eee04 	addi	r2,r2,31672
 1001408:	10800003 	ldbu	r2,0(r2)
 100140c:	1080008c 	andi	r2,r2,2
 1001410:	10803fcc 	andi	r2,r2,255
 1001414:	1005003a 	cmpeq	r2,r2,zero
 1001418:	1000351e 	bne	r2,zero,10014f0 <Chap9_ClearFeature+0x124>
    {
        if( ControlData.DeviceRequest.wLength == 0 )
 100141c:	00804074 	movhi	r2,257
 1001420:	109f0c04 	addi	r2,r2,31792
 1001424:	1080020b 	ldhu	r2,8(r2)
 1001428:	10bfffcc 	andi	r2,r2,65535
 100142c:	1004c03a 	cmpne	r2,r2,zero
 1001430:	10006f1e 	bne	r2,zero,10015f0 <Chap9_ClearFeature+0x224>
        {
            switch(bRecipient)
 1001434:	e0bffd83 	ldbu	r2,-10(fp)
 1001438:	e0bfff15 	stw	r2,-4(fp)
 100143c:	e0ffff17 	ldw	r3,-4(fp)
 1001440:	1805003a 	cmpeq	r2,r3,zero
 1001444:	1000041e 	bne	r2,zero,1001458 <Chap9_ClearFeature+0x8c>
 1001448:	e0ffff17 	ldw	r3,-4(fp)
 100144c:	188000a0 	cmpeqi	r2,r3,2
 1001450:	1000101e 	bne	r2,zero,1001494 <Chap9_ClearFeature+0xc8>
 1001454:	00002406 	br	10014e8 <Chap9_ClearFeature+0x11c>
            {
            case USB_RECIPIENT_DEVICE:
                        if(wFeature == USB_FEATURE_REMOTE_WAKEUP)
 1001458:	e0bffd0b 	ldhu	r2,-12(fp)
 100145c:	10800058 	cmpnei	r2,r2,1
 1001460:	10000a1e 	bne	r2,zero,100148c <Chap9_ClearFeature+0xc0>
                        {
                        bD13flags.bits.remote_wakeup = 0;
 1001464:	01004074 	movhi	r4,257
 1001468:	211ee504 	addi	r4,r4,31636
 100146c:	20c00017 	ldw	r3,0(r4)
 1001470:	00bffbc4 	movi	r2,-17
 1001474:	1884703a 	and	r2,r3,r2
 1001478:	20800015 	stw	r2,0(r4)
                        Chap9_SingleTransmitEP0(0, 0);
 100147c:	0009883a 	mov	r4,zero
 1001480:	000b883a 	mov	r5,zero
 1001484:	10022000 	call	1002200 <Chap9_SingleTransmitEP0>
 1001488:	00005906 	br	10015f0 <Chap9_ClearFeature+0x224>
                        }
                        else
                            Chap9_StallEP0InControlWrite();
 100148c:	10021380 	call	1002138 <Chap9_StallEP0InControlWrite>

                        break;
 1001490:	00005706 	br	10015f0 <Chap9_ClearFeature+0x224>



            case USB_RECIPIENT_ENDPOINT:

                        if(wFeature == USB_FEATURE_ENDPOINT_STALL)
 1001494:	e0bffd0b 	ldhu	r2,-12(fp)
 1001498:	1004c03a 	cmpne	r2,r2,zero
 100149c:	1000101e 	bne	r2,zero,10014e0 <Chap9_ClearFeature+0x114>
                        {
                            if( ControlData.DeviceRequest.wIndex == 0x00 )
 10014a0:	00804074 	movhi	r2,257
 10014a4:	109f0c04 	addi	r2,r2,31792
 10014a8:	1080018b 	ldhu	r2,6(r2)
 10014ac:	10bfffcc 	andi	r2,r2,65535
 10014b0:	1004c03a 	cmpne	r2,r2,zero
 10014b4:	1000081e 	bne	r2,zero,10014d8 <Chap9_ClearFeature+0x10c>
                            {
                                endp = 0;
 10014b8:	e03ffdc5 	stb	zero,-9(fp)
                                Hal4D13_SetEndpointStatus(endp, 0);
 10014bc:	e13ffdc3 	ldbu	r4,-9(fp)
 10014c0:	000b883a 	mov	r5,zero
 10014c4:	1003dac0 	call	1003dac <Hal4D13_SetEndpointStatus>

                                Chap9_SingleTransmitEP0(0, 0);
 10014c8:	0009883a 	mov	r4,zero
 10014cc:	000b883a 	mov	r5,zero
 10014d0:	10022000 	call	1002200 <Chap9_SingleTransmitEP0>
 10014d4:	00004606 	br	10015f0 <Chap9_ClearFeature+0x224>
                            }
                            else
                            {
                                Chap9_StallEP0InControlWrite();
 10014d8:	10021380 	call	1002138 <Chap9_StallEP0InControlWrite>
                                break;
 10014dc:	00004406 	br	10015f0 <Chap9_ClearFeature+0x224>
                            }

                        }

                        else
                            Chap9_StallEP0InControlWrite();
 10014e0:	10021380 	call	1002138 <Chap9_StallEP0InControlWrite>

                        break;
 10014e4:	00004206 	br	10015f0 <Chap9_ClearFeature+0x224>


            default:
                        Chap9_StallEP0InControlWrite();
 10014e8:	10021380 	call	1002138 <Chap9_StallEP0InControlWrite>
 10014ec:	00004006 	br	10015f0 <Chap9_ClearFeature+0x224>
    }

    else
    {

        if( ControlData.DeviceRequest.wLength == 0 )
 10014f0:	00804074 	movhi	r2,257
 10014f4:	109f0c04 	addi	r2,r2,31792
 10014f8:	1080020b 	ldhu	r2,8(r2)
 10014fc:	10bfffcc 	andi	r2,r2,65535
 1001500:	1004c03a 	cmpne	r2,r2,zero
 1001504:	10003a1e 	bne	r2,zero,10015f0 <Chap9_ClearFeature+0x224>
        {
            switch(bRecipient)
 1001508:	e0bffd83 	ldbu	r2,-10(fp)
 100150c:	e0bffe15 	stw	r2,-8(fp)
 1001510:	e0fffe17 	ldw	r3,-8(fp)
 1001514:	1805003a 	cmpeq	r2,r3,zero
 1001518:	1000041e 	bne	r2,zero,100152c <Chap9_ClearFeature+0x160>
 100151c:	e0fffe17 	ldw	r3,-8(fp)
 1001520:	188000a0 	cmpeqi	r2,r3,2
 1001524:	1000101e 	bne	r2,zero,1001568 <Chap9_ClearFeature+0x19c>
 1001528:	00003006 	br	10015ec <Chap9_ClearFeature+0x220>
            {
            case USB_RECIPIENT_DEVICE:
                if(wFeature == USB_FEATURE_REMOTE_WAKEUP)
 100152c:	e0bffd0b 	ldhu	r2,-12(fp)
 1001530:	10800058 	cmpnei	r2,r2,1
 1001534:	10000a1e 	bne	r2,zero,1001560 <Chap9_ClearFeature+0x194>
                {
                    bD13flags.bits.remote_wakeup = 0;
 1001538:	01004074 	movhi	r4,257
 100153c:	211ee504 	addi	r4,r4,31636
 1001540:	20c00017 	ldw	r3,0(r4)
 1001544:	00bffbc4 	movi	r2,-17
 1001548:	1884703a 	and	r2,r3,r2
 100154c:	20800015 	stw	r2,0(r4)
                    Chap9_SingleTransmitEP0(0, 0);
 1001550:	0009883a 	mov	r4,zero
 1001554:	000b883a 	mov	r5,zero
 1001558:	10022000 	call	1002200 <Chap9_SingleTransmitEP0>
 100155c:	00002406 	br	10015f0 <Chap9_ClearFeature+0x224>
                }
                else
                {
                    Chap9_StallEP0InControlWrite();
 1001560:	10021380 	call	1002138 <Chap9_StallEP0InControlWrite>
                }

                break;
 1001564:	00002206 	br	10015f0 <Chap9_ClearFeature+0x224>

                case USB_RECIPIENT_ENDPOINT:

                if(wFeature == USB_FEATURE_ENDPOINT_STALL)
 1001568:	e0bffd0b 	ldhu	r2,-12(fp)
 100156c:	1004c03a 	cmpne	r2,r2,zero
 1001570:	10001c1e 	bne	r2,zero,10015e4 <Chap9_ClearFeature+0x218>
                {
                    if( ControlData.DeviceRequest.wIndex == 0x00 )
 1001574:	00804074 	movhi	r2,257
 1001578:	109f0c04 	addi	r2,r2,31792
 100157c:	1080018b 	ldhu	r2,6(r2)
 1001580:	10bfffcc 	andi	r2,r2,65535
 1001584:	1004c03a 	cmpne	r2,r2,zero
 1001588:	1000031e 	bne	r2,zero,1001598 <Chap9_ClearFeature+0x1cc>
                            endp = -1;
 100158c:	00bfffc4 	movi	r2,-1
 1001590:	e0bffdc5 	stb	r2,-9(fp)
 1001594:	00000506 	br	10015ac <Chap9_ClearFeature+0x1e0>
                    else
                        endp = (UCHAR)(ControlData.DeviceRequest.wIndex & MAX_ENDPOINTS);
 1001598:	00804074 	movhi	r2,257
 100159c:	109f0c04 	addi	r2,r2,31792
 10015a0:	1080018b 	ldhu	r2,6(r2)
 10015a4:	108003cc 	andi	r2,r2,15
 10015a8:	e0bffdc5 	stb	r2,-9(fp)

                    Hal4D13_SetEndpointStatus(endp+1, 0);
 10015ac:	e0bffdc3 	ldbu	r2,-9(fp)
 10015b0:	10800044 	addi	r2,r2,1
 10015b4:	11003fcc 	andi	r4,r2,255
 10015b8:	000b883a 	mov	r5,zero
 10015bc:	1003dac0 	call	1003dac <Hal4D13_SetEndpointStatus>
                    Hal4D13_SetEndpointStatus(endp+1, 0);
 10015c0:	e0bffdc3 	ldbu	r2,-9(fp)
 10015c4:	10800044 	addi	r2,r2,1
 10015c8:	11003fcc 	andi	r4,r2,255
 10015cc:	000b883a 	mov	r5,zero
 10015d0:	1003dac0 	call	1003dac <Hal4D13_SetEndpointStatus>

                    Chap9_SingleTransmitEP0(0, 0);
 10015d4:	0009883a 	mov	r4,zero
 10015d8:	000b883a 	mov	r5,zero
 10015dc:	10022000 	call	1002200 <Chap9_SingleTransmitEP0>
 10015e0:	00000306 	br	10015f0 <Chap9_ClearFeature+0x224>
                }
                else
                {
                    Chap9_StallEP0InControlWrite();
 10015e4:	10021380 	call	1002138 <Chap9_StallEP0InControlWrite>
                }
                break;
 10015e8:	00000106 	br	10015f0 <Chap9_ClearFeature+0x224>

            default:
                    Chap9_StallEP0InControlWrite();
 10015ec:	10021380 	call	1002138 <Chap9_StallEP0InControlWrite>
                    break;
            }
      }
    }

}
 10015f0:	e037883a 	mov	sp,fp
 10015f4:	dfc00117 	ldw	ra,4(sp)
 10015f8:	df000017 	ldw	fp,0(sp)
 10015fc:	dec00204 	addi	sp,sp,8
 1001600:	f800283a 	ret

01001604 <Chap9_SetFeature>:

void Chap9_SetFeature(void)
{
 1001604:	defffb04 	addi	sp,sp,-20
 1001608:	dfc00415 	stw	ra,16(sp)
 100160c:	df000315 	stw	fp,12(sp)
 1001610:	df000304 	addi	fp,sp,12
  UCHAR   endp = 0;
 1001614:	e03ffdc5 	stb	zero,-9(fp)
    UCHAR   bRecipient = ControlData.DeviceRequest.bmRequestType & USB_RECIPIENT;
 1001618:	00804074 	movhi	r2,257
 100161c:	109f0c04 	addi	r2,r2,31792
 1001620:	10800083 	ldbu	r2,2(r2)
 1001624:	108007cc 	andi	r2,r2,31
 1001628:	e0bffd85 	stb	r2,-10(fp)
    USHORT  wFeature = ControlData.DeviceRequest.wValue;
 100162c:	00804074 	movhi	r2,257
 1001630:	109f0c04 	addi	r2,r2,31792
 1001634:	1080010b 	ldhu	r2,4(r2)
 1001638:	e0bffd0d 	sth	r2,-12(fp)
  

    if(bUSBCheck_Device_State.State_bits.DEVICE_ADDRESS_STATE)
 100163c:	00804074 	movhi	r2,257
 1001640:	109eee04 	addi	r2,r2,31672
 1001644:	10800003 	ldbu	r2,0(r2)
 1001648:	1080008c 	andi	r2,r2,2
 100164c:	10803fcc 	andi	r2,r2,255
 1001650:	1005003a 	cmpeq	r2,r2,zero
 1001654:	10002f1e 	bne	r2,zero,1001714 <Chap9_SetFeature+0x110>
    {
        switch(bRecipient)
 1001658:	e0bffd83 	ldbu	r2,-10(fp)
 100165c:	e0bfff15 	stw	r2,-4(fp)
 1001660:	e0ffff17 	ldw	r3,-4(fp)
 1001664:	1805003a 	cmpeq	r2,r3,zero
 1001668:	1000041e 	bne	r2,zero,100167c <Chap9_SetFeature+0x78>
 100166c:	e0ffff17 	ldw	r3,-4(fp)
 1001670:	188000a0 	cmpeqi	r2,r3,2
 1001674:	10000f1e 	bne	r2,zero,10016b4 <Chap9_SetFeature+0xb0>
 1001678:	00002406 	br	100170c <Chap9_SetFeature+0x108>
        {
        case USB_RECIPIENT_DEVICE:
            if(wFeature == USB_FEATURE_REMOTE_WAKEUP)
 100167c:	e0bffd0b 	ldhu	r2,-12(fp)
 1001680:	10800058 	cmpnei	r2,r2,1
 1001684:	1000091e 	bne	r2,zero,10016ac <Chap9_SetFeature+0xa8>
            {
                bD13flags.bits.remote_wakeup = 1;
 1001688:	00804074 	movhi	r2,257
 100168c:	109ee504 	addi	r2,r2,31636
 1001690:	10c00017 	ldw	r3,0(r2)
 1001694:	18c00414 	ori	r3,r3,16
 1001698:	10c00015 	stw	r3,0(r2)
                Chap9_SingleTransmitEP0(0, 0);
 100169c:	0009883a 	mov	r4,zero
 10016a0:	000b883a 	mov	r5,zero
 10016a4:	10022000 	call	1002200 <Chap9_SingleTransmitEP0>
 10016a8:	00005b06 	br	1001818 <Chap9_SetFeature+0x214>
            }
            else
            {
                Chap9_StallEP0InControlWrite();
 10016ac:	10021380 	call	1002138 <Chap9_StallEP0InControlWrite>
            }
            break;
 10016b0:	00005906 	br	1001818 <Chap9_SetFeature+0x214>

        case USB_RECIPIENT_ENDPOINT:
            if( wFeature == USB_FEATURE_ENDPOINT_STALL)
 10016b4:	e0bffd0b 	ldhu	r2,-12(fp)
 10016b8:	1004c03a 	cmpne	r2,r2,zero
 10016bc:	1000111e 	bne	r2,zero,1001704 <Chap9_SetFeature+0x100>
            {
                if( ControlData.DeviceRequest.wIndex == 0x00 )
 10016c0:	00804074 	movhi	r2,257
 10016c4:	109f0c04 	addi	r2,r2,31792
 10016c8:	1080018b 	ldhu	r2,6(r2)
 10016cc:	10bfffcc 	andi	r2,r2,65535
 10016d0:	1004c03a 	cmpne	r2,r2,zero
 10016d4:	1000021e 	bne	r2,zero,10016e0 <Chap9_SetFeature+0xdc>
                    endp = -1;
 10016d8:	00bfffc4 	movi	r2,-1
 10016dc:	e0bffdc5 	stb	r2,-9(fp)

                Hal4D13_SetEndpointStatus(endp+1, D13REG_EPSTS_STALL);
 10016e0:	e0bffdc3 	ldbu	r2,-9(fp)
 10016e4:	10800044 	addi	r2,r2,1
 10016e8:	11003fcc 	andi	r4,r2,255
 10016ec:	01402004 	movi	r5,128
 10016f0:	1003dac0 	call	1003dac <Hal4D13_SetEndpointStatus>
                Chap9_SingleTransmitEP0(0, 0);
 10016f4:	0009883a 	mov	r4,zero
 10016f8:	000b883a 	mov	r5,zero
 10016fc:	10022000 	call	1002200 <Chap9_SingleTransmitEP0>
 1001700:	00004506 	br	1001818 <Chap9_SetFeature+0x214>

            }
            else
                Chap9_StallEP0InControlWrite();
 1001704:	10021380 	call	1002138 <Chap9_StallEP0InControlWrite>

            break;
 1001708:	00004306 	br	1001818 <Chap9_SetFeature+0x214>
        default:
            Chap9_StallEP0InControlWrite();
 100170c:	10021380 	call	1002138 <Chap9_StallEP0InControlWrite>
 1001710:	00004106 	br	1001818 <Chap9_SetFeature+0x214>
    }


    else
    {
        if( ControlData.DeviceRequest.wLength == 0 )
 1001714:	00804074 	movhi	r2,257
 1001718:	109f0c04 	addi	r2,r2,31792
 100171c:	1080020b 	ldhu	r2,8(r2)
 1001720:	10bfffcc 	andi	r2,r2,65535
 1001724:	1004c03a 	cmpne	r2,r2,zero
 1001728:	10003b1e 	bne	r2,zero,1001818 <Chap9_SetFeature+0x214>
        {
            switch(bRecipient)
 100172c:	e0bffd83 	ldbu	r2,-10(fp)
 1001730:	e0bffe15 	stw	r2,-8(fp)
 1001734:	e0fffe17 	ldw	r3,-8(fp)
 1001738:	1805003a 	cmpeq	r2,r3,zero
 100173c:	1000041e 	bne	r2,zero,1001750 <Chap9_SetFeature+0x14c>
 1001740:	e0fffe17 	ldw	r3,-8(fp)
 1001744:	188000a0 	cmpeqi	r2,r3,2
 1001748:	10000f1e 	bne	r2,zero,1001788 <Chap9_SetFeature+0x184>
 100174c:	00003106 	br	1001814 <Chap9_SetFeature+0x210>
            {
            case USB_RECIPIENT_DEVICE:
                if(wFeature == USB_FEATURE_REMOTE_WAKEUP)
 1001750:	e0bffd0b 	ldhu	r2,-12(fp)
 1001754:	10800058 	cmpnei	r2,r2,1
 1001758:	1000091e 	bne	r2,zero,1001780 <Chap9_SetFeature+0x17c>
                {
                    bD13flags.bits.remote_wakeup = 1;
 100175c:	00804074 	movhi	r2,257
 1001760:	109ee504 	addi	r2,r2,31636
 1001764:	10c00017 	ldw	r3,0(r2)
 1001768:	18c00414 	ori	r3,r3,16
 100176c:	10c00015 	stw	r3,0(r2)
                    Chap9_SingleTransmitEP0(0, 0);
 1001770:	0009883a 	mov	r4,zero
 1001774:	000b883a 	mov	r5,zero
 1001778:	10022000 	call	1002200 <Chap9_SingleTransmitEP0>
 100177c:	00002606 	br	1001818 <Chap9_SetFeature+0x214>
                }
                else
                {
                    Chap9_StallEP0InControlWrite();
 1001780:	10021380 	call	1002138 <Chap9_StallEP0InControlWrite>
                }
                break;
 1001784:	00002406 	br	1001818 <Chap9_SetFeature+0x214>
            case USB_RECIPIENT_ENDPOINT:
                if( wFeature == USB_FEATURE_ENDPOINT_STALL)
 1001788:	e0bffd0b 	ldhu	r2,-12(fp)
 100178c:	1004c03a 	cmpne	r2,r2,zero
 1001790:	1000171e 	bne	r2,zero,10017f0 <Chap9_SetFeature+0x1ec>
                {
                    if( ControlData.DeviceRequest.wIndex == 0x00 )
 1001794:	00804074 	movhi	r2,257
 1001798:	109f0c04 	addi	r2,r2,31792
 100179c:	1080018b 	ldhu	r2,6(r2)
 10017a0:	10bfffcc 	andi	r2,r2,65535
 10017a4:	1004c03a 	cmpne	r2,r2,zero
 10017a8:	1000031e 	bne	r2,zero,10017b8 <Chap9_SetFeature+0x1b4>
                        endp = -1;
 10017ac:	00bfffc4 	movi	r2,-1
 10017b0:	e0bffdc5 	stb	r2,-9(fp)
 10017b4:	00000506 	br	10017cc <Chap9_SetFeature+0x1c8>
                    else
                        endp = (UCHAR)(ControlData.DeviceRequest.wIndex & MAX_ENDPOINTS);
 10017b8:	00804074 	movhi	r2,257
 10017bc:	109f0c04 	addi	r2,r2,31792
 10017c0:	1080018b 	ldhu	r2,6(r2)
 10017c4:	108003cc 	andi	r2,r2,15
 10017c8:	e0bffdc5 	stb	r2,-9(fp)

                    Hal4D13_SetEndpointStatus(endp+1, D13REG_EPSTS_STALL);
 10017cc:	e0bffdc3 	ldbu	r2,-9(fp)
 10017d0:	10800044 	addi	r2,r2,1
 10017d4:	11003fcc 	andi	r4,r2,255
 10017d8:	01402004 	movi	r5,128
 10017dc:	1003dac0 	call	1003dac <Hal4D13_SetEndpointStatus>

                    Chap9_SingleTransmitEP0(0, 0);
 10017e0:	0009883a 	mov	r4,zero
 10017e4:	000b883a 	mov	r5,zero
 10017e8:	10022000 	call	1002200 <Chap9_SingleTransmitEP0>
 10017ec:	00000a06 	br	1001818 <Chap9_SetFeature+0x214>

                }
                else
                {
                    Hal4D13_SetEndpointStatus(endp+1, 0);
 10017f0:	e0bffdc3 	ldbu	r2,-9(fp)
 10017f4:	10800044 	addi	r2,r2,1
 10017f8:	11003fcc 	andi	r4,r2,255
 10017fc:	000b883a 	mov	r5,zero
 1001800:	1003dac0 	call	1003dac <Hal4D13_SetEndpointStatus>
                    Chap9_SingleTransmitEP0(0, 0);
 1001804:	0009883a 	mov	r4,zero
 1001808:	000b883a 	mov	r5,zero
 100180c:	10022000 	call	1002200 <Chap9_SingleTransmitEP0>
                }
                break;
 1001810:	00000106 	br	1001818 <Chap9_SetFeature+0x214>
            default:
                Chap9_StallEP0InControlWrite();
 1001814:	10021380 	call	1002138 <Chap9_StallEP0InControlWrite>
        }
    }



}
 1001818:	e037883a 	mov	sp,fp
 100181c:	dfc00117 	ldw	ra,4(sp)
 1001820:	df000017 	ldw	fp,0(sp)
 1001824:	dec00204 	addi	sp,sp,8
 1001828:	f800283a 	ret

0100182c <Chap9_SetAddress>:

void Chap9_SetAddress(void)
{
 100182c:	defffd04 	addi	sp,sp,-12
 1001830:	dfc00215 	stw	ra,8(sp)
 1001834:	df000115 	stw	fp,4(sp)
 1001838:	df000104 	addi	fp,sp,4

    UCHAR   j;

    {
        RaiseIRQL();
 100183c:	10045a80 	call	10045a8 <usb_disable_all_interrupts>
        usb_disable_all_interrupts();
 1001840:	10045a80 	call	10045a8 <usb_disable_all_interrupts>
        if(!ControlData.Abort)
 1001844:	00804074 	movhi	r2,257
 1001848:	109f0c04 	addi	r2,r2,31792
 100184c:	10800003 	ldbu	r2,0(r2)
 1001850:	10803fcc 	andi	r2,r2,255
 1001854:	1004c03a 	cmpne	r2,r2,zero
 1001858:	1000791e 	bne	r2,zero,1001a40 <Chap9_SetAddress+0x214>
        {
            if(bUSBCheck_Device_State.State_bits.DEVICE_DEFAULT_STATE)
 100185c:	00804074 	movhi	r2,257
 1001860:	109eee04 	addi	r2,r2,31672
 1001864:	10800003 	ldbu	r2,0(r2)
 1001868:	1080004c 	andi	r2,r2,1
 100186c:	10803fcc 	andi	r2,r2,255
 1001870:	1005003a 	cmpeq	r2,r2,zero
 1001874:	1000231e 	bne	r2,zero,1001904 <Chap9_SetAddress+0xd8>
            {
                if((ControlData.DeviceRequest.wValue & DEVICE_ADDRESS_MASK) != 0 )
 1001878:	00804074 	movhi	r2,257
 100187c:	109f0c04 	addi	r2,r2,31792
 1001880:	1080010b 	ldhu	r2,4(r2)
 1001884:	10bfffcc 	andi	r2,r2,65535
 1001888:	10801fcc 	andi	r2,r2,127
 100188c:	1005003a 	cmpeq	r2,r2,zero
 1001890:	1000161e 	bne	r2,zero,10018ec <Chap9_SetAddress+0xc0>
                {
                    bUSBCheck_Device_State.State_bits.DEVICE_DEFAULT_STATE = 0;
 1001894:	01004074 	movhi	r4,257
 1001898:	211eee04 	addi	r4,r4,31672
 100189c:	20c00003 	ldbu	r3,0(r4)
 10018a0:	00bfff84 	movi	r2,-2
 10018a4:	1884703a 	and	r2,r3,r2
 10018a8:	20800005 	stb	r2,0(r4)
                    Hal4D13_SetAddressEnable((UCHAR)(ControlData.DeviceRequest.wValue &
 10018ac:	00804074 	movhi	r2,257
 10018b0:	109f0c04 	addi	r2,r2,31792
 10018b4:	1080010b 	ldhu	r2,4(r2)
 10018b8:	10803fcc 	andi	r2,r2,255
 10018bc:	11001fcc 	andi	r4,r2,127
 10018c0:	01400044 	movi	r5,1
 10018c4:	10033640 	call	1003364 <Hal4D13_SetAddressEnable>
                                            DEVICE_ADDRESS_MASK), 1);
                    bUSBCheck_Device_State.State_bits.DEVICE_ADDRESS_STATE = 1;
 10018c8:	00c04074 	movhi	r3,257
 10018cc:	18deee04 	addi	r3,r3,31672
 10018d0:	18800003 	ldbu	r2,0(r3)
 10018d4:	10800094 	ori	r2,r2,2
 10018d8:	18800005 	stb	r2,0(r3)
                    Chap9_SingleTransmitEP0(0, 0);
 10018dc:	0009883a 	mov	r4,zero
 10018e0:	000b883a 	mov	r5,zero
 10018e4:	10022000 	call	1002200 <Chap9_SingleTransmitEP0>
 10018e8:	00005506 	br	1001a40 <Chap9_SetAddress+0x214>

                }

                else
                    bUSBCheck_Device_State.State_bits.DEVICE_DEFAULT_STATE = 1;
 10018ec:	00c04074 	movhi	r3,257
 10018f0:	18deee04 	addi	r3,r3,31672
 10018f4:	18800003 	ldbu	r2,0(r3)
 10018f8:	10800054 	ori	r2,r2,1
 10018fc:	18800005 	stb	r2,0(r3)
 1001900:	00004f06 	br	1001a40 <Chap9_SetAddress+0x214>
            }

            else if(bUSBCheck_Device_State.State_bits.DEVICE_ADDRESS_STATE)
 1001904:	00804074 	movhi	r2,257
 1001908:	109eee04 	addi	r2,r2,31672
 100190c:	10800003 	ldbu	r2,0(r2)
 1001910:	1080008c 	andi	r2,r2,2
 1001914:	10803fcc 	andi	r2,r2,255
 1001918:	1005003a 	cmpeq	r2,r2,zero
 100191c:	1000331e 	bne	r2,zero,10019ec <Chap9_SetAddress+0x1c0>
            {
                if((ControlData.DeviceRequest.wValue & DEVICE_ADDRESS_MASK) == 0 )
 1001920:	00804074 	movhi	r2,257
 1001924:	109f0c04 	addi	r2,r2,31792
 1001928:	1080010b 	ldhu	r2,4(r2)
 100192c:	10bfffcc 	andi	r2,r2,65535
 1001930:	10801fcc 	andi	r2,r2,127
 1001934:	1004c03a 	cmpne	r2,r2,zero
 1001938:	1000161e 	bne	r2,zero,1001994 <Chap9_SetAddress+0x168>
                {
                    Hal4D13_SetAddressEnable((UCHAR)(ControlData.DeviceRequest.wValue &
 100193c:	00804074 	movhi	r2,257
 1001940:	109f0c04 	addi	r2,r2,31792
 1001944:	1080010b 	ldhu	r2,4(r2)
 1001948:	10803fcc 	andi	r2,r2,255
 100194c:	11001fcc 	andi	r4,r2,127
 1001950:	01400044 	movi	r5,1
 1001954:	10033640 	call	1003364 <Hal4D13_SetAddressEnable>
                                            DEVICE_ADDRESS_MASK), 1);
                    bUSBCheck_Device_State.State_bits.DEVICE_DEFAULT_STATE = 1;
 1001958:	00c04074 	movhi	r3,257
 100195c:	18deee04 	addi	r3,r3,31672
 1001960:	18800003 	ldbu	r2,0(r3)
 1001964:	10800054 	ori	r2,r2,1
 1001968:	18800005 	stb	r2,0(r3)
                    bUSBCheck_Device_State.State_bits.DEVICE_ADDRESS_STATE = 0;
 100196c:	01004074 	movhi	r4,257
 1001970:	211eee04 	addi	r4,r4,31672
 1001974:	20c00003 	ldbu	r3,0(r4)
 1001978:	00bfff44 	movi	r2,-3
 100197c:	1884703a 	and	r2,r3,r2
 1001980:	20800005 	stb	r2,0(r4)
                    Chap9_SingleTransmitEP0(0, 0);
 1001984:	0009883a 	mov	r4,zero
 1001988:	000b883a 	mov	r5,zero
 100198c:	10022000 	call	1002200 <Chap9_SingleTransmitEP0>
 1001990:	00002b06 	br	1001a40 <Chap9_SetAddress+0x214>

                }

                else
                {
                    bUSBCheck_Device_State.State_bits.DEVICE_DEFAULT_STATE = 0;
 1001994:	01004074 	movhi	r4,257
 1001998:	211eee04 	addi	r4,r4,31672
 100199c:	20c00003 	ldbu	r3,0(r4)
 10019a0:	00bfff84 	movi	r2,-2
 10019a4:	1884703a 	and	r2,r3,r2
 10019a8:	20800005 	stb	r2,0(r4)
                    Hal4D13_SetAddressEnable((UCHAR)(ControlData.DeviceRequest.wValue &
 10019ac:	00804074 	movhi	r2,257
 10019b0:	109f0c04 	addi	r2,r2,31792
 10019b4:	1080010b 	ldhu	r2,4(r2)
 10019b8:	10803fcc 	andi	r2,r2,255
 10019bc:	11001fcc 	andi	r4,r2,127
 10019c0:	01400044 	movi	r5,1
 10019c4:	10033640 	call	1003364 <Hal4D13_SetAddressEnable>
                                            DEVICE_ADDRESS_MASK), 1);
                    bUSBCheck_Device_State.State_bits.DEVICE_ADDRESS_STATE = 1;
 10019c8:	00c04074 	movhi	r3,257
 10019cc:	18deee04 	addi	r3,r3,31672
 10019d0:	18800003 	ldbu	r2,0(r3)
 10019d4:	10800094 	ori	r2,r2,2
 10019d8:	18800005 	stb	r2,0(r3)
                    Chap9_SingleTransmitEP0(0, 0);
 10019dc:	0009883a 	mov	r4,zero
 10019e0:	000b883a 	mov	r5,zero
 10019e4:	10022000 	call	1002200 <Chap9_SingleTransmitEP0>
 10019e8:	00001506 	br	1001a40 <Chap9_SetAddress+0x214>
            }

            else
            {

                bUSBCheck_Device_State.State_bits.DEVICE_CONFIGURATION_STATE = 0;
 10019ec:	01004074 	movhi	r4,257
 10019f0:	211eee04 	addi	r4,r4,31672
 10019f4:	20c00003 	ldbu	r3,0(r4)
 10019f8:	00bffec4 	movi	r2,-5
 10019fc:	1884703a 	and	r2,r3,r2
 1001a00:	20800005 	stb	r2,0(r4)
                bUSBCheck_Device_State.State_bits.DEVICE_ADDRESS_STATE = 0;
 1001a04:	01004074 	movhi	r4,257
 1001a08:	211eee04 	addi	r4,r4,31672
 1001a0c:	20c00003 	ldbu	r3,0(r4)
 1001a10:	00bfff44 	movi	r2,-3
 1001a14:	1884703a 	and	r2,r3,r2
 1001a18:	20800005 	stb	r2,0(r4)
                bUSBCheck_Device_State.State_bits.DEVICE_DEFAULT_STATE = 1;
 1001a1c:	00c04074 	movhi	r3,257
 1001a20:	18deee04 	addi	r3,r3,31672
 1001a24:	18800003 	ldbu	r2,0(r3)
 1001a28:	10800054 	ori	r2,r2,1
 1001a2c:	18800005 	stb	r2,0(r3)
                j = DEV_BEHAVIOUR_NOT_SPECIFIED;
 1001a30:	e03fff05 	stb	zero,-4(fp)
                Chap9_SingleTransmitEP0(&j, 0);
 1001a34:	e13fff04 	addi	r4,fp,-4
 1001a38:	000b883a 	mov	r5,zero
 1001a3c:	10022000 	call	1002200 <Chap9_SingleTransmitEP0>
            }

        }
        LowerIRQL();
 1001a40:	10045f80 	call	10045f8 <usb_reenable_all_interrupts>
        usb_reenable_all_interrupts();
 1001a44:	10045f80 	call	10045f8 <usb_reenable_all_interrupts>

    }
//    printf("USB Addr %x\n",Hal4D13_GetAddress());
}
 1001a48:	e037883a 	mov	sp,fp
 1001a4c:	dfc00117 	ldw	ra,4(sp)
 1001a50:	df000017 	ldw	fp,0(sp)
 1001a54:	dec00204 	addi	sp,sp,8
 1001a58:	f800283a 	ret

01001a5c <Chap9_GetDescriptor>:


void Chap9_GetDescriptor(void)
{
 1001a5c:	defffb04 	addi	sp,sp,-20
 1001a60:	dfc00415 	stw	ra,16(sp)
 1001a64:	df000315 	stw	fp,12(sp)
 1001a68:	df000304 	addi	fp,sp,12
    UCHAR   bDescriptor =      MSB(ControlData.DeviceRequest.wValue);
 1001a6c:	00804074 	movhi	r2,257
 1001a70:	109f0c04 	addi	r2,r2,31792
 1001a74:	1080010b 	ldhu	r2,4(r2)
 1001a78:	10bfffcc 	andi	r2,r2,65535
 1001a7c:	1004d23a 	srli	r2,r2,8
 1001a80:	1007883a 	mov	r3,r2
 1001a84:	00bfffc4 	movi	r2,-1
 1001a88:	1884703a 	and	r2,r3,r2
 1001a8c:	e0bffd45 	stb	r2,-11(fp)
    UCHAR   bDescriptorIndex = LSB(ControlData.DeviceRequest.wValue);
 1001a90:	00804074 	movhi	r2,257
 1001a94:	109f0c04 	addi	r2,r2,31792
 1001a98:	1080010b 	ldhu	r2,4(r2)
 1001a9c:	1007883a 	mov	r3,r2
 1001aa0:	00bfffc4 	movi	r2,-1
 1001aa4:	1884703a 	and	r2,r3,r2
 1001aa8:	e0bffd05 	stb	r2,-12(fp)
  //printf("bDescri %d",bDescriptor);
 // printf("Index %d\n",bDescriptorIndex);
//  printf("USB_DEVICE_DESCRIPTORsize %d\n",sizeof(USB_DEVICE_DESCRIPTOR));
 // printf("CONFIGURATIONsize %d\n",sizeof(USB_CONFIGURATION_DESCRIPTOR_a));
    switch(bDescriptor)
 1001aac:	e0bffd43 	ldbu	r2,-11(fp)
 1001ab0:	e0bfff15 	stw	r2,-4(fp)
 1001ab4:	e0ffff17 	ldw	r3,-4(fp)
 1001ab8:	188000a0 	cmpeqi	r2,r3,2
 1001abc:	10000c1e 	bne	r2,zero,1001af0 <Chap9_GetDescriptor+0x94>
 1001ac0:	e13fff17 	ldw	r4,-4(fp)
 1001ac4:	208000e0 	cmpeqi	r2,r4,3
 1001ac8:	10000e1e 	bne	r2,zero,1001b04 <Chap9_GetDescriptor+0xa8>
 1001acc:	e0ffff17 	ldw	r3,-4(fp)
 1001ad0:	18800060 	cmpeqi	r2,r3,1
 1001ad4:	1000011e 	bne	r2,zero,1001adc <Chap9_GetDescriptor+0x80>
 1001ad8:	00005106 	br	1001c20 <Chap9_GetDescriptor+0x1c4>
    //sDevice sConfiguration
    //sizeof(struct CONFIGURATION)
//sizeof( struct DEVICE)

    case USB_DEVICE_DESCRIPTOR_TYPE:{//1
        Chap9_BurstTransmitEP0( (PUCHAR)&DeviceDescr , sizeof(USB_DEVICE_DESCRIPTOR));
 1001adc:	01004074 	movhi	r4,257
 1001ae0:	210fc904 	addi	r4,r4,16164
 1001ae4:	01400484 	movi	r5,18
 1001ae8:	100229c0 	call	100229c <Chap9_BurstTransmitEP0>
//      Chap9_BurstTransmitEP0((PUCHAR)&sDevice,sizeof(struct DEVICE));
        break;}
 1001aec:	00004d06 	br	1001c24 <Chap9_GetDescriptor+0x1c8>
    case USB_CONFIGURATION_DESCRIPTOR_TYPE:{//2
//      Chap9_BurstTransmitEP0((PUCHAR)&ConfigDescr, CONFIG_DESCRIPTOR_LENGTH);

      
            //printf("\nConfigDescr     \n");  
          Chap9_BurstTransmitEP0((PUCHAR)&ConfigDescr_a, sizeof(USB_CONFIGURATION_DESCRIPTOR_a));//sizeof(USB_CONFIGURATION_DESCRIPTOR));
 1001af0:	01004074 	movhi	r4,257
 1001af4:	210fcd84 	addi	r4,r4,16182
 1001af8:	01400b84 	movi	r5,46
 1001afc:	100229c0 	call	100229c <Chap9_BurstTransmitEP0>
   //       printf("\nInterfaceDescr0  ");    Chap9_BurstTransmitEP0((PUCHAR)&InterfaceDescr0, sizeof(USB_INTERFACE_DESCRIPTOR));
//          printf("\nEP1_TXDesc       ");     Chap9_BurstTransmitEP0((PUCHAR)&EP1_TXDescr, sizeof(USB_ENDPOINT_DESCRIPTOR));
  //        printf("\nEP1_RXDescr      ");    Chap9_BurstTransmitEP0((PUCHAR)&EP1_RXDescr, sizeof(USB_ENDPOINT_DESCRIPTOR));
    //      printf("\nEP2_TXDescr      ");    Chap9_BurstTransmitEP0((PUCHAR)&EP2_TXDescr, sizeof(USB_ENDPOINT_DESCRIPTOR));
      //    printf("\nEP2_RXDescr      ");    Chap9_BurstTransmitEP0((PUCHAR)&EP2_RXDescr, sizeof(USB_ENDPOINT_DESCRIPTOR));
        break;}
 1001b00:	00004806 	br	1001c24 <Chap9_GetDescriptor+0x1c8>
    case USB_STRING_DESCRIPTOR_TYPE://3
        switch(bDescriptorIndex)
 1001b04:	e13ffd03 	ldbu	r4,-12(fp)
 1001b08:	e13ffe15 	stw	r4,-8(fp)
 1001b0c:	e0fffe17 	ldw	r3,-8(fp)
 1001b10:	188001a8 	cmpgeui	r2,r3,6
 1001b14:	10003e1e 	bne	r2,zero,1001c10 <Chap9_GetDescriptor+0x1b4>
 1001b18:	e13ffe17 	ldw	r4,-8(fp)
 1001b1c:	e13ffe17 	ldw	r4,-8(fp)
 1001b20:	2105883a 	add	r2,r4,r4
 1001b24:	1087883a 	add	r3,r2,r2
 1001b28:	00804034 	movhi	r2,256
 1001b2c:	1086cf04 	addi	r2,r2,6972
 1001b30:	1885883a 	add	r2,r3,r2
 1001b34:	10800017 	ldw	r2,0(r2)
 1001b38:	1000683a 	jmp	r2
 1001b3c:	01001b54 	movui	r4,109
 1001b40:	01001b70 	cmpltui	r4,zero,109
 1001b44:	01001b90 	cmplti	r4,zero,110
 1001b48:	01001bb0 	cmpltui	r4,zero,110
 1001b4c:	01001bd0 	cmplti	r4,zero,111
 1001b50:	01001bf0 	cmpltui	r4,zero,111
        {
        case STR_INDEX_LANGUAGE:
            printf("\n str1     \n");
 1001b54:	01004074 	movhi	r4,257
 1001b58:	210d6004 	addi	r4,r4,13696
 1001b5c:	1005f940 	call	1005f94 <puts>
      Chap9_BurstTransmitEP0((PUCHAR)&strLanguage, sizeof(USB_STRING_LANGUAGE_DESCRIPTOR));
 1001b60:	d1200484 	addi	r4,gp,-32750
 1001b64:	01400104 	movi	r5,4
 1001b68:	100229c0 	call	100229c <Chap9_BurstTransmitEP0>
            break;
 1001b6c:	00002c06 	br	1001c20 <Chap9_GetDescriptor+0x1c4>
        case STR_INDEX_MANUFACTURER:
            printf("\n str2     \n");Chap9_BurstTransmitEP0((PUCHAR)&strManufacturer, sizeof(USB_STRING_MANUFACTURER_DESCRIPTOR));
 1001b70:	01004074 	movhi	r4,257
 1001b74:	210d6304 	addi	r4,r4,13708
 1001b78:	1005f940 	call	1005f94 <puts>
 1001b7c:	01004074 	movhi	r4,257
 1001b80:	21102584 	addi	r4,r4,16534
 1001b84:	01400e04 	movi	r5,56
 1001b88:	100229c0 	call	100229c <Chap9_BurstTransmitEP0>
            break;
 1001b8c:	00002406 	br	1001c20 <Chap9_GetDescriptor+0x1c4>
        case STR_INDEX_PRODUCT:
            printf("\n str3     \n");Chap9_BurstTransmitEP0((PUCHAR)&strProduct, sizeof(USB_STRING_PRODUCT_DESCRIPTOR));
 1001b90:	01004074 	movhi	r4,257
 1001b94:	210d6604 	addi	r4,r4,13720
 1001b98:	1005f940 	call	1005f94 <puts>
 1001b9c:	01004074 	movhi	r4,257
 1001ba0:	21101504 	addi	r4,r4,16468
 1001ba4:	01401084 	movi	r5,66
 1001ba8:	100229c0 	call	100229c <Chap9_BurstTransmitEP0>
            break;
 1001bac:	00001c06 	br	1001c20 <Chap9_GetDescriptor+0x1c4>
        case STR_INDEX_SERIALNUMBER:
            printf("\n str4     \n");Chap9_BurstTransmitEP0((PUCHAR)&strSerialNum, sizeof(USB_STRING_SERIALNUMBER_DESCRIPTOR));
 1001bb0:	01004074 	movhi	r4,257
 1001bb4:	210d6904 	addi	r4,r4,13732
 1001bb8:	1005f940 	call	1005f94 <puts>
 1001bbc:	01004074 	movhi	r4,257
 1001bc0:	21100e84 	addi	r4,r4,16442
 1001bc4:	01400684 	movi	r5,26
 1001bc8:	100229c0 	call	100229c <Chap9_BurstTransmitEP0>
            break;
 1001bcc:	00001406 	br	1001c20 <Chap9_GetDescriptor+0x1c4>
        case STR_INDEX_CONFIGURATION:
            printf("\n str5     \n");Chap9_BurstTransmitEP0((PUCHAR)&strConfiguration, sizeof(USB_STRING_CONFIGURATION_DESCRIPTOR) );
 1001bd0:	01004074 	movhi	r4,257
 1001bd4:	210d6c04 	addi	r4,r4,13744
 1001bd8:	1005f940 	call	1005f94 <puts>
 1001bdc:	01004074 	movhi	r4,257
 1001be0:	21100a04 	addi	r4,r4,16424
 1001be4:	01400484 	movi	r5,18
 1001be8:	100229c0 	call	100229c <Chap9_BurstTransmitEP0>
            break;
 1001bec:	00000c06 	br	1001c20 <Chap9_GetDescriptor+0x1c4>
        case STR_INDEX_INTERFACE:
            printf("\n str6     \n");Chap9_BurstTransmitEP0((PUCHAR)&strInterface, sizeof(USB_STRING_INTERFACE_DESCRIPTOR) );
 1001bf0:	01004074 	movhi	r4,257
 1001bf4:	210d6f04 	addi	r4,r4,13756
 1001bf8:	1005f940 	call	1005f94 <puts>
 1001bfc:	01004074 	movhi	r4,257
 1001c00:	21100404 	addi	r4,r4,16400
 1001c04:	01400604 	movi	r5,24
 1001c08:	100229c0 	call	100229c <Chap9_BurstTransmitEP0>
            break;
 1001c0c:	00000406 	br	1001c20 <Chap9_GetDescriptor+0x1c4>
        default:
            printf("\n str7     \n");Chap9_StallEP0InControlRead();
 1001c10:	01004074 	movhi	r4,257
 1001c14:	210d7204 	addi	r4,r4,13768
 1001c18:	1005f940 	call	1005f94 <puts>
 1001c1c:	100219c0 	call	100219c <Chap9_StallEP0InControlRead>
        }
    case USB_INTERFACE_DESCRIPTOR_TYPE:
    case USB_ENDPOINT_DESCRIPTOR_TYPE:
    case USB_POWER_DESCRIPTOR_TYPE:
    default:
        Chap9_StallEP0InControlRead();
 1001c20:	100219c0 	call	100219c <Chap9_StallEP0InControlRead>
        break;
    }
}
 1001c24:	e037883a 	mov	sp,fp
 1001c28:	dfc00117 	ldw	ra,4(sp)
 1001c2c:	df000017 	ldw	fp,0(sp)
 1001c30:	dec00204 	addi	sp,sp,8
 1001c34:	f800283a 	ret

01001c38 <Chap9_GetConfiguration>:

void Chap9_GetConfiguration(void)
{
 1001c38:	defffd04 	addi	sp,sp,-12
 1001c3c:	dfc00215 	stw	ra,8(sp)
 1001c40:	df000115 	stw	fp,4(sp)
 1001c44:	df000104 	addi	fp,sp,4
    UCHAR   c = bD13flags.bits.configuration;
 1001c48:	00804074 	movhi	r2,257
 1001c4c:	109ee504 	addi	r2,r2,31636
 1001c50:	10800017 	ldw	r2,0(r2)
 1001c54:	1004d0fa 	srli	r2,r2,3
 1001c58:	1080004c 	andi	r2,r2,1
 1001c5c:	e0bfff05 	stb	r2,-4(fp)
    UCHAR   j;

    if(bUSBCheck_Device_State.State_bits.DEVICE_ADDRESS_STATE)
 1001c60:	00804074 	movhi	r2,257
 1001c64:	109eee04 	addi	r2,r2,31672
 1001c68:	10800003 	ldbu	r2,0(r2)
 1001c6c:	1080008c 	andi	r2,r2,2
 1001c70:	10803fcc 	andi	r2,r2,255
 1001c74:	1005003a 	cmpeq	r2,r2,zero
 1001c78:	1000051e 	bne	r2,zero,1001c90 <Chap9_GetConfiguration+0x58>
    {
        j = 0;
 1001c7c:	e03fff45 	stb	zero,-3(fp)
        Chap9_SingleTransmitEP0(&j, 1);
 1001c80:	e13fff44 	addi	r4,fp,-3
 1001c84:	01400044 	movi	r5,1
 1001c88:	10022000 	call	1002200 <Chap9_SingleTransmitEP0>
 1001c8c:	00001506 	br	1001ce4 <Chap9_GetConfiguration+0xac>
    }

    else
    {
        if (ControlData.DeviceRequest.wValue == 0 && ControlData.DeviceRequest.wIndex == 0 && ControlData.DeviceRequest.wLength == 1)
 1001c90:	00804074 	movhi	r2,257
 1001c94:	109f0c04 	addi	r2,r2,31792
 1001c98:	1080010b 	ldhu	r2,4(r2)
 1001c9c:	10bfffcc 	andi	r2,r2,65535
 1001ca0:	1004c03a 	cmpne	r2,r2,zero
 1001ca4:	10000f1e 	bne	r2,zero,1001ce4 <Chap9_GetConfiguration+0xac>
 1001ca8:	00804074 	movhi	r2,257
 1001cac:	109f0c04 	addi	r2,r2,31792
 1001cb0:	1080018b 	ldhu	r2,6(r2)
 1001cb4:	10bfffcc 	andi	r2,r2,65535
 1001cb8:	1004c03a 	cmpne	r2,r2,zero
 1001cbc:	1000091e 	bne	r2,zero,1001ce4 <Chap9_GetConfiguration+0xac>
 1001cc0:	00804074 	movhi	r2,257
 1001cc4:	109f0c04 	addi	r2,r2,31792
 1001cc8:	1080020b 	ldhu	r2,8(r2)
 1001ccc:	10bfffcc 	andi	r2,r2,65535
 1001cd0:	10800058 	cmpnei	r2,r2,1
 1001cd4:	1000031e 	bne	r2,zero,1001ce4 <Chap9_GetConfiguration+0xac>
        {

        Chap9_SingleTransmitEP0(&c, 1);
 1001cd8:	e13fff04 	addi	r4,fp,-4
 1001cdc:	01400044 	movi	r5,1
 1001ce0:	10022000 	call	1002200 <Chap9_SingleTransmitEP0>
        }
    }

}
 1001ce4:	e037883a 	mov	sp,fp
 1001ce8:	dfc00117 	ldw	ra,4(sp)
 1001cec:	df000017 	ldw	fp,0(sp)
 1001cf0:	dec00204 	addi	sp,sp,8
 1001cf4:	f800283a 	ret

01001cf8 <Chap9_SetConfiguration>:

void Chap9_SetConfiguration(void)
{
 1001cf8:	defffe04 	addi	sp,sp,-8
 1001cfc:	dfc00115 	stw	ra,4(sp)
 1001d00:	df000015 	stw	fp,0(sp)
 1001d04:	d839883a 	mov	fp,sp
  
    if(bUSBCheck_Device_State.State_bits.DEVICE_ADDRESS_STATE)
 1001d08:	00804074 	movhi	r2,257
 1001d0c:	109eee04 	addi	r2,r2,31672
 1001d10:	10800003 	ldbu	r2,0(r2)
 1001d14:	1080008c 	andi	r2,r2,2
 1001d18:	10803fcc 	andi	r2,r2,255
 1001d1c:	1005003a 	cmpeq	r2,r2,zero
 1001d20:	10003d1e 	bne	r2,zero,1001e18 <Chap9_SetConfiguration+0x120>
    {
        if(ControlData.DeviceRequest.wIndex == 0 && ControlData.DeviceRequest.wLength == 0)
 1001d24:	00804074 	movhi	r2,257
 1001d28:	109f0c04 	addi	r2,r2,31792
 1001d2c:	1080018b 	ldhu	r2,6(r2)
 1001d30:	10bfffcc 	andi	r2,r2,65535
 1001d34:	1004c03a 	cmpne	r2,r2,zero
 1001d38:	10006d1e 	bne	r2,zero,1001ef0 <Chap9_SetConfiguration+0x1f8>
 1001d3c:	00804074 	movhi	r2,257
 1001d40:	109f0c04 	addi	r2,r2,31792
 1001d44:	1080020b 	ldhu	r2,8(r2)
 1001d48:	10bfffcc 	andi	r2,r2,65535
 1001d4c:	1004c03a 	cmpne	r2,r2,zero
 1001d50:	1000671e 	bne	r2,zero,1001ef0 <Chap9_SetConfiguration+0x1f8>
        {
            if (ControlData.DeviceRequest.wValue == 0)
 1001d54:	00804074 	movhi	r2,257
 1001d58:	109f0c04 	addi	r2,r2,31792
 1001d5c:	1080010b 	ldhu	r2,4(r2)
 1001d60:	10bfffcc 	andi	r2,r2,65535
 1001d64:	1004c03a 	cmpne	r2,r2,zero
 1001d68:	10000f1e 	bne	r2,zero,1001da8 <Chap9_SetConfiguration+0xb0>
            {
                /* put device in unconfigured state */
                bD13flags.bits.configuration = 0;
 1001d6c:	01004074 	movhi	r4,257
 1001d70:	211ee504 	addi	r4,r4,31636
 1001d74:	20c00017 	ldw	r3,0(r4)
 1001d78:	00bffdc4 	movi	r2,-9
 1001d7c:	1884703a 	and	r2,r3,r2
 1001d80:	20800015 	stw	r2,0(r4)
                bUSBCheck_Device_State.State_bits.DEVICE_ADDRESS_STATE = 1;
 1001d84:	00c04074 	movhi	r3,257
 1001d88:	18deee04 	addi	r3,r3,31672
 1001d8c:	18800003 	ldbu	r2,0(r3)
 1001d90:	10800094 	ori	r2,r2,2
 1001d94:	18800005 	stb	r2,0(r3)
                Chap9_SingleTransmitEP0(0, 0);
 1001d98:	0009883a 	mov	r4,zero
 1001d9c:	000b883a 	mov	r5,zero
 1001da0:	10022000 	call	1002200 <Chap9_SingleTransmitEP0>
 1001da4:	00005206 	br	1001ef0 <Chap9_SetConfiguration+0x1f8>
            }
            else if (ControlData.DeviceRequest.wValue == 1)
 1001da8:	00804074 	movhi	r2,257
 1001dac:	109f0c04 	addi	r2,r2,31792
 1001db0:	1080010b 	ldhu	r2,4(r2)
 1001db4:	10bfffcc 	andi	r2,r2,65535
 1001db8:	10800058 	cmpnei	r2,r2,1
 1001dbc:	1000141e 	bne	r2,zero,1001e10 <Chap9_SetConfiguration+0x118>
            {
                /* Configure device */
                bD13flags.bits.configuration = 1;
 1001dc0:	00c04074 	movhi	r3,257
 1001dc4:	18dee504 	addi	r3,r3,31636
 1001dc8:	18800017 	ldw	r2,0(r3)
 1001dcc:	10800214 	ori	r2,r2,8
 1001dd0:	18800015 	stw	r2,0(r3)
                bUSBCheck_Device_State.State_bits.DEVICE_ADDRESS_STATE = 0;
 1001dd4:	01004074 	movhi	r4,257
 1001dd8:	211eee04 	addi	r4,r4,31672
 1001ddc:	20c00003 	ldbu	r3,0(r4)
 1001de0:	00bfff44 	movi	r2,-3
 1001de4:	1884703a 	and	r2,r3,r2
 1001de8:	20800005 	stb	r2,0(r4)
                bUSBCheck_Device_State.State_bits.DEVICE_CONFIGURATION_STATE = 1;
 1001dec:	00c04074 	movhi	r3,257
 1001df0:	18deee04 	addi	r3,r3,31672
 1001df4:	18800003 	ldbu	r2,0(r3)
 1001df8:	10800114 	ori	r2,r2,4
 1001dfc:	18800005 	stb	r2,0(r3)
                Chap9_SingleTransmitEP0(0, 0);
 1001e00:	0009883a 	mov	r4,zero
 1001e04:	000b883a 	mov	r5,zero
 1001e08:	10022000 	call	1002200 <Chap9_SingleTransmitEP0>
 1001e0c:	00003806 	br	1001ef0 <Chap9_SetConfiguration+0x1f8>
            }

            else
                Chap9_StallEP0InControlWrite();
 1001e10:	10021380 	call	1002138 <Chap9_StallEP0InControlWrite>
 1001e14:	00003606 	br	1001ef0 <Chap9_SetConfiguration+0x1f8>
        }
    }

    else
    {
        if (ControlData.DeviceRequest.wValue == 0)
 1001e18:	00804074 	movhi	r2,257
 1001e1c:	109f0c04 	addi	r2,r2,31792
 1001e20:	1080010b 	ldhu	r2,4(r2)
 1001e24:	10bfffcc 	andi	r2,r2,65535
 1001e28:	1004c03a 	cmpne	r2,r2,zero
 1001e2c:	1000151e 	bne	r2,zero,1001e84 <Chap9_SetConfiguration+0x18c>
        {
            /* put device in unconfigured state */
            bD13flags.bits.configuration = 0;
 1001e30:	01004074 	movhi	r4,257
 1001e34:	211ee504 	addi	r4,r4,31636
 1001e38:	20c00017 	ldw	r3,0(r4)
 1001e3c:	00bffdc4 	movi	r2,-9
 1001e40:	1884703a 	and	r2,r3,r2
 1001e44:	20800015 	stw	r2,0(r4)
            bUSBCheck_Device_State.State_bits.DEVICE_ADDRESS_STATE = 1;
 1001e48:	00c04074 	movhi	r3,257
 1001e4c:	18deee04 	addi	r3,r3,31672
 1001e50:	18800003 	ldbu	r2,0(r3)
 1001e54:	10800094 	ori	r2,r2,2
 1001e58:	18800005 	stb	r2,0(r3)
            bUSBCheck_Device_State.State_bits.DEVICE_CONFIGURATION_STATE = 0;
 1001e5c:	01004074 	movhi	r4,257
 1001e60:	211eee04 	addi	r4,r4,31672
 1001e64:	20c00003 	ldbu	r3,0(r4)
 1001e68:	00bffec4 	movi	r2,-5
 1001e6c:	1884703a 	and	r2,r3,r2
 1001e70:	20800005 	stb	r2,0(r4)
            Chap9_SingleTransmitEP0(0, 0);
 1001e74:	0009883a 	mov	r4,zero
 1001e78:	000b883a 	mov	r5,zero
 1001e7c:	10022000 	call	1002200 <Chap9_SingleTransmitEP0>
 1001e80:	00001b06 	br	1001ef0 <Chap9_SetConfiguration+0x1f8>

        }

        else if (ControlData.DeviceRequest.wValue == 1)
 1001e84:	00804074 	movhi	r2,257
 1001e88:	109f0c04 	addi	r2,r2,31792
 1001e8c:	1080010b 	ldhu	r2,4(r2)
 1001e90:	10bfffcc 	andi	r2,r2,65535
 1001e94:	10800058 	cmpnei	r2,r2,1
 1001e98:	1000141e 	bne	r2,zero,1001eec <Chap9_SetConfiguration+0x1f4>
        {
            /* Configure device */
            bD13flags.bits.configuration = 1;
 1001e9c:	00c04074 	movhi	r3,257
 1001ea0:	18dee504 	addi	r3,r3,31636
 1001ea4:	18800017 	ldw	r2,0(r3)
 1001ea8:	10800214 	ori	r2,r2,8
 1001eac:	18800015 	stw	r2,0(r3)
            bUSBCheck_Device_State.State_bits.DEVICE_ADDRESS_STATE = 0;
 1001eb0:	01004074 	movhi	r4,257
 1001eb4:	211eee04 	addi	r4,r4,31672
 1001eb8:	20c00003 	ldbu	r3,0(r4)
 1001ebc:	00bfff44 	movi	r2,-3
 1001ec0:	1884703a 	and	r2,r3,r2
 1001ec4:	20800005 	stb	r2,0(r4)
            bUSBCheck_Device_State.State_bits.DEVICE_CONFIGURATION_STATE = 1;
 1001ec8:	00c04074 	movhi	r3,257
 1001ecc:	18deee04 	addi	r3,r3,31672
 1001ed0:	18800003 	ldbu	r2,0(r3)
 1001ed4:	10800114 	ori	r2,r2,4
 1001ed8:	18800005 	stb	r2,0(r3)
            Chap9_SingleTransmitEP0(0, 0);
 1001edc:	0009883a 	mov	r4,zero
 1001ee0:	000b883a 	mov	r5,zero
 1001ee4:	10022000 	call	1002200 <Chap9_SingleTransmitEP0>
 1001ee8:	00000106 	br	1001ef0 <Chap9_SetConfiguration+0x1f8>
        }
        else
            Chap9_StallEP0InControlWrite();
 1001eec:	10021380 	call	1002138 <Chap9_StallEP0InControlWrite>
    }

}
 1001ef0:	e037883a 	mov	sp,fp
 1001ef4:	dfc00117 	ldw	ra,4(sp)
 1001ef8:	df000017 	ldw	fp,0(sp)
 1001efc:	dec00204 	addi	sp,sp,8
 1001f00:	f800283a 	ret

01001f04 <Chap9_GetInterface>:

void Chap9_GetInterface(void)
{
 1001f04:	defffe04 	addi	sp,sp,-8
 1001f08:	dfc00115 	stw	ra,4(sp)
 1001f0c:	df000015 	stw	fp,0(sp)
 1001f10:	d839883a 	mov	fp,sp

    if(bUSBCheck_Device_State.State_bits.DEVICE_ADDRESS_STATE)
 1001f14:	00804074 	movhi	r2,257
 1001f18:	109eee04 	addi	r2,r2,31672
 1001f1c:	10800003 	ldbu	r2,0(r2)
 1001f20:	1080008c 	andi	r2,r2,2
 1001f24:	10803fcc 	andi	r2,r2,255
 1001f28:	1005003a 	cmpeq	r2,r2,zero
 1001f2c:	1000021e 	bne	r2,zero,1001f38 <Chap9_GetInterface+0x34>
        Chap9_StallEP0InControlRead();
 1001f30:	100219c0 	call	100219c <Chap9_StallEP0InControlRead>
 1001f34:	00001706 	br	1001f94 <Chap9_GetInterface+0x90>


    else
    {

        if ((ControlData.DeviceRequest.wValue == 0 && ControlData.DeviceRequest.wIndex == 0 && ControlData.DeviceRequest.wLength == 1))
 1001f38:	00804074 	movhi	r2,257
 1001f3c:	109f0c04 	addi	r2,r2,31792
 1001f40:	1080010b 	ldhu	r2,4(r2)
 1001f44:	10bfffcc 	andi	r2,r2,65535
 1001f48:	1004c03a 	cmpne	r2,r2,zero
 1001f4c:	1000101e 	bne	r2,zero,1001f90 <Chap9_GetInterface+0x8c>
 1001f50:	00804074 	movhi	r2,257
 1001f54:	109f0c04 	addi	r2,r2,31792
 1001f58:	1080018b 	ldhu	r2,6(r2)
 1001f5c:	10bfffcc 	andi	r2,r2,65535
 1001f60:	1004c03a 	cmpne	r2,r2,zero
 1001f64:	10000a1e 	bne	r2,zero,1001f90 <Chap9_GetInterface+0x8c>
 1001f68:	00804074 	movhi	r2,257
 1001f6c:	109f0c04 	addi	r2,r2,31792
 1001f70:	1080020b 	ldhu	r2,8(r2)
 1001f74:	10bfffcc 	andi	r2,r2,65535
 1001f78:	10800058 	cmpnei	r2,r2,1
 1001f7c:	1000041e 	bne	r2,zero,1001f90 <Chap9_GetInterface+0x8c>
            Chap9_SingleTransmitEP0(&ALTERNATIVE_SETTING, 1);      //txdat
 1001f80:	d127b884 	addi	r4,gp,-24862
 1001f84:	01400044 	movi	r5,1
 1001f88:	10022000 	call	1002200 <Chap9_SingleTransmitEP0>


    else
    {

        if ((ControlData.DeviceRequest.wValue == 0 && ControlData.DeviceRequest.wIndex == 0 && ControlData.DeviceRequest.wLength == 1))
 1001f8c:	00000106 	br	1001f94 <Chap9_GetInterface+0x90>
            Chap9_SingleTransmitEP0(&ALTERNATIVE_SETTING, 1);      //txdat
        else
            Chap9_StallEP0InControlRead();
 1001f90:	100219c0 	call	100219c <Chap9_StallEP0InControlRead>
    }

}
 1001f94:	e037883a 	mov	sp,fp
 1001f98:	dfc00117 	ldw	ra,4(sp)
 1001f9c:	df000017 	ldw	fp,0(sp)
 1001fa0:	dec00204 	addi	sp,sp,8
 1001fa4:	f800283a 	ret

01001fa8 <Chap9_SetInterface>:

void Chap9_SetInterface(void)
{
 1001fa8:	defffd04 	addi	sp,sp,-12
 1001fac:	dfc00215 	stw	ra,8(sp)
 1001fb0:	df000115 	stw	fp,4(sp)
 1001fb4:	df000104 	addi	fp,sp,4
    UCHAR   dir = ControlData.DeviceRequest.bmRequestType & USB_REQUEST_DIR_MASK;
 1001fb8:	00804074 	movhi	r2,257
 1001fbc:	109f0c04 	addi	r2,r2,31792
 1001fc0:	10c00083 	ldbu	r3,2(r2)
 1001fc4:	00bfe004 	movi	r2,-128
 1001fc8:	1884703a 	and	r2,r3,r2
 1001fcc:	e0bfff05 	stb	r2,-4(fp)

    if(dir)
 1001fd0:	e0bfff03 	ldbu	r2,-4(fp)
 1001fd4:	1005003a 	cmpeq	r2,r2,zero
 1001fd8:	1000011e 	bne	r2,zero,1001fe0 <Chap9_SetInterface+0x38>
        Chap9_StallEP0InControlRead();
 1001fdc:	100219c0 	call	100219c <Chap9_StallEP0InControlRead>


    if(bUSBCheck_Device_State.State_bits.DEVICE_ADDRESS_STATE)
 1001fe0:	00804074 	movhi	r2,257
 1001fe4:	109eee04 	addi	r2,r2,31672
 1001fe8:	10800003 	ldbu	r2,0(r2)
 1001fec:	1080008c 	andi	r2,r2,2
 1001ff0:	10803fcc 	andi	r2,r2,255
 1001ff4:	1005003a 	cmpeq	r2,r2,zero
 1001ff8:	1000021e 	bne	r2,zero,1002004 <Chap9_SetInterface+0x5c>
        Chap9_StallEP0InControlRead();
 1001ffc:	100219c0 	call	100219c <Chap9_StallEP0InControlRead>
 1002000:	00002406 	br	1002094 <Chap9_SetInterface+0xec>


    else
    {

        if (ControlData.DeviceRequest.wValue == 0 && ControlData.DeviceRequest.wIndex == 0)
 1002004:	00804074 	movhi	r2,257
 1002008:	109f0c04 	addi	r2,r2,31792
 100200c:	1080010b 	ldhu	r2,4(r2)
 1002010:	10bfffcc 	andi	r2,r2,65535
 1002014:	1004c03a 	cmpne	r2,r2,zero
 1002018:	10000b1e 	bne	r2,zero,1002048 <Chap9_SetInterface+0xa0>
 100201c:	00804074 	movhi	r2,257
 1002020:	109f0c04 	addi	r2,r2,31792
 1002024:	1080018b 	ldhu	r2,6(r2)
 1002028:	10bfffcc 	andi	r2,r2,65535
 100202c:	1004c03a 	cmpne	r2,r2,zero
 1002030:	1000051e 	bne	r2,zero,1002048 <Chap9_SetInterface+0xa0>
        {
            ALTERNATIVE_SETTING = 0;
 1002034:	d027b885 	stb	zero,-24862(gp)
            Chap9_SingleTransmitEP0(0,0);
 1002038:	0009883a 	mov	r4,zero
 100203c:	000b883a 	mov	r5,zero
 1002040:	10022000 	call	1002200 <Chap9_SingleTransmitEP0>


    else
    {

        if (ControlData.DeviceRequest.wValue == 0 && ControlData.DeviceRequest.wIndex == 0)
 1002044:	00001306 	br	1002094 <Chap9_SetInterface+0xec>
        {
            ALTERNATIVE_SETTING = 0;
            Chap9_SingleTransmitEP0(0,0);
        }

        else if (ControlData.DeviceRequest.wValue == 1 && ControlData.DeviceRequest.wIndex == 0)
 1002048:	00804074 	movhi	r2,257
 100204c:	109f0c04 	addi	r2,r2,31792
 1002050:	1080010b 	ldhu	r2,4(r2)
 1002054:	10bfffcc 	andi	r2,r2,65535
 1002058:	10800058 	cmpnei	r2,r2,1
 100205c:	10000c1e 	bne	r2,zero,1002090 <Chap9_SetInterface+0xe8>
 1002060:	00804074 	movhi	r2,257
 1002064:	109f0c04 	addi	r2,r2,31792
 1002068:	1080018b 	ldhu	r2,6(r2)
 100206c:	10bfffcc 	andi	r2,r2,65535
 1002070:	1004c03a 	cmpne	r2,r2,zero
 1002074:	1000061e 	bne	r2,zero,1002090 <Chap9_SetInterface+0xe8>
        {
            ALTERNATIVE_SETTING = 1;
 1002078:	00800044 	movi	r2,1
 100207c:	d0a7b885 	stb	r2,-24862(gp)
            Chap9_SingleTransmitEP0(0,0);
 1002080:	0009883a 	mov	r4,zero
 1002084:	000b883a 	mov	r5,zero
 1002088:	10022000 	call	1002200 <Chap9_SingleTransmitEP0>
        {
            ALTERNATIVE_SETTING = 0;
            Chap9_SingleTransmitEP0(0,0);
        }

        else if (ControlData.DeviceRequest.wValue == 1 && ControlData.DeviceRequest.wIndex == 0)
 100208c:	00000106 	br	1002094 <Chap9_SetInterface+0xec>
            ALTERNATIVE_SETTING = 1;
            Chap9_SingleTransmitEP0(0,0);
        }
        else
        {
            Chap9_StallEP0InControlWrite();
 1002090:	10021380 	call	1002138 <Chap9_StallEP0InControlWrite>
        }
    }

}
 1002094:	e037883a 	mov	sp,fp
 1002098:	dfc00117 	ldw	ra,4(sp)
 100209c:	df000017 	ldw	fp,0(sp)
 10020a0:	dec00204 	addi	sp,sp,8
 10020a4:	f800283a 	ret

010020a8 <Chap9_StallEP0>:
// *************************************************************************
// Chap9 support functions
// *************************************************************************

void Chap9_StallEP0(void)
{
 10020a8:	defffd04 	addi	sp,sp,-12
 10020ac:	dfc00215 	stw	ra,8(sp)
 10020b0:	df000115 	stw	fp,4(sp)
 10020b4:	df000104 	addi	fp,sp,4
    UCHAR dir;
    dir = ControlData.DeviceRequest.bmRequestType & USB_REQUEST_DIR_MASK;
 10020b8:	00804074 	movhi	r2,257
 10020bc:	109f0c04 	addi	r2,r2,31792
 10020c0:	10c00083 	ldbu	r3,2(r2)
 10020c4:	00bfe004 	movi	r2,-128
 10020c8:	1884703a 	and	r2,r3,r2
 10020cc:	e0bfff05 	stb	r2,-4(fp)
    if(dir)
 10020d0:	e0bfff03 	ldbu	r2,-4(fp)
 10020d4:	1005003a 	cmpeq	r2,r2,zero
 10020d8:	1000021e 	bne	r2,zero,10020e4 <Chap9_StallEP0+0x3c>
    {
        Hal4D13_StallEP0InControlRead();
 10020dc:	10044900 	call	1004490 <Hal4D13_StallEP0InControlRead>
 10020e0:	00000106 	br	10020e8 <Chap9_StallEP0+0x40>
    }
    else
    {
        Hal4D13_StallEP0InControlWrite();
 10020e4:	10044540 	call	1004454 <Hal4D13_StallEP0InControlWrite>
    }

    RaiseIRQL();
 10020e8:	10045a80 	call	10045a8 <usb_disable_all_interrupts>
    if(!ControlData.Abort)
 10020ec:	00804074 	movhi	r2,257
 10020f0:	109f0c04 	addi	r2,r2,31792
 10020f4:	10800003 	ldbu	r2,0(r2)
 10020f8:	10803fcc 	andi	r2,r2,255
 10020fc:	1004c03a 	cmpne	r2,r2,zero
 1002100:	1000071e 	bne	r2,zero,1002120 <Chap9_StallEP0+0x78>
    {
        bD13flags.bits.DCP_state = USBFSM4DCP_STALL;
 1002104:	01004074 	movhi	r4,257
 1002108:	211ee504 	addi	r4,r4,31636
 100210c:	20c00017 	ldw	r3,0(r4)
 1002110:	00bc3fc4 	movi	r2,-3841
 1002114:	1884703a 	and	r2,r3,r2
 1002118:	1081c014 	ori	r2,r2,1792
 100211c:	20800015 	stw	r2,0(r4)

    }
    LowerIRQL();
 1002120:	10045f80 	call	10045f8 <usb_reenable_all_interrupts>
}
 1002124:	e037883a 	mov	sp,fp
 1002128:	dfc00117 	ldw	ra,4(sp)
 100212c:	df000017 	ldw	fp,0(sp)
 1002130:	dec00204 	addi	sp,sp,8
 1002134:	f800283a 	ret

01002138 <Chap9_StallEP0InControlWrite>:
void Chap9_StallEP0InControlWrite(void)
{
 1002138:	defffe04 	addi	sp,sp,-8
 100213c:	dfc00115 	stw	ra,4(sp)
 1002140:	df000015 	stw	fp,0(sp)
 1002144:	d839883a 	mov	fp,sp
    Hal4D13_StallEP0InControlWrite();
 1002148:	10044540 	call	1004454 <Hal4D13_StallEP0InControlWrite>

    RaiseIRQL();
 100214c:	10045a80 	call	10045a8 <usb_disable_all_interrupts>
    if(!ControlData.Abort)
 1002150:	00804074 	movhi	r2,257
 1002154:	109f0c04 	addi	r2,r2,31792
 1002158:	10800003 	ldbu	r2,0(r2)
 100215c:	10803fcc 	andi	r2,r2,255
 1002160:	1004c03a 	cmpne	r2,r2,zero
 1002164:	1000071e 	bne	r2,zero,1002184 <Chap9_StallEP0InControlWrite+0x4c>
    {
        bD13flags.bits.DCP_state = USBFSM4DCP_STALL;
 1002168:	01004074 	movhi	r4,257
 100216c:	211ee504 	addi	r4,r4,31636
 1002170:	20c00017 	ldw	r3,0(r4)
 1002174:	00bc3fc4 	movi	r2,-3841
 1002178:	1884703a 	and	r2,r3,r2
 100217c:	1081c014 	ori	r2,r2,1792
 1002180:	20800015 	stw	r2,0(r4)

    }
    LowerIRQL();
 1002184:	10045f80 	call	10045f8 <usb_reenable_all_interrupts>
}
 1002188:	e037883a 	mov	sp,fp
 100218c:	dfc00117 	ldw	ra,4(sp)
 1002190:	df000017 	ldw	fp,0(sp)
 1002194:	dec00204 	addi	sp,sp,8
 1002198:	f800283a 	ret

0100219c <Chap9_StallEP0InControlRead>:

void Chap9_StallEP0InControlRead(void)
{
 100219c:	defffe04 	addi	sp,sp,-8
 10021a0:	dfc00115 	stw	ra,4(sp)
 10021a4:	df000015 	stw	fp,0(sp)
 10021a8:	d839883a 	mov	fp,sp
    Hal4D13_StallEP0InControlRead();
 10021ac:	10044900 	call	1004490 <Hal4D13_StallEP0InControlRead>
    RaiseIRQL();
 10021b0:	10045a80 	call	10045a8 <usb_disable_all_interrupts>
    if(!ControlData.Abort)
 10021b4:	00804074 	movhi	r2,257
 10021b8:	109f0c04 	addi	r2,r2,31792
 10021bc:	10800003 	ldbu	r2,0(r2)
 10021c0:	10803fcc 	andi	r2,r2,255
 10021c4:	1004c03a 	cmpne	r2,r2,zero
 10021c8:	1000071e 	bne	r2,zero,10021e8 <Chap9_StallEP0InControlRead+0x4c>
    {
        bD13flags.bits.DCP_state = USBFSM4DCP_STALL;
 10021cc:	01004074 	movhi	r4,257
 10021d0:	211ee504 	addi	r4,r4,31636
 10021d4:	20c00017 	ldw	r3,0(r4)
 10021d8:	00bc3fc4 	movi	r2,-3841
 10021dc:	1884703a 	and	r2,r3,r2
 10021e0:	1081c014 	ori	r2,r2,1792
 10021e4:	20800015 	stw	r2,0(r4)

    }
    LowerIRQL();
 10021e8:	10045f80 	call	10045f8 <usb_reenable_all_interrupts>
}
 10021ec:	e037883a 	mov	sp,fp
 10021f0:	dfc00117 	ldw	ra,4(sp)
 10021f4:	df000017 	ldw	fp,0(sp)
 10021f8:	dec00204 	addi	sp,sp,8
 10021fc:	f800283a 	ret

01002200 <Chap9_SingleTransmitEP0>:

void Chap9_SingleTransmitEP0(PUCHAR buf, USHORT len)
{
 1002200:	defffc04 	addi	sp,sp,-16
 1002204:	dfc00315 	stw	ra,12(sp)
 1002208:	df000215 	stw	fp,8(sp)
 100220c:	df000204 	addi	fp,sp,8
 1002210:	e13ffe15 	stw	r4,-8(fp)
 1002214:	e17fff0d 	sth	r5,-4(fp)

    Hal4D13_SingleTransmitEP0(buf, len);
 1002218:	e17fff0b 	ldhu	r5,-4(fp)
 100221c:	e13ffe17 	ldw	r4,-8(fp)
 1002220:	10042a40 	call	10042a4 <Hal4D13_SingleTransmitEP0>

    RaiseIRQL();
 1002224:	10045a80 	call	10045a8 <usb_disable_all_interrupts>
    if(!ControlData.Abort)
 1002228:	00804074 	movhi	r2,257
 100222c:	109f0c04 	addi	r2,r2,31792
 1002230:	10800003 	ldbu	r2,0(r2)
 1002234:	10803fcc 	andi	r2,r2,255
 1002238:	1004c03a 	cmpne	r2,r2,zero
 100223c:	1000111e 	bne	r2,zero,1002284 <Chap9_SingleTransmitEP0+0x84>
    {
        ControlData.wLength = ControlData.wCount = len;
 1002240:	00c04074 	movhi	r3,257
 1002244:	18df0c04 	addi	r3,r3,31792
 1002248:	e0bfff0b 	ldhu	r2,-4(fp)
 100224c:	1880030d 	sth	r2,12(r3)
 1002250:	00804074 	movhi	r2,257
 1002254:	109f0c04 	addi	r2,r2,31792
 1002258:	10c0030b 	ldhu	r3,12(r2)
 100225c:	00804074 	movhi	r2,257
 1002260:	109f0c04 	addi	r2,r2,31792
 1002264:	10c0028d 	sth	r3,10(r2)
        bD13flags.bits.DCP_state = USBFSM4DCP_HANDSHAKE;
 1002268:	01004074 	movhi	r4,257
 100226c:	211ee504 	addi	r4,r4,31636
 1002270:	20c00017 	ldw	r3,0(r4)
 1002274:	00bc3fc4 	movi	r2,-3841
 1002278:	1884703a 	and	r2,r3,r2
 100227c:	10810014 	ori	r2,r2,1024
 1002280:	20800015 	stw	r2,0(r4)

    }
    LowerIRQL();
 1002284:	10045f80 	call	10045f8 <usb_reenable_all_interrupts>
}
 1002288:	e037883a 	mov	sp,fp
 100228c:	dfc00117 	ldw	ra,4(sp)
 1002290:	df000017 	ldw	fp,0(sp)
 1002294:	dec00204 	addi	sp,sp,8
 1002298:	f800283a 	ret

0100229c <Chap9_BurstTransmitEP0>:

void Chap9_BurstTransmitEP0(PUCHAR pData, USHORT len)
{
 100229c:	defffc04 	addi	sp,sp,-16
 10022a0:	dfc00315 	stw	ra,12(sp)
 10022a4:	df000215 	stw	fp,8(sp)
 10022a8:	df000204 	addi	fp,sp,8
 10022ac:	e13ffe15 	stw	r4,-8(fp)
 10022b0:	e17fff0d 	sth	r5,-4(fp)
    ControlData.wCount = 0;
 10022b4:	00804074 	movhi	r2,257
 10022b8:	109f0c04 	addi	r2,r2,31792
 10022bc:	1000030d 	sth	zero,12(r2)
    if(ControlData.wLength > len)
 10022c0:	00804074 	movhi	r2,257
 10022c4:	109f0c04 	addi	r2,r2,31792
 10022c8:	1080028b 	ldhu	r2,10(r2)
 10022cc:	10ffffcc 	andi	r3,r2,65535
 10022d0:	e0bfff0b 	ldhu	r2,-4(fp)
 10022d4:	10c0042e 	bgeu	r2,r3,10022e8 <Chap9_BurstTransmitEP0+0x4c>
        ControlData.wLength = len;
 10022d8:	00c04074 	movhi	r3,257
 10022dc:	18df0c04 	addi	r3,r3,31792
 10022e0:	e0bfff0b 	ldhu	r2,-4(fp)
 10022e4:	1880028d 	sth	r2,10(r3)

    ControlData.Addr.pData = pData;
 10022e8:	00c04074 	movhi	r3,257
 10022ec:	18df0c04 	addi	r3,r3,31792
 10022f0:	e0bffe17 	ldw	r2,-8(fp)
 10022f4:	18800415 	stw	r2,16(r3)

        if( ControlData.wLength >= EP0_PACKET_SIZE)
 10022f8:	00804074 	movhi	r2,257
 10022fc:	109f0c04 	addi	r2,r2,31792
 1002300:	1080028b 	ldhu	r2,10(r2)
 1002304:	10bfffcc 	andi	r2,r2,65535
 1002308:	10801030 	cmpltui	r2,r2,64
 100230c:	10001c1e 	bne	r2,zero,1002380 <Chap9_BurstTransmitEP0+0xe4>
        {
            Hal4D13_WriteEndpoint(EPINDEX4EP0_CONTROL_IN, pData, EP0_PACKET_SIZE);
 1002310:	01000044 	movi	r4,1
 1002314:	e17ffe17 	ldw	r5,-8(fp)
 1002318:	01801004 	movi	r6,64
 100231c:	10038cc0 	call	10038cc <Hal4D13_WriteEndpoint>

            RaiseIRQL();
 1002320:	10045a80 	call	10045a8 <usb_disable_all_interrupts>
            if(!ControlData.Abort)
 1002324:	00804074 	movhi	r2,257
 1002328:	109f0c04 	addi	r2,r2,31792
 100232c:	10800003 	ldbu	r2,0(r2)
 1002330:	10803fcc 	andi	r2,r2,255
 1002334:	1004c03a 	cmpne	r2,r2,zero
 1002338:	10000f1e 	bne	r2,zero,1002378 <Chap9_BurstTransmitEP0+0xdc>
            {
                ControlData.wCount += EP0_PACKET_SIZE;
 100233c:	00804074 	movhi	r2,257
 1002340:	109f0c04 	addi	r2,r2,31792
 1002344:	1080030b 	ldhu	r2,12(r2)
 1002348:	10801004 	addi	r2,r2,64
 100234c:	1007883a 	mov	r3,r2
 1002350:	00804074 	movhi	r2,257
 1002354:	109f0c04 	addi	r2,r2,31792
 1002358:	10c0030d 	sth	r3,12(r2)
                bD13flags.bits.DCP_state = USBFSM4DCP_DATAIN;
 100235c:	01004074 	movhi	r4,257
 1002360:	211ee504 	addi	r4,r4,31636
 1002364:	20c00017 	ldw	r3,0(r4)
 1002368:	00bc3fc4 	movi	r2,-3841
 100236c:	1884703a 	and	r2,r3,r2
 1002370:	10804014 	ori	r2,r2,256
 1002374:	20800015 	stw	r2,0(r4)

            }
            LowerIRQL();
 1002378:	10045f80 	call	10045f8 <usb_reenable_all_interrupts>
 100237c:	00002106 	br	1002404 <Chap9_BurstTransmitEP0+0x168>
        }
        else
        {
            Hal4D13_WriteEndpoint(EPINDEX4EP0_CONTROL_IN, pData, ControlData.wLength);
 1002380:	00804074 	movhi	r2,257
 1002384:	109f0c04 	addi	r2,r2,31792
 1002388:	1080028b 	ldhu	r2,10(r2)
 100238c:	11bfffcc 	andi	r6,r2,65535
 1002390:	01000044 	movi	r4,1
 1002394:	e17ffe17 	ldw	r5,-8(fp)
 1002398:	10038cc0 	call	10038cc <Hal4D13_WriteEndpoint>

            RaiseIRQL();
 100239c:	10045a80 	call	10045a8 <usb_disable_all_interrupts>
            if(!ControlData.Abort)
 10023a0:	00804074 	movhi	r2,257
 10023a4:	109f0c04 	addi	r2,r2,31792
 10023a8:	10800003 	ldbu	r2,0(r2)
 10023ac:	10803fcc 	andi	r2,r2,255
 10023b0:	1004c03a 	cmpne	r2,r2,zero
 10023b4:	1000121e 	bne	r2,zero,1002400 <Chap9_BurstTransmitEP0+0x164>
            {
                ControlData.wCount += ControlData.wLength;
 10023b8:	00804074 	movhi	r2,257
 10023bc:	109f0c04 	addi	r2,r2,31792
 10023c0:	10c0030b 	ldhu	r3,12(r2)
 10023c4:	00804074 	movhi	r2,257
 10023c8:	109f0c04 	addi	r2,r2,31792
 10023cc:	1080028b 	ldhu	r2,10(r2)
 10023d0:	1885883a 	add	r2,r3,r2
 10023d4:	1007883a 	mov	r3,r2
 10023d8:	00804074 	movhi	r2,257
 10023dc:	109f0c04 	addi	r2,r2,31792
 10023e0:	10c0030d 	sth	r3,12(r2)
                bD13flags.bits.DCP_state = USBFSM4DCP_HANDSHAKE;
 10023e4:	01004074 	movhi	r4,257
 10023e8:	211ee504 	addi	r4,r4,31636
 10023ec:	20c00017 	ldw	r3,0(r4)
 10023f0:	00bc3fc4 	movi	r2,-3841
 10023f4:	1884703a 	and	r2,r3,r2
 10023f8:	10810014 	ori	r2,r2,1024
 10023fc:	20800015 	stw	r2,0(r4)

            }
            LowerIRQL();
 1002400:	10045f80 	call	10045f8 <usb_reenable_all_interrupts>
        }
}
 1002404:	e037883a 	mov	sp,fp
 1002408:	dfc00117 	ldw	ra,4(sp)
 100240c:	df000017 	ldw	fp,0(sp)
 1002410:	dec00204 	addi	sp,sp,8
 1002414:	f800283a 	ret

01002418 <SetupToken_Handler>:
		{ "Iso mode enable", "Philips D13bus handler", "RESERVED", "RESERVED",
				"RESERVED", "RESERVED", "RESERVED", "RESERVED", "RESERVED",
				"RESERVED", "RESERVED", "RESERVED", "read Firmware version ",
				"RESERVED", "RESERVED", "RESERVED", };

void SetupToken_Handler(void) {
 1002418:	defffd04 	addi	sp,sp,-12
 100241c:	dfc00215 	stw	ra,8(sp)
 1002420:	df000115 	stw	fp,4(sp)
 1002424:	df000104 	addi	fp,sp,4
	unsigned short j;
	RaiseIRQL();
 1002428:	10045a80 	call	10045a8 <usb_disable_all_interrupts>
	bD13flags.bits.At_IRQL1 = 1;
 100242c:	00c04074 	movhi	r3,257
 1002430:	18dee504 	addi	r3,r3,31636
 1002434:	18800017 	ldw	r2,0(r3)
 1002438:	10800114 	ori	r2,r2,4
 100243c:	18800015 	stw	r2,0(r3)
	ControlData.Abort = FALSE;
 1002440:	00804074 	movhi	r2,257
 1002444:	109f0c04 	addi	r2,r2,31792
 1002448:	10000005 	stb	zero,0(r2)

	ControlData.wLength = 0;
 100244c:	00804074 	movhi	r2,257
 1002450:	109f0c04 	addi	r2,r2,31792
 1002454:	1000028d 	sth	zero,10(r2)
	ControlData.wCount = 0;
 1002458:	00804074 	movhi	r2,257
 100245c:	109f0c04 	addi	r2,r2,31792
 1002460:	1000030d 	sth	zero,12(r2)

	j = Hal4D13_ReadEndpointWOClearBuffer(EPINDEX4EP0_CONTROL_OUT,
 1002464:	01404074 	movhi	r5,257
 1002468:	295f0c84 	addi	r5,r5,31794
 100246c:	0009883a 	mov	r4,zero
 1002470:	01800204 	movi	r6,8
 1002474:	10037a80 	call	10037a8 <Hal4D13_ReadEndpointWOClearBuffer>
 1002478:	e0bfff0d 	sth	r2,-4(fp)
	 ControlData.DeviceRequest.bRequest,
	 ControlData.DeviceRequest.wValue,
	 ControlData.DeviceRequest.wIndex,
	 ControlData.DeviceRequest.wLength);
	 */
	if (j == sizeof(DEVICE_REQUEST))
 100247c:	e0bfff0b 	ldhu	r2,-4(fp)
 1002480:	10800218 	cmpnei	r2,r2,8
 1002484:	1000711e 	bne	r2,zero,100264c <SetupToken_Handler+0x234>
		//printf("ControlData.DeviceRequest.bRequest:0x%X\n",ControlData.DeviceRequest.bRequest);//1BYTE
		//printf("ControlData.DeviceRequest.wValue:0x%X\n",ControlData.DeviceRequest.wValue); //2BYTE
		//printf("ControlData.DeviceRequest.wIndex:0x%X\n",ControlData.DeviceRequest.wIndex); //2BYTE
		//printf("ControlData.DeviceRequest.wLength:0x%X\n",ControlData.DeviceRequest.wLength);//2BYTE

		bD13flags.bits.At_IRQL1 = 0;
 1002488:	01004074 	movhi	r4,257
 100248c:	211ee504 	addi	r4,r4,31636
 1002490:	20c00017 	ldw	r3,0(r4)
 1002494:	00bffec4 	movi	r2,-5
 1002498:	1884703a 	and	r2,r3,r2
 100249c:	20800015 	stw	r2,0(r4)
		LowerIRQL();
 10024a0:	10045f80 	call	10045f8 <usb_reenable_all_interrupts>
		ControlData.wLength = ControlData.DeviceRequest.wLength;
 10024a4:	00804074 	movhi	r2,257
 10024a8:	109f0c04 	addi	r2,r2,31792
 10024ac:	10c0020b 	ldhu	r3,8(r2)
 10024b0:	00804074 	movhi	r2,257
 10024b4:	109f0c04 	addi	r2,r2,31792
 10024b8:	10c0028d 	sth	r3,10(r2)
		ControlData.wCount = 0;
 10024bc:	00804074 	movhi	r2,257
 10024c0:	109f0c04 	addi	r2,r2,31792
 10024c4:	1000030d 	sth	zero,12(r2)

		if (ControlData.DeviceRequest.bmRequestType
 10024c8:	00804074 	movhi	r2,257
 10024cc:	109f0c04 	addi	r2,r2,31792
 10024d0:	10800083 	ldbu	r2,2(r2)
 10024d4:	10803fcc 	andi	r2,r2,255
 10024d8:	1080201c 	xori	r2,r2,128
 10024dc:	10bfe004 	addi	r2,r2,-128
 10024e0:	1004403a 	cmpge	r2,r2,zero
 10024e4:	1000221e 	bne	r2,zero,1002570 <SetupToken_Handler+0x158>
				& (UCHAR) USB_ENDPOINT_DIRECTION_MASK) {
			/* get command */
			RaiseIRQL();
 10024e8:	10045a80 	call	10045a8 <usb_disable_all_interrupts>
			ML_AcknowledgeSETUP();
 10024ec:	1002a440 	call	1002a44 <ML_AcknowledgeSETUP>
			if ((ControlData.DeviceRequest.bRequest == 0)
 10024f0:	00804074 	movhi	r2,257
 10024f4:	109f0c04 	addi	r2,r2,31792
 10024f8:	108000c3 	ldbu	r2,3(r2)
 10024fc:	10803fcc 	andi	r2,r2,255
 1002500:	1005003a 	cmpeq	r2,r2,zero
 1002504:	1007883a 	mov	r3,r2
 1002508:	00804074 	movhi	r2,257
 100250c:	109f0c04 	addi	r2,r2,31792
 1002510:	10800083 	ldbu	r2,2(r2)
 1002514:	10803fcc 	andi	r2,r2,255
 1002518:	10803020 	cmpeqi	r2,r2,192
 100251c:	1884703a 	and	r2,r3,r2
 1002520:	10803fcc 	andi	r2,r2,255
 1002524:	1005003a 	cmpeq	r2,r2,zero
 1002528:	1000081e 	bne	r2,zero,100254c <SetupToken_Handler+0x134>
					& (ControlData.DeviceRequest.bmRequestType == 0xc0))
				bD13flags.bits.DCP_state = USBFSM4DCP_HANDSHAKE;
 100252c:	01004074 	movhi	r4,257
 1002530:	211ee504 	addi	r4,r4,31636
 1002534:	20c00017 	ldw	r3,0(r4)
 1002538:	00bc3fc4 	movi	r2,-3841
 100253c:	1884703a 	and	r2,r3,r2
 1002540:	10810014 	ori	r2,r2,1024
 1002544:	20800015 	stw	r2,0(r4)
 1002548:	00000706 	br	1002568 <SetupToken_Handler+0x150>
			else
				bD13flags.bits.DCP_state = USBFSM4DCP_REQUESTPROC;
 100254c:	01004074 	movhi	r4,257
 1002550:	211ee504 	addi	r4,r4,31636
 1002554:	20c00017 	ldw	r3,0(r4)
 1002558:	00bc3fc4 	movi	r2,-3841
 100255c:	1884703a 	and	r2,r3,r2
 1002560:	1080c014 	ori	r2,r2,768
 1002564:	20800015 	stw	r2,0(r4)

			LowerIRQL();
 1002568:	10045f80 	call	10045f8 <usb_reenable_all_interrupts>
 100256c:	00004206 	br	1002678 <SetupToken_Handler+0x260>
		} else {
			/* set command */

			if (ControlData.DeviceRequest.wLength == 0) {
 1002570:	00804074 	movhi	r2,257
 1002574:	109f0c04 	addi	r2,r2,31792
 1002578:	1080020b 	ldhu	r2,8(r2)
 100257c:	10bfffcc 	andi	r2,r2,65535
 1002580:	1004c03a 	cmpne	r2,r2,zero
 1002584:	10000b1e 	bne	r2,zero,10025b4 <SetupToken_Handler+0x19c>
				/* Set command  without Data stage*/
				RaiseIRQL();
 1002588:	10045a80 	call	10045a8 <usb_disable_all_interrupts>
				ML_AcknowledgeSETUP();
 100258c:	1002a440 	call	1002a44 <ML_AcknowledgeSETUP>
				bD13flags.bits.DCP_state = USBFSM4DCP_REQUESTPROC;
 1002590:	01004074 	movhi	r4,257
 1002594:	211ee504 	addi	r4,r4,31636
 1002598:	20c00017 	ldw	r3,0(r4)
 100259c:	00bc3fc4 	movi	r2,-3841
 10025a0:	1884703a 	and	r2,r3,r2
 10025a4:	1080c014 	ori	r2,r2,768
 10025a8:	20800015 	stw	r2,0(r4)
				LowerIRQL();
 10025ac:	10045f80 	call	10045f8 <usb_reenable_all_interrupts>
 10025b0:	00003106 	br	1002678 <SetupToken_Handler+0x260>
			} else {
				/*
				 // Set command  with Data stage
				 // get Data Buffer
				 */
				if (ControlData.DeviceRequest.wLength <= MAX_CONTROLDATA_SIZE) {
 10025b4:	00804074 	movhi	r2,257
 10025b8:	109f0c04 	addi	r2,r2,31792
 10025bc:	1080020b 	ldhu	r2,8(r2)
 10025c0:	10bfffcc 	andi	r2,r2,65535
 10025c4:	10800468 	cmpgeui	r2,r2,17
 10025c8:	10000b1e 	bne	r2,zero,10025f8 <SetupToken_Handler+0x1e0>
					/* set command with OUT token */
					RaiseIRQL();
 10025cc:	10045a80 	call	10045a8 <usb_disable_all_interrupts>
					bD13flags.bits.DCP_state = USBFSM4DCP_DATAOUT;
 10025d0:	01004074 	movhi	r4,257
 10025d4:	211ee504 	addi	r4,r4,31636
 10025d8:	20c00017 	ldw	r3,0(r4)
 10025dc:	00bc3fc4 	movi	r2,-3841
 10025e0:	1884703a 	and	r2,r3,r2
 10025e4:	10808014 	ori	r2,r2,512
 10025e8:	20800015 	stw	r2,0(r4)
					LowerIRQL();
 10025ec:	10045f80 	call	10045f8 <usb_reenable_all_interrupts>
					ML_AcknowledgeSETUP();
 10025f0:	1002a440 	call	1002a44 <ML_AcknowledgeSETUP>
 10025f4:	00002006 	br	1002678 <SetupToken_Handler+0x260>

				} else {
					RaiseIRQL();
 10025f8:	10045a80 	call	10045a8 <usb_disable_all_interrupts>
					ML_AcknowledgeSETUP();
 10025fc:	1002a440 	call	1002a44 <ML_AcknowledgeSETUP>
					Hal4D13_StallEP0InControlWrite();
 1002600:	10044540 	call	1004454 <Hal4D13_StallEP0InControlWrite>
					bD13flags.bits.DCP_state = USBFSM4DCP_STALL;
 1002604:	01004074 	movhi	r4,257
 1002608:	211ee504 	addi	r4,r4,31636
 100260c:	20c00017 	ldw	r3,0(r4)
 1002610:	00bc3fc4 	movi	r2,-3841
 1002614:	1884703a 	and	r2,r3,r2
 1002618:	1081c014 	ori	r2,r2,1792
 100261c:	20800015 	stw	r2,0(r4)
					printf(
 1002620:	00804074 	movhi	r2,257
 1002624:	109ee504 	addi	r2,r2,31636
 1002628:	10800017 	ldw	r2,0(r2)
 100262c:	1004d23a 	srli	r2,r2,8
 1002630:	108003cc 	andi	r2,r2,15
 1002634:	11403fcc 	andi	r5,r2,255
 1002638:	01004074 	movhi	r4,257
 100263c:	210dd204 	addi	r4,r4,14152
 1002640:	1005e580 	call	1005e58 <printf>
							"bD13flags.bits.DCP_state = x%hx\n Unknow set up command\n",
							bD13flags.bits.DCP_state);
					LowerIRQL();
 1002644:	10045f80 	call	10045f8 <usb_reenable_all_interrupts>
 1002648:	00000b06 	br	1002678 <SetupToken_Handler+0x260>
				}
			}
		}
	} else {
		printf("wrong setup command\n");
 100264c:	01004074 	movhi	r4,257
 1002650:	210de004 	addi	r4,r4,14208
 1002654:	1005f940 	call	1005f94 <puts>
		bD13flags.bits.At_IRQL1 = 0;
 1002658:	01004074 	movhi	r4,257
 100265c:	211ee504 	addi	r4,r4,31636
 1002660:	20c00017 	ldw	r3,0(r4)
 1002664:	00bffec4 	movi	r2,-5
 1002668:	1884703a 	and	r2,r3,r2
 100266c:	20800015 	stw	r2,0(r4)
		LowerIRQL();
 1002670:	10045f80 	call	10045f8 <usb_reenable_all_interrupts>
		Chap9_StallEP0();
 1002674:	10020a80 	call	10020a8 <Chap9_StallEP0>
	}

	// printf("To_Ha_end\n");
}
 1002678:	e037883a 	mov	sp,fp
 100267c:	dfc00117 	ldw	ra,4(sp)
 1002680:	df000017 	ldw	fp,0(sp)
 1002684:	dec00204 	addi	sp,sp,8
 1002688:	f800283a 	ret

0100268c <DeviceRequest_Handler>:

void DeviceRequest_Handler(void) {
 100268c:	defffd04 	addi	sp,sp,-12
 1002690:	dfc00215 	stw	ra,8(sp)
 1002694:	df000115 	stw	fp,4(sp)
 1002698:	df000104 	addi	fp,sp,4
	UCHAR type, req;

	type = ControlData.DeviceRequest.bmRequestType & USB_REQUEST_TYPE_MASK;
 100269c:	00804074 	movhi	r2,257
 10026a0:	109f0c04 	addi	r2,r2,31792
 10026a4:	10800083 	ldbu	r2,2(r2)
 10026a8:	1080180c 	andi	r2,r2,96
 10026ac:	e0bfff45 	stb	r2,-3(fp)
	req = ControlData.DeviceRequest.bRequest & USB_REQUEST_MASK;
 10026b0:	00804074 	movhi	r2,257
 10026b4:	109f0c04 	addi	r2,r2,31792
 10026b8:	108000c3 	ldbu	r2,3(r2)
 10026bc:	e0bfff05 	stb	r2,-4(fp)
	//if (bD13flags.bits.verbose==1)
	//   printf("type = 0x%02x, req = 0x%02x\n", type, req);

	// help_devreq(type, req); /* print out device request */

	if ((type == USB_STANDARD_REQUEST) && (req < MAX_STANDARD_REQUEST)) {
 10026c0:	e0bfff43 	ldbu	r2,-3(fp)
 10026c4:	1004c03a 	cmpne	r2,r2,zero
 10026c8:	10000c1e 	bne	r2,zero,10026fc <DeviceRequest_Handler+0x70>
 10026cc:	e0bfff03 	ldbu	r2,-4(fp)
 10026d0:	10800368 	cmpgeui	r2,r2,13
 10026d4:	1000091e 	bne	r2,zero,10026fc <DeviceRequest_Handler+0x70>
		(*StandardDeviceRequest[req])();
 10026d8:	e0bfff03 	ldbu	r2,-4(fp)
 10026dc:	00c04074 	movhi	r3,257
 10026e0:	18d03404 	addi	r3,r3,16592
 10026e4:	1085883a 	add	r2,r2,r2
 10026e8:	1085883a 	add	r2,r2,r2
 10026ec:	10c5883a 	add	r2,r2,r3
 10026f0:	10800017 	ldw	r2,0(r2)
 10026f4:	103ee83a 	callr	r2
	//if (bD13flags.bits.verbose==1)
	//   printf("type = 0x%02x, req = 0x%02x\n", type, req);

	// help_devreq(type, req); /* print out device request */

	if ((type == USB_STANDARD_REQUEST) && (req < MAX_STANDARD_REQUEST)) {
 10026f8:	00001006 	br	100273c <DeviceRequest_Handler+0xb0>
		(*StandardDeviceRequest[req])();
	} else if ((type == USB_CLASS_REQUEST) && (req < MAX_CLASS_REQUEST))
		(*ClassDeviceRequest[req])();
	else if ((type == USB_VENDOR_REQUEST) && (req < MAX_VENDOR_REQUEST))
 10026fc:	e0bfff43 	ldbu	r2,-3(fp)
 1002700:	10801018 	cmpnei	r2,r2,64
 1002704:	10000c1e 	bne	r2,zero,1002738 <DeviceRequest_Handler+0xac>
 1002708:	e0bfff03 	ldbu	r2,-4(fp)
 100270c:	108003e8 	cmpgeui	r2,r2,15
 1002710:	1000091e 	bne	r2,zero,1002738 <DeviceRequest_Handler+0xac>
		(*VendorDeviceRequest[req])();
 1002714:	e0bfff03 	ldbu	r2,-4(fp)
 1002718:	00c04074 	movhi	r3,257
 100271c:	18d05604 	addi	r3,r3,16728
 1002720:	1085883a 	add	r2,r2,r2
 1002724:	1085883a 	add	r2,r2,r2
 1002728:	10c5883a 	add	r2,r2,r3
 100272c:	10800017 	ldw	r2,0(r2)
 1002730:	103ee83a 	callr	r2

	if ((type == USB_STANDARD_REQUEST) && (req < MAX_STANDARD_REQUEST)) {
		(*StandardDeviceRequest[req])();
	} else if ((type == USB_CLASS_REQUEST) && (req < MAX_CLASS_REQUEST))
		(*ClassDeviceRequest[req])();
	else if ((type == USB_VENDOR_REQUEST) && (req < MAX_VENDOR_REQUEST))
 1002734:	00000106 	br	100273c <DeviceRequest_Handler+0xb0>
		(*VendorDeviceRequest[req])();
	else {
		Chap9_StallEP0();
 1002738:	10020a80 	call	10020a8 <Chap9_StallEP0>
	}
}
 100273c:	e037883a 	mov	sp,fp
 1002740:	dfc00117 	ldw	ra,4(sp)
 1002744:	df000017 	ldw	fp,0(sp)
 1002748:	dec00204 	addi	sp,sp,8
 100274c:	f800283a 	ret

01002750 <help_devreq>:

void help_devreq(UCHAR type, UCHAR req) {
 1002750:	defffb04 	addi	sp,sp,-20
 1002754:	dfc00415 	stw	ra,16(sp)
 1002758:	df000315 	stw	fp,12(sp)
 100275c:	df000304 	addi	fp,sp,12
 1002760:	e13ffe05 	stb	r4,-8(fp)
 1002764:	e17fff05 	stb	r5,-4(fp)
	UCHAR typ = type;
 1002768:	e0bffe03 	ldbu	r2,-8(fp)
 100276c:	e0bffd05 	stb	r2,-12(fp)
	typ >>= 5;
 1002770:	e0bffd03 	ldbu	r2,-12(fp)
 1002774:	1004d17a 	srli	r2,r2,5
 1002778:	e0bffd05 	stb	r2,-12(fp)

	if (type == USB_STANDARD_REQUEST) {
 100277c:	e0bffe03 	ldbu	r2,-8(fp)
 1002780:	1004c03a 	cmpne	r2,r2,zero
 1002784:	1000121e 	bne	r2,zero,10027d0 <help_devreq+0x80>
		printf("Request Type = %s, Request = %s.\n",
 1002788:	e0bffd03 	ldbu	r2,-12(fp)
 100278c:	00c04074 	movhi	r3,257
 1002790:	18d04504 	addi	r3,r3,16660
 1002794:	1085883a 	add	r2,r2,r2
 1002798:	1085883a 	add	r2,r2,r2
 100279c:	10c5883a 	add	r2,r2,r3
 10027a0:	11400017 	ldw	r5,0(r2)
 10027a4:	e0bfff03 	ldbu	r2,-4(fp)
 10027a8:	00c04074 	movhi	r3,257
 10027ac:	18d04904 	addi	r3,r3,16676
 10027b0:	1085883a 	add	r2,r2,r2
 10027b4:	1085883a 	add	r2,r2,r2
 10027b8:	10c5883a 	add	r2,r2,r3
 10027bc:	11800017 	ldw	r6,0(r2)
 10027c0:	01004074 	movhi	r4,257
 10027c4:	210de504 	addi	r4,r4,14228
 10027c8:	1005e580 	call	1005e58 <printf>
 10027cc:	00002506 	br	1002864 <help_devreq+0x114>
				_NAME_USB_REQUEST_TYPE[typ], _NAME_USB_STANDARD_REQUEST[req]);
	} else if (type == USB_CLASS_REQUEST) {
 10027d0:	e0bffe03 	ldbu	r2,-8(fp)
 10027d4:	10800818 	cmpnei	r2,r2,32
 10027d8:	1000111e 	bne	r2,zero,1002820 <help_devreq+0xd0>
		printf("Request Type = %s, Request = %s.\n",
 10027dc:	e0bffd03 	ldbu	r2,-12(fp)
 10027e0:	00c04074 	movhi	r3,257
 10027e4:	18d04504 	addi	r3,r3,16660
 10027e8:	1085883a 	add	r2,r2,r2
 10027ec:	1085883a 	add	r2,r2,r2
 10027f0:	10c5883a 	add	r2,r2,r3
 10027f4:	11400017 	ldw	r5,0(r2)
 10027f8:	e0bfff03 	ldbu	r2,-4(fp)
 10027fc:	1085883a 	add	r2,r2,r2
 1002800:	1087883a 	add	r3,r2,r2
 1002804:	d0a00904 	addi	r2,gp,-32732
 1002808:	1885883a 	add	r2,r3,r2
 100280c:	11800017 	ldw	r6,0(r2)
 1002810:	01004074 	movhi	r4,257
 1002814:	210de504 	addi	r4,r4,14228
 1002818:	1005e580 	call	1005e58 <printf>
 100281c:	00001106 	br	1002864 <help_devreq+0x114>
				_NAME_USB_REQUEST_TYPE[typ], _NAME_USB_CLASS_REQUEST[req]);
	} else {
		if (bD13flags.bits.verbose)
 1002820:	00804074 	movhi	r2,257
 1002824:	109ee504 	addi	r2,r2,31636
 1002828:	10800017 	ldw	r2,0(r2)
 100282c:	1080402c 	andhi	r2,r2,256
 1002830:	1005003a 	cmpeq	r2,r2,zero
 1002834:	10000b1e 	bne	r2,zero,1002864 <help_devreq+0x114>
			printf("Request Type = %s, bRequest = 0x%x.\n",
 1002838:	e0bffd03 	ldbu	r2,-12(fp)
 100283c:	00c04074 	movhi	r3,257
 1002840:	18d04504 	addi	r3,r3,16660
 1002844:	1085883a 	add	r2,r2,r2
 1002848:	1085883a 	add	r2,r2,r2
 100284c:	10c5883a 	add	r2,r2,r3
 1002850:	11400017 	ldw	r5,0(r2)
 1002854:	e1bfff03 	ldbu	r6,-4(fp)
 1002858:	01004074 	movhi	r4,257
 100285c:	210dee04 	addi	r4,r4,14264
 1002860:	1005e580 	call	1005e58 <printf>
					_NAME_USB_REQUEST_TYPE[typ], req);
	}
}
 1002864:	e037883a 	mov	sp,fp
 1002868:	dfc00117 	ldw	ra,4(sp)
 100286c:	df000017 	ldw	fp,0(sp)
 1002870:	dec00204 	addi	sp,sp,8
 1002874:	f800283a 	ret

01002878 <disconnect_USB>:

void disconnect_USB(void) {
 1002878:	defffe04 	addi	sp,sp,-8
 100287c:	dfc00115 	stw	ra,4(sp)
 1002880:	df000015 	stw	fp,0(sp)
 1002884:	d839883a 	mov	fp,sp
//	printf("USB disconnect\n");
	Hal4D13_SetDevConfig(
 1002888:	010c0104 	movi	r4,12292
 100288c:	10031fc0 	call	10031fc <Hal4D13_SetDevConfig>
			D13REG_DEVCNFG_NOLAZYCLOCK | D13REG_DEVCNFG_PWROFF
					| D13REG_DEVCNFG_CLOCKRUNNING);
	Hal4D13_SetMode(
 1002890:	01000204 	movi	r4,8
 1002894:	10032500 	call	1003250 <Hal4D13_SetMode>

	D13REG_MODE_INT_EN);

}
 1002898:	e037883a 	mov	sp,fp
 100289c:	dfc00117 	ldw	ra,4(sp)
 10028a0:	df000017 	ldw	fp,0(sp)
 10028a4:	dec00204 	addi	sp,sp,8
 10028a8:	f800283a 	ret

010028ac <connect_USB>:

void connect_USB(void) {
 10028ac:	defffe04 	addi	sp,sp,-8
 10028b0:	dfc00115 	stw	ra,4(sp)
 10028b4:	df000015 	stw	fp,0(sp)
 10028b8:	d839883a 	mov	fp,sp

	RaiseIRQL();
 10028bc:	10045a80 	call	10045a8 <usb_disable_all_interrupts>
//	printf("USB connect\n");
	bD13flags.value = 0; /* reset event flags*/
 10028c0:	00804074 	movhi	r2,257
 10028c4:	109ee504 	addi	r2,r2,31636
 10028c8:	10000015 	stw	zero,0(r2)
	bD13flags.bits.DCP_state = USBFSM4DCP_IDLE;
 10028cc:	01004074 	movhi	r4,257
 10028d0:	211ee504 	addi	r4,r4,31636
 10028d4:	20c00017 	ldw	r3,0(r4)
 10028d8:	00bc3fc4 	movi	r2,-3841
 10028dc:	1884703a 	and	r2,r3,r2
 10028e0:	20800015 	stw	r2,0(r4)
	config_endpoint();
 10028e4:	10029080 	call	1002908 <config_endpoint>

	LowerIRQL();
 10028e8:	10045f80 	call	10045f8 <usb_reenable_all_interrupts>

	Hal4D13_SetMode(D13REG_MODE_SOFTCONNECT | D13REG_MODE_DMA16 |
 10028ec:	01002244 	movi	r4,137
 10028f0:	10032500 	call	1003250 <Hal4D13_SetMode>
			D13REG_MODE_INT_EN
//| D13REG_MODE_SUSPND            

			);

}
 10028f4:	e037883a 	mov	sp,fp
 10028f8:	dfc00117 	ldw	ra,4(sp)
 10028fc:	df000017 	ldw	fp,0(sp)
 1002900:	dec00204 	addi	sp,sp,8
 1002904:	f800283a 	ret

01002908 <config_endpoint>:

void config_endpoint(void) {
 1002908:	defffe04 	addi	sp,sp,-8
 100290c:	dfc00115 	stw	ra,4(sp)
 1002910:	df000015 	stw	fp,0(sp)
 1002914:	d839883a 	mov	fp,sp
	/*Control Endpoint*/
//	printf("USB config\n");
	Hal4D13_SetEndpointConfig(D13REG_EPCNFG_FIFO_EN | D13REG_EPCNFG_NONISOSZ_64,
 1002918:	010020c4 	movi	r4,131
 100291c:	000b883a 	mov	r5,zero
 1002920:	100420c0 	call	100420c <Hal4D13_SetEndpointConfig>
			EPINDEX4EP0_CONTROL_OUT);
	Hal4D13_SetEndpointConfig(
 1002924:	010030c4 	movi	r4,195
 1002928:	01400044 	movi	r5,1
 100292c:	100420c0 	call	100420c <Hal4D13_SetEndpointConfig>
			D13REG_EPCNFG_FIFO_EN | D13REG_EPCNFG_IN_EN
					| D13REG_EPCNFG_NONISOSZ_64, EPINDEX4EP0_CONTROL_IN);
	/*Control Endpoint*/

	/*port1 is OUT*/
	Hal4D13_SetEndpointConfig(
 1002930:	010028c4 	movi	r4,163
 1002934:	01400084 	movi	r5,2
 1002938:	100420c0 	call	100420c <Hal4D13_SetEndpointConfig>
			D13REG_EPCNFG_DBLBUF_EN |
			D13REG_EPCNFG_NONISOSZ_64,
			EPINDEX4EP01);

	/*port2 is IN*/
	Hal4D13_SetEndpointConfig(
 100293c:	010038c4 	movi	r4,227
 1002940:	014000c4 	movi	r5,3
 1002944:	100420c0 	call	100420c <Hal4D13_SetEndpointConfig>
			D13REG_EPCNFG_NONISOSZ_64,
			EPINDEX4EP02);
	/*DISABLED*/

	/*Bulk Enpoints Double Buffered*/
	Hal4D13_SetEndpointConfig(
 1002948:	010008c4 	movi	r4,35
 100294c:	01400104 	movi	r5,4
 1002950:	100420c0 	call	100420c <Hal4D13_SetEndpointConfig>
			/*D13REG_EPCNFG_FIFO_EN|*/D13REG_EPCNFG_DBLBUF_EN
					| D13REG_EPCNFG_NONISOSZ_64, EPINDEX4EP03);
	Hal4D13_SetEndpointConfig(
 1002954:	010018c4 	movi	r4,99
 1002958:	01400144 	movi	r5,5
 100295c:	100420c0 	call	100420c <Hal4D13_SetEndpointConfig>
					| D13REG_EPCNFG_IN_EN | D13REG_EPCNFG_NONISOSZ_64,
			EPINDEX4EP04);
	/*Bulk Enpoints Double Buffered*/

	/*Isochronous Endpoints*/
	Hal4D13_SetEndpointConfig(
 1002960:	01000c04 	movi	r4,48
 1002964:	01400184 	movi	r5,6
 1002968:	100420c0 	call	100420c <Hal4D13_SetEndpointConfig>
			/*D13REG_EPCNFG_FIFO_EN|*/D13REG_EPCNFG_DBLBUF_EN
					| D13REG_EPCNFG_ISOSZ_16 | D13REG_EPCNFG_ISO_EN,
			EPINDEX4EP05);
	Hal4D13_SetEndpointConfig(
 100296c:	01001c04 	movi	r4,112
 1002970:	014001c4 	movi	r5,7
 1002974:	100420c0 	call	100420c <Hal4D13_SetEndpointConfig>
					| D13REG_EPCNFG_ISOSZ_16 | D13REG_EPCNFG_ISO_EN
					| D13REG_EPCNFG_IN_EN, EPINDEX4EP06);
	/*Isochronous Endpoints*/

	/*DISABLED*/
	Hal4D13_SetEndpointConfig(
 1002978:	01000c04 	movi	r4,48
 100297c:	01400204 	movi	r5,8
 1002980:	100420c0 	call	100420c <Hal4D13_SetEndpointConfig>
			/*D13REG_EPCNFG_FIFO_EN|*/D13REG_EPCNFG_DBLBUF_EN
					| D13REG_EPCNFG_ISOSZ_16 | D13REG_EPCNFG_ISO_EN,
			EPINDEX4EP07);
	Hal4D13_SetEndpointConfig(
 1002984:	01001c04 	movi	r4,112
 1002988:	01400244 	movi	r5,9
 100298c:	100420c0 	call	100420c <Hal4D13_SetEndpointConfig>
			/*D13REG_EPCNFG_FIFO_EN|*/D13REG_EPCNFG_IN_EN
					| D13REG_EPCNFG_DBLBUF_EN | D13REG_EPCNFG_ISOSZ_16
					| D13REG_EPCNFG_ISO_EN, EPINDEX4EP08);
	Hal4D13_SetEndpointConfig(
 1002990:	01000c04 	movi	r4,48
 1002994:	01400284 	movi	r5,10
 1002998:	100420c0 	call	100420c <Hal4D13_SetEndpointConfig>
			/*D13REG_EPCNFG_FIFO_EN|*/D13REG_EPCNFG_DBLBUF_EN
					| D13REG_EPCNFG_ISOSZ_16 | D13REG_EPCNFG_ISO_EN,
			EPINDEX4EP09);
	Hal4D13_SetEndpointConfig(
 100299c:	01001c04 	movi	r4,112
 10029a0:	014002c4 	movi	r5,11
 10029a4:	100420c0 	call	100420c <Hal4D13_SetEndpointConfig>
			/*D13REG_EPCNFG_FIFO_EN|*/D13REG_EPCNFG_IN_EN
					| D13REG_EPCNFG_DBLBUF_EN | D13REG_EPCNFG_ISOSZ_16
					| D13REG_EPCNFG_ISO_EN, EPINDEX4EP0A);
	Hal4D13_SetEndpointConfig(
 10029a8:	01000cc4 	movi	r4,51
 10029ac:	01400304 	movi	r5,12
 10029b0:	100420c0 	call	100420c <Hal4D13_SetEndpointConfig>
			/*D13REG_EPCNFG_FIFO_EN|*/D13REG_EPCNFG_DBLBUF_EN
					| D13REG_EPCNFG_ISOSZ_64 | D13REG_EPCNFG_ISO_EN,
			EPINDEX4EP0B);
	Hal4D13_SetEndpointConfig(
 10029b4:	01001cc4 	movi	r4,115
 10029b8:	01400344 	movi	r5,13
 10029bc:	100420c0 	call	100420c <Hal4D13_SetEndpointConfig>
			/*D13REG_EPCNFG_FIFO_EN|*/D13REG_EPCNFG_IN_EN
					| D13REG_EPCNFG_DBLBUF_EN | D13REG_EPCNFG_ISOSZ_64
					| D13REG_EPCNFG_ISO_EN, EPINDEX4EP0C);
	Hal4D13_SetEndpointConfig(
 10029c0:	01000cc4 	movi	r4,51
 10029c4:	01400384 	movi	r5,14
 10029c8:	100420c0 	call	100420c <Hal4D13_SetEndpointConfig>
			/*D13REG_EPCNFG_FIFO_EN|*/D13REG_EPCNFG_DBLBUF_EN
					| D13REG_EPCNFG_ISOSZ_64 | D13REG_EPCNFG_ISO_EN,
			EPINDEX4EP0D);
	Hal4D13_SetEndpointConfig(
 10029cc:	01001cc4 	movi	r4,115
 10029d0:	014003c4 	movi	r5,15
 10029d4:	100420c0 	call	100420c <Hal4D13_SetEndpointConfig>
					| D13REG_EPCNFG_DBLBUF_EN | D13REG_EPCNFG_ISOSZ_64
					| D13REG_EPCNFG_ISO_EN, EPINDEX4EP0E);
	/*DISABLED*/

	/*Set interrupt configuration*/
	Hal4D13_SetIntEnable(
 10029d8:	0103c1c4 	movi	r4,3847
 10029dc:	1003bbc0 	call	1003bbc <Hal4D13_SetIntEnable>
					//          |D13REG_INTSRC_EP06
					| D13REG_INTSRC_SUSPEND | D13REG_INTSRC_RESUME
					| D13REG_INTSRC_BUSRESET);

	/*Set Hardware Configuration*/
	Hal4D13_SetDevConfig(
 10029e0:	0108d004 	movi	r4,9024
 10029e4:	10031fc0 	call	10031fc <Hal4D13_SetDevConfig>
			D13REG_DEVCNFG_NOLAZYCLOCK | D13REG_DEVCNFG_CLOCKDIV_120M
					| D13REG_DEVCNFG_DMARQPOL
//            |D13REG_DEVCNFG_EXPULLUP
			);

}
 10029e8:	e037883a 	mov	sp,fp
 10029ec:	dfc00117 	ldw	ra,4(sp)
 10029f0:	df000017 	ldw	fp,0(sp)
 10029f4:	dec00204 	addi	sp,sp,8
 10029f8:	f800283a 	ret

010029fc <reconnect_USB>:

void reconnect_USB(void) {
 10029fc:	defffe04 	addi	sp,sp,-8
 1002a00:	dfc00115 	stw	ra,4(sp)
 1002a04:	df000015 	stw	fp,0(sp)
 1002a08:	d839883a 	mov	fp,sp
	disconnect_USB();
 1002a0c:	10028780 	call	1002878 <disconnect_USB>
	connect_USB();
 1002a10:	10028ac0 	call	10028ac <connect_USB>
}
 1002a14:	e037883a 	mov	sp,fp
 1002a18:	dfc00117 	ldw	ra,4(sp)
 1002a1c:	df000017 	ldw	fp,0(sp)
 1002a20:	dec00204 	addi	sp,sp,8
 1002a24:	f800283a 	ret

01002a28 <suspend_change>:

void suspend_change(void) {
 1002a28:	deffff04 	addi	sp,sp,-4
 1002a2c:	df000015 	stw	fp,0(sp)
 1002a30:	d839883a 	mov	fp,sp
//    printf("SUSPEND CHANGE \n");
	// disconnect_USB();
//  Suspend_Device_Controller();
}
 1002a34:	e037883a 	mov	sp,fp
 1002a38:	df000017 	ldw	fp,0(sp)
 1002a3c:	dec00104 	addi	sp,sp,4
 1002a40:	f800283a 	ret

01002a44 <ML_AcknowledgeSETUP>:

void ML_AcknowledgeSETUP(void) {
 1002a44:	defffe04 	addi	sp,sp,-8
 1002a48:	dfc00115 	stw	ra,4(sp)
 1002a4c:	df000015 	stw	fp,0(sp)
 1002a50:	d839883a 	mov	fp,sp

	if (Hal4D13_IsSetupPktInvalid() || ControlData.Abort) {
 1002a54:	10044cc0 	call	10044cc <Hal4D13_IsSetupPktInvalid>
 1002a58:	10803fcc 	andi	r2,r2,255
 1002a5c:	1004c03a 	cmpne	r2,r2,zero
 1002a60:	10000a1e 	bne	r2,zero,1002a8c <ML_AcknowledgeSETUP+0x48>
 1002a64:	00804074 	movhi	r2,257
 1002a68:	109f0c04 	addi	r2,r2,31792
 1002a6c:	10800003 	ldbu	r2,0(r2)
 1002a70:	10803fcc 	andi	r2,r2,255
 1002a74:	1005003a 	cmpeq	r2,r2,zero
 1002a78:	1000011e 	bne	r2,zero,1002a80 <ML_AcknowledgeSETUP+0x3c>
		return;
 1002a7c:	00000306 	br	1002a8c <ML_AcknowledgeSETUP+0x48>
	}

	Hal4D13_AcknowledgeSETUP();
 1002a80:	10034a80 	call	10034a8 <Hal4D13_AcknowledgeSETUP>
	Hal4D13_ClearBuffer(EPINDEX4EP0_CONTROL_OUT);
 1002a84:	0009883a 	mov	r4,zero
 1002a88:	10034e00 	call	10034e0 <Hal4D13_ClearBuffer>
}
 1002a8c:	e037883a 	mov	sp,fp
 1002a90:	dfc00117 	ldw	ra,4(sp)
 1002a94:	df000017 	ldw	fp,0(sp)
 1002a98:	dec00204 	addi	sp,sp,8
 1002a9c:	f800283a 	ret

01002aa0 <ML_Reserved>:

void ML_Reserved(void) {
 1002aa0:	defffe04 	addi	sp,sp,-8
 1002aa4:	dfc00115 	stw	ra,4(sp)
 1002aa8:	df000015 	stw	fp,0(sp)
 1002aac:	d839883a 	mov	fp,sp
	Hal4D13_ClearBuffer(EPINDEX4EP0_CONTROL_OUT);
 1002ab0:	0009883a 	mov	r4,zero
 1002ab4:	10034e00 	call	10034e0 <Hal4D13_ClearBuffer>
}
 1002ab8:	e037883a 	mov	sp,fp
 1002abc:	dfc00117 	ldw	ra,4(sp)
 1002ac0:	df000017 	ldw	fp,0(sp)
 1002ac4:	dec00204 	addi	sp,sp,8
 1002ac8:	f800283a 	ret

01002acc <CHECK_CHIP_ID>:

unsigned short CHECK_CHIP_ID(void) {
 1002acc:	defffb04 	addi	sp,sp,-20
 1002ad0:	dfc00415 	stw	ra,16(sp)
 1002ad4:	df000315 	stw	fp,12(sp)
 1002ad8:	df000304 	addi	fp,sp,12
	unsigned short CHIP_ID;
	unsigned char LOW_ID, HIGH_ID;

	CHIP_ID = Hal4D13_ReadChipID();
 1002adc:	10040e80 	call	10040e8 <Hal4D13_ReadChipID>
 1002ae0:	e0bffd8d 	sth	r2,-10(fp)
	LOW_ID = (unsigned char) CHIP_ID;
 1002ae4:	e0bffd8b 	ldhu	r2,-10(fp)
 1002ae8:	e0bffd45 	stb	r2,-11(fp)
	HIGH_ID = (unsigned char) (CHIP_ID >> 8);
 1002aec:	e0bffd8b 	ldhu	r2,-10(fp)
 1002af0:	1004d23a 	srli	r2,r2,8
 1002af4:	e0bffd05 	stb	r2,-12(fp)

	switch (HIGH_ID) {
 1002af8:	e0bffd03 	ldbu	r2,-12(fp)
 1002afc:	e0bfff15 	stw	r2,-4(fp)
 1002b00:	e0ffff17 	ldw	r3,-4(fp)
 1002b04:	18800da0 	cmpeqi	r2,r3,54
 1002b08:	1000091e 	bne	r2,zero,1002b30 <CHECK_CHIP_ID+0x64>
 1002b0c:	e0ffff17 	ldw	r3,-4(fp)
 1002b10:	18801860 	cmpeqi	r2,r3,97
 1002b14:	1000011e 	bne	r2,zero,1002b1c <CHECK_CHIP_ID+0x50>
 1002b18:	00000a06 	br	1002b44 <CHECK_CHIP_ID+0x78>
	case 0x61: {
//		printf("USB ChipID=0x%04x\n", CHIP_ID);
		CHIP_ID = 0x1161;
 1002b1c:	00845844 	movi	r2,4449
 1002b20:	e0bffd8d 	sth	r2,-10(fp)
		return CHIP_ID;
 1002b24:	e0bffd8b 	ldhu	r2,-10(fp)
 1002b28:	e0bffe15 	stw	r2,-8(fp)
 1002b2c:	00000706 	br	1002b4c <CHECK_CHIP_ID+0x80>
		break;
	}

	case 0x36: {
//		printf("USB ChipID=0x%04x\n", CHIP_ID);
		CHIP_ID = 0x1362;
 1002b30:	0084d884 	movi	r2,4962
 1002b34:	e0bffd8d 	sth	r2,-10(fp)
		return CHIP_ID;
 1002b38:	e0fffd8b 	ldhu	r3,-10(fp)
 1002b3c:	e0fffe15 	stw	r3,-8(fp)
 1002b40:	00000206 	br	1002b4c <CHECK_CHIP_ID+0x80>
		break;
	}

	default: {
//		printf("USB Unknown ChipID=0x%04x\n", CHIP_ID);
		return CHIP_ID;
 1002b44:	e0bffd8b 	ldhu	r2,-10(fp)
 1002b48:	e0bffe15 	stw	r2,-8(fp)
 1002b4c:	e0bffe17 	ldw	r2,-8(fp)
		break;
	}

	}

}
 1002b50:	e037883a 	mov	sp,fp
 1002b54:	dfc00117 	ldw	ra,4(sp)
 1002b58:	df000017 	ldw	fp,0(sp)
 1002b5c:	dec00204 	addi	sp,sp,8
 1002b60:	f800283a 	ret

01002b64 <D13Bus_ControlEntry>:
// *************************************************************************
// Subroutines
// *************************************************************************

void D13Bus_ControlEntry(void)
{
 1002b64:	defffe04 	addi	sp,sp,-8
 1002b68:	dfc00115 	stw	ra,4(sp)
 1002b6c:	df000015 	stw	fp,0(sp)
 1002b70:	d839883a 	mov	fp,sp
    // No support now, just stall it.
    D13Bus_StallEP0();
 1002b74:	1002eec0 	call	1002eec <D13Bus_StallEP0>
}
 1002b78:	e037883a 	mov	sp,fp
 1002b7c:	dfc00117 	ldw	ra,4(sp)
 1002b80:	df000017 	ldw	fp,0(sp)
 1002b84:	dec00204 	addi	sp,sp,8
 1002b88:	f800283a 	ret

01002b8c <reserved>:

void reserved(void)
{
 1002b8c:	defffe04 	addi	sp,sp,-8
 1002b90:	dfc00115 	stw	ra,4(sp)
 1002b94:	df000015 	stw	fp,0(sp)
 1002b98:	d839883a 	mov	fp,sp
    // Undefined commands, stall them
    D13Bus_StallEP0();
 1002b9c:	1002eec0 	call	1002eec <D13Bus_StallEP0>
}
 1002ba0:	e037883a 	mov	sp,fp
 1002ba4:	dfc00117 	ldw	ra,4(sp)
 1002ba8:	df000017 	ldw	fp,0(sp)
 1002bac:	dec00204 	addi	sp,sp,8
 1002bb0:	f800283a 	ret

01002bb4 <read_write_register>:

void read_write_register(void)
{
 1002bb4:	defffd04 	addi	sp,sp,-12
 1002bb8:	dfc00215 	stw	ra,8(sp)
 1002bbc:	df000115 	stw	fp,4(sp)
 1002bc0:	df000104 	addi	fp,sp,4
    unsigned char i;

    if(ControlData.DeviceRequest.bmRequestType & (unsigned char)USB_ENDPOINT_DIRECTION_MASK)
 1002bc4:	00804074 	movhi	r2,257
 1002bc8:	109f0c04 	addi	r2,r2,31792
 1002bcc:	10800083 	ldbu	r2,2(r2)
 1002bd0:	10803fcc 	andi	r2,r2,255
 1002bd4:	1080201c 	xori	r2,r2,128
 1002bd8:	10bfe004 	addi	r2,r2,-128
 1002bdc:	1004403a 	cmpge	r2,r2,zero
 1002be0:	10002e1e 	bne	r2,zero,1002c9c <read_write_register+0xe8>
    {
        if(bD13flags.bits.verbose)
 1002be4:	00804074 	movhi	r2,257
 1002be8:	109ee504 	addi	r2,r2,31636
 1002bec:	10800017 	ldw	r2,0(r2)
 1002bf0:	1080402c 	andhi	r2,r2,256
 1002bf4:	1005003a 	cmpeq	r2,r2,zero
 1002bf8:	10000f1e 	bne	r2,zero,1002c38 <read_write_register+0x84>
        {
            printf("Read Registers: Offset = 0x%x, Length = 0x%x, Index = 0x%x.\n",
 1002bfc:	00804074 	movhi	r2,257
 1002c00:	109f0c04 	addi	r2,r2,31792
 1002c04:	1080010b 	ldhu	r2,4(r2)
 1002c08:	117fffcc 	andi	r5,r2,65535
 1002c0c:	00804074 	movhi	r2,257
 1002c10:	109f0c04 	addi	r2,r2,31792
 1002c14:	1080020b 	ldhu	r2,8(r2)
 1002c18:	11bfffcc 	andi	r6,r2,65535
 1002c1c:	00804074 	movhi	r2,257
 1002c20:	109f0c04 	addi	r2,r2,31792
 1002c24:	1080018b 	ldhu	r2,6(r2)
 1002c28:	11ffffcc 	andi	r7,r2,65535
 1002c2c:	01004074 	movhi	r4,257
 1002c30:	210df804 	addi	r4,r4,14304
 1002c34:	1005e580 	call	1005e58 <printf>
                ControlData.DeviceRequest.wValue,
                ControlData.DeviceRequest.wLength,
                ControlData.DeviceRequest.wIndex);
        }

        if(ControlData.DeviceRequest.wIndex == GET_FIRMWARE_VERSION &&
 1002c38:	00804074 	movhi	r2,257
 1002c3c:	109f0c04 	addi	r2,r2,31792
 1002c40:	1080018b 	ldhu	r2,6(r2)
 1002c44:	10bfffcc 	andi	r2,r2,65535
 1002c48:	10811c98 	cmpnei	r2,r2,1138
 1002c4c:	10000e1e 	bne	r2,zero,1002c88 <read_write_register+0xd4>
 1002c50:	00804074 	movhi	r2,257
 1002c54:	109f0c04 	addi	r2,r2,31792
 1002c58:	1080010b 	ldhu	r2,4(r2)
 1002c5c:	10bfffcc 	andi	r2,r2,65535
 1002c60:	1004c03a 	cmpne	r2,r2,zero
 1002c64:	1000081e 	bne	r2,zero,1002c88 <read_write_register+0xd4>
 1002c68:	00804074 	movhi	r2,257
 1002c6c:	109f0c04 	addi	r2,r2,31792
 1002c70:	1080020b 	ldhu	r2,8(r2)
 1002c74:	10bfffcc 	andi	r2,r2,65535
 1002c78:	10800058 	cmpnei	r2,r2,1
 1002c7c:	1000021e 	bne	r2,zero,1002c88 <read_write_register+0xd4>
            ControlData.DeviceRequest.wValue == 0 &&
            ControlData.DeviceRequest.wLength == 1)
            {
                get_firmware_version();
 1002c80:	1002eb40 	call	1002eb4 <get_firmware_version>
                ControlData.DeviceRequest.wValue,
                ControlData.DeviceRequest.wLength,
                ControlData.DeviceRequest.wIndex);
        }

        if(ControlData.DeviceRequest.wIndex == GET_FIRMWARE_VERSION &&
 1002c84:	00004a06 	br	1002db0 <read_write_register+0x1fc>
            {
                get_firmware_version();
            }
        else
        {
            Chap9_StallEP0();
 1002c88:	10020a80 	call	10020a8 <Chap9_StallEP0>
            printf("stall: get firmware version\n");
 1002c8c:	01004074 	movhi	r4,257
 1002c90:	210e0804 	addi	r4,r4,14368
 1002c94:	1005f940 	call	1005f94 <puts>
 1002c98:	00004506 	br	1002db0 <read_write_register+0x1fc>
        }

    }
    else
    {
        if(bD13flags.bits.verbose)
 1002c9c:	00804074 	movhi	r2,257
 1002ca0:	109ee504 	addi	r2,r2,31636
 1002ca4:	10800017 	ldw	r2,0(r2)
 1002ca8:	1080402c 	andhi	r2,r2,256
 1002cac:	1005003a 	cmpeq	r2,r2,zero
 1002cb0:	10002a1e 	bne	r2,zero,1002d5c <read_write_register+0x1a8>
        {

            printf("Write Registers: Offset = 0x%x, Length = 0x%x, Index = 0x%x.\n",
 1002cb4:	00804074 	movhi	r2,257
 1002cb8:	109f0c04 	addi	r2,r2,31792
 1002cbc:	1080010b 	ldhu	r2,4(r2)
 1002cc0:	117fffcc 	andi	r5,r2,65535
 1002cc4:	00804074 	movhi	r2,257
 1002cc8:	109f0c04 	addi	r2,r2,31792
 1002ccc:	1080020b 	ldhu	r2,8(r2)
 1002cd0:	11bfffcc 	andi	r6,r2,65535
 1002cd4:	00804074 	movhi	r2,257
 1002cd8:	109f0c04 	addi	r2,r2,31792
 1002cdc:	1080018b 	ldhu	r2,6(r2)
 1002ce0:	11ffffcc 	andi	r7,r2,65535
 1002ce4:	01004074 	movhi	r4,257
 1002ce8:	210e0f04 	addi	r4,r4,14396
 1002cec:	1005e580 	call	1005e58 <printf>
                ControlData.DeviceRequest.wValue,
                ControlData.DeviceRequest.wLength,
                ControlData.DeviceRequest.wIndex);

            printf("Data: ");
 1002cf0:	01004074 	movhi	r4,257
 1002cf4:	210e1f04 	addi	r4,r4,14460
 1002cf8:	1005e580 	call	1005e58 <printf>
            for(i = 0; i < ControlData.DeviceRequest.wLength; i ++)
 1002cfc:	e03fff05 	stb	zero,-4(fp)
 1002d00:	00000d06 	br	1002d38 <read_write_register+0x184>
                printf("0x%x, ", *((ControlData.dataBuffer)+i));
 1002d04:	e0bfff03 	ldbu	r2,-4(fp)
 1002d08:	1007883a 	mov	r3,r2
 1002d0c:	00804074 	movhi	r2,257
 1002d10:	109f1104 	addi	r2,r2,31812
 1002d14:	1885883a 	add	r2,r3,r2
 1002d18:	10800003 	ldbu	r2,0(r2)
 1002d1c:	11403fcc 	andi	r5,r2,255
 1002d20:	01004074 	movhi	r4,257
 1002d24:	210e2104 	addi	r4,r4,14468
 1002d28:	1005e580 	call	1005e58 <printf>
                ControlData.DeviceRequest.wValue,
                ControlData.DeviceRequest.wLength,
                ControlData.DeviceRequest.wIndex);

            printf("Data: ");
            for(i = 0; i < ControlData.DeviceRequest.wLength; i ++)
 1002d2c:	e0bfff03 	ldbu	r2,-4(fp)
 1002d30:	10800044 	addi	r2,r2,1
 1002d34:	e0bfff05 	stb	r2,-4(fp)
 1002d38:	e0ffff03 	ldbu	r3,-4(fp)
 1002d3c:	00804074 	movhi	r2,257
 1002d40:	109f0c04 	addi	r2,r2,31792
 1002d44:	1080020b 	ldhu	r2,8(r2)
 1002d48:	18ffffcc 	andi	r3,r3,65535
 1002d4c:	10bfffcc 	andi	r2,r2,65535
 1002d50:	18bfec36 	bltu	r3,r2,1002d04 <read_write_register+0x150>
                printf("0x%x, ", *((ControlData.dataBuffer)+i));
            printf("\n");
 1002d54:	01000284 	movi	r4,10
 1002d58:	1005ed00 	call	1005ed0 <putchar>
        }

        if(ControlData.DeviceRequest.wIndex == SETUP_DMA_REQUEST &&
 1002d5c:	00804074 	movhi	r2,257
 1002d60:	109f0c04 	addi	r2,r2,31792
 1002d64:	1080018b 	ldhu	r2,6(r2)
 1002d68:	10bfffcc 	andi	r2,r2,65535
 1002d6c:	10811c58 	cmpnei	r2,r2,1137
 1002d70:	10000f1e 	bne	r2,zero,1002db0 <read_write_register+0x1fc>
 1002d74:	00804074 	movhi	r2,257
 1002d78:	109f0c04 	addi	r2,r2,31792
 1002d7c:	1080010b 	ldhu	r2,4(r2)
 1002d80:	10bfffcc 	andi	r2,r2,65535
 1002d84:	1004c03a 	cmpne	r2,r2,zero
 1002d88:	1000091e 	bne	r2,zero,1002db0 <read_write_register+0x1fc>
 1002d8c:	00804074 	movhi	r2,257
 1002d90:	109f0c04 	addi	r2,r2,31792
 1002d94:	1080020b 	ldhu	r2,8(r2)
 1002d98:	10bfffcc 	andi	r2,r2,65535
 1002d9c:	10800198 	cmpnei	r2,r2,6
 1002da0:	1000031e 	bne	r2,zero,1002db0 <read_write_register+0x1fc>
            ControlData.DeviceRequest.wValue == 0 &&
            ControlData.DeviceRequest.wLength == 6)
            {
                RaiseIRQL();
 1002da4:	10045a80 	call	10045a8 <usb_disable_all_interrupts>
                setup_dma_request();
 1002da8:	1002dc40 	call	1002dc4 <setup_dma_request>
                LowerIRQL();
 1002dac:	10045f80 	call	10045f8 <usb_reenable_all_interrupts>
            }

    }
}
 1002db0:	e037883a 	mov	sp,fp
 1002db4:	dfc00117 	ldw	ra,4(sp)
 1002db8:	df000017 	ldw	fp,0(sp)
 1002dbc:	dec00204 	addi	sp,sp,8
 1002dc0:	f800283a 	ret

01002dc4 <setup_dma_request>:

void setup_dma_request()
{
 1002dc4:	defffe04 	addi	sp,sp,-8
 1002dc8:	dfc00115 	stw	ra,4(sp)
 1002dcc:	df000015 	stw	fp,0(sp)
 1002dd0:	d839883a 	mov	fp,sp
    memcpy((unsigned char *)&ioRequest + ControlData.DeviceRequest.wValue,
 1002dd4:	00804074 	movhi	r2,257
 1002dd8:	109f0c04 	addi	r2,r2,31792
 1002ddc:	1080010b 	ldhu	r2,4(r2)
 1002de0:	10bfffcc 	andi	r2,r2,65535
 1002de4:	1007883a 	mov	r3,r2
 1002de8:	00804074 	movhi	r2,257
 1002dec:	109eea04 	addi	r2,r2,31656
 1002df0:	1887883a 	add	r3,r3,r2
 1002df4:	00804074 	movhi	r2,257
 1002df8:	109f0c04 	addi	r2,r2,31792
 1002dfc:	1080020b 	ldhu	r2,8(r2)
 1002e00:	11bfffcc 	andi	r6,r2,65535
 1002e04:	00804074 	movhi	r2,257
 1002e08:	109f1104 	addi	r2,r2,31812
 1002e0c:	1809883a 	mov	r4,r3
 1002e10:	100b883a 	mov	r5,r2
 1002e14:	1005d200 	call	1005d20 <memcpy>
        ControlData.dataBuffer,
        ControlData.DeviceRequest.wLength);

    ioRequest.uSize = SWAP(ioRequest.uSize);
 1002e18:	00804074 	movhi	r2,257
 1002e1c:	109eea04 	addi	r2,r2,31656
 1002e20:	10c0010b 	ldhu	r3,4(r2)
 1002e24:	00804074 	movhi	r2,257
 1002e28:	109eea04 	addi	r2,r2,31656
 1002e2c:	10c0010d 	sth	r3,4(r2)
    ioRequest.uAddressL = SWAP(ioRequest.uAddressL);
 1002e30:	00804074 	movhi	r2,257
 1002e34:	109eea04 	addi	r2,r2,31656
 1002e38:	10c0000b 	ldhu	r3,0(r2)
 1002e3c:	00804074 	movhi	r2,257
 1002e40:	109eea04 	addi	r2,r2,31656
 1002e44:	10c0000d 	sth	r3,0(r2)
    printf("Setup Data: addL, addH, uSize =%x, %x, %x \n", \
 1002e48:	00804074 	movhi	r2,257
 1002e4c:	109eea04 	addi	r2,r2,31656
 1002e50:	1080000b 	ldhu	r2,0(r2)
 1002e54:	117fffcc 	andi	r5,r2,65535
 1002e58:	00804074 	movhi	r2,257
 1002e5c:	109eea04 	addi	r2,r2,31656
 1002e60:	10800083 	ldbu	r2,2(r2)
 1002e64:	11803fcc 	andi	r6,r2,255
 1002e68:	00804074 	movhi	r2,257
 1002e6c:	109eea04 	addi	r2,r2,31656
 1002e70:	1080010b 	ldhu	r2,4(r2)
 1002e74:	11ffffcc 	andi	r7,r2,65535
 1002e78:	01004074 	movhi	r4,257
 1002e7c:	210e2304 	addi	r4,r4,14476
 1002e80:	1005e580 	call	1005e58 <printf>
        Chap9_StallEP0();
        printf("stall: ioRequest.uSize > DMA_BUFFER_SIZE.\n");
    }
    else
    {
        RaiseIRQL();
 1002e84:	10045a80 	call	10045a8 <usb_disable_all_interrupts>
        bD13flags.bits.setup_dma = 1;
 1002e88:	00c04074 	movhi	r3,257
 1002e8c:	18dee504 	addi	r3,r3,31636
 1002e90:	18800017 	ldw	r2,0(r3)
 1002e94:	10800074 	orhi	r2,r2,1
 1002e98:	18800015 	stw	r2,0(r3)
        LowerIRQL();
 1002e9c:	10045f80 	call	10045f8 <usb_reenable_all_interrupts>
    }
}
 1002ea0:	e037883a 	mov	sp,fp
 1002ea4:	dfc00117 	ldw	ra,4(sp)
 1002ea8:	df000017 	ldw	fp,0(sp)
 1002eac:	dec00204 	addi	sp,sp,8
 1002eb0:	f800283a 	ret

01002eb4 <get_firmware_version>:

void get_firmware_version()
{
 1002eb4:	defffd04 	addi	sp,sp,-12
 1002eb8:	dfc00215 	stw	ra,8(sp)
 1002ebc:	df000115 	stw	fp,4(sp)
 1002ec0:	df000104 	addi	fp,sp,4
    unsigned char i;

    i = 0x01; 
 1002ec4:	00800044 	movi	r2,1
 1002ec8:	e0bfff05 	stb	r2,-4(fp)
    D13Bus_SingleTransmitEP0(&i, 1);
 1002ecc:	e13fff04 	addi	r4,fp,-4
 1002ed0:	01400044 	movi	r5,1
 1002ed4:	1002f140 	call	1002f14 <D13Bus_SingleTransmitEP0>
}
 1002ed8:	e037883a 	mov	sp,fp
 1002edc:	dfc00117 	ldw	ra,4(sp)
 1002ee0:	df000017 	ldw	fp,0(sp)
 1002ee4:	dec00204 	addi	sp,sp,8
 1002ee8:	f800283a 	ret

01002eec <D13Bus_StallEP0>:
// *************************************************************************
// D13Bus support functions
// *************************************************************************

void D13Bus_StallEP0(void)
{
 1002eec:	defffe04 	addi	sp,sp,-8
 1002ef0:	dfc00115 	stw	ra,4(sp)
 1002ef4:	df000015 	stw	fp,0(sp)
 1002ef8:	d839883a 	mov	fp,sp
    Chap9_StallEP0();
 1002efc:	10020a80 	call	10020a8 <Chap9_StallEP0>
}
 1002f00:	e037883a 	mov	sp,fp
 1002f04:	dfc00117 	ldw	ra,4(sp)
 1002f08:	df000017 	ldw	fp,0(sp)
 1002f0c:	dec00204 	addi	sp,sp,8
 1002f10:	f800283a 	ret

01002f14 <D13Bus_SingleTransmitEP0>:

void D13Bus_SingleTransmitEP0(UCHAR * buf, UCHAR len)
{
 1002f14:	defffc04 	addi	sp,sp,-16
 1002f18:	dfc00315 	stw	ra,12(sp)
 1002f1c:	df000215 	stw	fp,8(sp)
 1002f20:	df000204 	addi	fp,sp,8
 1002f24:	e13ffe15 	stw	r4,-8(fp)
 1002f28:	e17fff05 	stb	r5,-4(fp)
    Hal4D13_SingleTransmitEP0(buf, len);
 1002f2c:	e17fff03 	ldbu	r5,-4(fp)
 1002f30:	e13ffe17 	ldw	r4,-8(fp)
 1002f34:	10042a40 	call	10042a4 <Hal4D13_SingleTransmitEP0>

    RaiseIRQL();
 1002f38:	10045a80 	call	10045a8 <usb_disable_all_interrupts>
    if(!ControlData.Abort)
 1002f3c:	00804074 	movhi	r2,257
 1002f40:	109f0c04 	addi	r2,r2,31792
 1002f44:	10800003 	ldbu	r2,0(r2)
 1002f48:	10803fcc 	andi	r2,r2,255
 1002f4c:	1004c03a 	cmpne	r2,r2,zero
 1002f50:	1000111e 	bne	r2,zero,1002f98 <D13Bus_SingleTransmitEP0+0x84>
    {
        ControlData.wLength = ControlData.wCount = len;
 1002f54:	e0ffff03 	ldbu	r3,-4(fp)
 1002f58:	00804074 	movhi	r2,257
 1002f5c:	109f0c04 	addi	r2,r2,31792
 1002f60:	10c0030d 	sth	r3,12(r2)
 1002f64:	00804074 	movhi	r2,257
 1002f68:	109f0c04 	addi	r2,r2,31792
 1002f6c:	10c0030b 	ldhu	r3,12(r2)
 1002f70:	00804074 	movhi	r2,257
 1002f74:	109f0c04 	addi	r2,r2,31792
 1002f78:	10c0028d 	sth	r3,10(r2)
        bD13flags.bits.DCP_state = USBFSM4DCP_HANDSHAKE;
 1002f7c:	01004074 	movhi	r4,257
 1002f80:	211ee504 	addi	r4,r4,31636
 1002f84:	20c00017 	ldw	r3,0(r4)
 1002f88:	00bc3fc4 	movi	r2,-3841
 1002f8c:	1884703a 	and	r2,r3,r2
 1002f90:	10810014 	ori	r2,r2,1024
 1002f94:	20800015 	stw	r2,0(r4)
    }
    LowerIRQL();
 1002f98:	10045f80 	call	10045f8 <usb_reenable_all_interrupts>

}
 1002f9c:	e037883a 	mov	sp,fp
 1002fa0:	dfc00117 	ldw	ra,4(sp)
 1002fa4:	df000017 	ldw	fp,0(sp)
 1002fa8:	dec00204 	addi	sp,sp,8
 1002fac:	f800283a 	ret

01002fb0 <D13Bus_BurstTransmitEP0>:

void D13Bus_BurstTransmitEP0(UCHAR * pData, USHORT len)
{
 1002fb0:	defffc04 	addi	sp,sp,-16
 1002fb4:	dfc00315 	stw	ra,12(sp)
 1002fb8:	df000215 	stw	fp,8(sp)
 1002fbc:	df000204 	addi	fp,sp,8
 1002fc0:	e13ffe15 	stw	r4,-8(fp)
 1002fc4:	e17fff0d 	sth	r5,-4(fp)
    ControlData.wCount = 0;
 1002fc8:	00804074 	movhi	r2,257
 1002fcc:	109f0c04 	addi	r2,r2,31792
 1002fd0:	1000030d 	sth	zero,12(r2)
    if(ControlData.wLength > len)
 1002fd4:	00804074 	movhi	r2,257
 1002fd8:	109f0c04 	addi	r2,r2,31792
 1002fdc:	1080028b 	ldhu	r2,10(r2)
 1002fe0:	10ffffcc 	andi	r3,r2,65535
 1002fe4:	e0bfff0b 	ldhu	r2,-4(fp)
 1002fe8:	10c0042e 	bgeu	r2,r3,1002ffc <D13Bus_BurstTransmitEP0+0x4c>
        ControlData.wLength = len;
 1002fec:	00c04074 	movhi	r3,257
 1002ff0:	18df0c04 	addi	r3,r3,31792
 1002ff4:	e0bfff0b 	ldhu	r2,-4(fp)
 1002ff8:	1880028d 	sth	r2,10(r3)

    ControlData.Addr.pData = pData;
 1002ffc:	00c04074 	movhi	r3,257
 1003000:	18df0c04 	addi	r3,r3,31792
 1003004:	e0bffe17 	ldw	r2,-8(fp)
 1003008:	18800415 	stw	r2,16(r3)
    if( ControlData.wLength >= EP0_PACKET_SIZE)
 100300c:	00804074 	movhi	r2,257
 1003010:	109f0c04 	addi	r2,r2,31792
 1003014:	1080028b 	ldhu	r2,10(r2)
 1003018:	10bfffcc 	andi	r2,r2,65535
 100301c:	10801030 	cmpltui	r2,r2,64
 1003020:	10001e1e 	bne	r2,zero,100309c <D13Bus_BurstTransmitEP0+0xec>
    {
        Hal4D13_WriteEndpoint(EPINDEX4EP0_CONTROL_IN, ControlData.Addr.pData, EP0_PACKET_SIZE);
 1003024:	00804074 	movhi	r2,257
 1003028:	109f0c04 	addi	r2,r2,31792
 100302c:	11400417 	ldw	r5,16(r2)
 1003030:	01000044 	movi	r4,1
 1003034:	01801004 	movi	r6,64
 1003038:	10038cc0 	call	10038cc <Hal4D13_WriteEndpoint>
        RaiseIRQL();
 100303c:	10045a80 	call	10045a8 <usb_disable_all_interrupts>
        if(!ControlData.Abort)
 1003040:	00804074 	movhi	r2,257
 1003044:	109f0c04 	addi	r2,r2,31792
 1003048:	10800003 	ldbu	r2,0(r2)
 100304c:	10803fcc 	andi	r2,r2,255
 1003050:	1004c03a 	cmpne	r2,r2,zero
 1003054:	10000f1e 	bne	r2,zero,1003094 <D13Bus_BurstTransmitEP0+0xe4>
        {
            ControlData.wCount += EP0_PACKET_SIZE;
 1003058:	00804074 	movhi	r2,257
 100305c:	109f0c04 	addi	r2,r2,31792
 1003060:	1080030b 	ldhu	r2,12(r2)
 1003064:	10801004 	addi	r2,r2,64
 1003068:	1007883a 	mov	r3,r2
 100306c:	00804074 	movhi	r2,257
 1003070:	109f0c04 	addi	r2,r2,31792
 1003074:	10c0030d 	sth	r3,12(r2)
            bD13flags.bits.DCP_state = USBFSM4DCP_DATAIN;
 1003078:	01004074 	movhi	r4,257
 100307c:	211ee504 	addi	r4,r4,31636
 1003080:	20c00017 	ldw	r3,0(r4)
 1003084:	00bc3fc4 	movi	r2,-3841
 1003088:	1884703a 	and	r2,r3,r2
 100308c:	10804014 	ori	r2,r2,256
 1003090:	20800015 	stw	r2,0(r4)
        }

        LowerIRQL();
 1003094:	10045f80 	call	10045f8 <usb_reenable_all_interrupts>
 1003098:	00002106 	br	1003120 <D13Bus_BurstTransmitEP0+0x170>

    }
    else
    {
        Hal4D13_WriteEndpoint(EPINDEX4EP0_CONTROL_IN, pData, ControlData.wLength);
 100309c:	00804074 	movhi	r2,257
 10030a0:	109f0c04 	addi	r2,r2,31792
 10030a4:	1080028b 	ldhu	r2,10(r2)
 10030a8:	11bfffcc 	andi	r6,r2,65535
 10030ac:	01000044 	movi	r4,1
 10030b0:	e17ffe17 	ldw	r5,-8(fp)
 10030b4:	10038cc0 	call	10038cc <Hal4D13_WriteEndpoint>
        RaiseIRQL();
 10030b8:	10045a80 	call	10045a8 <usb_disable_all_interrupts>
        if(!ControlData.Abort)
 10030bc:	00804074 	movhi	r2,257
 10030c0:	109f0c04 	addi	r2,r2,31792
 10030c4:	10800003 	ldbu	r2,0(r2)
 10030c8:	10803fcc 	andi	r2,r2,255
 10030cc:	1004c03a 	cmpne	r2,r2,zero
 10030d0:	1000121e 	bne	r2,zero,100311c <D13Bus_BurstTransmitEP0+0x16c>
        {
            ControlData.wCount += ControlData.wLength;
 10030d4:	00804074 	movhi	r2,257
 10030d8:	109f0c04 	addi	r2,r2,31792
 10030dc:	10c0030b 	ldhu	r3,12(r2)
 10030e0:	00804074 	movhi	r2,257
 10030e4:	109f0c04 	addi	r2,r2,31792
 10030e8:	1080028b 	ldhu	r2,10(r2)
 10030ec:	1885883a 	add	r2,r3,r2
 10030f0:	1007883a 	mov	r3,r2
 10030f4:	00804074 	movhi	r2,257
 10030f8:	109f0c04 	addi	r2,r2,31792
 10030fc:	10c0030d 	sth	r3,12(r2)
            bD13flags.bits.DCP_state = USBFSM4DCP_DATAIN;
 1003100:	01004074 	movhi	r4,257
 1003104:	211ee504 	addi	r4,r4,31636
 1003108:	20c00017 	ldw	r3,0(r4)
 100310c:	00bc3fc4 	movi	r2,-3841
 1003110:	1884703a 	and	r2,r3,r2
 1003114:	10804014 	ori	r2,r2,256
 1003118:	20800015 	stw	r2,0(r4)
        }
        LowerIRQL();
 100311c:	10045f80 	call	10045f8 <usb_reenable_all_interrupts>
    }
}
 1003120:	e037883a 	mov	sp,fp
 1003124:	dfc00117 	ldw	ra,4(sp)
 1003128:	df000017 	ldw	fp,0(sp)
 100312c:	dec00204 	addi	sp,sp,8
 1003130:	f800283a 	ret

01003134 <Hal4D13_AcquireD13>:
 // ************************************************************************
 // Subroutines -- 1
 // ************************************************************************
 */

void Hal4D13_AcquireD13(unsigned char g_host_IRQ_num, void *usb_isr) {
 1003134:	defffc04 	addi	sp,sp,-16
 1003138:	dfc00315 	stw	ra,12(sp)
 100313c:	df000215 	stw	fp,8(sp)
 1003140:	df000204 	addi	fp,sp,8
 1003144:	e17fff15 	stw	r5,-4(fp)
 1003148:	e13ffe05 	stb	r4,-8(fp)
	alt_irq_register(g_host_IRQ_num, NULL, usb_isr);
 100314c:	e13ffe03 	ldbu	r4,-8(fp)
 1003150:	e1bfff17 	ldw	r6,-4(fp)
 1003154:	000b883a 	mov	r5,zero
 1003158:	10109600 	call	1010960 <alt_irq_register>
}
 100315c:	e037883a 	mov	sp,fp
 1003160:	dfc00117 	ldw	ra,4(sp)
 1003164:	df000017 	ldw	fp,0(sp)
 1003168:	dec00204 	addi	sp,sp,8
 100316c:	f800283a 	ret

01003170 <Hal4D13_ResetDevice>:

void Hal4D13_ResetDevice(void) {
 1003170:	deffff04 	addi	sp,sp,-4
 1003174:	df000015 	stw	fp,0(sp)
 1003178:	d839883a 	mov	fp,sp
	IOWR(ISP1362_BASE, D13_COMMAND_PORT, D13CMD_DEV_RESET);
 100317c:	00804074 	movhi	r2,257
 1003180:	109ee404 	addi	r2,r2,31632
 1003184:	10800017 	ldw	r2,0(r2)
 1003188:	10800304 	addi	r2,r2,12
 100318c:	1007883a 	mov	r3,r2
 1003190:	00803d84 	movi	r2,246
 1003194:	18800035 	stwio	r2,0(r3)
}
 1003198:	e037883a 	mov	sp,fp
 100319c:	df000017 	ldw	fp,0(sp)
 10031a0:	dec00104 	addi	sp,sp,4
 10031a4:	f800283a 	ret

010031a8 <Hal4D13_GetDevConfig>:

USHORT Hal4D13_GetDevConfig(void) {
 10031a8:	defffe04 	addi	sp,sp,-8
 10031ac:	df000115 	stw	fp,4(sp)
 10031b0:	df000104 	addi	fp,sp,4
	USHORT i;
	IOWR(ISP1362_BASE, D13_COMMAND_PORT, D13CMD_DEV_RD_CNFG);
 10031b4:	00804074 	movhi	r2,257
 10031b8:	109ee404 	addi	r2,r2,31632
 10031bc:	10800017 	ldw	r2,0(r2)
 10031c0:	10800304 	addi	r2,r2,12
 10031c4:	1007883a 	mov	r3,r2
 10031c8:	00802ec4 	movi	r2,187
 10031cc:	18800035 	stwio	r2,0(r3)
	i = IORD(ISP1362_BASE,D13_DATA_PORT);
 10031d0:	00804074 	movhi	r2,257
 10031d4:	109ee404 	addi	r2,r2,31632
 10031d8:	10800017 	ldw	r2,0(r2)
 10031dc:	10800204 	addi	r2,r2,8
 10031e0:	10800037 	ldwio	r2,0(r2)
 10031e4:	e0bfff0d 	sth	r2,-4(fp)
	return i;
 10031e8:	e0bfff0b 	ldhu	r2,-4(fp)
}
 10031ec:	e037883a 	mov	sp,fp
 10031f0:	df000017 	ldw	fp,0(sp)
 10031f4:	dec00104 	addi	sp,sp,4
 10031f8:	f800283a 	ret

010031fc <Hal4D13_SetDevConfig>:

void Hal4D13_SetDevConfig(USHORT wDevCnfg) {
 10031fc:	defffe04 	addi	sp,sp,-8
 1003200:	df000115 	stw	fp,4(sp)
 1003204:	df000104 	addi	fp,sp,4
 1003208:	e13fff0d 	sth	r4,-4(fp)
	IOWR(ISP1362_BASE, D13_COMMAND_PORT, D13CMD_DEV_WR_CNFG);
 100320c:	00804074 	movhi	r2,257
 1003210:	109ee404 	addi	r2,r2,31632
 1003214:	10800017 	ldw	r2,0(r2)
 1003218:	10800304 	addi	r2,r2,12
 100321c:	1007883a 	mov	r3,r2
 1003220:	00802e84 	movi	r2,186
 1003224:	18800035 	stwio	r2,0(r3)
	IOWR(ISP1362_BASE, D13_DATA_PORT, wDevCnfg);
 1003228:	00804074 	movhi	r2,257
 100322c:	109ee404 	addi	r2,r2,31632
 1003230:	10800017 	ldw	r2,0(r2)
 1003234:	10800204 	addi	r2,r2,8
 1003238:	e0ffff0b 	ldhu	r3,-4(fp)
 100323c:	10c00035 	stwio	r3,0(r2)
}
 1003240:	e037883a 	mov	sp,fp
 1003244:	df000017 	ldw	fp,0(sp)
 1003248:	dec00104 	addi	sp,sp,4
 100324c:	f800283a 	ret

01003250 <Hal4D13_SetMode>:

void Hal4D13_SetMode(UCHAR bMode) {
 1003250:	defffe04 	addi	sp,sp,-8
 1003254:	df000115 	stw	fp,4(sp)
 1003258:	df000104 	addi	fp,sp,4
 100325c:	e13fff05 	stb	r4,-4(fp)
	IOWR(ISP1362_BASE, D13_COMMAND_PORT, D13CMD_DEV_WR_MODE);
 1003260:	00804074 	movhi	r2,257
 1003264:	109ee404 	addi	r2,r2,31632
 1003268:	10800017 	ldw	r2,0(r2)
 100326c:	10800304 	addi	r2,r2,12
 1003270:	1007883a 	mov	r3,r2
 1003274:	00802e04 	movi	r2,184
 1003278:	18800035 	stwio	r2,0(r3)
	IOWR(ISP1362_BASE, D13_DATA_PORT, bMode);
 100327c:	00804074 	movhi	r2,257
 1003280:	109ee404 	addi	r2,r2,31632
 1003284:	10800017 	ldw	r2,0(r2)
 1003288:	10800204 	addi	r2,r2,8
 100328c:	e0ffff03 	ldbu	r3,-4(fp)
 1003290:	10c00035 	stwio	r3,0(r2)
}
 1003294:	e037883a 	mov	sp,fp
 1003298:	df000017 	ldw	fp,0(sp)
 100329c:	dec00104 	addi	sp,sp,4
 10032a0:	f800283a 	ret

010032a4 <Hal4D13_GetMode>:

UCHAR Hal4D13_GetMode(void) {
 10032a4:	defffe04 	addi	sp,sp,-8
 10032a8:	df000115 	stw	fp,4(sp)
 10032ac:	df000104 	addi	fp,sp,4
	UCHAR c;
	IOWR(ISP1362_BASE, D13_COMMAND_PORT, D13CMD_DEV_RD_MODE);
 10032b0:	00804074 	movhi	r2,257
 10032b4:	109ee404 	addi	r2,r2,31632
 10032b8:	10800017 	ldw	r2,0(r2)
 10032bc:	10800304 	addi	r2,r2,12
 10032c0:	1007883a 	mov	r3,r2
 10032c4:	00802e44 	movi	r2,185
 10032c8:	18800035 	stwio	r2,0(r3)
	c = (UCHAR) (IORD(ISP1362_BASE,D13_DATA_PORT) & 0x0ff);
 10032cc:	00804074 	movhi	r2,257
 10032d0:	109ee404 	addi	r2,r2,31632
 10032d4:	10800017 	ldw	r2,0(r2)
 10032d8:	10800204 	addi	r2,r2,8
 10032dc:	10800037 	ldwio	r2,0(r2)
 10032e0:	1007883a 	mov	r3,r2
 10032e4:	00bfffc4 	movi	r2,-1
 10032e8:	1884703a 	and	r2,r3,r2
 10032ec:	e0bfff05 	stb	r2,-4(fp)
	return c;
 10032f0:	e0bfff03 	ldbu	r2,-4(fp)
}
 10032f4:	e037883a 	mov	sp,fp
 10032f8:	df000017 	ldw	fp,0(sp)
 10032fc:	dec00104 	addi	sp,sp,4
 1003300:	f800283a 	ret

01003304 <Hal4D13_GetAddress>:

UCHAR Hal4D13_GetAddress(void) {
 1003304:	defffe04 	addi	sp,sp,-8
 1003308:	df000115 	stw	fp,4(sp)
 100330c:	df000104 	addi	fp,sp,4
	UCHAR c;
	IOWR(ISP1362_BASE, D13_COMMAND_PORT, D13CMD_DEV_RD_ADDR);
 1003310:	00804074 	movhi	r2,257
 1003314:	109ee404 	addi	r2,r2,31632
 1003318:	10800017 	ldw	r2,0(r2)
 100331c:	10800304 	addi	r2,r2,12
 1003320:	1007883a 	mov	r3,r2
 1003324:	00802dc4 	movi	r2,183
 1003328:	18800035 	stwio	r2,0(r3)
	c = (UCHAR) (IORD(ISP1362_BASE,D13_DATA_PORT) & 0x0ff);
 100332c:	00804074 	movhi	r2,257
 1003330:	109ee404 	addi	r2,r2,31632
 1003334:	10800017 	ldw	r2,0(r2)
 1003338:	10800204 	addi	r2,r2,8
 100333c:	10800037 	ldwio	r2,0(r2)
 1003340:	1007883a 	mov	r3,r2
 1003344:	00bfffc4 	movi	r2,-1
 1003348:	1884703a 	and	r2,r3,r2
 100334c:	e0bfff05 	stb	r2,-4(fp)
	return c;
 1003350:	e0bfff03 	ldbu	r2,-4(fp)
}
 1003354:	e037883a 	mov	sp,fp
 1003358:	df000017 	ldw	fp,0(sp)
 100335c:	dec00104 	addi	sp,sp,4
 1003360:	f800283a 	ret

01003364 <Hal4D13_SetAddressEnable>:

void Hal4D13_SetAddressEnable(UCHAR bAddress, UCHAR bEnable) {
 1003364:	defffd04 	addi	sp,sp,-12
 1003368:	df000215 	stw	fp,8(sp)
 100336c:	df000204 	addi	fp,sp,8
 1003370:	e13ffe05 	stb	r4,-8(fp)
 1003374:	e17fff05 	stb	r5,-4(fp)
	IOWR(ISP1362_BASE, D13_COMMAND_PORT, D13CMD_DEV_WR_ADDR);
 1003378:	00804074 	movhi	r2,257
 100337c:	109ee404 	addi	r2,r2,31632
 1003380:	10800017 	ldw	r2,0(r2)
 1003384:	10800304 	addi	r2,r2,12
 1003388:	1007883a 	mov	r3,r2
 100338c:	00802d84 	movi	r2,182
 1003390:	18800035 	stwio	r2,0(r3)
	if (bEnable)
 1003394:	e0bfff03 	ldbu	r2,-4(fp)
 1003398:	1005003a 	cmpeq	r2,r2,zero
 100339c:	1000051e 	bne	r2,zero,10033b4 <Hal4D13_SetAddressEnable+0x50>
		bAddress |= D13REG_DEVADDR_EN;
 10033a0:	e0bffe03 	ldbu	r2,-8(fp)
 10033a4:	00ffe004 	movi	r3,-128
 10033a8:	10c4b03a 	or	r2,r2,r3
 10033ac:	e0bffe05 	stb	r2,-8(fp)
 10033b0:	00000306 	br	10033c0 <Hal4D13_SetAddressEnable+0x5c>
	else
		bAddress &= D13REG_DEVADDR_MASK;
 10033b4:	e0bffe03 	ldbu	r2,-8(fp)
 10033b8:	10801fcc 	andi	r2,r2,127
 10033bc:	e0bffe05 	stb	r2,-8(fp)
	IOWR(ISP1362_BASE, D13_DATA_PORT, bAddress);
 10033c0:	00804074 	movhi	r2,257
 10033c4:	109ee404 	addi	r2,r2,31632
 10033c8:	10800017 	ldw	r2,0(r2)
 10033cc:	10800204 	addi	r2,r2,8
 10033d0:	e0fffe03 	ldbu	r3,-8(fp)
 10033d4:	10c00035 	stwio	r3,0(r2)
}
 10033d8:	e037883a 	mov	sp,fp
 10033dc:	df000017 	ldw	fp,0(sp)
 10033e0:	dec00104 	addi	sp,sp,4
 10033e4:	f800283a 	ret

010033e8 <Hal4D13_SoftConnect>:

void Hal4D13_SoftConnect(UCHAR bEnable) {
 10033e8:	defffd04 	addi	sp,sp,-12
 10033ec:	df000215 	stw	fp,8(sp)
 10033f0:	df000204 	addi	fp,sp,8
 10033f4:	e13fff05 	stb	r4,-4(fp)
	UCHAR c;
	IOWR(ISP1362_BASE, D13_COMMAND_PORT, D13CMD_DEV_RD_MODE);
 10033f8:	00804074 	movhi	r2,257
 10033fc:	109ee404 	addi	r2,r2,31632
 1003400:	10800017 	ldw	r2,0(r2)
 1003404:	10800304 	addi	r2,r2,12
 1003408:	1007883a 	mov	r3,r2
 100340c:	00802e44 	movi	r2,185
 1003410:	18800035 	stwio	r2,0(r3)
	c = (UCHAR) (IORD(ISP1362_BASE,D13_DATA_PORT) & 0x0ff);
 1003414:	00804074 	movhi	r2,257
 1003418:	109ee404 	addi	r2,r2,31632
 100341c:	10800017 	ldw	r2,0(r2)
 1003420:	10800204 	addi	r2,r2,8
 1003424:	10800037 	ldwio	r2,0(r2)
 1003428:	1007883a 	mov	r3,r2
 100342c:	00bfffc4 	movi	r2,-1
 1003430:	1884703a 	and	r2,r3,r2
 1003434:	e0bffe05 	stb	r2,-8(fp)
	if (bEnable)
 1003438:	e0bfff03 	ldbu	r2,-4(fp)
 100343c:	1005003a 	cmpeq	r2,r2,zero
 1003440:	1000041e 	bne	r2,zero,1003454 <Hal4D13_SoftConnect+0x6c>
		c |= D13REG_MODE_SOFTCONNECT;
 1003444:	e0bffe03 	ldbu	r2,-8(fp)
 1003448:	10800054 	ori	r2,r2,1
 100344c:	e0bffe05 	stb	r2,-8(fp)
 1003450:	00000406 	br	1003464 <Hal4D13_SoftConnect+0x7c>
	else
		c &= ~D13REG_MODE_SOFTCONNECT;
 1003454:	e0bffe03 	ldbu	r2,-8(fp)
 1003458:	00ffff84 	movi	r3,-2
 100345c:	10c4703a 	and	r2,r2,r3
 1003460:	e0bffe05 	stb	r2,-8(fp)
	IOWR(ISP1362_BASE, D13_COMMAND_PORT, D13CMD_DEV_WR_MODE);
 1003464:	00804074 	movhi	r2,257
 1003468:	109ee404 	addi	r2,r2,31632
 100346c:	10800017 	ldw	r2,0(r2)
 1003470:	10800304 	addi	r2,r2,12
 1003474:	1007883a 	mov	r3,r2
 1003478:	00802e04 	movi	r2,184
 100347c:	18800035 	stwio	r2,0(r3)
	IOWR(ISP1362_BASE, D13_DATA_PORT, c);
 1003480:	00804074 	movhi	r2,257
 1003484:	109ee404 	addi	r2,r2,31632
 1003488:	10800017 	ldw	r2,0(r2)
 100348c:	10800204 	addi	r2,r2,8
 1003490:	e0fffe03 	ldbu	r3,-8(fp)
 1003494:	10c00035 	stwio	r3,0(r2)
}
 1003498:	e037883a 	mov	sp,fp
 100349c:	df000017 	ldw	fp,0(sp)
 10034a0:	dec00104 	addi	sp,sp,4
 10034a4:	f800283a 	ret

010034a8 <Hal4D13_AcknowledgeSETUP>:

void Hal4D13_AcknowledgeSETUP(void) {
 10034a8:	deffff04 	addi	sp,sp,-4
 10034ac:	df000015 	stw	fp,0(sp)
 10034b0:	d839883a 	mov	fp,sp
	IOWR(ISP1362_BASE, D13_COMMAND_PORT, D13CMD_ACK_SETUP);
 10034b4:	00804074 	movhi	r2,257
 10034b8:	109ee404 	addi	r2,r2,31632
 10034bc:	10800017 	ldw	r2,0(r2)
 10034c0:	10800304 	addi	r2,r2,12
 10034c4:	1007883a 	mov	r3,r2
 10034c8:	00803d04 	movi	r2,244
 10034cc:	18800035 	stwio	r2,0(r3)
}
 10034d0:	e037883a 	mov	sp,fp
 10034d4:	df000017 	ldw	fp,0(sp)
 10034d8:	dec00104 	addi	sp,sp,4
 10034dc:	f800283a 	ret

010034e0 <Hal4D13_ClearBuffer>:

void Hal4D13_ClearBuffer(UCHAR bEPIndex) {
 10034e0:	defffe04 	addi	sp,sp,-8
 10034e4:	df000115 	stw	fp,4(sp)
 10034e8:	df000104 	addi	fp,sp,4
 10034ec:	e13fff05 	stb	r4,-4(fp)
	/* Select Endpoint */
	IOWR(ISP1362_BASE, D13_COMMAND_PORT, D13CMD_EP_CLEAR_BUF + bEPIndex);
 10034f0:	00804074 	movhi	r2,257
 10034f4:	109ee404 	addi	r2,r2,31632
 10034f8:	10800017 	ldw	r2,0(r2)
 10034fc:	11000304 	addi	r4,r2,12
 1003500:	e0bfff03 	ldbu	r2,-4(fp)
 1003504:	10c01c04 	addi	r3,r2,112
 1003508:	2005883a 	mov	r2,r4
 100350c:	10c00035 	stwio	r3,0(r2)
}
 1003510:	e037883a 	mov	sp,fp
 1003514:	df000017 	ldw	fp,0(sp)
 1003518:	dec00104 	addi	sp,sp,4
 100351c:	f800283a 	ret

01003520 <Hal4D13_ValidBuffer>:

void Hal4D13_ValidBuffer(UCHAR bEPIndex) {
 1003520:	defffe04 	addi	sp,sp,-8
 1003524:	df000115 	stw	fp,4(sp)
 1003528:	df000104 	addi	fp,sp,4
 100352c:	e13fff05 	stb	r4,-4(fp)
	IOWR(ISP1362_BASE, D13_COMMAND_PORT, D13CMD_EP_VALID_BUF + bEPIndex);
 1003530:	00804074 	movhi	r2,257
 1003534:	109ee404 	addi	r2,r2,31632
 1003538:	10800017 	ldw	r2,0(r2)
 100353c:	11000304 	addi	r4,r2,12
 1003540:	e0bfff03 	ldbu	r2,-4(fp)
 1003544:	10c01804 	addi	r3,r2,96
 1003548:	2005883a 	mov	r2,r4
 100354c:	10c00035 	stwio	r3,0(r2)
}
 1003550:	e037883a 	mov	sp,fp
 1003554:	df000017 	ldw	fp,0(sp)
 1003558:	dec00104 	addi	sp,sp,4
 100355c:	f800283a 	ret

01003560 <Hal4D13_ReadEndpoint>:

USHORT Hal4D13_ReadEndpoint(UCHAR bEPIndex, UCHAR *buf, USHORT len) {
 1003560:	defffa04 	addi	sp,sp,-24
 1003564:	df000515 	stw	fp,20(sp)
 1003568:	df000504 	addi	fp,sp,20
 100356c:	e17ffe15 	stw	r5,-8(fp)
 1003570:	e13ffd05 	stb	r4,-12(fp)
 1003574:	e1bfff0d 	sth	r6,-4(fp)
	USHORT i, j, c;
	IOWR(ISP1362_BASE, D13_COMMAND_PORT, D13CMD_EP_RD_FIFO + bEPIndex);
 1003578:	00804074 	movhi	r2,257
 100357c:	109ee404 	addi	r2,r2,31632
 1003580:	10800017 	ldw	r2,0(r2)
 1003584:	11000304 	addi	r4,r2,12
 1003588:	e0bffd03 	ldbu	r2,-12(fp)
 100358c:	10c00404 	addi	r3,r2,16
 1003590:	2005883a 	mov	r2,r4
 1003594:	10c00035 	stwio	r3,0(r2)
	/* read Buffer */
	j = IORD(ISP1362_BASE,D13_DATA_PORT);
 1003598:	00804074 	movhi	r2,257
 100359c:	109ee404 	addi	r2,r2,31632
 10035a0:	10800017 	ldw	r2,0(r2)
 10035a4:	10800204 	addi	r2,r2,8
 10035a8:	10800037 	ldwio	r2,0(r2)
 10035ac:	e0bffb8d 	sth	r2,-18(fp)
//	printf("Endpoint has %d bytes available\n", j);
	if (j > len)
 10035b0:	e0fffb8b 	ldhu	r3,-18(fp)
 10035b4:	e0bfff0b 	ldhu	r2,-4(fp)
 10035b8:	10c0022e 	bgeu	r2,r3,10035c4 <Hal4D13_ReadEndpoint+0x64>
		j = len;
 10035bc:	e0bfff0b 	ldhu	r2,-4(fp)
 10035c0:	e0bffb8d 	sth	r2,-18(fp)
	i = 0;
 10035c4:	e03ffc0d 	sth	zero,-16(fp)
	while (i < j) //<<
 10035c8:	00001e06 	br	1003644 <Hal4D13_ReadEndpoint+0xe4>
	//for(i=0; i<j; i=i+2, buf++ )
	{
		c = IORD(ISP1362_BASE,D13_DATA_PORT);
 10035cc:	00804074 	movhi	r2,257
 10035d0:	109ee404 	addi	r2,r2,31632
 10035d4:	10800017 	ldw	r2,0(r2)
 10035d8:	10800204 	addi	r2,r2,8
 10035dc:	10800037 	ldwio	r2,0(r2)
 10035e0:	e0bffb0d 	sth	r2,-20(fp)
		*buf = (UCHAR) c;
 10035e4:	e0bffb0b 	ldhu	r2,-20(fp)
 10035e8:	1007883a 	mov	r3,r2
 10035ec:	e0bffe17 	ldw	r2,-8(fp)
 10035f0:	10c00005 	stb	r3,0(r2)
		i++; //<<
 10035f4:	e0bffc0b 	ldhu	r2,-16(fp)
 10035f8:	10800044 	addi	r2,r2,1
 10035fc:	e0bffc0d 	sth	r2,-16(fp)
		if (i >= j)
 1003600:	e0fffc0b 	ldhu	r3,-16(fp)
 1003604:	e0bffb8b 	ldhu	r2,-18(fp)
 1003608:	1880112e 	bgeu	r3,r2,1003650 <Hal4D13_ReadEndpoint+0xf0>
			break; //<<
		buf++;
 100360c:	e0bffe17 	ldw	r2,-8(fp)
 1003610:	10800044 	addi	r2,r2,1
 1003614:	e0bffe15 	stw	r2,-8(fp)
		*buf = (UCHAR) (c >> 8);
 1003618:	e0bffb0b 	ldhu	r2,-20(fp)
 100361c:	1004d23a 	srli	r2,r2,8
 1003620:	1007883a 	mov	r3,r2
 1003624:	e0bffe17 	ldw	r2,-8(fp)
 1003628:	10c00005 	stb	r3,0(r2)
		i++; //<<
 100362c:	e0bffc0b 	ldhu	r2,-16(fp)
 1003630:	10800044 	addi	r2,r2,1
 1003634:	e0bffc0d 	sth	r2,-16(fp)
		buf++;
 1003638:	e0bffe17 	ldw	r2,-8(fp)
 100363c:	10800044 	addi	r2,r2,1
 1003640:	e0bffe15 	stw	r2,-8(fp)
	j = IORD(ISP1362_BASE,D13_DATA_PORT);
//	printf("Endpoint has %d bytes available\n", j);
	if (j > len)
		j = len;
	i = 0;
	while (i < j) //<<
 1003644:	e0fffc0b 	ldhu	r3,-16(fp)
 1003648:	e0bffb8b 	ldhu	r2,-18(fp)
 100364c:	18bfdf36 	bltu	r3,r2,10035cc <Hal4D13_ReadEndpoint+0x6c>
		*buf = (UCHAR) (c >> 8);
		i++; //<<
		buf++;
	}
	/* Clear Buffer */
	IOWR(ISP1362_BASE, D13_COMMAND_PORT, D13CMD_EP_CLEAR_BUF+bEPIndex);
 1003650:	00804074 	movhi	r2,257
 1003654:	109ee404 	addi	r2,r2,31632
 1003658:	10800017 	ldw	r2,0(r2)
 100365c:	11000304 	addi	r4,r2,12
 1003660:	e0bffd03 	ldbu	r2,-12(fp)
 1003664:	10c01c04 	addi	r3,r2,112
 1003668:	2005883a 	mov	r2,r4
 100366c:	10c00035 	stwio	r3,0(r2)

//	printf("We read %d bytes from the endpoint\n", j);
	return j;
 1003670:	e0bffb8b 	ldhu	r2,-18(fp)

}
 1003674:	e037883a 	mov	sp,fp
 1003678:	df000017 	ldw	fp,0(sp)
 100367c:	dec00104 	addi	sp,sp,4
 1003680:	f800283a 	ret

01003684 <Hal4D13_ReadBulkEndpoint>:

USHORT Hal4D13_ReadBulkEndpoint(UCHAR bEPIndex, UCHAR * buf, USHORT len) {
 1003684:	defffa04 	addi	sp,sp,-24
 1003688:	df000515 	stw	fp,20(sp)
 100368c:	df000504 	addi	fp,sp,20
 1003690:	e17ffe15 	stw	r5,-8(fp)
 1003694:	e13ffd05 	stb	r4,-12(fp)
 1003698:	e1bfff0d 	sth	r6,-4(fp)
	USHORT i, j, c;
	IOWR(ISP1362_BASE, D13_COMMAND_PORT, D13CMD_EP_RD_FIFO + bEPIndex);
 100369c:	00804074 	movhi	r2,257
 10036a0:	109ee404 	addi	r2,r2,31632
 10036a4:	10800017 	ldw	r2,0(r2)
 10036a8:	11000304 	addi	r4,r2,12
 10036ac:	e0bffd03 	ldbu	r2,-12(fp)
 10036b0:	10c00404 	addi	r3,r2,16
 10036b4:	2005883a 	mov	r2,r4
 10036b8:	10c00035 	stwio	r3,0(r2)
	j = IORD(ISP1362_BASE,D13_DATA_PORT);
 10036bc:	00804074 	movhi	r2,257
 10036c0:	109ee404 	addi	r2,r2,31632
 10036c4:	10800017 	ldw	r2,0(r2)
 10036c8:	10800204 	addi	r2,r2,8
 10036cc:	10800037 	ldwio	r2,0(r2)
 10036d0:	e0bffb8d 	sth	r2,-18(fp)
	if (j > len)
 10036d4:	e0fffb8b 	ldhu	r3,-18(fp)
 10036d8:	e0bfff0b 	ldhu	r2,-4(fp)
 10036dc:	10c0022e 	bgeu	r2,r3,10036e8 <Hal4D13_ReadBulkEndpoint+0x64>
		j = len;
 10036e0:	e0bfff0b 	ldhu	r2,-4(fp)
 10036e4:	e0bffb8d 	sth	r2,-18(fp)
	i = 0;
 10036e8:	e03ffc0d 	sth	zero,-16(fp)
	while (i < j) //<<
 10036ec:	00001e06 	br	1003768 <Hal4D13_ReadBulkEndpoint+0xe4>
//  for(i=0; i<j; i=i+2, buf++ )
	{
		c = IORD(ISP1362_BASE,D13_DATA_PORT);
 10036f0:	00804074 	movhi	r2,257
 10036f4:	109ee404 	addi	r2,r2,31632
 10036f8:	10800017 	ldw	r2,0(r2)
 10036fc:	10800204 	addi	r2,r2,8
 1003700:	10800037 	ldwio	r2,0(r2)
 1003704:	e0bffb0d 	sth	r2,-20(fp)
		*buf = (UCHAR) c;
 1003708:	e0bffb0b 	ldhu	r2,-20(fp)
 100370c:	1007883a 	mov	r3,r2
 1003710:	e0bffe17 	ldw	r2,-8(fp)
 1003714:	10c00005 	stb	r3,0(r2)
		i++; //<<
 1003718:	e0bffc0b 	ldhu	r2,-16(fp)
 100371c:	10800044 	addi	r2,r2,1
 1003720:	e0bffc0d 	sth	r2,-16(fp)
		if (i >= j)
 1003724:	e0fffc0b 	ldhu	r3,-16(fp)
 1003728:	e0bffb8b 	ldhu	r2,-18(fp)
 100372c:	1880112e 	bgeu	r3,r2,1003774 <Hal4D13_ReadBulkEndpoint+0xf0>
			break; //<<
		buf++;
 1003730:	e0bffe17 	ldw	r2,-8(fp)
 1003734:	10800044 	addi	r2,r2,1
 1003738:	e0bffe15 	stw	r2,-8(fp)
		*buf = (UCHAR) (c >> 8);
 100373c:	e0bffb0b 	ldhu	r2,-20(fp)
 1003740:	1004d23a 	srli	r2,r2,8
 1003744:	1007883a 	mov	r3,r2
 1003748:	e0bffe17 	ldw	r2,-8(fp)
 100374c:	10c00005 	stb	r3,0(r2)

		i++; //<<
 1003750:	e0bffc0b 	ldhu	r2,-16(fp)
 1003754:	10800044 	addi	r2,r2,1
 1003758:	e0bffc0d 	sth	r2,-16(fp)
		buf++;
 100375c:	e0bffe17 	ldw	r2,-8(fp)
 1003760:	10800044 	addi	r2,r2,1
 1003764:	e0bffe15 	stw	r2,-8(fp)
	IOWR(ISP1362_BASE, D13_COMMAND_PORT, D13CMD_EP_RD_FIFO + bEPIndex);
	j = IORD(ISP1362_BASE,D13_DATA_PORT);
	if (j > len)
		j = len;
	i = 0;
	while (i < j) //<<
 1003768:	e0fffc0b 	ldhu	r3,-16(fp)
 100376c:	e0bffb8b 	ldhu	r2,-18(fp)
 1003770:	18bfdf36 	bltu	r3,r2,10036f0 <Hal4D13_ReadBulkEndpoint+0x6c>

		i++; //<<
		buf++;
	}
	/* Clear Buffer */
	IOWR(ISP1362_BASE, D13_COMMAND_PORT, D13CMD_EP_CLEAR_BUF+bEPIndex);
 1003774:	00804074 	movhi	r2,257
 1003778:	109ee404 	addi	r2,r2,31632
 100377c:	10800017 	ldw	r2,0(r2)
 1003780:	11000304 	addi	r4,r2,12
 1003784:	e0bffd03 	ldbu	r2,-12(fp)
 1003788:	10c01c04 	addi	r3,r2,112
 100378c:	2005883a 	mov	r2,r4
 1003790:	10c00035 	stwio	r3,0(r2)

	return j;
 1003794:	e0bffb8b 	ldhu	r2,-18(fp)
}
 1003798:	e037883a 	mov	sp,fp
 100379c:	df000017 	ldw	fp,0(sp)
 10037a0:	dec00104 	addi	sp,sp,4
 10037a4:	f800283a 	ret

010037a8 <Hal4D13_ReadEndpointWOClearBuffer>:

USHORT Hal4D13_ReadEndpointWOClearBuffer(UCHAR bEPIndex, UCHAR * buf,
		USHORT len) {
 10037a8:	defffa04 	addi	sp,sp,-24
 10037ac:	df000515 	stw	fp,20(sp)
 10037b0:	df000504 	addi	fp,sp,20
 10037b4:	e17ffe15 	stw	r5,-8(fp)
 10037b8:	e13ffd05 	stb	r4,-12(fp)
 10037bc:	e1bfff0d 	sth	r6,-4(fp)
	USHORT i, j, c;
	IOWR(ISP1362_BASE, D13_COMMAND_PORT, D13CMD_EP_RD_FIFO + bEPIndex);
 10037c0:	00804074 	movhi	r2,257
 10037c4:	109ee404 	addi	r2,r2,31632
 10037c8:	10800017 	ldw	r2,0(r2)
 10037cc:	11000304 	addi	r4,r2,12
 10037d0:	e0bffd03 	ldbu	r2,-12(fp)
 10037d4:	10c00404 	addi	r3,r2,16
 10037d8:	2005883a 	mov	r2,r4
 10037dc:	10c00035 	stwio	r3,0(r2)
	/* read Buffer */
	j = IORD(ISP1362_BASE,D13_DATA_PORT);
 10037e0:	00804074 	movhi	r2,257
 10037e4:	109ee404 	addi	r2,r2,31632
 10037e8:	10800017 	ldw	r2,0(r2)
 10037ec:	10800204 	addi	r2,r2,8
 10037f0:	10800037 	ldwio	r2,0(r2)
 10037f4:	e0bffb8d 	sth	r2,-18(fp)
	if (j > len)
 10037f8:	e0fffb8b 	ldhu	r3,-18(fp)
 10037fc:	e0bfff0b 	ldhu	r2,-4(fp)
 1003800:	10c0022e 	bgeu	r2,r3,100380c <Hal4D13_ReadEndpointWOClearBuffer+0x64>
		j = len;
 1003804:	e0bfff0b 	ldhu	r2,-4(fp)
 1003808:	e0bffb8d 	sth	r2,-18(fp)
	i = 0;
 100380c:	e03ffc0d 	sth	zero,-16(fp)
	while (i < j) //<<
 1003810:	00001e06 	br	100388c <Hal4D13_ReadEndpointWOClearBuffer+0xe4>
	//for(i<j; i=i+2, buf++ )
	{
		c = IORD(ISP1362_BASE,D13_DATA_PORT);
 1003814:	00804074 	movhi	r2,257
 1003818:	109ee404 	addi	r2,r2,31632
 100381c:	10800017 	ldw	r2,0(r2)
 1003820:	10800204 	addi	r2,r2,8
 1003824:	10800037 	ldwio	r2,0(r2)
 1003828:	e0bffb0d 	sth	r2,-20(fp)
		*buf = (UCHAR) c; //printf("WOC= %02X ",*buf);//<<
 100382c:	e0bffb0b 	ldhu	r2,-20(fp)
 1003830:	1007883a 	mov	r3,r2
 1003834:	e0bffe17 	ldw	r2,-8(fp)
 1003838:	10c00005 	stb	r3,0(r2)
		i++; //<<
 100383c:	e0bffc0b 	ldhu	r2,-16(fp)
 1003840:	10800044 	addi	r2,r2,1
 1003844:	e0bffc0d 	sth	r2,-16(fp)
		if (i >= j)
 1003848:	e0fffc0b 	ldhu	r3,-16(fp)
 100384c:	e0bffb8b 	ldhu	r2,-18(fp)
 1003850:	1880112e 	bgeu	r3,r2,1003898 <Hal4D13_ReadEndpointWOClearBuffer+0xf0>
			break; //<<
		buf++;
 1003854:	e0bffe17 	ldw	r2,-8(fp)
 1003858:	10800044 	addi	r2,r2,1
 100385c:	e0bffe15 	stw	r2,-8(fp)
		*buf = (UCHAR) (c >> 8); //printf("WOC= %02X ",*buf);//<<
 1003860:	e0bffb0b 	ldhu	r2,-20(fp)
 1003864:	1004d23a 	srli	r2,r2,8
 1003868:	1007883a 	mov	r3,r2
 100386c:	e0bffe17 	ldw	r2,-8(fp)
 1003870:	10c00005 	stb	r3,0(r2)
		i++; //<<
 1003874:	e0bffc0b 	ldhu	r2,-16(fp)
 1003878:	10800044 	addi	r2,r2,1
 100387c:	e0bffc0d 	sth	r2,-16(fp)
		buf++;
 1003880:	e0bffe17 	ldw	r2,-8(fp)
 1003884:	10800044 	addi	r2,r2,1
 1003888:	e0bffe15 	stw	r2,-8(fp)
	/* read Buffer */
	j = IORD(ISP1362_BASE,D13_DATA_PORT);
	if (j > len)
		j = len;
	i = 0;
	while (i < j) //<<
 100388c:	e0fffc0b 	ldhu	r3,-16(fp)
 1003890:	e0bffb8b 	ldhu	r2,-18(fp)
 1003894:	18bfdf36 	bltu	r3,r2,1003814 <Hal4D13_ReadEndpointWOClearBuffer+0x6c>
		i++; //<<
		buf++;
	}
	// printf("\n",c);
	/* Clear Buffer */
	IOWR(ISP1362_BASE, D13_COMMAND_PORT, D13CMD_EP_CLEAR_BUF+bEPIndex);
 1003898:	00804074 	movhi	r2,257
 100389c:	109ee404 	addi	r2,r2,31632
 10038a0:	10800017 	ldw	r2,0(r2)
 10038a4:	11000304 	addi	r4,r2,12
 10038a8:	e0bffd03 	ldbu	r2,-12(fp)
 10038ac:	10c01c04 	addi	r3,r2,112
 10038b0:	2005883a 	mov	r2,r4
 10038b4:	10c00035 	stwio	r3,0(r2)

	return j;
 10038b8:	e0bffb8b 	ldhu	r2,-18(fp)
}
 10038bc:	e037883a 	mov	sp,fp
 10038c0:	df000017 	ldw	fp,0(sp)
 10038c4:	dec00104 	addi	sp,sp,4
 10038c8:	f800283a 	ret

010038cc <Hal4D13_WriteEndpoint>:

USHORT Hal4D13_WriteEndpoint(UCHAR bEPIndex, UCHAR * buf, USHORT len) {
 10038cc:	defffb04 	addi	sp,sp,-20
 10038d0:	df000415 	stw	fp,16(sp)
 10038d4:	df000404 	addi	fp,sp,16
 10038d8:	e17ffe15 	stw	r5,-8(fp)
 10038dc:	e13ffd05 	stb	r4,-12(fp)
 10038e0:	e1bfff0d 	sth	r6,-4(fp)
	USHORT i, c;
	/* Select Endpoint */

	IOWR(ISP1362_BASE, D13_COMMAND_PORT, D13CMD_EP_WR_FIFO + bEPIndex);
 10038e4:	00804074 	movhi	r2,257
 10038e8:	109ee404 	addi	r2,r2,31632
 10038ec:	10800017 	ldw	r2,0(r2)
 10038f0:	10800304 	addi	r2,r2,12
 10038f4:	e0fffd03 	ldbu	r3,-12(fp)
 10038f8:	10c00035 	stwio	r3,0(r2)
	IOWR(ISP1362_BASE, D13_DATA_PORT, len);
 10038fc:	00804074 	movhi	r2,257
 1003900:	109ee404 	addi	r2,r2,31632
 1003904:	10800017 	ldw	r2,0(r2)
 1003908:	10800204 	addi	r2,r2,8
 100390c:	e0ffff0b 	ldhu	r3,-4(fp)
 1003910:	10c00035 	stwio	r3,0(r2)
	if (len == 0)
 1003914:	e0bfff0b 	ldhu	r2,-4(fp)
 1003918:	1004c03a 	cmpne	r2,r2,zero
 100391c:	1000051e 	bne	r2,zero,1003934 <Hal4D13_WriteEndpoint+0x68>
		IOWR(ISP1362_BASE, D13_DATA_PORT, 0);
 1003920:	00804074 	movhi	r2,257
 1003924:	109ee404 	addi	r2,r2,31632
 1003928:	10800017 	ldw	r2,0(r2)
 100392c:	10800204 	addi	r2,r2,8
 1003930:	10000035 	stwio	zero,0(r2)
	/* Write Buffer */

	//for(i=0; i<len; i=i+2, buf++ )
	i = 0;
 1003934:	e03ffc8d 	sth	zero,-14(fp)
	while (i < len) {
 1003938:	00002b06 	br	10039e8 <Hal4D13_WriteEndpoint+0x11c>
		c = *buf;
 100393c:	e0bffe17 	ldw	r2,-8(fp)
 1003940:	10800003 	ldbu	r2,0(r2)
 1003944:	10803fcc 	andi	r2,r2,255
 1003948:	e0bffc0d 	sth	r2,-16(fp)
		buf++;
 100394c:	e0bffe17 	ldw	r2,-8(fp)
 1003950:	10800044 	addi	r2,r2,1
 1003954:	e0bffe15 	stw	r2,-8(fp)
		i++;
 1003958:	e0bffc8b 	ldhu	r2,-14(fp)
 100395c:	10800044 	addi	r2,r2,1
 1003960:	e0bffc8d 	sth	r2,-14(fp)
		if (i >= len) {
 1003964:	e0fffc8b 	ldhu	r3,-14(fp)
 1003968:	e0bfff0b 	ldhu	r2,-4(fp)
 100396c:	18800636 	bltu	r3,r2,1003988 <Hal4D13_WriteEndpoint+0xbc>
			IOWR(ISP1362_BASE, D13_DATA_PORT, c);
 1003970:	00804074 	movhi	r2,257
 1003974:	109ee404 	addi	r2,r2,31632
 1003978:	10800017 	ldw	r2,0(r2)
 100397c:	10800204 	addi	r2,r2,8
 1003980:	e0fffc0b 	ldhu	r3,-16(fp)
 1003984:	10c00035 	stwio	r3,0(r2)
		} //printf("w=%04x  ",c);break; }
		c = (c & 0xff) + (*buf << 8 & 0xff00);
 1003988:	e0bffc0b 	ldhu	r2,-16(fp)
 100398c:	10803fcc 	andi	r2,r2,255
 1003990:	1009883a 	mov	r4,r2
 1003994:	e0bffe17 	ldw	r2,-8(fp)
 1003998:	10800003 	ldbu	r2,0(r2)
 100399c:	10803fcc 	andi	r2,r2,255
 10039a0:	1004923a 	slli	r2,r2,8
 10039a4:	1007883a 	mov	r3,r2
 10039a8:	00bfc004 	movi	r2,-256
 10039ac:	1884703a 	and	r2,r3,r2
 10039b0:	2085883a 	add	r2,r4,r2
 10039b4:	e0bffc0d 	sth	r2,-16(fp)
		buf++;
 10039b8:	e0bffe17 	ldw	r2,-8(fp)
 10039bc:	10800044 	addi	r2,r2,1
 10039c0:	e0bffe15 	stw	r2,-8(fp)
		i++;
 10039c4:	e0bffc8b 	ldhu	r2,-14(fp)
 10039c8:	10800044 	addi	r2,r2,1
 10039cc:	e0bffc8d 	sth	r2,-14(fp)
		IOWR(ISP1362_BASE, D13_DATA_PORT, c);
 10039d0:	00804074 	movhi	r2,257
 10039d4:	109ee404 	addi	r2,r2,31632
 10039d8:	10800017 	ldw	r2,0(r2)
 10039dc:	10800204 	addi	r2,r2,8
 10039e0:	e0fffc0b 	ldhu	r3,-16(fp)
 10039e4:	10c00035 	stwio	r3,0(r2)
		IOWR(ISP1362_BASE, D13_DATA_PORT, 0);
	/* Write Buffer */

	//for(i=0; i<len; i=i+2, buf++ )
	i = 0;
	while (i < len) {
 10039e8:	e0fffc8b 	ldhu	r3,-14(fp)
 10039ec:	e0bfff0b 	ldhu	r2,-4(fp)
 10039f0:	18bfd236 	bltu	r3,r2,100393c <Hal4D13_WriteEndpoint+0x70>
//    printf("w=%04x  ",c);
	}
//  printf("\nlen=%d i=%d\n",len,i);

	/* Validate Buffer */
	IOWR(ISP1362_BASE, D13_COMMAND_PORT, D13CMD_EP_VALID_BUF+bEPIndex);
 10039f4:	00804074 	movhi	r2,257
 10039f8:	109ee404 	addi	r2,r2,31632
 10039fc:	10800017 	ldw	r2,0(r2)
 1003a00:	11000304 	addi	r4,r2,12
 1003a04:	e0bffd03 	ldbu	r2,-12(fp)
 1003a08:	10c01804 	addi	r3,r2,96
 1003a0c:	2005883a 	mov	r2,r4
 1003a10:	10c00035 	stwio	r3,0(r2)
	// printf("\n");
	return i;
 1003a14:	e0bffc8b 	ldhu	r2,-14(fp)
}
 1003a18:	e037883a 	mov	sp,fp
 1003a1c:	df000017 	ldw	fp,0(sp)
 1003a20:	dec00104 	addi	sp,sp,4
 1003a24:	f800283a 	ret

01003a28 <Hal4D13_WriteBulkEndpoint>:

USHORT Hal4D13_WriteBulkEndpoint(UCHAR bEPIndex, UCHAR * buf, USHORT len) {
 1003a28:	defffb04 	addi	sp,sp,-20
 1003a2c:	df000415 	stw	fp,16(sp)
 1003a30:	df000404 	addi	fp,sp,16
 1003a34:	e17ffe15 	stw	r5,-8(fp)
 1003a38:	e13ffd05 	stb	r4,-12(fp)
 1003a3c:	e1bfff0d 	sth	r6,-4(fp)
	USHORT i, c;
	/* Select Endpoint */
	IOWR(ISP1362_BASE, D13_COMMAND_PORT, D13CMD_EP_WR_FIFO + bEPIndex);
 1003a40:	00804074 	movhi	r2,257
 1003a44:	109ee404 	addi	r2,r2,31632
 1003a48:	10800017 	ldw	r2,0(r2)
 1003a4c:	10800304 	addi	r2,r2,12
 1003a50:	e0fffd03 	ldbu	r3,-12(fp)
 1003a54:	10c00035 	stwio	r3,0(r2)
	IOWR(ISP1362_BASE, D13_DATA_PORT, len);
 1003a58:	00804074 	movhi	r2,257
 1003a5c:	109ee404 	addi	r2,r2,31632
 1003a60:	10800017 	ldw	r2,0(r2)
 1003a64:	10800204 	addi	r2,r2,8
 1003a68:	e0ffff0b 	ldhu	r3,-4(fp)
 1003a6c:	10c00035 	stwio	r3,0(r2)
	if (len == 0)
 1003a70:	e0bfff0b 	ldhu	r2,-4(fp)
 1003a74:	1004c03a 	cmpne	r2,r2,zero
 1003a78:	1000051e 	bne	r2,zero,1003a90 <Hal4D13_WriteBulkEndpoint+0x68>
		IOWR(ISP1362_BASE, D13_DATA_PORT, 0);
 1003a7c:	00804074 	movhi	r2,257
 1003a80:	109ee404 	addi	r2,r2,31632
 1003a84:	10800017 	ldw	r2,0(r2)
 1003a88:	10800204 	addi	r2,r2,8
 1003a8c:	10000035 	stwio	zero,0(r2)

	/* Write Buffer */
	for (i = 0; i < len; i = i + 2, buf++) {
 1003a90:	e03ffc8d 	sth	zero,-14(fp)
 1003a94:	00001b06 	br	1003b04 <Hal4D13_WriteBulkEndpoint+0xdc>
		c = *buf;
 1003a98:	e0bffe17 	ldw	r2,-8(fp)
 1003a9c:	10800003 	ldbu	r2,0(r2)
 1003aa0:	10803fcc 	andi	r2,r2,255
 1003aa4:	e0bffc0d 	sth	r2,-16(fp)
		buf++;
 1003aa8:	e0bffe17 	ldw	r2,-8(fp)
 1003aac:	10800044 	addi	r2,r2,1
 1003ab0:	e0bffe15 	stw	r2,-8(fp)
		c += (USHORT) (*buf << 8);
 1003ab4:	e0bffe17 	ldw	r2,-8(fp)
 1003ab8:	10800003 	ldbu	r2,0(r2)
 1003abc:	10803fcc 	andi	r2,r2,255
 1003ac0:	1004923a 	slli	r2,r2,8
 1003ac4:	1007883a 	mov	r3,r2
 1003ac8:	e0bffc0b 	ldhu	r2,-16(fp)
 1003acc:	10c5883a 	add	r2,r2,r3
 1003ad0:	e0bffc0d 	sth	r2,-16(fp)
		IOWR(ISP1362_BASE, D13_DATA_PORT, c);
 1003ad4:	00804074 	movhi	r2,257
 1003ad8:	109ee404 	addi	r2,r2,31632
 1003adc:	10800017 	ldw	r2,0(r2)
 1003ae0:	10800204 	addi	r2,r2,8
 1003ae4:	e0fffc0b 	ldhu	r3,-16(fp)
 1003ae8:	10c00035 	stwio	r3,0(r2)
	IOWR(ISP1362_BASE, D13_DATA_PORT, len);
	if (len == 0)
		IOWR(ISP1362_BASE, D13_DATA_PORT, 0);

	/* Write Buffer */
	for (i = 0; i < len; i = i + 2, buf++) {
 1003aec:	e0bffc8b 	ldhu	r2,-14(fp)
 1003af0:	10800084 	addi	r2,r2,2
 1003af4:	e0bffc8d 	sth	r2,-14(fp)
 1003af8:	e0bffe17 	ldw	r2,-8(fp)
 1003afc:	10800044 	addi	r2,r2,1
 1003b00:	e0bffe15 	stw	r2,-8(fp)
 1003b04:	e0fffc8b 	ldhu	r3,-14(fp)
 1003b08:	e0bfff0b 	ldhu	r2,-4(fp)
 1003b0c:	18bfe236 	bltu	r3,r2,1003a98 <Hal4D13_WriteBulkEndpoint+0x70>
		buf++;
		c += (USHORT) (*buf << 8);
		IOWR(ISP1362_BASE, D13_DATA_PORT, c);
	}
	/* Validate Buffer */
	IOWR(ISP1362_BASE, D13_COMMAND_PORT, D13CMD_EP_VALID_BUF+bEPIndex);
 1003b10:	00804074 	movhi	r2,257
 1003b14:	109ee404 	addi	r2,r2,31632
 1003b18:	10800017 	ldw	r2,0(r2)
 1003b1c:	11000304 	addi	r4,r2,12
 1003b20:	e0bffd03 	ldbu	r2,-12(fp)
 1003b24:	10c01804 	addi	r3,r2,96
 1003b28:	2005883a 	mov	r2,r4
 1003b2c:	10c00035 	stwio	r3,0(r2)
	return len;
 1003b30:	e0bfff0b 	ldhu	r2,-4(fp)
}
 1003b34:	e037883a 	mov	sp,fp
 1003b38:	df000017 	ldw	fp,0(sp)
 1003b3c:	dec00104 	addi	sp,sp,4
 1003b40:	f800283a 	ret

01003b44 <Hal4D13_GetIntEnable>:

ULONG Hal4D13_GetIntEnable(void) {
 1003b44:	defffe04 	addi	sp,sp,-8
 1003b48:	df000115 	stw	fp,4(sp)
 1003b4c:	df000104 	addi	fp,sp,4
	ULONG i;
	IOWR(ISP1362_BASE, D13_COMMAND_PORT, D13CMD_DEV_RD_INTEN);
 1003b50:	00804074 	movhi	r2,257
 1003b54:	109ee404 	addi	r2,r2,31632
 1003b58:	10800017 	ldw	r2,0(r2)
 1003b5c:	10800304 	addi	r2,r2,12
 1003b60:	1007883a 	mov	r3,r2
 1003b64:	008030c4 	movi	r2,195
 1003b68:	18800035 	stwio	r2,0(r3)
	i = IORD(ISP1362_BASE,D13_DATA_PORT);
 1003b6c:	00804074 	movhi	r2,257
 1003b70:	109ee404 	addi	r2,r2,31632
 1003b74:	10800017 	ldw	r2,0(r2)
 1003b78:	10800204 	addi	r2,r2,8
 1003b7c:	10800037 	ldwio	r2,0(r2)
 1003b80:	e0bfff15 	stw	r2,-4(fp)
	i += (((ULONG) IORD(ISP1362_BASE,D13_DATA_PORT)) << 16);
 1003b84:	00804074 	movhi	r2,257
 1003b88:	109ee404 	addi	r2,r2,31632
 1003b8c:	10800017 	ldw	r2,0(r2)
 1003b90:	10800204 	addi	r2,r2,8
 1003b94:	10800037 	ldwio	r2,0(r2)
 1003b98:	1006943a 	slli	r3,r2,16
 1003b9c:	e0bfff17 	ldw	r2,-4(fp)
 1003ba0:	10c5883a 	add	r2,r2,r3
 1003ba4:	e0bfff15 	stw	r2,-4(fp)
	return i;
 1003ba8:	e0bfff17 	ldw	r2,-4(fp)
}
 1003bac:	e037883a 	mov	sp,fp
 1003bb0:	df000017 	ldw	fp,0(sp)
 1003bb4:	dec00104 	addi	sp,sp,4
 1003bb8:	f800283a 	ret

01003bbc <Hal4D13_SetIntEnable>:

void Hal4D13_SetIntEnable(ULONG dIntEn) {
 1003bbc:	defffe04 	addi	sp,sp,-8
 1003bc0:	df000115 	stw	fp,4(sp)
 1003bc4:	df000104 	addi	fp,sp,4
 1003bc8:	e13fff15 	stw	r4,-4(fp)
	IOWR(ISP1362_BASE, D13_COMMAND_PORT, D13CMD_DEV_WR_INTEN);
 1003bcc:	00804074 	movhi	r2,257
 1003bd0:	109ee404 	addi	r2,r2,31632
 1003bd4:	10800017 	ldw	r2,0(r2)
 1003bd8:	10800304 	addi	r2,r2,12
 1003bdc:	1007883a 	mov	r3,r2
 1003be0:	00803084 	movi	r2,194
 1003be4:	18800035 	stwio	r2,0(r3)
	dIntEn = (dIntEn & 0x0FFFFFF);
 1003be8:	e0ffff17 	ldw	r3,-4(fp)
 1003bec:	00804034 	movhi	r2,256
 1003bf0:	10bfffc4 	addi	r2,r2,-1
 1003bf4:	1884703a 	and	r2,r3,r2
 1003bf8:	e0bfff15 	stw	r2,-4(fp)
	IOWR(ISP1362_BASE, D13_DATA_PORT, (USHORT)dIntEn);
 1003bfc:	00804074 	movhi	r2,257
 1003c00:	109ee404 	addi	r2,r2,31632
 1003c04:	10800017 	ldw	r2,0(r2)
 1003c08:	11000204 	addi	r4,r2,8
 1003c0c:	e0bfff17 	ldw	r2,-4(fp)
 1003c10:	10ffffcc 	andi	r3,r2,65535
 1003c14:	2005883a 	mov	r2,r4
 1003c18:	10c00035 	stwio	r3,0(r2)
	IOWR(ISP1362_BASE, D13_DATA_PORT, (USHORT)(dIntEn >> 16));
 1003c1c:	00804074 	movhi	r2,257
 1003c20:	109ee404 	addi	r2,r2,31632
 1003c24:	10800017 	ldw	r2,0(r2)
 1003c28:	11000204 	addi	r4,r2,8
 1003c2c:	e0bfff17 	ldw	r2,-4(fp)
 1003c30:	1004d43a 	srli	r2,r2,16
 1003c34:	10ffffcc 	andi	r3,r2,65535
 1003c38:	2005883a 	mov	r2,r4
 1003c3c:	10c00035 	stwio	r3,0(r2)
}
 1003c40:	e037883a 	mov	sp,fp
 1003c44:	df000017 	ldw	fp,0(sp)
 1003c48:	dec00104 	addi	sp,sp,4
 1003c4c:	f800283a 	ret

01003c50 <Hal4D13_ReadInterruptRegister>:

ULONG Hal4D13_ReadInterruptRegister(void) {
 1003c50:	defffd04 	addi	sp,sp,-12
 1003c54:	df000215 	stw	fp,8(sp)
 1003c58:	df000204 	addi	fp,sp,8
	ULONG j, i = 0;
 1003c5c:	e03ffe15 	stw	zero,-8(fp)
	IOWR(ISP1362_BASE, D13_COMMAND_PORT, D13CMD_DEV_INT_SRC);
 1003c60:	00804074 	movhi	r2,257
 1003c64:	109ee404 	addi	r2,r2,31632
 1003c68:	10800017 	ldw	r2,0(r2)
 1003c6c:	10800304 	addi	r2,r2,12
 1003c70:	1007883a 	mov	r3,r2
 1003c74:	00803004 	movi	r2,192
 1003c78:	18800035 	stwio	r2,0(r3)
	i = IORD(ISP1362_BASE,D13_DATA_PORT);
 1003c7c:	00804074 	movhi	r2,257
 1003c80:	109ee404 	addi	r2,r2,31632
 1003c84:	10800017 	ldw	r2,0(r2)
 1003c88:	10800204 	addi	r2,r2,8
 1003c8c:	10800037 	ldwio	r2,0(r2)
 1003c90:	e0bffe15 	stw	r2,-8(fp)
	j = IORD(ISP1362_BASE,D13_DATA_PORT);
 1003c94:	00804074 	movhi	r2,257
 1003c98:	109ee404 	addi	r2,r2,31632
 1003c9c:	10800017 	ldw	r2,0(r2)
 1003ca0:	10800204 	addi	r2,r2,8
 1003ca4:	10800037 	ldwio	r2,0(r2)
 1003ca8:	e0bfff15 	stw	r2,-4(fp)
	j = ((j << 16) & 0xffff0000) + (i & 0xffff);
 1003cac:	e0bfff17 	ldw	r2,-4(fp)
 1003cb0:	1004943a 	slli	r2,r2,16
 1003cb4:	10ffffec 	andhi	r3,r2,65535
 1003cb8:	e0bffe17 	ldw	r2,-8(fp)
 1003cbc:	10bfffcc 	andi	r2,r2,65535
 1003cc0:	1885883a 	add	r2,r3,r2
 1003cc4:	e0bfff15 	stw	r2,-4(fp)
	return i;
 1003cc8:	e0bffe17 	ldw	r2,-8(fp)
}
 1003ccc:	e037883a 	mov	sp,fp
 1003cd0:	df000017 	ldw	fp,0(sp)
 1003cd4:	dec00104 	addi	sp,sp,4
 1003cd8:	f800283a 	ret

01003cdc <Hal4D13_GetEndpointStatusWInteruptClear>:

UCHAR Hal4D13_GetEndpointStatusWInteruptClear(UCHAR bEPIndex) {
 1003cdc:	defffd04 	addi	sp,sp,-12
 1003ce0:	df000215 	stw	fp,8(sp)
 1003ce4:	df000204 	addi	fp,sp,8
 1003ce8:	e13fff05 	stb	r4,-4(fp)
	UCHAR c;
	IOWR(ISP1362_BASE, D13_COMMAND_PORT, D13CMD_EP_RDSTS_CLRINT + bEPIndex);
 1003cec:	00804074 	movhi	r2,257
 1003cf0:	109ee404 	addi	r2,r2,31632
 1003cf4:	10800017 	ldw	r2,0(r2)
 1003cf8:	11000304 	addi	r4,r2,12
 1003cfc:	e0bfff03 	ldbu	r2,-4(fp)
 1003d00:	10c01404 	addi	r3,r2,80
 1003d04:	2005883a 	mov	r2,r4
 1003d08:	10c00035 	stwio	r3,0(r2)
	c = (UCHAR) (IORD(ISP1362_BASE,D13_DATA_PORT) & 0x0ff);
 1003d0c:	00804074 	movhi	r2,257
 1003d10:	109ee404 	addi	r2,r2,31632
 1003d14:	10800017 	ldw	r2,0(r2)
 1003d18:	10800204 	addi	r2,r2,8
 1003d1c:	10800037 	ldwio	r2,0(r2)
 1003d20:	1007883a 	mov	r3,r2
 1003d24:	00bfffc4 	movi	r2,-1
 1003d28:	1884703a 	and	r2,r3,r2
 1003d2c:	e0bffe05 	stb	r2,-8(fp)
	return c;
 1003d30:	e0bffe03 	ldbu	r2,-8(fp)
}
 1003d34:	e037883a 	mov	sp,fp
 1003d38:	df000017 	ldw	fp,0(sp)
 1003d3c:	dec00104 	addi	sp,sp,4
 1003d40:	f800283a 	ret

01003d44 <Hal4D13_GetEndpointStatusWOInteruptClear>:

UCHAR Hal4D13_GetEndpointStatusWOInteruptClear(UCHAR bEPIndex) {
 1003d44:	defffd04 	addi	sp,sp,-12
 1003d48:	df000215 	stw	fp,8(sp)
 1003d4c:	df000204 	addi	fp,sp,8
 1003d50:	e13fff05 	stb	r4,-4(fp)
	UCHAR c;
	IOWR(ISP1362_BASE, D13_COMMAND_PORT, D13CMD_EP_RDSTS + bEPIndex);
 1003d54:	00804074 	movhi	r2,257
 1003d58:	109ee404 	addi	r2,r2,31632
 1003d5c:	10800017 	ldw	r2,0(r2)
 1003d60:	11000304 	addi	r4,r2,12
 1003d64:	e0bfff03 	ldbu	r2,-4(fp)
 1003d68:	10c03404 	addi	r3,r2,208
 1003d6c:	2005883a 	mov	r2,r4
 1003d70:	10c00035 	stwio	r3,0(r2)
	c = (UCHAR) (IORD(ISP1362_BASE,D13_DATA_PORT) & 0x0ff);
 1003d74:	00804074 	movhi	r2,257
 1003d78:	109ee404 	addi	r2,r2,31632
 1003d7c:	10800017 	ldw	r2,0(r2)
 1003d80:	10800204 	addi	r2,r2,8
 1003d84:	10800037 	ldwio	r2,0(r2)
 1003d88:	1007883a 	mov	r3,r2
 1003d8c:	00bfffc4 	movi	r2,-1
 1003d90:	1884703a 	and	r2,r3,r2
 1003d94:	e0bffe05 	stb	r2,-8(fp)
	return c;
 1003d98:	e0bffe03 	ldbu	r2,-8(fp)
}
 1003d9c:	e037883a 	mov	sp,fp
 1003da0:	df000017 	ldw	fp,0(sp)
 1003da4:	dec00104 	addi	sp,sp,4
 1003da8:	f800283a 	ret

01003dac <Hal4D13_SetEndpointStatus>:

void Hal4D13_SetEndpointStatus(UCHAR bEPIndex, UCHAR bStalled) {
 1003dac:	defffd04 	addi	sp,sp,-12
 1003db0:	df000215 	stw	fp,8(sp)
 1003db4:	df000204 	addi	fp,sp,8
 1003db8:	e13ffe05 	stb	r4,-8(fp)
 1003dbc:	e17fff05 	stb	r5,-4(fp)
	if (bStalled & 0x80) {
 1003dc0:	e0bfff03 	ldbu	r2,-4(fp)
 1003dc4:	10803fcc 	andi	r2,r2,255
 1003dc8:	1080201c 	xori	r2,r2,128
 1003dcc:	10bfe004 	addi	r2,r2,-128
 1003dd0:	1004403a 	cmpge	r2,r2,zero
 1003dd4:	1000091e 	bne	r2,zero,1003dfc <Hal4D13_SetEndpointStatus+0x50>
		IOWR(ISP1362_BASE, D13_COMMAND_PORT, D13CMD_EP_WR_STS + bEPIndex);
 1003dd8:	00804074 	movhi	r2,257
 1003ddc:	109ee404 	addi	r2,r2,31632
 1003de0:	10800017 	ldw	r2,0(r2)
 1003de4:	11000304 	addi	r4,r2,12
 1003de8:	e0bffe03 	ldbu	r2,-8(fp)
 1003dec:	10c01004 	addi	r3,r2,64
 1003df0:	2005883a 	mov	r2,r4
 1003df4:	10c00035 	stwio	r3,0(r2)
 1003df8:	00000806 	br	1003e1c <Hal4D13_SetEndpointStatus+0x70>
	} else {
		// clear endpoint stall.
		IOWR(ISP1362_BASE, D13_COMMAND_PORT, D13CMD_EP_CLR_STALL + bEPIndex);
 1003dfc:	00804074 	movhi	r2,257
 1003e00:	109ee404 	addi	r2,r2,31632
 1003e04:	10800017 	ldw	r2,0(r2)
 1003e08:	11000304 	addi	r4,r2,12
 1003e0c:	e0bffe03 	ldbu	r2,-8(fp)
 1003e10:	10c02004 	addi	r3,r2,128
 1003e14:	2005883a 	mov	r2,r4
 1003e18:	10c00035 	stwio	r3,0(r2)
	}
}
 1003e1c:	e037883a 	mov	sp,fp
 1003e20:	df000017 	ldw	fp,0(sp)
 1003e24:	dec00104 	addi	sp,sp,4
 1003e28:	f800283a 	ret

01003e2c <Hal4D13_SetDMAConfig>:

void Hal4D13_SetDMAConfig(USHORT wDMACnfg) {
 1003e2c:	defffe04 	addi	sp,sp,-8
 1003e30:	df000115 	stw	fp,4(sp)
 1003e34:	df000104 	addi	fp,sp,4
 1003e38:	e13fff0d 	sth	r4,-4(fp)
	IOWR(ISP1362_BASE, D13_COMMAND_PORT, D13CMD_DMA_WR_CNFG);
 1003e3c:	00804074 	movhi	r2,257
 1003e40:	109ee404 	addi	r2,r2,31632
 1003e44:	10800017 	ldw	r2,0(r2)
 1003e48:	10800304 	addi	r2,r2,12
 1003e4c:	1007883a 	mov	r3,r2
 1003e50:	00803c04 	movi	r2,240
 1003e54:	18800035 	stwio	r2,0(r3)
	IOWR(ISP1362_BASE, D13_DATA_PORT, wDMACnfg);
 1003e58:	00804074 	movhi	r2,257
 1003e5c:	109ee404 	addi	r2,r2,31632
 1003e60:	10800017 	ldw	r2,0(r2)
 1003e64:	10800204 	addi	r2,r2,8
 1003e68:	e0ffff0b 	ldhu	r3,-4(fp)
 1003e6c:	10c00035 	stwio	r3,0(r2)
}
 1003e70:	e037883a 	mov	sp,fp
 1003e74:	df000017 	ldw	fp,0(sp)
 1003e78:	dec00104 	addi	sp,sp,4
 1003e7c:	f800283a 	ret

01003e80 <Hal4D13_GetDMAConfig>:

USHORT Hal4D13_GetDMAConfig(void) {
 1003e80:	defffe04 	addi	sp,sp,-8
 1003e84:	df000115 	stw	fp,4(sp)
 1003e88:	df000104 	addi	fp,sp,4
	USHORT i;
	IOWR(ISP1362_BASE, D13_COMMAND_PORT, D13CMD_DMA_RD_CNFG);
 1003e8c:	00804074 	movhi	r2,257
 1003e90:	109ee404 	addi	r2,r2,31632
 1003e94:	10800017 	ldw	r2,0(r2)
 1003e98:	10800304 	addi	r2,r2,12
 1003e9c:	1007883a 	mov	r3,r2
 1003ea0:	00803c44 	movi	r2,241
 1003ea4:	18800035 	stwio	r2,0(r3)
	i = IORD(ISP1362_BASE,D13_DATA_PORT);
 1003ea8:	00804074 	movhi	r2,257
 1003eac:	109ee404 	addi	r2,r2,31632
 1003eb0:	10800017 	ldw	r2,0(r2)
 1003eb4:	10800204 	addi	r2,r2,8
 1003eb8:	10800037 	ldwio	r2,0(r2)
 1003ebc:	e0bfff0d 	sth	r2,-4(fp)
	return i;
 1003ec0:	e0bfff0b 	ldhu	r2,-4(fp)
}
 1003ec4:	e037883a 	mov	sp,fp
 1003ec8:	df000017 	ldw	fp,0(sp)
 1003ecc:	dec00104 	addi	sp,sp,4
 1003ed0:	f800283a 	ret

01003ed4 <Hal4D13_SetDMACounter>:

void Hal4D13_SetDMACounter(USHORT wDMACounter) {
 1003ed4:	defffe04 	addi	sp,sp,-8
 1003ed8:	df000115 	stw	fp,4(sp)
 1003edc:	df000104 	addi	fp,sp,4
 1003ee0:	e13fff0d 	sth	r4,-4(fp)
	IOWR(ISP1362_BASE, D13_COMMAND_PORT, D13CMD_DMA_WR_COUNT);
 1003ee4:	00804074 	movhi	r2,257
 1003ee8:	109ee404 	addi	r2,r2,31632
 1003eec:	10800017 	ldw	r2,0(r2)
 1003ef0:	10800304 	addi	r2,r2,12
 1003ef4:	1007883a 	mov	r3,r2
 1003ef8:	00803c84 	movi	r2,242
 1003efc:	18800035 	stwio	r2,0(r3)
	IOWR(ISP1362_BASE, D13_DATA_PORT, wDMACounter);
 1003f00:	00804074 	movhi	r2,257
 1003f04:	109ee404 	addi	r2,r2,31632
 1003f08:	10800017 	ldw	r2,0(r2)
 1003f0c:	10800204 	addi	r2,r2,8
 1003f10:	e0ffff0b 	ldhu	r3,-4(fp)
 1003f14:	10c00035 	stwio	r3,0(r2)
}
 1003f18:	e037883a 	mov	sp,fp
 1003f1c:	df000017 	ldw	fp,0(sp)
 1003f20:	dec00104 	addi	sp,sp,4
 1003f24:	f800283a 	ret

01003f28 <Hal4D13_GetDMACounter>:

USHORT Hal4D13_GetDMACounter(void) {
 1003f28:	defffe04 	addi	sp,sp,-8
 1003f2c:	df000115 	stw	fp,4(sp)
 1003f30:	df000104 	addi	fp,sp,4
	USHORT i;
	IOWR(ISP1362_BASE, D13_COMMAND_PORT, D13CMD_DMA_RD_COUNT);
 1003f34:	00804074 	movhi	r2,257
 1003f38:	109ee404 	addi	r2,r2,31632
 1003f3c:	10800017 	ldw	r2,0(r2)
 1003f40:	10800304 	addi	r2,r2,12
 1003f44:	1007883a 	mov	r3,r2
 1003f48:	00803cc4 	movi	r2,243
 1003f4c:	18800035 	stwio	r2,0(r3)
	i = IORD(ISP1362_BASE,D13_DATA_PORT);
 1003f50:	00804074 	movhi	r2,257
 1003f54:	109ee404 	addi	r2,r2,31632
 1003f58:	10800017 	ldw	r2,0(r2)
 1003f5c:	10800204 	addi	r2,r2,8
 1003f60:	10800037 	ldwio	r2,0(r2)
 1003f64:	e0bfff0d 	sth	r2,-4(fp)
	return i;
 1003f68:	e0bfff0b 	ldhu	r2,-4(fp)
}
 1003f6c:	e037883a 	mov	sp,fp
 1003f70:	df000017 	ldw	fp,0(sp)
