
fjkdaf.elf:     file format elf32-littlenios2
fjkdaf.elf
architecture: nios2, flags 0x00000112:
EXEC_P, HAS_SYMS, D_PAGED
start address 0x010001b8

Program Header:
    LOAD off    0x00001000 vaddr 0x01000000 paddr 0x01000000 align 2**12
         filesz 0x00000020 memsz 0x00000020 flags r-x
    LOAD off    0x00001020 vaddr 0x01000020 paddr 0x01000020 align 2**12
         filesz 0x00013f04 memsz 0x00013f04 flags r-x
    LOAD off    0x00014f24 vaddr 0x01013f24 paddr 0x01015d54 align 2**12
         filesz 0x00001e30 memsz 0x00001e30 flags rw-
    LOAD off    0x00017b84 vaddr 0x01017b84 paddr 0x01017b84 align 2**12
         filesz 0x00000000 memsz 0x00001b60 flags rw-

Sections:
Idx Name          Size      VMA       LMA       File off  Algn
  0 .entry        00000020  01000000  01000000  00001000  2**5
                  CONTENTS, ALLOC, LOAD, READONLY, CODE
  1 .exceptions   00000198  01000020  01000020  00001020  2**2
                  CONTENTS, ALLOC, LOAD, READONLY, CODE
  2 .text         0001313c  010001b8  010001b8  000011b8  2**2
                  CONTENTS, ALLOC, LOAD, READONLY, CODE
  3 .rodata       00000c30  010132f4  010132f4  000142f4  2**2
                  CONTENTS, ALLOC, LOAD, READONLY, DATA
  4 .rwdata       00001e30  01013f24  01015d54  00014f24  2**2
                  CONTENTS, ALLOC, LOAD, DATA, SMALL_DATA
  5 .bss          00001b60  01017b84  01017b84  00017b84  2**2
                  ALLOC, SMALL_DATA
  6 .comment      00000026  00000000  00000000  00016d54  2**0
                  CONTENTS, READONLY
  7 .debug_aranges 00000f98  00000000  00000000  00016d80  2**3
                  CONTENTS, READONLY, DEBUGGING
  8 .debug_pubnames 00002629  00000000  00000000  00017d18  2**0
                  CONTENTS, READONLY, DEBUGGING
  9 .debug_info   000317a8  00000000  00000000  0001a341  2**0
                  CONTENTS, READONLY, DEBUGGING
 10 .debug_abbrev 00009b2a  00000000  00000000  0004bae9  2**0
                  CONTENTS, READONLY, DEBUGGING
 11 .debug_line   0001a703  00000000  00000000  00055613  2**0
                  CONTENTS, READONLY, DEBUGGING
 12 .debug_frame  00002a68  00000000  00000000  0006fd18  2**2
                  CONTENTS, READONLY, DEBUGGING
 13 .debug_str    000027bb  00000000  00000000  00072780  2**0
                  CONTENTS, READONLY, DEBUGGING
 14 .debug_loc    0000ef72  00000000  00000000  00074f3b  2**0
                  CONTENTS, READONLY, DEBUGGING
 15 .debug_alt_sim_info 00000060  00000000  00000000  00083eb0  2**2
                  CONTENTS, READONLY, DEBUGGING
 16 .debug_ranges 000009e0  00000000  00000000  00083f10  2**3
                  CONTENTS, READONLY, DEBUGGING
 17 .thread_model 00000003  00000000  00000000  000896a0  2**0
                  CONTENTS, READONLY
 18 .cpu          0000000c  00000000  00000000  000896a3  2**0
                  CONTENTS, READONLY
 19 .qsys         00000001  00000000  00000000  000896af  2**0
                  CONTENTS, READONLY
 20 .simulation_enabled 00000001  00000000  00000000  000896b0  2**0
                  CONTENTS, READONLY
 21 .stderr_dev   0000000b  00000000  00000000  000896b1  2**0
                  CONTENTS, READONLY
 22 .stdin_dev    0000000b  00000000  00000000  000896bc  2**0
                  CONTENTS, READONLY
 23 .stdout_dev   0000000b  00000000  00000000  000896c7  2**0
                  CONTENTS, READONLY
 24 .sopc_system_name 00000013  00000000  00000000  000896d2  2**0
                  CONTENTS, READONLY
 25 .quartus_project_dir 00000036  00000000  00000000  000896e5  2**0
                  CONTENTS, READONLY
 26 .sopcinfo     000667ef  00000000  00000000  0008971b  2**0
                  CONTENTS, READONLY
SYMBOL TABLE:
01000000 l    d  .entry	00000000 .entry
01000020 l    d  .exceptions	00000000 .exceptions
010001b8 l    d  .text	00000000 .text
010132f4 l    d  .rodata	00000000 .rodata
01013f24 l    d  .rwdata	00000000 .rwdata
01017b84 l    d  .bss	00000000 .bss
00000000 l    d  .comment	00000000 .comment
00000000 l    d  .debug_aranges	00000000 .debug_aranges
00000000 l    d  .debug_pubnames	00000000 .debug_pubnames
00000000 l    d  .debug_info	00000000 .debug_info
00000000 l    d  .debug_abbrev	00000000 .debug_abbrev
00000000 l    d  .debug_line	00000000 .debug_line
00000000 l    d  .debug_frame	00000000 .debug_frame
00000000 l    d  .debug_str	00000000 .debug_str
00000000 l    d  .debug_loc	00000000 .debug_loc
00000000 l    d  .debug_alt_sim_info	00000000 .debug_alt_sim_info
00000000 l    d  .debug_ranges	00000000 .debug_ranges
01000200 l       .text	00000000 alt_after_alt_main
00000000 l    df *ABS*	00000000 alt_irq_handler.c
00000000 l    df *ABS*	00000000 hello_world.c
01015ce0 l     O .rwdata	00000005 __func__.2508
01013440 l     O .rodata	00000009 __func__.2558
00000000 l    df *ABS*	00000000 usb.c
0101347c l     O .rodata	00000013 __func__.3416
010134a8 l     O .rodata	00000013 __func__.3433
010134bc l     O .rodata	00000010 __func__.3452
00000000 l    df *ABS*	00000000 usb_ISO.c
00000000 l    df *ABS*	00000000 usb_chap_9.c
00000000 l    df *ABS*	00000000 usb_config.c
00000000 l    df *ABS*	00000000 usb_device_bus.c
00000000 l    df *ABS*	00000000 usb_device_hal.c
00000000 l    df *ABS*	00000000 usb_get_info.c
00000000 l    df *ABS*	00000000 usb_isr.c
01013aa8 l     O .rodata	0000000f __func__.4024
00000000 l    df *ABS*	00000000 usb_queue.c
01013ad4 l     O .rodata	0000000e __func__.1882
00000000 l    df *ABS*	00000000 assert.c
00000000 l    df *ABS*	00000000 calloc.c
00000000 l    df *ABS*	00000000 mallocr.c
00000000 l    df *ABS*	00000000 exit.c
00000000 l    df *ABS*	00000000 fiprintf.c
00000000 l    df *ABS*	00000000 impure.c
010141d8 l     O .rwdata	00000400 impure_data
00000000 l    df *ABS*	00000000 malloc.c
00000000 l    df *ABS*	00000000 mallocr.c
00000000 l    df *ABS*	00000000 memcpy.c
00000000 l    df *ABS*	00000000 memset.c
00000000 l    df *ABS*	00000000 printf.c
00000000 l    df *ABS*	00000000 putchar.c
00000000 l    df *ABS*	00000000 puts.c
00000000 l    df *ABS*	00000000 sbrkr.c
00000000 l    df *ABS*	00000000 strlen.c
00000000 l    df *ABS*	00000000 vfiprintfr_1.c
00000000 l    df *ABS*	00000000 vfprintf.c
010060a8 l     F .text	00000058 __sprint_r
01013bb6 l     O .rodata	00000010 blanks.3452
01013ba6 l     O .rodata	00000010 zeroes.3453
00000000 l    df *ABS*	00000000 wsetup.c
00000000 l    df *ABS*	00000000 __call_atexit.c
0100810c l     F .text	00000004 register_fini
00000000 l    df *ABS*	00000000 abort.c
00000000 l    df *ABS*	00000000 dtoa.c
010082d8 l     F .text	00000218 quorem
00000000 l    df *ABS*	00000000 fflush.c
00000000 l    df *ABS*	00000000 findfp.c
01009cd4 l     F .text	00000058 std
01009de0 l     F .text	00000008 __fp_lock
01009de8 l     F .text	00000008 __fp_unlock
00000000 l    df *ABS*	00000000 mallocr.c
00000000 l    df *ABS*	00000000 fvwrite.c
00000000 l    df *ABS*	00000000 fwalk.c
00000000 l    df *ABS*	00000000 int_errno.c
00000000 l    df *ABS*	00000000 locale.c
01015d28 l     O .rwdata	00000004 charset
01013be8 l     O .rodata	00000030 lconv
00000000 l    df *ABS*	00000000 makebuf.c
00000000 l    df *ABS*	00000000 memchr.c
00000000 l    df *ABS*	00000000 memmove.c
00000000 l    df *ABS*	00000000 mprec.c
01013d30 l     O .rodata	0000000c p05.2458
00000000 l    df *ABS*	00000000 putc.c
00000000 l    df *ABS*	00000000 mallocr.c
00000000 l    df *ABS*	00000000 s_isinfd.c
00000000 l    df *ABS*	00000000 s_isnand.c
00000000 l    df *ABS*	00000000 signal.c
00000000 l    df *ABS*	00000000 signalr.c
00000000 l    df *ABS*	00000000 stdio.c
00000000 l    df *ABS*	00000000 strcmp.c
00000000 l    df *ABS*	00000000 vfprintf.c
0100cba8 l     F .text	00000058 __sprint_r
01013d4c l     O .rodata	00000010 blanks.3391
01013d3c l     O .rodata	00000010 zeroes.3392
00000000 l    df *ABS*	00000000 wbuf.c
00000000 l    df *ABS*	00000000 writer.c
00000000 l    df *ABS*	00000000 closer.c
00000000 l    df *ABS*	00000000 fclose.c
00000000 l    df *ABS*	00000000 fstatr.c
00000000 l    df *ABS*	00000000 isattyr.c
00000000 l    df *ABS*	00000000 lseekr.c
00000000 l    df *ABS*	00000000 readr.c
00000000 l    df *ABS*	00000000 libgcc2.c
00000000 l    df *ABS*	00000000 libgcc2.c
00000000 l    df *ABS*	00000000 dp-bit.c
0100ed80 l     F .text	00000410 _fpadd_parts
00000000 l    df *ABS*	00000000 dp-bit.c
00000000 l    df *ABS*	00000000 dp-bit.c
00000000 l    df *ABS*	00000000 dp-bit.c
00000000 l    df *ABS*	00000000 dp-bit.c
00000000 l    df *ABS*	00000000 dp-bit.c
00000000 l    df *ABS*	00000000 dp-bit.c
00000000 l    df *ABS*	00000000 dp-bit.c
00000000 l    df *ABS*	00000000 dp-bit.c
00000000 l    df *ABS*	00000000 dp-bit.c
00000000 l    df *ABS*	00000000 dp-bit.c
00000000 l    df *ABS*	00000000 dp-bit.c
00000000 l    df *ABS*	00000000 lib2-divmod.c
0100feac l     F .text	0000007c udivmodsi4
00000000 l    df *ABS*	00000000 libgcc2.c
00000000 l    df *ABS*	00000000 libgcc2.c
00000000 l    df *ABS*	00000000 libgcc2.c
00000000 l    df *ABS*	00000000 dp-bit.c
00000000 l    df *ABS*	00000000 dp-bit.c
00000000 l    df *ABS*	00000000 dp-bit.c
00000000 l    df *ABS*	00000000 alt_close.c
01010720 l     F .text	00000060 alt_get_errno
00000000 l    df *ABS*	00000000 alt_dev.c
01010780 l     F .text	0000002c alt_dev_null_write
00000000 l    df *ABS*	00000000 alt_errno.c
00000000 l    df *ABS*	00000000 alt_exit.c
010107ac l     F .text	00000040 alt_sim_halt
00000000 l    df *ABS*	00000000 alt_fstat.c
010108e0 l     F .text	00000060 alt_get_errno
00000000 l    df *ABS*	00000000 alt_getpid.c
00000000 l    df *ABS*	00000000 alt_irq_register.c
00000000 l    df *ABS*	00000000 alt_irq_vars.c
00000000 l    df *ABS*	00000000 alt_isatty.c
01010be0 l     F .text	00000060 alt_get_errno
00000000 l    df *ABS*	00000000 alt_kill.c
01010d80 l     F .text	00000060 alt_get_errno
00000000 l    df *ABS*	00000000 alt_load.c
01010e60 l     F .text	0000006c alt_load_section
00000000 l    df *ABS*	00000000 alt_lseek.c
01010fbc l     F .text	00000060 alt_get_errno
00000000 l    df *ABS*	00000000 alt_main.c
00000000 l    df *ABS*	00000000 alt_malloc_lock.c
00000000 l    df *ABS*	00000000 alt_read.c
010111e8 l     F .text	00000060 alt_get_errno
00000000 l    df *ABS*	00000000 alt_release_fd.c
00000000 l    df *ABS*	00000000 alt_sbrk.c
01015d48 l     O .rwdata	00000004 heap_end
00000000 l    df *ABS*	00000000 alt_usleep.c
00000000 l    df *ABS*	00000000 alt_write.c
010114b4 l     F .text	00000060 alt_get_errno
00000000 l    df *ABS*	00000000 alt_sys_init.c
01014b94 l     O .rwdata	00001060 jtag_uart_0
01015bf4 l     O .rwdata	00000030 audio_and_video_config_0
01015c24 l     O .rwdata	00000030 audio_0
01015c54 l     O .rwdata	0000002c parallel_port_0
01015c80 l     O .rwdata	00000034 usb_0
01015cb4 l     O .rwdata	0000002c Altera_UP_SD_Card_Avalon_Interface_0
01011600 l     F .text	00000038 alt_dev_reg
00000000 l    df *ABS*	00000000 altera_avalon_jtag_uart_fd.c
00000000 l    df *ABS*	00000000 altera_avalon_jtag_uart_init.c
01011838 l     F .text	0000022c altera_avalon_jtag_uart_irq
01011a64 l     F .text	000000b0 altera_avalon_jtag_uart_timeout
00000000 l    df *ABS*	00000000 altera_avalon_jtag_uart_ioctl.c
00000000 l    df *ABS*	00000000 altera_avalon_jtag_uart_read.c
00000000 l    df *ABS*	00000000 altera_avalon_jtag_uart_write.c
00000000 l    df *ABS*	00000000 altera_avalon_timer_sc.c
010120e0 l     F .text	00000074 alt_avalon_timer_sc_irq
00000000 l    df *ABS*	00000000 altera_avalon_timer_ts.c
00000000 l    df *ABS*	00000000 altera_avalon_timer_vars.c
00000000 l    df *ABS*	00000000 altera_up_avalon_usb.c
00000000 l    df *ABS*	00000000 alt_alarm_start.c
00000000 l    df *ABS*	00000000 alt_busy_sleep.c
00000000 l    df *ABS*	00000000 alt_dcache_flush_all.c
00000000 l    df *ABS*	00000000 alt_dev_llist_insert.c
0101271c l     F .text	00000060 alt_get_errno
00000000 l    df *ABS*	00000000 alt_do_ctors.c
00000000 l    df *ABS*	00000000 alt_do_dtors.c
00000000 l    df *ABS*	00000000 alt_find_dev.c
00000000 l    df *ABS*	00000000 alt_icache_flush_all.c
00000000 l    df *ABS*	00000000 alt_io_redirect.c
01012908 l     F .text	000000c4 alt_open_fd
00000000 l    df *ABS*	00000000 alt_open.c
01012a44 l     F .text	000000dc alt_file_locked
01012ca8 l     F .text	00000060 alt_get_errno
00000000 l    df *ABS*	00000000 alt_tick.c
00000000 l    df *ABS*	00000000 altera_nios2_qsys_irq.c
00000000 l    df *ABS*	00000000 alt_find_file.c
00000000 l    df *ABS*	00000000 alt_get_fd.c
00000000 l    df *ABS*	00000000 alt_icache_flush.c
00000000 l    df *ABS*	00000000 atexit.c
00000000 l    df *ABS*	00000000 memcmp.c
00000000 l    df *ABS*	00000000 __atexit.c
01002bb4 g     F .text	00000210 read_write_register
01005ed0 g     F .text	0000001c putchar
0100b218 g     F .text	00000094 _mprec_log10
0100413c g     F .text	00000068 Hal4D13_GetErrorCode
0100219c g     F .text	00000064 Chap9_StallEP0InControlRead
0100b304 g     F .text	00000088 __any_on
0100e094 g     F .text	00000070 _isatty_r
01013d08 g     O .rodata	00000028 __mprec_tinytens
0101101c g     F .text	0000006c alt_main
010042ec g     F .text	00000168 Hal4D13_RegAccess
01004078 g     F .text	00000070 Hal4D13_LockDevice
01017b90 g     O .bss	00000004 ISP1362_BASE
01005ef4 g     F .text	000000a0 _puts_r
01019454 g     O .bss	00000100 alt_irq
0100e104 g     F .text	00000078 _lseek_r
01003bbc g     F .text	00000094 Hal4D13_SetIntEnable
01003e2c g     F .text	00000054 Hal4D13_SetDMAConfig
01015d54 g       *ABS*	00000000 __flash_rwdata_start
01013f24 g     O .rwdata	00000012 DeviceDescr
0100f8a0 g     F .text	00000088 __eqdf2
01002eec g     F .text	00000028 D13Bus_StallEP0
01014198 g     O .rwdata	00000040 _NAME_USB_VENDOR_REQUEST
010051b0 g     F .text	000000d8 usb_fifo_push
010196e4 g       *ABS*	00000000 __alt_heap_start
0100182c g     F .text	00000230 Chap9_SetAddress
0100c92c g     F .text	00000074 _kill_r
01002138 g     F .text	00000064 Chap9_StallEP0InControlWrite
01005e58 g     F .text	00000044 printf
01000aa4 g     F .text	0000002c usb_send_queue_is_empty
010004d8 g     F .text	0000006c init_usb
0100c86c g     F .text	000000a0 _signal_r
01005164 g     F .text	0000001c Isr_Ep0EDone
01002aa0 g     F .text	0000002c ML_Reserved
0100c9a8 g     F .text	00000068 __sseek
01009d3c g     F .text	000000a4 __sinit
0100dcc8 g     F .text	00000130 __swbuf_r
0100aa14 g     F .text	00000084 _setlocale_r
01017bc0 g     O .bss	00000002 IsoInPktLen
01009e3c g     F .text	00000068 __sfmoreglue
0101403a g     O .rwdata	0000001a strSerialNum
010110a8 g     F .text	00000020 __malloc_unlock
01002b8c g     F .text	00000028 reserved
01015d0c g     O .rwdata	00000004 rb_wr_ptr
01017bfc g     O .bss	00000004 altera_avalon_timer_ts_freq
0100ad2c g     F .text	000000e0 memmove
01009e2c g     F .text	00000010 _cleanup
0100b38c g     F .text	000000bc _Balloc
01000be4 g     F .text	000000f0 usb_device_poll
01012344 g     F .text	00000040 alt_up_usb_open_dev
0100f9b0 g     F .text	00000088 __gtdf2
00000000  w      *UND*	00000000 __errno
01003ed4 g     F .text	00000054 Hal4D13_SetDMACounter
01003f7c g     F .text	00000054 Hal4D13_GetDataFromChipRam
01000000 g     F .entry	0000001c __reset
01017b94 g     O .bss	00000004 bD13flags
01004fb4 g     F .text	00000030 Isr_Ep03Done
01004fe4 g     F .text	00000030 Isr_Ep04Done
01000020 g       *ABS*	00000000 __flash_exceptions_start
01002908 g     F .text	000000f4 config_endpoint
0100e020 g     F .text	00000074 _fstat_r
01017bd8 g     O .bss	00000004 errno
01017bf0 g     O .bss	00000004 alt_argv
0101dce0 g       *ABS*	00000000 _gp
01002acc g     F .text	00000098 CHECK_CHIP_ID
01011364 g     F .text	00000030 usleep
01003684 g     F .text	00000124 Hal4D13_ReadBulkEndpoint
01010940 g     F .text	00000020 getpid
010045a8 g     F .text	00000050 usb_disable_all_interrupts
01014a14 g     O .rwdata	00000180 alt_fd_list
01002b64 g     F .text	00000028 D13Bus_ControlEntry
01000f64 g     F .text	000000e4 Hal4D13_ReadISOEndpoint
010006cc g     F .text	0000009c usb_recv_queue_pop
01005eec g     F .text	00000008 _putchar_r
010050f4 g     F .text	0000001c Isr_Ep0ADone
01000afc g     F .text	000000e8 usb_device_init
01012844 g     F .text	00000094 alt_find_dev
01005d20 g     F .text	000000a0 memcpy
01017b8c g     O .bss	00000004 usb_send_cb
01009e20 g     F .text	0000000c _cleanup_r
0100fb48 g     F .text	000000f8 __floatsidf
010129cc g     F .text	00000078 alt_io_redirect
0100fac0 g     F .text	00000088 __ltdf2
010132f4 g       *ABS*	00000000 __DTOR_END__
010050d8 g     F .text	0000001c Isr_Ep09Done
01005f94 g     F .text	00000014 puts
01002a28 g     F .text	0000001c suspend_change
0100b168 g     F .text	000000b0 __ratio
01004288 g     F .text	0000001c Hal4D13_ConfigDevice
0100dca4 g     F .text	00000024 __vfiprintf_internal
01005180 g     F .text	00000030 usb_fifo_init
01011c7c g     F .text	00000224 altera_avalon_jtag_uart_read
010055cc g     F .text	00000014 malloc
01005e9c g     F .text	00000034 _printf_r
00000000 g       *ABS*	00000000 __alt_mem_onchip_memory2_0
0100ffe8 g     F .text	00000008 __udivsi3
01010b20 g     F .text	000000c0 isatty
01003e80 g     F .text	00000054 Hal4D13_GetDMAConfig
0100c650 g     F .text	000000cc _raise_r
010053cc g     F .text	00000064 __assert_func
01013c18 g     O .rodata	000000c8 __mprec_tens
0100a9f0 g     F .text	00000008 __locale_charset
010013cc g     F .text	00000238 Chap9_ClearFeature
0100512c g     F .text	0000001c Isr_Ep0CDone
010130a4 g     F .text	00000090 alt_icache_flush
01001a5c g     F .text	000001dc Chap9_GetDescriptor
01013fde g     O .rwdata	00000032 REPORT_DESCRIPTOR
01017bcc g     O .bss	00000004 __malloc_top_pad
0100c928 g     F .text	00000004 _getpid_r
01015cec g     O .rwdata	00000001 IsoDisable
01014114 g     O .rwdata	00000010 _NAME_USB_REQUEST_TYPE
01004024 g     F .text	00000054 Hal4D13_ReadCurrentFrameNumber
01017bc2 g     O .bss	00000001 ALTERNATIVE_SETTING
01015d24 g     O .rwdata	00000004 __mb_cur_max
0100a9f8 g     F .text	0000000c _localeconv_r
0100ba84 g     F .text	0000003c __i2b
0100a3d4 g     F .text	0000049c __sfvwrite_r
01017b98 g     O .bss	00000008 usb_send_queue
01002a44 g     F .text	0000005c ML_AcknowledgeSETUP
0100c7a4 g     F .text	000000b4 __sigtramp_r
0100426c g     F .text	0000001c Hal4D13_UnconfigDevice
01002200 g     F .text	0000009c Chap9_SingleTransmitEP0
01005fa8 g     F .text	00000070 _sbrk_r
01000ebc g     F .text	00000030 Wait4Ns
01000cd4 g     F .text	000001e8 EnableIsoMode
01000898 g     F .text	00000188 usb_device_recv
0100e17c g     F .text	00000078 _read_r
010029fc g     F .text	0000002c reconnect_USB
010050a0 g     F .text	0000001c Isr_Ep07Done
010149e0 g     O .rwdata	0000000c __lc_ctype
01003170 g     F .text	00000038 Hal4D13_ResetDevice
01015d3c g     O .rwdata	00000004 alt_max_fd
01010424 g     F .text	00000138 __unpack_d
0100defc g     F .text	00000110 _fclose_r
01015cf8 g     O .rwdata	00000008 _NAME_USB_REQUEST_DIRECTION
01009ca0 g     F .text	00000034 fflush
01017bd0 g     O .bss	00000004 __malloc_max_sbrked_mem
01000ad0 g     F .text	0000002c usb_recv_queue_is_empty
01010960 g     F .text	000001c0 alt_irq_register
01001fa8 g     F .text	00000100 Chap9_SetInterface
01003c50 g     F .text	0000008c Hal4D13_ReadInterruptRegister
01014096 g     O .rwdata	00000038 strManufacturer
0100f210 g     F .text	00000074 __adddf3
0100b048 g     F .text	00000120 __b2d
01017bbe g     O .bss	00000002 IsoOutPktLen
0100e7d0 g     F .text	000005b0 __umoddi3
01010ecc g     F .text	000000f0 lseek
01005070 g     F .text	00000030 Isr_Ep06Done
01015d18 g     O .rwdata	00000004 _global_impure_ptr
0100229c g     F .text	0000017c Chap9_BurstTransmitEP0
0100bfec g     F .text	000005f4 _realloc_r
010196e4 g       *ABS*	00000000 __bss_end
01015d10 g     O .rwdata	00000004 rb_rd_ptr
01012da0 g     F .text	0000010c alt_tick
01002418 g     F .text	00000274 SetupToken_Handler
01000eec g     F .text	00000078 ISOLOOP
0100e1f4 g     F .text	000005dc __udivdi3
01013ce0 g     O .rodata	00000028 __mprec_bigtens
0100bce0 g     F .text	00000120 __s2b
010082c0 g     F .text	00000018 abort
0100fd18 g     F .text	00000194 __floatunsidf
0100af68 g     F .text	00000060 __mcmp
010140d0 g     O .rwdata	00000034 StandardDeviceRequest
01017ba0 g     O .bss	00000008 usb_recv_queue
01014054 g     O .rwdata	00000042 strProduct
01009e08 g     F .text	00000018 __fp_lock_all
01002878 g     F .text	00000034 disconnect_USB
01012d08 g     F .text	00000098 alt_alarm_stop
01017be8 g     O .bss	00000004 alt_irq_active
010000ec g     F .exceptions	000000cc alt_irq_handler
010149ec g     O .rwdata	00000028 alt_dev_null
01003560 g     F .text	00000124 Hal4D13_ReadEndpoint
01012624 g     F .text	00000044 alt_dcache_flush_all
0100ae34 g     F .text	00000070 __hi0bits
0100fc40 g     F .text	000000d8 __fixdfsi
01005444 g     F .text	0000001c calloc
01002fb0 g     F .text	00000184 D13Bus_BurstTransmitEP0
01017c54 g     O .bss	00000400 IsoOutDataBuff
01015d54 g       *ABS*	00000000 __ram_rwdata_end
01015d34 g     O .rwdata	00000008 alt_dev_list
01011394 g     F .text	00000120 write
0100bf04 g     F .text	000000e8 _putc_r
0101231c g     F .text	00000028 alt_timestamp_freq
01000544 g     F .text	00000034 usb_register_recv_callback
010033e8 g     F .text	000000c0 Hal4D13_SoftConnect
01013f24 g       *ABS*	00000000 __ram_rodata_end
0101080c g     F .text	000000d4 fstat
01017ba8 g     O .bss	00000008 ioRequest
01010c40 g     F .text	00000140 kill
0100bbc0 g     F .text	00000120 __pow5mult
01017bdc g     O .bss	00000004 __nlocale_changed
0100cc00 g     F .text	000010a4 ___vfiprintf_internal_r
0100fff0 g     F .text	00000008 __umodsi3
010034e0 g     F .text	00000040 Hal4D13_ClearBuffer
01005288 g     F .text	00000044 usb_fifo_is_empty
01015cf0 g     O .rwdata	00000002 IsoInPattern
010196e4 g       *ABS*	00000000 end
01003b44 g     F .text	00000078 Hal4D13_GetIntEnable
01014010 g     O .rwdata	00000018 strInterface
01011780 g     F .text	000000b8 altera_avalon_jtag_uart_init
010032a4 g     F .text	00000060 Hal4D13_GetMode
010132f0 g       *ABS*	00000000 __CTOR_LIST__
01800000 g       *ABS*	00000000 __alt_stack_pointer
01012154 g     F .text	00000088 alt_avalon_timer_sc_init
01010090 g     F .text	00000080 __clzsi2
010048cc g     F .text	00000030 Isr_SuspendChange
01011ea0 g     F .text	00000240 altera_avalon_jtag_uart_write
01009d2c g     F .text	00000004 __sfp_lock_acquire
0100ac48 g     F .text	000000e4 memchr
01006100 g     F .text	00001eac ___vfprintf_internal_r
0100a0c0 g     F .text	00000314 _free_r
01013fbe g     O .rwdata	00000020 EP_Descr
01002750 g     F .text	00000128 help_devreq
01008110 g     F .text	000001b0 __call_exitprocs
01017bc4 g     O .bss	00000004 inflight
01017be0 g     O .bss	00000004 __mlocale_changed
01015d20 g     O .rwdata	00000004 __malloc_sbrk_base
010001b8 g     F .text	0000004c _start
01017c00 g     O .bss	00000004 _alt_tick_rate
01004e30 g     F .text	000000bc usb_check_send
010050bc g     F .text	0000001c Isr_Ep08Done
0100b750 g     F .text	0000014c __lshift
01017c04 g     O .bss	00000004 _alt_nticks
010038cc g     F .text	0000015c Hal4D13_WriteEndpoint
0100c90c g     F .text	0000001c signal
010110c8 g     F .text	00000120 read
01011548 g     F .text	000000b8 alt_sys_init
010042a4 g     F .text	00000048 Hal4D13_SingleTransmitEP0
01000630 g     F .text	0000009c usb_send_queue_pop
010131bc g     F .text	00000134 __register_exitproc
010048fc g     F .text	00000030 Isr_SHORT_PACKET
0100b89c g     F .text	000001e8 __multiply
01003dac g     F .text	00000080 Hal4D13_SetEndpointStatus
01011b14 g     F .text	00000074 altera_avalon_jtag_uart_close
01013f24 g       *ABS*	00000000 __ram_rwdata_start
01014158 g     O .rwdata	00000040 VendorDeviceRequest
010132f4 g       *ABS*	00000000 __ram_rodata_start
01017c08 g     O .bss	00000028 __malloc_current_mallinfo
0100b448 g     F .text	0000017c __d2b
01017b88 g     O .bss	00000004 usb_recv_cb
010028ac g     F .text	0000005c connect_USB
01015d08 g     O .rwdata	00000001 INT_Enabled
01011638 g     F .text	00000058 altera_avalon_jtag_uart_read_fd
01012fec g     F .text	000000b8 alt_get_fd
01017bb0 g     O .bss	00000004 usb_send_cb_context
01004670 g     F .text	000001b8 usb_isr
010124d8 g     F .text	0000014c alt_busy_sleep
0101055c g     F .text	000000c8 __fpcmp_parts_d
0100de8c g     F .text	00000070 _close_r
01005110 g     F .text	0000001c Isr_Ep0BDone
010053a4 g     F .text	00000028 usb_fifo_peek
01004490 g     F .text	0000003c Hal4D13_StallEP0InControlRead
01013148 g     F .text	00000074 memcmp
010116e8 g     F .text	00000048 altera_avalon_jtag_uart_close_fd
010196e4 g       *ABS*	00000000 __alt_stack_base
01011730 g     F .text	00000050 altera_avalon_jtag_uart_ioctl_fd
01007fd0 g     F .text	0000013c __swsetup_r
01014104 g     O .rwdata	00000010 _NAME_USB_REQUEST_RECIPIENT
01004c18 g     F .text	00000218 Isr_Ep00TxDone
0100f648 g     F .text	00000258 __divdf3
01009ea4 g     F .text	000000f0 __sfp
01015d04 g     O .rwdata	00000004 _NAME_USB_CLASS_REQUEST
0100b2ac g     F .text	00000058 __copybits
010145d8 g     O .rwdata	00000408 __malloc_av_
01001604 g     F .text	00000228 Chap9_SetFeature
01009d38 g     F .text	00000004 __sinit_lock_release
0100f284 g     F .text	000003c4 __muldf3
0100ca8c g     F .text	00000060 __sread
01012ecc g     F .text	00000120 alt_find_file
01005148 g     F .text	0000001c Isr_Ep0DDone
01012668 g     F .text	000000b4 alt_dev_llist_insert
01011088 g     F .text	00000020 __malloc_lock
010112a8 g     F .text	000000bc sbrk
01004a14 g     F .text	00000204 Isr_Ep00RxDone
01004828 g     F .text	000000a4 Isr_BusReset
01015ce8 g     O .rwdata	00000004 packet_size
01009aa4 g     F .text	000001fc _fflush_r
01005460 g     F .text	000000b4 _calloc_r
01018054 g     O .bss	00000400 IsoInDataBuff
01003cdc g     F .text	00000068 Hal4D13_GetEndpointStatusWInteruptClear
010020a8 g     F .text	00000090 Chap9_StallEP0
01017b84 g       *ABS*	00000000 __bss_start
01005dc0 g     F .text	00000098 memset
01003250 g     F .text	00000054 Hal4D13_SetMode
01000204 g     F .text	000002d4 main
01017bf4 g     O .bss	00000004 alt_envp
01017bd4 g     O .bss	00000004 __malloc_max_total_mem
01011690 g     F .text	00000058 altera_avalon_jtag_uart_write_fd
01017bb4 g     O .bss	00000004 usb_recv_cb_context
0100ddf8 g     F .text	0000001c __swbuf
01004f4c g     F .text	00000068 Isr_Ep02Done
010005ac g     F .text	00000084 usb_recv_queue_push
0100c9a0 g     F .text	00000008 __sclose
01800000 g       *ABS*	00000000 __alt_heap_limit
010041a4 g     F .text	00000068 Hal4D13_GetEndpointConfig
010052cc g     F .text	000000d8 usb_fifo_pop
0100e00c g     F .text	00000014 fclose
01002dc4 g     F .text	000000f0 setup_dma_request
010121dc g     F .text	000000a4 alt_timestamp_start
01019554 g     O .bss	00000190 _atexit0
010084f0 g     F .text	000015b4 _dtoa_r
010055e0 g     F .text	00000740 _malloc_r
01013fac g     O .rwdata	00000009 InterfaceDescr0
01015d40 g     O .rwdata	00000004 alt_errno
01003304 g     F .text	00000060 Hal4D13_GetAddress
01005590 g     F .text	00000028 _fiprintf_r
0100c794 g     F .text	00000010 _init_signal
0100a938 g     F .text	000000b8 _fwalk
01017bbc g     O .bss	00000001 IsoMode
0100be00 g     F .text	00000104 putc
0100ff28 g     F .text	00000060 __divsi3
01013d5c g     O .rodata	00000014 __thenan_df
01004454 g     F .text	0000003c Hal4D13_StallEP0InControlWrite
01009f94 g     F .text	0000012c _malloc_trim_r
010132f4 g       *ABS*	00000000 __CTOR_END__
01013fb5 g     O .rwdata	00000009 InterfaceDescr1
0100caec g     F .text	000000bc strcmp
0100492c g     F .text	000000cc Isr_DmaEot
010132f4 g       *ABS*	00000000 __flash_rodata_start
010132f4 g       *ABS*	00000000 __DTOR_LIST__
0100455c g     F .text	0000004c Read_HC_Config_Reg
01003520 g     F .text	00000040 Hal4D13_ValidBuffer
010040e8 g     F .text	00000054 Hal4D13_ReadChipID
0100268c g     F .text	000000c4 DeviceRequest_Handler
01003a28 g     F .text	0000011c Hal4D13_WriteBulkEndpoint
0100f928 g     F .text	00000088 __nedf2
01011514 g     F .text	00000034 alt_irq_init
01011248 g     F .text	00000060 alt_release_fd
01013d70 g     O .rodata	00000100 __clz_tab
01017be4 g     O .bss	00000004 _PathLocale
01013134 g     F .text	00000014 atexit
010031fc g     F .text	00000054 Hal4D13_SetDevConfig
0100de14 g     F .text	00000078 _write_r
010031a8 g     F .text	00000054 Hal4D13_GetDevConfig
0100aa98 g     F .text	0000001c setlocale
010044cc g     F .text	00000040 Hal4D13_IsSetupPktInvalid
01004eec g     F .text	00000060 Isr_Ep01Done
01017c30 g     O .bss	00000024 ControlData
01015d14 g     O .rwdata	00000004 _impure_ptr
01017bec g     O .bss	00000004 alt_argc
01017bf8 g     O .bss	00000004 altera_avalon_timer_ts_base
010127e0 g     F .text	00000064 _do_dtors
01005014 g     F .text	0000005c Isr_Ep05Done
01001c38 g     F .text	000000c0 Chap9_GetConfiguration
01000020 g       .exceptions	00000000 alt_irq_entry
01001048 g     F .text	000000f4 Hal4D13_WriteISOEndpoint
0100afc8 g     F .text	00000080 __ulp
0100c5e0 g     F .text	00000040 __isinfd
01009df0 g     F .text	00000018 __fp_unlock_all
01015d2c g     O .rwdata	00000008 alt_fs_list
01013f36 g     O .rwdata	0000002e ConfigDescr_a
01014028 g     O .rwdata	00000012 strConfiguration
01000768 g     F .text	00000130 usb_device_send
01000020 g       *ABS*	00000000 __ram_exceptions_start
0100aa04 g     F .text	00000010 localeconv
01012280 g     F .text	0000009c alt_timestamp
01014124 g     O .rwdata	00000034 _NAME_USB_STANDARD_REQUEST
0100420c g     F .text	00000060 Hal4D13_SetEndpointConfig
01015d54 g       *ABS*	00000000 _edata
010045f8 g     F .text	00000044 usb_reenable_all_interrupts
010196e4 g       *ABS*	00000000 _end
010001b8 g       *ABS*	00000000 __ram_exceptions_end
01011b88 g     F .text	000000f4 altera_avalon_jtag_uart_ioctl
0100450c g     F .text	00000050 Write_HC_Config_Reg
01000a20 g     F .text	00000084 usb_send_queue_push
01003364 g     F .text	00000084 Hal4D13_SetAddressEnable
0100ca10 g     F .text	0000007c __swrite
01017bb8 g     O .bss	00000003 bUSBCheck_Device_State
01015d1c g     O .rwdata	00000004 __malloc_trim_threshold
01003fd0 g     F .text	00000054 Hal4D13_SetDataToChipRam
01012eac g     F .text	00000020 altera_nios2_qsys_irq_init
01001f04 g     F .text	000000a4 Chap9_GetInterface
01005514 g     F .text	00000038 exit
0100554c g     F .text	00000044 fiprintf
0100608c g     F .text	0000001c _vfiprintf_r
0100a870 g     F .text	000000c8 _fwalk_reent
0100b5c4 g     F .text	0000018c __mdiff
0100ff88 g     F .text	00000060 __modsi3
01800000 g       *ABS*	00000000 __alt_data_end
01000020 g     F .exceptions	00000000 alt_exception
01009d30 g     F .text	00000004 __sfp_lock_release
01000000 g       *ABS*	00000000 __alt_mem_sdram
010034a8 g     F .text	00000038 Hal4D13_AcknowledgeSETUP
01002f14 g     F .text	0000009c D13Bus_SingleTransmitEP0
01003f28 g     F .text	00000054 Hal4D13_GetDMACounter
0100c620 g     F .text	00000030 __isnand
010107ec g     F .text	00000020 _exit
01012384 g     F .text	00000154 alt_alarm_start
01003d44 g     F .text	00000068 Hal4D13_GetEndpointStatusWOInteruptClear
0100fff8 g     F .text	00000098 __muldi3
01015cee g     O .rwdata	00000002 IsoOutPattern
0100aab4 g     F .text	00000194 __smakebuf_r
01000578 g     F .text	00000034 usb_register_send_callback
01006018 g     F .text	00000074 strlen
0100c730 g     F .text	00000064 _init_signal_r
01012b20 g     F .text	00000188 open
0100fa38 g     F .text	00000088 __gedf2
0100113c g     F .text	00000290 Chap9_GetStatus
01005430 g     F .text	00000014 __assert
010128d8 g     F .text	00000030 alt_icache_flush_all
01015d44 g     O .rwdata	00000004 alt_priority_mask
01013f64 g     O .rwdata	00000048 ConfigDescr
01007fac g     F .text	00000024 __vfprintf_internal
0100f190 g     F .text	00000080 __subdf3
01018454 g     O .bss	00001000 return_buf
0100aea4 g     F .text	000000c4 __lo0bits
01015d4c g     O .rwdata	00000008 alt_alarm_list
0101277c g     F .text	00000064 _do_ctors
0100c858 g     F .text	00000014 __sigtramp
01017bc8 g     O .bss	00000004 status
010037a8 g     F .text	00000124 Hal4D13_ReadEndpointWOClearBuffer
010049f8 g     F .text	0000001c Isr_SOF
01010624 g     F .text	000000fc close
01003134 g     F .text	0000003c Hal4D13_AcquireD13
01001cf8 g     F .text	0000020c Chap9_SetConfiguration
01010de0 g     F .text	00000080 alt_load
01010110 g     F .text	00000314 __pack_d
0100463c g     F .text	00000034 fn_usb_isr
01015cf2 g     O .rwdata	00000004 strLanguage
01015d00 g     O .rwdata	00000004 ClassDeviceRequest
0100c71c g     F .text	00000014 raise
010055b8 g     F .text	00000014 free
01009d34 g     F .text	00000004 __sinit_lock_acquire
0100bac0 g     F .text	00000100 __multadd
0100ae0c g     F .text	00000028 _Bfree
01017b84 g     O .bss	00000004 usb_initialized
01002eb4 g     F .text	00000038 get_firmware_version



Disassembly of section .entry:

01000000 <__reset>:
#if NIOS2_ICACHE_SIZE > 0 && defined(ALT_ALLOW_CODE_AT_RESET) && !defined(ALT_SIM_OPTIMIZE)
    /* Assume the instruction cache size is always a power of two. */
#if NIOS2_ICACHE_SIZE > 0x8000
    movhi r2, %hi(NIOS2_ICACHE_SIZE)
#else
    movui r2, NIOS2_ICACHE_SIZE
 1000000:	00840014 	movui	r2,4096
#endif

0:
    initi r2
 1000004:	1001483a 	initi	r2
    addi r2, r2, -NIOS2_ICACHE_LINE_SIZE
 1000008:	10bff804 	addi	r2,r2,-32
    bgt r2, zero, 0b
 100000c:	00bffd16 	blt	zero,r2,1000004 <__reset+0x4>
 * Jump to the _start entry point in the .text section if reset code
 * is allowed or if optimizing for RTL simulation.
 */
#if defined(ALT_ALLOW_CODE_AT_RESET) || defined(ALT_SIM_OPTIMIZE)
    /* Jump to the _start entry point in the .text section. */
    movhi r1, %hi(_start)
 1000010:	00404034 	movhi	at,256
    ori r1, r1, %lo(_start)
 1000014:	08406e14 	ori	at,at,440
    jmp r1
 1000018:	0800683a 	jmp	at
 100001c:	00000000 	call	0 <__alt_mem_onchip_memory2_0>

Disassembly of section .exceptions:

01000020 <alt_exception>:
         * Process an exception.  For all exceptions we must preserve all
         * caller saved registers on the stack (See the Nios2 ABI
         * documentation for details).
         */

        addi  sp, sp, -76
 1000020:	deffed04 	addi	sp,sp,-76

#endif

#endif

        stw   ra,  0(sp)
 1000024:	dfc00015 	stw	ra,0(sp)
        /*
         * Leave a gap in the stack frame at 4(sp) for the muldiv handler to
         * store zero into.
         */

        stw   r1,   8(sp)
 1000028:	d8400215 	stw	at,8(sp)
        stw   r2,  12(sp)
 100002c:	d8800315 	stw	r2,12(sp)
        stw   r3,  16(sp)
 1000030:	d8c00415 	stw	r3,16(sp)
        stw   r4,  20(sp)
 1000034:	d9000515 	stw	r4,20(sp)
        stw   r5,  24(sp)
 1000038:	d9400615 	stw	r5,24(sp)
        stw   r6,  28(sp)
 100003c:	d9800715 	stw	r6,28(sp)
        stw   r7,  32(sp)
 1000040:	d9c00815 	stw	r7,32(sp)

        rdctl r5, estatus
 1000044:	000b307a 	rdctl	r5,estatus

        stw   r8,  36(sp)
 1000048:	da000915 	stw	r8,36(sp)
        stw   r9,  40(sp)
 100004c:	da400a15 	stw	r9,40(sp)
        stw   r10, 44(sp)
 1000050:	da800b15 	stw	r10,44(sp)
        stw   r11, 48(sp)
 1000054:	dac00c15 	stw	r11,48(sp)
        stw   r12, 52(sp)
 1000058:	db000d15 	stw	r12,52(sp)
        stw   r13, 56(sp)
 100005c:	db400e15 	stw	r13,56(sp)
        stw   r14, 60(sp)
 1000060:	db800f15 	stw	r14,60(sp)
        stw   r15, 64(sp)
 1000064:	dbc01015 	stw	r15,64(sp)
        /*
         * ea-4 contains the address of the instruction being executed
         * when the exception occured. For interrupt exceptions, we will
         * will be re-issue the isntruction. Store it in 72(sp)
         */
        stw   r5,  68(sp)  /* estatus */
 1000068:	d9401115 	stw	r5,68(sp)
        addi  r15, ea, -4  /* instruction that caused exception */
 100006c:	ebffff04 	addi	r15,ea,-4
        stw   r15,  72(sp)
 1000070:	dbc01215 	stw	r15,72(sp)
#else
        /*
         * Test to see if the exception was a software exception or caused 
         * by an external interrupt, and vector accordingly.
         */
        rdctl r4, ipending
 1000074:	0009313a 	rdctl	r4,ipending
        andi  r2, r5, 1
 1000078:	2880004c 	andi	r2,r5,1
        beq   r2, zero, .Lnot_irq
 100007c:	10000326 	beq	r2,zero,100008c <alt_exception+0x6c>
        beq   r4, zero, .Lnot_irq
 1000080:	20000226 	beq	r4,zero,100008c <alt_exception+0x6c>
        /*
         * Now that all necessary registers have been preserved, call 
         * alt_irq_handler() to process the interrupts.
         */

        call alt_irq_handler
 1000084:	10000ec0 	call	10000ec <alt_irq_handler>

        .section .exceptions.irqreturn, "xa"

        br    .Lexception_exit
 1000088:	00000306 	br	1000098 <alt_exception+0x78>
         * upon completion, so we write ea (address of instruction *after*
         * the one where the exception occured) into 72(sp). The actual
         * instruction that caused the exception is written in r2, which these
         * handlers will utilize.
         */
        stw   ea,  72(sp)  /* Don't re-issue */
 100008c:	df401215 	stw	ea,72(sp)
        ldw   r2, -4(ea)   /* Instruction that caused exception */
 1000090:	e8bfff17 	ldw	r2,-4(ea)
#ifdef NIOS2_HAS_DEBUG_STUB
       /*
        *  Either tell the user now (if there is a debugger attached) or go into
        *  the debug monitor which will loop until a debugger is attached.
        */
        break
 1000094:	003da03a 	break	0
        /* 
         * Restore the saved registers, so that all general purpose registers 
         * have been restored to their state at the time the interrupt occured.
         */

        ldw   r5,  68(sp)
 1000098:	d9401117 	ldw	r5,68(sp)
        ldw   ea,  72(sp)  /* This becomes the PC once eret is executed */
 100009c:	df401217 	ldw	ea,72(sp)
        ldw   ra,   0(sp)
 10000a0:	dfc00017 	ldw	ra,0(sp)

        wrctl estatus, r5
 10000a4:	2801707a 	wrctl	estatus,r5

        ldw   r1,   8(sp)
 10000a8:	d8400217 	ldw	at,8(sp)
        ldw   r2,  12(sp)
 10000ac:	d8800317 	ldw	r2,12(sp)
        ldw   r3,  16(sp)
 10000b0:	d8c00417 	ldw	r3,16(sp)
        ldw   r4,  20(sp)
 10000b4:	d9000517 	ldw	r4,20(sp)
        ldw   r5,  24(sp)
 10000b8:	d9400617 	ldw	r5,24(sp)
        ldw   r6,  28(sp)
 10000bc:	d9800717 	ldw	r6,28(sp)
        ldw   r7,  32(sp)
 10000c0:	d9c00817 	ldw	r7,32(sp)
#ifdef ALT_STACK_CHECK
        ldw   et, %gprel(alt_exception_old_stack_limit)(gp)
#endif
#endif

        ldw   r8,  36(sp)
 10000c4:	da000917 	ldw	r8,36(sp)
        ldw   r9,  40(sp)
 10000c8:	da400a17 	ldw	r9,40(sp)
        ldw   r10, 44(sp)
 10000cc:	da800b17 	ldw	r10,44(sp)
        ldw   r11, 48(sp)
 10000d0:	dac00c17 	ldw	r11,48(sp)
        ldw   r12, 52(sp)
 10000d4:	db000d17 	ldw	r12,52(sp)
        ldw   r13, 56(sp)
 10000d8:	db400e17 	ldw	r13,56(sp)
        ldw   r14, 60(sp)
 10000dc:	db800f17 	ldw	r14,60(sp)
        ldw   r15, 64(sp)
 10000e0:	dbc01017 	ldw	r15,64(sp)
#endif

        ldw   sp,  76(sp)

#else
        addi  sp, sp, 76
 10000e4:	dec01304 	addi	sp,sp,76

        /*
         * Return to the interrupted instruction.
         */

        eret
 10000e8:	ef80083a 	eret

010000ec <alt_irq_handler>:
 * instruction is present if the macro ALT_CI_INTERRUPT_VECTOR defined.
 */

void alt_irq_handler (void) __attribute__ ((section (".exceptions")));
void alt_irq_handler (void)
{
 10000ec:	defff904 	addi	sp,sp,-28
 10000f0:	dfc00615 	stw	ra,24(sp)
 10000f4:	df000515 	stw	fp,20(sp)
 10000f8:	df000504 	addi	fp,sp,20
#ifndef NIOS2_EIC_PRESENT
static ALT_INLINE alt_u32 ALT_ALWAYS_INLINE alt_irq_pending (void)
{
  alt_u32 active;

  NIOS2_READ_IPENDING (active);
 10000fc:	0005313a 	rdctl	r2,ipending
 1000100:	e0bffc15 	stw	r2,-16(fp)

  return active;
 1000104:	e0bffc17 	ldw	r2,-16(fp)
   * Consider the case where the high priority interupt is asserted during
   * the interrupt entry sequence for a lower priority interrupt to see why
   * this is the case.
   */

  active = alt_irq_pending ();
 1000108:	e0bfff15 	stw	r2,-4(fp)

  do
  {
    i = 0;
 100010c:	e03ffd15 	stw	zero,-12(fp)
    mask = 1;
 1000110:	00800044 	movi	r2,1
 1000114:	e0bffe15 	stw	r2,-8(fp)
     * called to clear the interrupt condition.
     */

    do
    {
      if (active & mask)
 1000118:	e0ffff17 	ldw	r3,-4(fp)
 100011c:	e0bffe17 	ldw	r2,-8(fp)
 1000120:	1884703a 	and	r2,r3,r2
 1000124:	1005003a 	cmpeq	r2,r2,zero
 1000128:	1000171e 	bne	r2,zero,1000188 <alt_irq_handler+0x9c>
      { 
#ifdef ALT_ENHANCED_INTERRUPT_API_PRESENT
        alt_irq[i].handler(alt_irq[i].context); 
#else
        alt_irq[i].handler(alt_irq[i].context, i); 
 100012c:	e0bffd17 	ldw	r2,-12(fp)
 1000130:	00c040b4 	movhi	r3,258
 1000134:	18e51504 	addi	r3,r3,-27564
 1000138:	100490fa 	slli	r2,r2,3
 100013c:	10c5883a 	add	r2,r2,r3
 1000140:	11800017 	ldw	r6,0(r2)
 1000144:	e0bffd17 	ldw	r2,-12(fp)
 1000148:	00c040b4 	movhi	r3,258
 100014c:	18e51504 	addi	r3,r3,-27564
 1000150:	100490fa 	slli	r2,r2,3
 1000154:	10c5883a 	add	r2,r2,r3
 1000158:	10800104 	addi	r2,r2,4
 100015c:	11000017 	ldw	r4,0(r2)
 1000160:	e17ffd17 	ldw	r5,-12(fp)
 1000164:	303ee83a 	callr	r6
#ifndef NIOS2_EIC_PRESENT
static ALT_INLINE alt_u32 ALT_ALWAYS_INLINE alt_irq_pending (void)
{
  alt_u32 active;

  NIOS2_READ_IPENDING (active);
 1000168:	0005313a 	rdctl	r2,ipending
 100016c:	e0bffb15 	stw	r2,-20(fp)

  return active;
 1000170:	e0bffb17 	ldw	r2,-20(fp)
      mask <<= 1;
      i++;

    } while (1);

    active = alt_irq_pending ();
 1000174:	e0bfff15 	stw	r2,-4(fp)
    
  } while (active);
 1000178:	e0bfff17 	ldw	r2,-4(fp)
 100017c:	1004c03a 	cmpne	r2,r2,zero
 1000180:	103fe21e 	bne	r2,zero,100010c <alt_irq_handler+0x20>
 1000184:	00000706 	br	10001a4 <alt_irq_handler+0xb8>
#else
        alt_irq[i].handler(alt_irq[i].context, i); 
#endif
        break;
      }
      mask <<= 1;
 1000188:	e0bffe17 	ldw	r2,-8(fp)
 100018c:	1085883a 	add	r2,r2,r2
 1000190:	e0bffe15 	stw	r2,-8(fp)
      i++;
 1000194:	e0bffd17 	ldw	r2,-12(fp)
 1000198:	10800044 	addi	r2,r2,1
 100019c:	e0bffd15 	stw	r2,-12(fp)

    } while (1);
 10001a0:	003fdd06 	br	1000118 <alt_irq_handler+0x2c>
  /*
   * Notify the operating system that interrupt processing is complete.
   */ 

  ALT_OS_INT_EXIT();
}
 10001a4:	e037883a 	mov	sp,fp
 10001a8:	dfc00117 	ldw	ra,4(sp)
 10001ac:	df000017 	ldw	fp,0(sp)
 10001b0:	dec00204 	addi	sp,sp,8
 10001b4:	f800283a 	ret

Disassembly of section .text:

010001b8 <_start>:

    /* Assume the data cache size is always a power of two. */
#if NIOS2_DCACHE_SIZE > 0x8000
    movhi r2, %hi(NIOS2_DCACHE_SIZE)
#else
    movui r2, NIOS2_DCACHE_SIZE
 10001b8:	00820014 	movui	r2,2048
#endif

0:
    initd 0(r2)
 10001bc:	10000033 	initd	0(r2)
    addi r2, r2, -NIOS2_DCACHE_LINE_SIZE
 10001c0:	10bff804 	addi	r2,r2,-32
    bgt r2, zero, 0b
 10001c4:	00bffd16 	blt	zero,r2,10001bc <_start+0x4>
#if (NIOS2_NUM_OF_SHADOW_REG_SETS == 0)    
    /*
     * Now that the caches are initialized, set up the stack pointer.
     * The value provided by the linker is assumed to be correctly aligned.
     */
    movhi sp, %hi(__alt_stack_pointer)
 10001c8:	06c06034 	movhi	sp,384
    ori sp, sp, %lo(__alt_stack_pointer)
 10001cc:	dec00014 	ori	sp,sp,0

    /* Set up the global pointer. */
    movhi gp, %hi(_gp)
 10001d0:	06804074 	movhi	gp,257
    ori gp, gp, %lo(_gp)
 10001d4:	d6b73814 	ori	gp,gp,56544
 */
#ifndef ALT_SIM_OPTIMIZE
    /* Log that the BSS is about to be cleared. */
    ALT_LOG_PUTS(alt_log_msg_bss)

    movhi r2, %hi(__bss_start)
 10001d8:	00804074 	movhi	r2,257
    ori r2, r2, %lo(__bss_start)
 10001dc:	109ee114 	ori	r2,r2,31620

    movhi r3, %hi(__bss_end)
 10001e0:	00c04074 	movhi	r3,257
    ori r3, r3, %lo(__bss_end)
 10001e4:	18e5b914 	ori	r3,r3,38628

    beq r2, r3, 1f
 10001e8:	10c00326 	beq	r2,r3,10001f8 <_start+0x40>

0:
    stw zero, (r2)
 10001ec:	10000015 	stw	zero,0(r2)
    addi r2, r2, 4
 10001f0:	10800104 	addi	r2,r2,4
    bltu r2, r3, 0b
 10001f4:	10fffd36 	bltu	r2,r3,10001ec <_start+0x34>
     * section aren't defined until alt_load() has been called).
     */
    mov   et, zero
#endif

    call alt_load
 10001f8:	1010de00 	call	1010de0 <alt_load>

    /* Log that alt_main is about to be called. */
    ALT_LOG_PUTS(alt_log_msg_alt_main)

    /* Call the C entry point. It should never return. */
    call alt_main
 10001fc:	101101c0 	call	101101c <alt_main>

01000200 <alt_after_alt_main>:

    /* Wait in infinite loop in case alt_main does return. */
alt_after_alt_main:
    br alt_after_alt_main
 1000200:	003fff06 	br	1000200 <alt_after_alt_main>

01000204 <main>:
#include "../Bomberman_bsp/HAL/inc/sys/alt_timestamp.h"

#include <assert.h>
int init_usb();

int main() {
 1000204:	deffd504 	addi	sp,sp,-172
 1000208:	dfc02a15 	stw	ra,168(sp)
 100020c:	df002915 	stw	fp,164(sp)
 1000210:	df002904 	addi	fp,sp,164
	int bytes_expected;
	int bytes_recvd;
	int total_recvd;
	unsigned char data;
	unsigned char msgdata;
	unsigned char message_tx[] = "EECE381 is so much fun";
 1000214:	00c04074 	movhi	r3,257
 1000218:	18cd0a04 	addi	r3,r3,13352
 100021c:	1880000b 	ldhu	r2,0(r3)
 1000220:	e0bfe08d 	sth	r2,-126(fp)
 1000224:	1880008b 	ldhu	r2,2(r3)
 1000228:	e0bfe10d 	sth	r2,-124(fp)
 100022c:	1880010b 	ldhu	r2,4(r3)
 1000230:	e0bfe18d 	sth	r2,-122(fp)
 1000234:	1880018b 	ldhu	r2,6(r3)
 1000238:	e0bfe20d 	sth	r2,-120(fp)
 100023c:	1880020b 	ldhu	r2,8(r3)
 1000240:	e0bfe28d 	sth	r2,-118(fp)
 1000244:	1880028b 	ldhu	r2,10(r3)
 1000248:	e0bfe30d 	sth	r2,-116(fp)
 100024c:	1880030b 	ldhu	r2,12(r3)
 1000250:	e0bfe38d 	sth	r2,-114(fp)
 1000254:	1880038b 	ldhu	r2,14(r3)
 1000258:	e0bfe40d 	sth	r2,-112(fp)
 100025c:	1880040b 	ldhu	r2,16(r3)
 1000260:	e0bfe48d 	sth	r2,-110(fp)
 1000264:	1880048b 	ldhu	r2,18(r3)
 1000268:	e0bfe50d 	sth	r2,-108(fp)
 100026c:	1880050b 	ldhu	r2,20(r3)
 1000270:	e0bfe58d 	sth	r2,-106(fp)
 1000274:	18800583 	ldbu	r2,22(r3)
 1000278:	e0bfe605 	stb	r2,-104(fp)
	unsigned char message_rx[100];
	int id;
	int msg_length;

	printf("USB Initialization\n");
 100027c:	01004074 	movhi	r4,257
 1000280:	210cbd04 	addi	r4,r4,13044
 1000284:	1005f940 	call	1005f94 <puts>
	alt_up_usb_dev * usb_dev;
	usb_dev = alt_up_usb_open_dev(USB_0_NAME);
 1000288:	01004074 	movhi	r4,257
 100028c:	210cc204 	addi	r4,r4,13064
 1000290:	10123440 	call	1012344 <alt_up_usb_open_dev>
 1000294:	e0bfd915 	stw	r2,-156(fp)
	assert(usb_dev);
 1000298:	e0bfd917 	ldw	r2,-156(fp)
 100029c:	1004c03a 	cmpne	r2,r2,zero
 10002a0:	1000071e 	bne	r2,zero,10002c0 <main+0xbc>
 10002a4:	01004074 	movhi	r4,257
 10002a8:	210cc504 	addi	r4,r4,13076
 10002ac:	014006c4 	movi	r5,27
 10002b0:	d1a00004 	addi	r6,gp,-32768
 10002b4:	01c04074 	movhi	r7,257
 10002b8:	39ccc904 	addi	r7,r7,13092
 10002bc:	10053cc0 	call	10053cc <__assert_func>
	usb_device_init(usb_dev, USB_0_IRQ);
 10002c0:	e13fd917 	ldw	r4,-156(fp)
 10002c4:	01400084 	movi	r5,2
 10002c8:	1000afc0 	call	1000afc <usb_device_init>

	printf("Polling USB device.  Run middleman now!\n");
 10002cc:	01004074 	movhi	r4,257
 10002d0:	210ccb04 	addi	r4,r4,13100
 10002d4:	1005f940 	call	1005f94 <puts>
	alt_timestamp_start();
 10002d8:	10121dc0 	call	10121dc <alt_timestamp_start>
	int clocks = 0;
 10002dc:	e03fd815 	stw	zero,-160(fp)
	while (clocks < 50000000 * 10) {
 10002e0:	00000306 	br	10002f0 <main+0xec>
		clocks = alt_timestamp();
 10002e4:	10122800 	call	1012280 <alt_timestamp>
 10002e8:	e0bfd815 	stw	r2,-160(fp)
		usb_device_poll();
 10002ec:	1000be40 	call	1000be4 <usb_device_poll>
	usb_device_init(usb_dev, USB_0_IRQ);

	printf("Polling USB device.  Run middleman now!\n");
	alt_timestamp_start();
	int clocks = 0;
	while (clocks < 50000000 * 10) {
 10002f0:	e0ffd817 	ldw	r3,-160(fp)
 10002f4:	00877374 	movhi	r2,7629
 10002f8:	10993fc4 	addi	r2,r2,25855
 10002fc:	10fff90e 	bge	r2,r3,10002e4 <main+0xe0>
		clocks = alt_timestamp();
		usb_device_poll();
	}
	printf("Done polling USB\n");
 1000300:	01004074 	movhi	r4,257
 1000304:	210cd504 	addi	r4,r4,13140
 1000308:	1005f940 	call	1005f94 <puts>

	printf("Sending the message to the Middleman\n");
 100030c:	01004074 	movhi	r4,257
 1000310:	210cda04 	addi	r4,r4,13160
 1000314:	1005f940 	call	1005f94 <puts>

	// Start with the number of bytes in our message
	unsigned char message_length = strlen(message_tx);
 1000318:	e13fe084 	addi	r4,fp,-126
 100031c:	10060180 	call	1006018 <strlen>
 1000320:	e0bfff45 	stb	r2,-3(fp)
	usb_device_send(&message_length, 1);
 1000324:	e13fff44 	addi	r4,fp,-3
 1000328:	01400044 	movi	r5,1
 100032c:	10007680 	call	1000768 <usb_device_send>

	// Now send the actual message to the Middleman
	usb_device_send(message_tx, message_length);
 1000330:	e0bfff43 	ldbu	r2,-3(fp)
 1000334:	11403fcc 	andi	r5,r2,255
 1000338:	e13fe084 	addi	r4,fp,-126
 100033c:	10007680 	call	1000768 <usb_device_send>

	// Now receive the message from the Middleman
	printf("Waiting for data to come back from the Middleman\n");
 1000340:	01004074 	movhi	r4,257
 1000344:	210ce404 	addi	r4,r4,13200
 1000348:	1005f940 	call	1005f94 <puts>
while(1){
	// First byte is the number of characters in our message
	bytes_expected = 1;
 100034c:	00800044 	movi	r2,1
 1000350:	e0bfde15 	stw	r2,-136(fp)
	total_recvd = 0;
 1000354:	e03fdc15 	stw	zero,-144(fp)
	data = 0;
 1000358:	e03fe005 	stb	zero,-128(fp)
	msgdata = 0;
 100035c:	e03fe045 	stb	zero,-127(fp)

	//finds id
	while (total_recvd < bytes_expected) {
 1000360:	00000b06 	br	1000390 <main+0x18c>

			bytes_recvd = usb_device_recv(&data, 1);
 1000364:	e13fe004 	addi	r4,fp,-128
 1000368:	01400044 	movi	r5,1
 100036c:	10008980 	call	1000898 <usb_device_recv>
 1000370:	e0bfdd15 	stw	r2,-140(fp)

			if (bytes_recvd > 0){
 1000374:	e0bfdd17 	ldw	r2,-140(fp)
 1000378:	10800050 	cmplti	r2,r2,1
 100037c:	1000041e 	bne	r2,zero,1000390 <main+0x18c>
				total_recvd += bytes_recvd;
 1000380:	e0bfdc17 	ldw	r2,-144(fp)
 1000384:	e0ffdd17 	ldw	r3,-140(fp)
 1000388:	10c5883a 	add	r2,r2,r3
 100038c:	e0bfdc15 	stw	r2,-144(fp)
	total_recvd = 0;
	data = 0;
	msgdata = 0;

	//finds id
	while (total_recvd < bytes_expected) {
 1000390:	e0ffdc17 	ldw	r3,-144(fp)
 1000394:	e0bfde17 	ldw	r2,-136(fp)
 1000398:	18bff216 	blt	r3,r2,1000364 <main+0x160>
			if (bytes_recvd > 0){
				total_recvd += bytes_recvd;

			}
		}
	id = data;
 100039c:	e0bfe003 	ldbu	r2,-128(fp)
 10003a0:	10803fcc 	andi	r2,r2,255
 10003a4:	e0bfdb15 	stw	r2,-148(fp)
	printf("Id is: %i \t", id);
 10003a8:	01004074 	movhi	r4,257
 10003ac:	210cf104 	addi	r4,r4,13252
 10003b0:	e17fdb17 	ldw	r5,-148(fp)
 10003b4:	1005e580 	call	1005e58 <printf>


	total_recvd = 0;
 10003b8:	e03fdc15 	stw	zero,-144(fp)
//finds msg size
	while (total_recvd < bytes_expected) {
 10003bc:	00000b06 	br	10003ec <main+0x1e8>

		bytes_recvd = usb_device_recv(&msgdata, 1);
 10003c0:	e13fe044 	addi	r4,fp,-127
 10003c4:	01400044 	movi	r5,1
 10003c8:	10008980 	call	1000898 <usb_device_recv>
 10003cc:	e0bfdd15 	stw	r2,-140(fp)

		if (bytes_recvd > 0){
 10003d0:	e0bfdd17 	ldw	r2,-140(fp)
 10003d4:	10800050 	cmplti	r2,r2,1
 10003d8:	1000041e 	bne	r2,zero,10003ec <main+0x1e8>
			total_recvd += bytes_recvd;
 10003dc:	e0bfdc17 	ldw	r2,-144(fp)
 10003e0:	e0ffdd17 	ldw	r3,-140(fp)
 10003e4:	10c5883a 	add	r2,r2,r3
 10003e8:	e0bfdc15 	stw	r2,-144(fp)
	printf("Id is: %i \t", id);


	total_recvd = 0;
//finds msg size
	while (total_recvd < bytes_expected) {
 10003ec:	e0ffdc17 	ldw	r3,-144(fp)
 10003f0:	e0bfde17 	ldw	r2,-136(fp)
 10003f4:	18bff216 	blt	r3,r2,10003c0 <main+0x1bc>
		if (bytes_recvd > 0){
			total_recvd += bytes_recvd;

		}
	}
	msg_length = msgdata;
 10003f8:	e0bfe043 	ldbu	r2,-127(fp)
 10003fc:	10803fcc 	andi	r2,r2,255
 1000400:	e0bfda15 	stw	r2,-152(fp)
	printf("Message Length is: %i \t", msg_length);
 1000404:	01004074 	movhi	r4,257
 1000408:	210cf404 	addi	r4,r4,13264
 100040c:	e17fda17 	ldw	r5,-152(fp)
 1000410:	1005e580 	call	1005e58 <printf>

	int num_to_receive = (int) data;
 1000414:	e0bfe003 	ldbu	r2,-128(fp)
 1000418:	10803fcc 	andi	r2,r2,255
 100041c:	e0bfd715 	stw	r2,-164(fp)
	printf("About to receive %d characters:\n", num_to_receive);
 1000420:	01004074 	movhi	r4,257
 1000424:	210cfa04 	addi	r4,r4,13288
 1000428:	e17fd717 	ldw	r5,-164(fp)
 100042c:	1005e580 	call	1005e58 <printf>

	bytes_expected = num_to_receive;
 1000430:	e0bfd717 	ldw	r2,-164(fp)
 1000434:	e0bfde15 	stw	r2,-136(fp)
	//bytes_expected = 2;

	total_recvd = 0;
 1000438:	e03fdc15 	stw	zero,-144(fp)
	while (total_recvd < num_to_receive) {
 100043c:	00000d06 	br	1000474 <main+0x270>
		bytes_recvd = usb_device_recv(message_rx + total_recvd, 1);
 1000440:	e0bfdc17 	ldw	r2,-144(fp)
 1000444:	e13fe644 	addi	r4,fp,-103
 1000448:	2089883a 	add	r4,r4,r2
 100044c:	01400044 	movi	r5,1
 1000450:	10008980 	call	1000898 <usb_device_recv>
 1000454:	e0bfdd15 	stw	r2,-140(fp)
		if (bytes_recvd > 0)
 1000458:	e0bfdd17 	ldw	r2,-140(fp)
 100045c:	10800050 	cmplti	r2,r2,1
 1000460:	1000041e 	bne	r2,zero,1000474 <main+0x270>
			total_recvd += bytes_recvd;
 1000464:	e0bfdc17 	ldw	r2,-144(fp)
 1000468:	e0ffdd17 	ldw	r3,-140(fp)
 100046c:	10c5883a 	add	r2,r2,r3
 1000470:	e0bfdc15 	stw	r2,-144(fp)

	bytes_expected = num_to_receive;
	//bytes_expected = 2;

	total_recvd = 0;
	while (total_recvd < num_to_receive) {
 1000474:	e0ffdc17 	ldw	r3,-144(fp)
 1000478:	e0bfd717 	ldw	r2,-164(fp)
 100047c:	18bff016 	blt	r3,r2,1000440 <main+0x23c>
		bytes_recvd = usb_device_recv(message_rx + total_recvd, 1);
		if (bytes_recvd > 0)
			total_recvd += bytes_recvd;
	}

	for (i = 0; i < num_to_receive; i++) {
 1000480:	e03fdf15 	stw	zero,-132(fp)
 1000484:	00000b06 	br	10004b4 <main+0x2b0>
		//printf("%i\t", (int)message_rx[i]);
		printf("%c\t", message_rx[i]);
 1000488:	e0ffdf17 	ldw	r3,-132(fp)
 100048c:	e0bfe644 	addi	r2,fp,-103
 1000490:	10c5883a 	add	r2,r2,r3
 1000494:	10800003 	ldbu	r2,0(r2)
 1000498:	11403fcc 	andi	r5,r2,255
 100049c:	01004074 	movhi	r4,257
 10004a0:	210d0304 	addi	r4,r4,13324
 10004a4:	1005e580 	call	1005e58 <printf>
		bytes_recvd = usb_device_recv(message_rx + total_recvd, 1);
		if (bytes_recvd > 0)
			total_recvd += bytes_recvd;
	}

	for (i = 0; i < num_to_receive; i++) {
 10004a8:	e0bfdf17 	ldw	r2,-132(fp)
 10004ac:	10800044 	addi	r2,r2,1
 10004b0:	e0bfdf15 	stw	r2,-132(fp)
 10004b4:	e0ffdf17 	ldw	r3,-132(fp)
 10004b8:	e0bfd717 	ldw	r2,-164(fp)
 10004bc:	18bff216 	blt	r3,r2,1000488 <main+0x284>
		//printf("%i\t", (int)message_rx[i]);
		printf("%c\t", message_rx[i]);
	}

	printf("\n");
 10004c0:	01000284 	movi	r4,10
 10004c4:	1005ed00 	call	1005ed0 <putchar>
	printf("Message Echo Complete\n");
 10004c8:	01004074 	movhi	r4,257
 10004cc:	210d0404 	addi	r4,r4,13328
 10004d0:	1005f940 	call	1005f94 <puts>


}
 10004d4:	003f9d06 	br	100034c <main+0x148>

010004d8 <init_usb>:
	//return 0;
}

int init_usb() {
 10004d8:	defffd04 	addi	sp,sp,-12
 10004dc:	dfc00215 	stw	ra,8(sp)
 10004e0:	df000115 	stw	fp,4(sp)
 10004e4:	df000104 	addi	fp,sp,4

	alt_up_usb_dev * usb_dev;
	usb_dev = alt_up_usb_open_dev(USB_0_NAME);
 10004e8:	01004074 	movhi	r4,257
 10004ec:	210cc204 	addi	r4,r4,13064
 10004f0:	10123440 	call	1012344 <alt_up_usb_open_dev>
 10004f4:	e0bfff15 	stw	r2,-4(fp)
	assert(usb_dev);
 10004f8:	e0bfff17 	ldw	r2,-4(fp)
 10004fc:	1004c03a 	cmpne	r2,r2,zero
 1000500:	1000081e 	bne	r2,zero,1000524 <init_usb+0x4c>
 1000504:	01004074 	movhi	r4,257
 1000508:	210cc504 	addi	r4,r4,13076
 100050c:	01401cc4 	movi	r5,115
 1000510:	01804074 	movhi	r6,257
 1000514:	318d1004 	addi	r6,r6,13376
 1000518:	01c04074 	movhi	r7,257
 100051c:	39ccc904 	addi	r7,r7,13092
 1000520:	10053cc0 	call	10053cc <__assert_func>
	usb_device_init(usb_dev, USB_0_IRQ);
 1000524:	e13fff17 	ldw	r4,-4(fp)
 1000528:	01400084 	movi	r5,2
 100052c:	1000afc0 	call	1000afc <usb_device_init>
	printf("Polling USB device.\nInstall the USB driver now.\n");
 1000530:	01004074 	movhi	r4,257
 1000534:	210d1304 	addi	r4,r4,13388
 1000538:	1005f940 	call	1005f94 <puts>
	while (1) {
		usb_device_poll();
 100053c:	1000be40 	call	1000be4 <usb_device_poll>

	}
 1000540:	003ffe06 	br	100053c <init_usb+0x64>

01000544 <usb_register_recv_callback>:
void (*usb_send_cb)(void*) = NULL;
void * usb_send_cb_context;

const int packet_size = 64;

void usb_register_recv_callback(void (*fcn)(void*), void * context) {
 1000544:	defffd04 	addi	sp,sp,-12
 1000548:	df000215 	stw	fp,8(sp)
 100054c:	df000204 	addi	fp,sp,8
 1000550:	e13ffe15 	stw	r4,-8(fp)
 1000554:	e17fff15 	stw	r5,-4(fp)
	usb_recv_cb = fcn;
 1000558:	e0bffe17 	ldw	r2,-8(fp)
 100055c:	d0a7aa15 	stw	r2,-24920(gp)
	usb_recv_cb_context = context;
 1000560:	e0bfff17 	ldw	r2,-4(fp)
 1000564:	d0a7b515 	stw	r2,-24876(gp)
}
 1000568:	e037883a 	mov	sp,fp
 100056c:	df000017 	ldw	fp,0(sp)
 1000570:	dec00104 	addi	sp,sp,4
 1000574:	f800283a 	ret

01000578 <usb_register_send_callback>:

void usb_register_send_callback(void (*fcn)(void*), void * context) {
 1000578:	defffd04 	addi	sp,sp,-12
 100057c:	df000215 	stw	fp,8(sp)
 1000580:	df000204 	addi	fp,sp,8
 1000584:	e13ffe15 	stw	r4,-8(fp)
 1000588:	e17fff15 	stw	r5,-4(fp)
	usb_send_cb = fcn;
 100058c:	e0bffe17 	ldw	r2,-8(fp)
 1000590:	d0a7ab15 	stw	r2,-24916(gp)
	usb_send_cb_context = context;
 1000594:	e0bfff17 	ldw	r2,-4(fp)
 1000598:	d0a7b415 	stw	r2,-24880(gp)
}
 100059c:	e037883a 	mov	sp,fp
 10005a0:	df000017 	ldw	fp,0(sp)
 10005a4:	dec00104 	addi	sp,sp,4
 10005a8:	f800283a 	ret

010005ac <usb_recv_queue_push>:

void usb_recv_queue_push(unsigned char * data, unsigned int len) {
 10005ac:	defff904 	addi	sp,sp,-28
 10005b0:	dfc00615 	stw	ra,24(sp)
 10005b4:	df000515 	stw	fp,20(sp)
 10005b8:	df000504 	addi	fp,sp,20
 10005bc:	e13ffe15 	stw	r4,-8(fp)
 10005c0:	e17fff15 	stw	r5,-4(fp)
static ALT_INLINE alt_irq_context ALT_ALWAYS_INLINE 
       alt_irq_disable_all (void)
{
  alt_irq_context context;

  NIOS2_READ_STATUS (context);
 10005c4:	0005303a 	rdctl	r2,status
 10005c8:	e0bffc15 	stw	r2,-16(fp)

  NIOS2_WRITE_STATUS (context & ~NIOS2_STATUS_PIE_MSK);
 10005cc:	e0fffc17 	ldw	r3,-16(fp)
 10005d0:	00bfff84 	movi	r2,-2
 10005d4:	1884703a 	and	r2,r3,r2
 10005d8:	1001703a 	wrctl	status,r2
  
  return context;
 10005dc:	e0bffc17 	ldw	r2,-16(fp)
	unsigned int c;
	c = alt_irq_disable_all();
 10005e0:	e0bffd15 	stw	r2,-12(fp)
	usb_fifo_push(&usb_recv_queue, data, len);
 10005e4:	d127b004 	addi	r4,gp,-24896
 10005e8:	e17ffe17 	ldw	r5,-8(fp)
 10005ec:	e1bfff17 	ldw	r6,-4(fp)
 10005f0:	10051b00 	call	10051b0 <usb_fifo_push>
	alt_irq_enable_all(c);
 10005f4:	e0bffd17 	ldw	r2,-12(fp)
 10005f8:	e0bffb15 	stw	r2,-20(fp)
  status &= ~NIOS2_STATUS_PIE_MSK;
  status |= (context & NIOS2_STATUS_PIE_MSK);
  
  NIOS2_WRITE_STATUS (status);
#else
  NIOS2_WRITE_STATUS (context);
 10005fc:	e0bffb17 	ldw	r2,-20(fp)
 1000600:	1001703a 	wrctl	status,r2
	if (usb_recv_cb)
 1000604:	d0a7aa17 	ldw	r2,-24920(gp)
 1000608:	1005003a 	cmpeq	r2,r2,zero
 100060c:	1000031e 	bne	r2,zero,100061c <usb_recv_queue_push+0x70>
		usb_recv_cb(usb_recv_cb_context);
 1000610:	d0a7aa17 	ldw	r2,-24920(gp)
 1000614:	d127b517 	ldw	r4,-24876(gp)
 1000618:	103ee83a 	callr	r2
}
 100061c:	e037883a 	mov	sp,fp
 1000620:	dfc00117 	ldw	ra,4(sp)
 1000624:	df000017 	ldw	fp,0(sp)
 1000628:	dec00204 	addi	sp,sp,8
 100062c:	f800283a 	ret

01000630 <usb_send_queue_pop>:

void usb_send_queue_pop(unsigned char ** data, unsigned int * len) {
 1000630:	defff804 	addi	sp,sp,-32
 1000634:	dfc00715 	stw	ra,28(sp)
 1000638:	df000615 	stw	fp,24(sp)
 100063c:	df000604 	addi	fp,sp,24
 1000640:	e13ffe15 	stw	r4,-8(fp)
 1000644:	e17fff15 	stw	r5,-4(fp)
static ALT_INLINE alt_irq_context ALT_ALWAYS_INLINE 
       alt_irq_disable_all (void)
{
  alt_irq_context context;

  NIOS2_READ_STATUS (context);
 1000648:	0005303a 	rdctl	r2,status
 100064c:	e0bffb15 	stw	r2,-20(fp)

  NIOS2_WRITE_STATUS (context & ~NIOS2_STATUS_PIE_MSK);
 1000650:	e0fffb17 	ldw	r3,-20(fp)
 1000654:	00bfff84 	movi	r2,-2
 1000658:	1884703a 	and	r2,r3,r2
 100065c:	1001703a 	wrctl	status,r2
  
  return context;
 1000660:	e0bffb17 	ldw	r2,-20(fp)
	unsigned int c;
	unsigned int offset;

	c = alt_irq_disable_all();
 1000664:	e0bffc15 	stw	r2,-16(fp)
	usb_fifo_pop(&usb_send_queue, data, len, &offset);
 1000668:	e1fffd04 	addi	r7,fp,-12
 100066c:	d127ae04 	addi	r4,gp,-24904
 1000670:	e17ffe17 	ldw	r5,-8(fp)
 1000674:	e1bfff17 	ldw	r6,-4(fp)
 1000678:	10052cc0 	call	10052cc <usb_fifo_pop>
	alt_irq_enable_all(c);
 100067c:	e0bffc17 	ldw	r2,-16(fp)
 1000680:	e0bffa15 	stw	r2,-24(fp)
  status &= ~NIOS2_STATUS_PIE_MSK;
  status |= (context & NIOS2_STATUS_PIE_MSK);
  
  NIOS2_WRITE_STATUS (status);
#else
  NIOS2_WRITE_STATUS (context);
 1000684:	e0bffa17 	ldw	r2,-24(fp)
 1000688:	1001703a 	wrctl	status,r2

	assert(! offset);
 100068c:	e0bffd17 	ldw	r2,-12(fp)
 1000690:	1005003a 	cmpeq	r2,r2,zero
 1000694:	1000081e 	bne	r2,zero,10006b8 <usb_send_queue_pop+0x88>
 1000698:	01004074 	movhi	r4,257
 100069c:	210d2404 	addi	r4,r4,13456
 10006a0:	01401004 	movi	r5,64
 10006a4:	01804074 	movhi	r6,257
 10006a8:	318d1f04 	addi	r6,r6,13436
 10006ac:	01c04074 	movhi	r7,257
 10006b0:	39cd2704 	addi	r7,r7,13468
 10006b4:	10053cc0 	call	10053cc <__assert_func>
}
 10006b8:	e037883a 	mov	sp,fp
 10006bc:	dfc00117 	ldw	ra,4(sp)
 10006c0:	df000017 	ldw	fp,0(sp)
 10006c4:	dec00204 	addi	sp,sp,8
 10006c8:	f800283a 	ret

010006cc <usb_recv_queue_pop>:

void usb_recv_queue_pop(unsigned char ** data, unsigned int * len) {
 10006cc:	defff804 	addi	sp,sp,-32
 10006d0:	dfc00715 	stw	ra,28(sp)
 10006d4:	df000615 	stw	fp,24(sp)
 10006d8:	df000604 	addi	fp,sp,24
 10006dc:	e13ffe15 	stw	r4,-8(fp)
 10006e0:	e17fff15 	stw	r5,-4(fp)
static ALT_INLINE alt_irq_context ALT_ALWAYS_INLINE 
       alt_irq_disable_all (void)
{
  alt_irq_context context;

  NIOS2_READ_STATUS (context);
 10006e4:	0005303a 	rdctl	r2,status
 10006e8:	e0bffb15 	stw	r2,-20(fp)

  NIOS2_WRITE_STATUS (context & ~NIOS2_STATUS_PIE_MSK);
 10006ec:	e0fffb17 	ldw	r3,-20(fp)
 10006f0:	00bfff84 	movi	r2,-2
 10006f4:	1884703a 	and	r2,r3,r2
 10006f8:	1001703a 	wrctl	status,r2
  
  return context;
 10006fc:	e0bffb17 	ldw	r2,-20(fp)
	unsigned int c;
	unsigned int offset;

	c = alt_irq_disable_all();
 1000700:	e0bffc15 	stw	r2,-16(fp)
	usb_fifo_pop(&usb_recv_queue, data, len, &offset);
 1000704:	e1fffd04 	addi	r7,fp,-12
 1000708:	d127b004 	addi	r4,gp,-24896
 100070c:	e17ffe17 	ldw	r5,-8(fp)
 1000710:	e1bfff17 	ldw	r6,-4(fp)
 1000714:	10052cc0 	call	10052cc <usb_fifo_pop>
	alt_irq_enable_all(c);
 1000718:	e0bffc17 	ldw	r2,-16(fp)
 100071c:	e0bffa15 	stw	r2,-24(fp)
  status &= ~NIOS2_STATUS_PIE_MSK;
  status |= (context & NIOS2_STATUS_PIE_MSK);
  
  NIOS2_WRITE_STATUS (status);
#else
  NIOS2_WRITE_STATUS (context);
 1000720:	e0bffa17 	ldw	r2,-24(fp)
 1000724:	1001703a 	wrctl	status,r2

	assert(! offset);
 1000728:	e0bffd17 	ldw	r2,-12(fp)
 100072c:	1005003a 	cmpeq	r2,r2,zero
 1000730:	1000081e 	bne	r2,zero,1000754 <usb_recv_queue_pop+0x88>
 1000734:	01004074 	movhi	r4,257
 1000738:	210d2404 	addi	r4,r4,13456
 100073c:	014012c4 	movi	r5,75
 1000740:	01804074 	movhi	r6,257
 1000744:	318d2a04 	addi	r6,r6,13480
 1000748:	01c04074 	movhi	r7,257
 100074c:	39cd2704 	addi	r7,r7,13468
 1000750:	10053cc0 	call	10053cc <__assert_func>
}
 1000754:	e037883a 	mov	sp,fp
 1000758:	dfc00117 	ldw	ra,4(sp)
 100075c:	df000017 	ldw	fp,0(sp)
 1000760:	dec00204 	addi	sp,sp,8
 1000764:	f800283a 	ret

01000768 <usb_device_send>:

void usb_device_send(unsigned char * buf, unsigned int len) {
 1000768:	defff604 	addi	sp,sp,-40
 100076c:	dfc00915 	stw	ra,36(sp)
 1000770:	df000815 	stw	fp,32(sp)
 1000774:	df000804 	addi	fp,sp,32
 1000778:	e13ffe15 	stw	r4,-8(fp)
 100077c:	e17fff15 	stw	r5,-4(fp)
static ALT_INLINE alt_irq_context ALT_ALWAYS_INLINE 
       alt_irq_disable_all (void)
{
  alt_irq_context context;

  NIOS2_READ_STATUS (context);
 1000780:	0005303a 	rdctl	r2,status
 1000784:	e0bff915 	stw	r2,-28(fp)

  NIOS2_WRITE_STATUS (context & ~NIOS2_STATUS_PIE_MSK);
 1000788:	e0fff917 	ldw	r3,-28(fp)
 100078c:	00bfff84 	movi	r2,-2
 1000790:	1884703a 	and	r2,r3,r2
 1000794:	1001703a 	wrctl	status,r2
  
  return context;
 1000798:	e0bff917 	ldw	r2,-28(fp)
	unsigned int c;
	c = alt_irq_disable_all();
 100079c:	e0bffd15 	stw	r2,-12(fp)

	unsigned int remaining = len;
 10007a0:	e0bfff17 	ldw	r2,-4(fp)
 10007a4:	e0bffc15 	stw	r2,-16(fp)
	while (remaining) {
 10007a8:	00002f06 	br	1000868 <usb_device_send+0x100>
		// This packet size
		int size = packet_size;
 10007ac:	d0a00217 	ldw	r2,-32760(gp)
 10007b0:	e0bffb15 	stw	r2,-20(fp)
		if (remaining < size)
 10007b4:	e0fffb17 	ldw	r3,-20(fp)
 10007b8:	e0bffc17 	ldw	r2,-16(fp)
 10007bc:	10c0022e 	bgeu	r2,r3,10007c8 <usb_device_send+0x60>
			size = remaining;
 10007c0:	e0bffc17 	ldw	r2,-16(fp)
 10007c4:	e0bffb15 	stw	r2,-20(fp)

		unsigned char * new_buf = calloc(sizeof(unsigned char), size);
 10007c8:	e17ffb17 	ldw	r5,-20(fp)
 10007cc:	01000044 	movi	r4,1
 10007d0:	10054440 	call	1005444 <calloc>
 10007d4:	e0bffa15 	stw	r2,-24(fp)
		assert(new_buf);
 10007d8:	e0bffa17 	ldw	r2,-24(fp)
 10007dc:	1004c03a 	cmpne	r2,r2,zero
 10007e0:	1000081e 	bne	r2,zero,1000804 <usb_device_send+0x9c>
 10007e4:	01004074 	movhi	r4,257
 10007e8:	210d2404 	addi	r4,r4,13456
 10007ec:	01401684 	movi	r5,90
 10007f0:	01804074 	movhi	r6,257
 10007f4:	318d2f04 	addi	r6,r6,13500
 10007f8:	01c04074 	movhi	r7,257
 10007fc:	39cd3304 	addi	r7,r7,13516
 1000800:	10053cc0 	call	10053cc <__assert_func>
		memcpy(new_buf, buf + (len - remaining), size);
 1000804:	e0ffff17 	ldw	r3,-4(fp)
 1000808:	e0bffc17 	ldw	r2,-16(fp)
 100080c:	1885c83a 	sub	r2,r3,r2
 1000810:	1007883a 	mov	r3,r2
 1000814:	e0bffe17 	ldw	r2,-8(fp)
 1000818:	1887883a 	add	r3,r3,r2
 100081c:	e1bffb17 	ldw	r6,-20(fp)
 1000820:	e0bffa17 	ldw	r2,-24(fp)
 1000824:	1009883a 	mov	r4,r2
 1000828:	180b883a 	mov	r5,r3
 100082c:	1005d200 	call	1005d20 <memcpy>
		usb_send_queue_push(new_buf, size);
 1000830:	e17ffb17 	ldw	r5,-20(fp)
 1000834:	e13ffa17 	ldw	r4,-24(fp)
 1000838:	1000a200 	call	1000a20 <usb_send_queue_push>

		if (remaining == packet_size)
 100083c:	d0a00217 	ldw	r2,-32760(gp)
 1000840:	1007883a 	mov	r3,r2
 1000844:	e0bffc17 	ldw	r2,-16(fp)
 1000848:	1880031e 	bne	r3,r2,1000858 <usb_device_send+0xf0>
			usb_send_queue_push(NULL, 0);
 100084c:	0009883a 	mov	r4,zero
 1000850:	000b883a 	mov	r5,zero
 1000854:	1000a200 	call	1000a20 <usb_send_queue_push>

		remaining -= size;
 1000858:	e0bffb17 	ldw	r2,-20(fp)
 100085c:	e0fffc17 	ldw	r3,-16(fp)
 1000860:	1885c83a 	sub	r2,r3,r2
 1000864:	e0bffc15 	stw	r2,-16(fp)
void usb_device_send(unsigned char * buf, unsigned int len) {
	unsigned int c;
	c = alt_irq_disable_all();

	unsigned int remaining = len;
	while (remaining) {
 1000868:	e0bffc17 	ldw	r2,-16(fp)
 100086c:	1004c03a 	cmpne	r2,r2,zero
 1000870:	103fce1e 	bne	r2,zero,10007ac <usb_device_send+0x44>
		if (remaining == packet_size)
			usb_send_queue_push(NULL, 0);

		remaining -= size;
	}
	alt_irq_enable_all(c);
 1000874:	e0bffd17 	ldw	r2,-12(fp)
 1000878:	e0bff815 	stw	r2,-32(fp)
  status &= ~NIOS2_STATUS_PIE_MSK;
  status |= (context & NIOS2_STATUS_PIE_MSK);
  
  NIOS2_WRITE_STATUS (status);
#else
  NIOS2_WRITE_STATUS (context);
 100087c:	e0bff817 	ldw	r2,-32(fp)
 1000880:	1001703a 	wrctl	status,r2
}
 1000884:	e037883a 	mov	sp,fp
 1000888:	dfc00117 	ldw	ra,4(sp)
 100088c:	df000017 	ldw	fp,0(sp)
 1000890:	dec00204 	addi	sp,sp,8
 1000894:	f800283a 	ret

01000898 <usb_device_recv>:

int usb_device_recv(unsigned char * buf, unsigned int len) {
 1000898:	defff304 	addi	sp,sp,-52
 100089c:	dfc00c15 	stw	ra,48(sp)
 10008a0:	df000b15 	stw	fp,44(sp)
 10008a4:	df000b04 	addi	fp,sp,44
 10008a8:	e13ffe15 	stw	r4,-8(fp)
 10008ac:	e17fff15 	stw	r5,-4(fp)
	unsigned int remaining = len;
 10008b0:	e0bfff17 	ldw	r2,-4(fp)
 10008b4:	e0bffa15 	stw	r2,-24(fp)
static ALT_INLINE alt_irq_context ALT_ALWAYS_INLINE 
       alt_irq_disable_all (void)
{
  alt_irq_context context;

  NIOS2_READ_STATUS (context);
 10008b8:	0005303a 	rdctl	r2,status
 10008bc:	e0bff615 	stw	r2,-40(fp)

  NIOS2_WRITE_STATUS (context & ~NIOS2_STATUS_PIE_MSK);
 10008c0:	e0fff617 	ldw	r3,-40(fp)
 10008c4:	00bfff84 	movi	r2,-2
 10008c8:	1884703a 	and	r2,r3,r2
 10008cc:	1001703a 	wrctl	status,r2
  
  return context;
 10008d0:	e0bff617 	ldw	r2,-40(fp)

	unsigned int c;
	c = alt_irq_disable_all();
 10008d4:	e0bff915 	stw	r2,-28(fp)
	while (remaining) {
 10008d8:	00004206 	br	10009e4 <usb_device_recv+0x14c>
		// Get pointer to next packet
		usb_packet * packet = usb_fifo_peek(&usb_recv_queue);
 10008dc:	d127b004 	addi	r4,gp,-24896
 10008e0:	10053a40 	call	10053a4 <usb_fifo_peek>
 10008e4:	e0bff815 	stw	r2,-32(fp)

		if (!packet)
 10008e8:	e0bff817 	ldw	r2,-32(fp)
 10008ec:	1005003a 	cmpeq	r2,r2,zero
 10008f0:	10003f1e 	bne	r2,zero,10009f0 <usb_device_recv+0x158>
			break;

		unsigned int left_in_packet = packet->len - packet->offset;
 10008f4:	e0bff817 	ldw	r2,-32(fp)
 10008f8:	10c00017 	ldw	r3,0(r2)
 10008fc:	e0bff817 	ldw	r2,-32(fp)
 1000900:	10800117 	ldw	r2,4(r2)
 1000904:	1885c83a 	sub	r2,r3,r2
 1000908:	e0bff715 	stw	r2,-36(fp)

		if (left_in_packet <= remaining) {
 100090c:	e0fff717 	ldw	r3,-36(fp)
 1000910:	e0bffa17 	ldw	r2,-24(fp)
 1000914:	10c01c36 	bltu	r2,r3,1000988 <usb_device_recv+0xf0>
			// Pop packet
			unsigned char * packet_data;
			unsigned int packet_len;
			unsigned int packet_offset;
			usb_fifo_pop(&usb_recv_queue, &packet_data, &packet_len,
 1000918:	e17ffb04 	addi	r5,fp,-20
 100091c:	e1bffc04 	addi	r6,fp,-16
 1000920:	e1fffd04 	addi	r7,fp,-12
 1000924:	d127b004 	addi	r4,gp,-24896
 1000928:	10052cc0 	call	10052cc <usb_fifo_pop>
					&packet_offset);
			memcpy(buf + (len - remaining), packet_data + packet_offset,
 100092c:	e0ffff17 	ldw	r3,-4(fp)
 1000930:	e0bffa17 	ldw	r2,-24(fp)
 1000934:	1885c83a 	sub	r2,r3,r2
 1000938:	1007883a 	mov	r3,r2
 100093c:	e0bffe17 	ldw	r2,-8(fp)
 1000940:	1889883a 	add	r4,r3,r2
 1000944:	e0fffb17 	ldw	r3,-20(fp)
 1000948:	e0bffd17 	ldw	r2,-12(fp)
 100094c:	188b883a 	add	r5,r3,r2
 1000950:	e0fffc17 	ldw	r3,-16(fp)
 1000954:	e0bffd17 	ldw	r2,-12(fp)
 1000958:	1885c83a 	sub	r2,r3,r2
 100095c:	100d883a 	mov	r6,r2
 1000960:	1005d200 	call	1005d20 <memcpy>
					packet_len - packet_offset);
			free(packet_data);
 1000964:	e13ffb17 	ldw	r4,-20(fp)
 1000968:	10055b80 	call	10055b8 <free>
			remaining -= packet_len - packet_offset;
 100096c:	e0fffc17 	ldw	r3,-16(fp)
 1000970:	e0bffd17 	ldw	r2,-12(fp)
 1000974:	1887c83a 	sub	r3,r3,r2
 1000978:	e0bffa17 	ldw	r2,-24(fp)
 100097c:	10c5c83a 	sub	r2,r2,r3
 1000980:	e0bffa15 	stw	r2,-24(fp)
 1000984:	00001706 	br	10009e4 <usb_device_recv+0x14c>
		} else {
			// Take partial packet
			memcpy(buf + (len - remaining), packet->data + packet->offset,
 1000988:	e0ffff17 	ldw	r3,-4(fp)
 100098c:	e0bffa17 	ldw	r2,-24(fp)
 1000990:	1885c83a 	sub	r2,r3,r2
 1000994:	1007883a 	mov	r3,r2
 1000998:	e0bffe17 	ldw	r2,-8(fp)
 100099c:	1889883a 	add	r4,r3,r2
 10009a0:	e0bff817 	ldw	r2,-32(fp)
 10009a4:	10c00217 	ldw	r3,8(r2)
 10009a8:	e0bff817 	ldw	r2,-32(fp)
 10009ac:	10800117 	ldw	r2,4(r2)
 10009b0:	1885883a 	add	r2,r3,r2
 10009b4:	100b883a 	mov	r5,r2
 10009b8:	e1bffa17 	ldw	r6,-24(fp)
 10009bc:	1005d200 	call	1005d20 <memcpy>
					remaining);
			packet->offset += remaining;
 10009c0:	e0bff817 	ldw	r2,-32(fp)
 10009c4:	10800117 	ldw	r2,4(r2)
 10009c8:	1007883a 	mov	r3,r2
 10009cc:	e0bffa17 	ldw	r2,-24(fp)
 10009d0:	1885883a 	add	r2,r3,r2
 10009d4:	1007883a 	mov	r3,r2
 10009d8:	e0bff817 	ldw	r2,-32(fp)
 10009dc:	10c00115 	stw	r3,4(r2)
			remaining = 0;
 10009e0:	e03ffa15 	stw	zero,-24(fp)
int usb_device_recv(unsigned char * buf, unsigned int len) {
	unsigned int remaining = len;

	unsigned int c;
	c = alt_irq_disable_all();
	while (remaining) {
 10009e4:	e0bffa17 	ldw	r2,-24(fp)
 10009e8:	1004c03a 	cmpne	r2,r2,zero
 10009ec:	103fbb1e 	bne	r2,zero,10008dc <usb_device_recv+0x44>
			packet->offset += remaining;
			remaining = 0;
		}
	}

	alt_irq_enable_all(c);
 10009f0:	e0bff917 	ldw	r2,-28(fp)
 10009f4:	e0bff515 	stw	r2,-44(fp)
  status &= ~NIOS2_STATUS_PIE_MSK;
  status |= (context & NIOS2_STATUS_PIE_MSK);
  
  NIOS2_WRITE_STATUS (status);
#else
  NIOS2_WRITE_STATUS (context);
 10009f8:	e0bff517 	ldw	r2,-44(fp)
 10009fc:	1001703a 	wrctl	status,r2
	return len - remaining;
 1000a00:	e0ffff17 	ldw	r3,-4(fp)
 1000a04:	e0bffa17 	ldw	r2,-24(fp)
 1000a08:	1885c83a 	sub	r2,r3,r2
}
 1000a0c:	e037883a 	mov	sp,fp
 1000a10:	dfc00117 	ldw	ra,4(sp)
 1000a14:	df000017 	ldw	fp,0(sp)
 1000a18:	dec00204 	addi	sp,sp,8
 1000a1c:	f800283a 	ret

01000a20 <usb_send_queue_push>:

void usb_send_queue_push(unsigned char * data, unsigned int len) {
 1000a20:	defff904 	addi	sp,sp,-28
 1000a24:	dfc00615 	stw	ra,24(sp)
 1000a28:	df000515 	stw	fp,20(sp)
 1000a2c:	df000504 	addi	fp,sp,20
 1000a30:	e13ffe15 	stw	r4,-8(fp)
 1000a34:	e17fff15 	stw	r5,-4(fp)
static ALT_INLINE alt_irq_context ALT_ALWAYS_INLINE 
       alt_irq_disable_all (void)
{
  alt_irq_context context;

  NIOS2_READ_STATUS (context);
 1000a38:	0005303a 	rdctl	r2,status
 1000a3c:	e0bffc15 	stw	r2,-16(fp)

  NIOS2_WRITE_STATUS (context & ~NIOS2_STATUS_PIE_MSK);
 1000a40:	e0fffc17 	ldw	r3,-16(fp)
 1000a44:	00bfff84 	movi	r2,-2
 1000a48:	1884703a 	and	r2,r3,r2
 1000a4c:	1001703a 	wrctl	status,r2
  
  return context;
 1000a50:	e0bffc17 	ldw	r2,-16(fp)
	unsigned int c;
	c = alt_irq_disable_all();
 1000a54:	e0bffd15 	stw	r2,-12(fp)
	usb_fifo_push(&usb_send_queue, data, len);
 1000a58:	d127ae04 	addi	r4,gp,-24904
 1000a5c:	e17ffe17 	ldw	r5,-8(fp)
 1000a60:	e1bfff17 	ldw	r6,-4(fp)
 1000a64:	10051b00 	call	10051b0 <usb_fifo_push>
	alt_irq_enable_all(c);
 1000a68:	e0bffd17 	ldw	r2,-12(fp)
 1000a6c:	e0bffb15 	stw	r2,-20(fp)
  status &= ~NIOS2_STATUS_PIE_MSK;
  status |= (context & NIOS2_STATUS_PIE_MSK);
  
  NIOS2_WRITE_STATUS (status);
#else
  NIOS2_WRITE_STATUS (context);
 1000a70:	e0bffb17 	ldw	r2,-20(fp)
 1000a74:	1001703a 	wrctl	status,r2
	if (usb_send_cb)
 1000a78:	d0a7ab17 	ldw	r2,-24916(gp)
 1000a7c:	1005003a 	cmpeq	r2,r2,zero
 1000a80:	1000031e 	bne	r2,zero,1000a90 <usb_send_queue_push+0x70>
		usb_send_cb(usb_send_cb_context);
 1000a84:	d0a7ab17 	ldw	r2,-24916(gp)
 1000a88:	d127b417 	ldw	r4,-24880(gp)
 1000a8c:	103ee83a 	callr	r2
}
 1000a90:	e037883a 	mov	sp,fp
 1000a94:	dfc00117 	ldw	ra,4(sp)
 1000a98:	df000017 	ldw	fp,0(sp)
 1000a9c:	dec00204 	addi	sp,sp,8
 1000aa0:	f800283a 	ret

01000aa4 <usb_send_queue_is_empty>:

int usb_send_queue_is_empty() {
 1000aa4:	defffe04 	addi	sp,sp,-8
 1000aa8:	dfc00115 	stw	ra,4(sp)
 1000aac:	df000015 	stw	fp,0(sp)
 1000ab0:	d839883a 	mov	fp,sp
	return usb_fifo_is_empty(&usb_send_queue);
 1000ab4:	d127ae04 	addi	r4,gp,-24904
 1000ab8:	10052880 	call	1005288 <usb_fifo_is_empty>
}
 1000abc:	e037883a 	mov	sp,fp
 1000ac0:	dfc00117 	ldw	ra,4(sp)
 1000ac4:	df000017 	ldw	fp,0(sp)
 1000ac8:	dec00204 	addi	sp,sp,8
 1000acc:	f800283a 	ret

01000ad0 <usb_recv_queue_is_empty>:
int usb_recv_queue_is_empty() {
 1000ad0:	defffe04 	addi	sp,sp,-8
 1000ad4:	dfc00115 	stw	ra,4(sp)
 1000ad8:	df000015 	stw	fp,0(sp)
 1000adc:	d839883a 	mov	fp,sp
	return usb_fifo_is_empty(&usb_recv_queue);
 1000ae0:	d127b004 	addi	r4,gp,-24896
 1000ae4:	10052880 	call	1005288 <usb_fifo_is_empty>
}
 1000ae8:	e037883a 	mov	sp,fp
 1000aec:	dfc00117 	ldw	ra,4(sp)
 1000af0:	df000017 	ldw	fp,0(sp)
 1000af4:	dec00204 	addi	sp,sp,8
 1000af8:	f800283a 	ret

01000afc <usb_device_init>:

void usb_device_init(alt_up_usb_dev * usb_dev, alt_u32 usb_irq_id) {
 1000afc:	defffc04 	addi	sp,sp,-16
 1000b00:	dfc00315 	stw	ra,12(sp)
 1000b04:	df000215 	stw	fp,8(sp)
 1000b08:	df000204 	addi	fp,sp,8
 1000b0c:	e13ffe15 	stw	r4,-8(fp)
 1000b10:	e17fff15 	stw	r5,-4(fp)
	ISP1362_BASE = usb_dev->base;
 1000b14:	e0bffe17 	ldw	r2,-8(fp)
 1000b18:	10800a17 	ldw	r2,40(r2)
 1000b1c:	d0a7ac15 	stw	r2,-24912(gp)

	usb_fifo_init(&usb_recv_queue);
 1000b20:	d127b004 	addi	r4,gp,-24896
 1000b24:	10051800 	call	1005180 <usb_fifo_init>
	usb_fifo_init(&usb_send_queue);
 1000b28:	d127ae04 	addi	r4,gp,-24904
 1000b2c:	10051800 	call	1005180 <usb_fifo_init>

	usb_disable_all_interrupts();
 1000b30:	10045a80 	call	10045a8 <usb_disable_all_interrupts>
	disconnect_USB();
 1000b34:	10028780 	call	1002878 <disconnect_USB>
	usleep(1000000);
 1000b38:	010003f4 	movhi	r4,15
 1000b3c:	21109004 	addi	r4,r4,16960
 1000b40:	10113640 	call	1011364 <usleep>
	Hal4D13_ResetDevice();
 1000b44:	10031700 	call	1003170 <Hal4D13_ResetDevice>
	bUSBCheck_Device_State.State_bits.DEVICE_DEFAULT_STATE = 1;
 1000b48:	d0a7b603 	ldbu	r2,-24872(gp)
 1000b4c:	10800054 	ori	r2,r2,1
 1000b50:	d0a7b605 	stb	r2,-24872(gp)
	bUSBCheck_Device_State.State_bits.DEVICE_ADDRESS_STATE = 0;
 1000b54:	d0e7b603 	ldbu	r3,-24872(gp)
 1000b58:	00bfff44 	movi	r2,-3
 1000b5c:	1884703a 	and	r2,r3,r2
 1000b60:	d0a7b605 	stb	r2,-24872(gp)
	bUSBCheck_Device_State.State_bits.DEVICE_CONFIGURATION_STATE = 0;
 1000b64:	d0e7b603 	ldbu	r3,-24872(gp)
 1000b68:	00bffec4 	movi	r2,-5
 1000b6c:	1884703a 	and	r2,r3,r2
 1000b70:	d0a7b605 	stb	r2,-24872(gp)
	bUSBCheck_Device_State.State_bits.RESET_BITS = 0;
 1000b74:	00804074 	movhi	r2,257
 1000b78:	109eee84 	addi	r2,r2,31674
 1000b7c:	10000005 	stb	zero,0(r2)
	usleep(1000000);
 1000b80:	010003f4 	movhi	r4,15
 1000b84:	21109004 	addi	r4,r4,16960
 1000b88:	10113640 	call	1011364 <usleep>
	reconnect_USB();
 1000b8c:	10029fc0 	call	10029fc <reconnect_USB>
	CHECK_CHIP_ID();
 1000b90:	1002acc0 	call	1002acc <CHECK_CHIP_ID>
	Hal4D13_AcquireD13(usb_irq_id, (void*) usb_isr);
 1000b94:	e0bfff17 	ldw	r2,-4(fp)
 1000b98:	11003fcc 	andi	r4,r2,255
 1000b9c:	01404034 	movhi	r5,256
 1000ba0:	29519c04 	addi	r5,r5,18032
 1000ba4:	10031340 	call	1003134 <Hal4D13_AcquireD13>
	usb_reenable_all_interrupts();
 1000ba8:	10045f80 	call	10045f8 <usb_reenable_all_interrupts>
	bD13flags.bits.verbose = 1;
 1000bac:	d0a7ad17 	ldw	r2,-24908(gp)
 1000bb0:	10804034 	orhi	r2,r2,256
 1000bb4:	d0a7ad15 	stw	r2,-24908(gp)
	usb_register_send_callback(usb_check_send, NULL);
 1000bb8:	01004034 	movhi	r4,256
 1000bbc:	21138c04 	addi	r4,r4,20016
 1000bc0:	000b883a 	mov	r5,zero
 1000bc4:	10005780 	call	1000578 <usb_register_send_callback>
	usb_initialized = 1;
 1000bc8:	00800044 	movi	r2,1
 1000bcc:	d0a7a915 	stw	r2,-24924(gp)
}
 1000bd0:	e037883a 	mov	sp,fp
 1000bd4:	dfc00117 	ldw	ra,4(sp)
 1000bd8:	df000017 	ldw	fp,0(sp)
 1000bdc:	dec00204 	addi	sp,sp,8
 1000be0:	f800283a 	ret

01000be4 <usb_device_poll>:

void usb_device_poll() {
 1000be4:	defffe04 	addi	sp,sp,-8
 1000be8:	dfc00115 	stw	ra,4(sp)
 1000bec:	df000015 	stw	fp,0(sp)
 1000bf0:	d839883a 	mov	fp,sp
	if (!usb_initialized) {
 1000bf4:	d0a7a917 	ldw	r2,-24924(gp)
 1000bf8:	1004c03a 	cmpne	r2,r2,zero
 1000bfc:	1000051e 	bne	r2,zero,1000c14 <usb_device_poll+0x30>
		printf("You called usb_device_poll before calling usb_device_init().  Exiting program.\n");
 1000c00:	01004074 	movhi	r4,257
 1000c04:	210d3504 	addi	r4,r4,13524
 1000c08:	1005f940 	call	1005f94 <puts>
		exit(-1);
 1000c0c:	013fffc4 	movi	r4,-1
 1000c10:	10055140 	call	1005514 <exit>
	}
	if (bUSBCheck_Device_State.State_bits.RESET_BITS == 1) {
 1000c14:	00804074 	movhi	r2,257
 1000c18:	109eee84 	addi	r2,r2,31674
 1000c1c:	10800003 	ldbu	r2,0(r2)
 1000c20:	10803fcc 	andi	r2,r2,255
 1000c24:	10800058 	cmpnei	r2,r2,1
 1000c28:	1000021e 	bne	r2,zero,1000c34 <usb_device_poll+0x50>
		usb_disable_all_interrupts();
 1000c2c:	10045a80 	call	10045a8 <usb_disable_all_interrupts>
		return;
 1000c30:	00002306 	br	1000cc0 <usb_device_poll+0xdc>
	}
	if (bD13flags.bits.suspend) {
 1000c34:	d0a7ad17 	ldw	r2,-24908(gp)
 1000c38:	1080008c 	andi	r2,r2,2
 1000c3c:	1005003a 	cmpeq	r2,r2,zero
 1000c40:	1000071e 	bne	r2,zero,1000c60 <usb_device_poll+0x7c>
		usb_disable_all_interrupts();
 1000c44:	10045a80 	call	10045a8 <usb_disable_all_interrupts>
		bD13flags.bits.suspend = 0;
 1000c48:	d0a7ad17 	ldw	r2,-24908(gp)
 1000c4c:	00ffff44 	movi	r3,-3
 1000c50:	10c4703a 	and	r2,r2,r3
 1000c54:	d0a7ad15 	stw	r2,-24908(gp)
		usb_reenable_all_interrupts();
 1000c58:	10045f80 	call	10045f8 <usb_reenable_all_interrupts>
		suspend_change();
 1000c5c:	1002a280 	call	1002a28 <suspend_change>
	} // Suspend Change Handler
	if (bD13flags.bits.DCP_state == USBFSM4DCP_SETUPPROC) {
 1000c60:	d0a7ad17 	ldw	r2,-24908(gp)
 1000c64:	1083c00c 	andi	r2,r2,3840
 1000c68:	10814018 	cmpnei	r2,r2,1280
 1000c6c:	1000031e 	bne	r2,zero,1000c7c <usb_device_poll+0x98>
		usb_disable_all_interrupts();
 1000c70:	10045a80 	call	10045a8 <usb_disable_all_interrupts>
		SetupToken_Handler();
 1000c74:	10024180 	call	1002418 <SetupToken_Handler>
		usb_reenable_all_interrupts();
 1000c78:	10045f80 	call	10045f8 <usb_reenable_all_interrupts>
	} // Setup Token Handler
	if ((bD13flags.bits.DCP_state == USBFSM4DCP_REQUESTPROC)
 1000c7c:	d0a7ad17 	ldw	r2,-24908(gp)
 1000c80:	1083c00c 	andi	r2,r2,3840
 1000c84:	1080c018 	cmpnei	r2,r2,768
 1000c88:	10000d1e 	bne	r2,zero,1000cc0 <usb_device_poll+0xdc>
 1000c8c:	00804074 	movhi	r2,257
 1000c90:	109f0c04 	addi	r2,r2,31792
 1000c94:	10800003 	ldbu	r2,0(r2)
 1000c98:	10803fcc 	andi	r2,r2,255
 1000c9c:	1004c03a 	cmpne	r2,r2,zero
 1000ca0:	1000071e 	bne	r2,zero,1000cc0 <usb_device_poll+0xdc>
			&& !ControlData.Abort) {
		usb_disable_all_interrupts();
 1000ca4:	10045a80 	call	10045a8 <usb_disable_all_interrupts>
		bD13flags.bits.DCP_state = 0x00;
 1000ca8:	d0a7ad17 	ldw	r2,-24908(gp)
 1000cac:	00fc3fc4 	movi	r3,-3841
 1000cb0:	10c4703a 	and	r2,r2,r3
 1000cb4:	d0a7ad15 	stw	r2,-24908(gp)
		DeviceRequest_Handler();
 1000cb8:	100268c0 	call	100268c <DeviceRequest_Handler>
		usb_reenable_all_interrupts();
 1000cbc:	10045f80 	call	10045f8 <usb_reenable_all_interrupts>
	} // Device Request Handler
}
 1000cc0:	e037883a 	mov	sp,fp
 1000cc4:	dfc00117 	ldw	ra,4(sp)
 1000cc8:	df000017 	ldw	fp,0(sp)
 1000ccc:	dec00204 	addi	sp,sp,8
 1000cd0:	f800283a 	ret

01000cd4 <EnableIsoMode>:
unsigned short IsoInPattern=0xF8;
unsigned short IsoInPktLen=0;
unsigned short IsoInDataBuff[ISO_FIFOSIZE_512];

void EnableIsoMode()
{
 1000cd4:	defffe04 	addi	sp,sp,-8
 1000cd8:	dfc00115 	stw	ra,4(sp)
 1000cdc:	df000015 	stw	fp,0(sp)
 1000ce0:	d839883a 	mov	fp,sp
    IsoMode = 0;
 1000ce4:	d027b705 	stb	zero,-24868(gp)
    if( ControlData.DeviceRequest.wLength == 0)
 1000ce8:	00804074 	movhi	r2,257
 1000cec:	109f0c04 	addi	r2,r2,31792
 1000cf0:	1080020b 	ldhu	r2,8(r2)
 1000cf4:	10bfffcc 	andi	r2,r2,65535
 1000cf8:	1004c03a 	cmpne	r2,r2,zero
 1000cfc:	1000691e 	bne	r2,zero,1000ea4 <EnableIsoMode+0x1d0>
    {
        IsoMode &= ~ControlData.DeviceRequest.wIndex;
 1000d00:	00804074 	movhi	r2,257
 1000d04:	109f0c04 	addi	r2,r2,31792
 1000d08:	1080018b 	ldhu	r2,6(r2)
 1000d0c:	0084303a 	nor	r2,zero,r2
 1000d10:	1007883a 	mov	r3,r2
 1000d14:	d0a7b703 	ldbu	r2,-24868(gp)
 1000d18:	1884703a 	and	r2,r3,r2
 1000d1c:	d0a7b705 	stb	r2,-24868(gp)
        IsoMode |= ControlData.DeviceRequest.wValue;
 1000d20:	00804074 	movhi	r2,257
 1000d24:	109f0c04 	addi	r2,r2,31792
 1000d28:	1080010b 	ldhu	r2,4(r2)
 1000d2c:	1007883a 	mov	r3,r2
 1000d30:	d0a7b703 	ldbu	r2,-24868(gp)
 1000d34:	1884b03a 	or	r2,r3,r2
 1000d38:	d0a7b705 	stb	r2,-24868(gp)

        printf("IsoMode %x\n",IsoMode );
 1000d3c:	d0a7b703 	ldbu	r2,-24868(gp)
 1000d40:	11403fcc 	andi	r5,r2,255
 1000d44:	01004074 	movhi	r4,257
 1000d48:	210d4904 	addi	r4,r4,13604
 1000d4c:	1005e580 	call	1005e58 <printf>

        if(IsoMode&ISO_LOOP)
 1000d50:	d0a7b703 	ldbu	r2,-24868(gp)
 1000d54:	10803fcc 	andi	r2,r2,255
 1000d58:	1080010c 	andi	r2,r2,4
 1000d5c:	1005003a 	cmpeq	r2,r2,zero
 1000d60:	1000121e 	bne	r2,zero,1000dac <EnableIsoMode+0xd8>
        {

           RaiseIRQL();
 1000d64:	10045a80 	call	10045a8 <usb_disable_all_interrupts>
           bD13flags.bits.ISO_state = ISO_LOOP;
 1000d68:	01004074 	movhi	r4,257
 1000d6c:	211ee504 	addi	r4,r4,31636
 1000d70:	20c00017 	ldw	r3,0(r4)
 1000d74:	00bffff4 	movhi	r2,65535
 1000d78:	1087ffc4 	addi	r2,r2,8191
 1000d7c:	1884703a 	and	r2,r3,r2
 1000d80:	10a00014 	ori	r2,r2,32768
 1000d84:	20800015 	stw	r2,0(r4)
           LowerIRQL();
 1000d88:	10045f80 	call	10045f8 <usb_reenable_all_interrupts>

           IsoDisable =0;
 1000d8c:	d0200305 	stb	zero,-32756(gp)
           IsoInPattern = 0;
 1000d90:	d020040d 	sth	zero,-32752(gp)
           IsoInPktLen = ISO_FIFOSIZE_512;
 1000d94:	00808004 	movi	r2,512
 1000d98:	d0a7b80d 	sth	r2,-24864(gp)
           IsoOutPattern = 0;
 1000d9c:	d020038d 	sth	zero,-32754(gp)
           IsoOutPktLen = ISO_FIFOSIZE_512;
 1000da0:	00808004 	movi	r2,512
 1000da4:	d0a7b78d 	sth	r2,-24866(gp)
 1000da8:	00003a06 	br	1000e94 <EnableIsoMode+0x1c0>

        }
        else
        {

             if(IsoMode&ISO_OUT)
 1000dac:	d0a7b703 	ldbu	r2,-24868(gp)
 1000db0:	10803fcc 	andi	r2,r2,255
 1000db4:	1080008c 	andi	r2,r2,2
 1000db8:	1005003a 	cmpeq	r2,r2,zero
 1000dbc:	1000151e 	bne	r2,zero,1000e14 <EnableIsoMode+0x140>
             {

               RaiseIRQL();
 1000dc0:	10045a80 	call	10045a8 <usb_disable_all_interrupts>
               bD13flags.bits.ISO_state = ISO_OUT;
 1000dc4:	01004074 	movhi	r4,257
 1000dc8:	211ee504 	addi	r4,r4,31636
 1000dcc:	20c00017 	ldw	r3,0(r4)
 1000dd0:	00bffff4 	movhi	r2,65535
 1000dd4:	1087ffc4 	addi	r2,r2,8191
 1000dd8:	1884703a 	and	r2,r3,r2
 1000ddc:	10900014 	ori	r2,r2,16384
 1000de0:	20800015 	stw	r2,0(r4)
               LowerIRQL();
 1000de4:	10045f80 	call	10045f8 <usb_reenable_all_interrupts>

               IsoDisable =0;
 1000de8:	d0200305 	stb	zero,-32756(gp)
               IsoOutPattern = 0;
 1000dec:	d020038d 	sth	zero,-32754(gp)
               IsoOutPktLen = ISO_FIFOSIZE_512;
 1000df0:	00808004 	movi	r2,512
 1000df4:	d0a7b78d 	sth	r2,-24866(gp)
               printf("Iso-Out Pattern %x, PktLen %u bytes\n",IsoInPattern,IsoOutPktLen);
 1000df8:	d0a0040b 	ldhu	r2,-32752(gp)
 1000dfc:	117fffcc 	andi	r5,r2,65535
 1000e00:	d0a7b78b 	ldhu	r2,-24866(gp)
 1000e04:	11bfffcc 	andi	r6,r2,65535
 1000e08:	01004074 	movhi	r4,257
 1000e0c:	210d4c04 	addi	r4,r4,13616
 1000e10:	1005e580 	call	1005e58 <printf>

             }
             if(IsoMode&ISO_IN)
 1000e14:	d0a7b703 	ldbu	r2,-24868(gp)
 1000e18:	10803fcc 	andi	r2,r2,255
 1000e1c:	1080004c 	andi	r2,r2,1
 1000e20:	10803fcc 	andi	r2,r2,255
 1000e24:	1005003a 	cmpeq	r2,r2,zero
 1000e28:	10001a1e 	bne	r2,zero,1000e94 <EnableIsoMode+0x1c0>
             {
                bD13flags.bits.ISO_state = ISO_IN;
 1000e2c:	01004074 	movhi	r4,257
 1000e30:	211ee504 	addi	r4,r4,31636
 1000e34:	20c00017 	ldw	r3,0(r4)
 1000e38:	00bffff4 	movhi	r2,65535
 1000e3c:	1087ffc4 	addi	r2,r2,8191
 1000e40:	1884703a 	and	r2,r3,r2
 1000e44:	10880014 	ori	r2,r2,8192
 1000e48:	20800015 	stw	r2,0(r4)

               IsoDisable =0;
 1000e4c:	d0200305 	stb	zero,-32756(gp)
               IsoInPattern = 0;
 1000e50:	d020040d 	sth	zero,-32752(gp)
               IsoInPktLen = ISO_FIFOSIZE_512;
 1000e54:	00808004 	movi	r2,512
 1000e58:	d0a7b80d 	sth	r2,-24864(gp)

                IOWR(ISP1362_BASE,D13_COMMAND_PORT, D13CMD_EP_VALID_BUF+EPINDEX4EP06);
 1000e5c:	00804074 	movhi	r2,257
 1000e60:	109ee404 	addi	r2,r2,31632
 1000e64:	10800017 	ldw	r2,0(r2)
 1000e68:	10800304 	addi	r2,r2,12
 1000e6c:	1007883a 	mov	r3,r2
 1000e70:	008019c4 	movi	r2,103
 1000e74:	18800035 	stwio	r2,0(r3)
                printf("Iso-IN  Pattern %x, PktLen %u bytes\n",IsoInPattern,IsoInPktLen);
 1000e78:	d0a0040b 	ldhu	r2,-32752(gp)
 1000e7c:	117fffcc 	andi	r5,r2,65535
 1000e80:	d0a7b80b 	ldhu	r2,-24864(gp)
 1000e84:	11bfffcc 	andi	r6,r2,65535
 1000e88:	01004074 	movhi	r4,257
 1000e8c:	210d5604 	addi	r4,r4,13656
 1000e90:	1005e580 	call	1005e58 <printf>
             }

        }

        Chap9_SingleTransmitEP0(0, 0);
 1000e94:	0009883a 	mov	r4,zero
 1000e98:	000b883a 	mov	r5,zero
 1000e9c:	10022000 	call	1002200 <Chap9_SingleTransmitEP0>
 1000ea0:	00000106 	br	1000ea8 <EnableIsoMode+0x1d4>
    }
    else
    {
        Chap9_StallEP0();
 1000ea4:	10020a80 	call	10020a8 <Chap9_StallEP0>
    }
}
 1000ea8:	e037883a 	mov	sp,fp
 1000eac:	dfc00117 	ldw	ra,4(sp)
 1000eb0:	df000017 	ldw	fp,0(sp)
 1000eb4:	dec00204 	addi	sp,sp,8
 1000eb8:	f800283a 	ret

01000ebc <Wait4Ns>:


void Wait4Ns( unsigned long timeNs)
{
 1000ebc:	defffd04 	addi	sp,sp,-12
 1000ec0:	dfc00215 	stw	ra,8(sp)
 1000ec4:	df000115 	stw	fp,4(sp)
 1000ec8:	df000104 	addi	fp,sp,4
 1000ecc:	e13fff15 	stw	r4,-4(fp)
    usleep(timeNs);
 1000ed0:	e13fff17 	ldw	r4,-4(fp)
 1000ed4:	10113640 	call	1011364 <usleep>
}
 1000ed8:	e037883a 	mov	sp,fp
 1000edc:	dfc00117 	ldw	ra,4(sp)
 1000ee0:	df000017 	ldw	fp,0(sp)
 1000ee4:	dec00204 	addi	sp,sp,8
 1000ee8:	f800283a 	ret

01000eec <ISOLOOP>:

USHORT ISOLOOP(UCHAR bOUTEPIndex, UCHAR bINEPIndex, USHORT len)
{
 1000eec:	defefa04 	addi	sp,sp,-1048
 1000ef0:	dfc10515 	stw	ra,1044(sp)
 1000ef4:	df010415 	stw	fp,1040(sp)
 1000ef8:	df010404 	addi	fp,sp,1040
 1000efc:	e13ffd05 	stb	r4,-12(fp)
 1000f00:	e17ffe05 	stb	r5,-8(fp)
 1000f04:	e1bfff0d 	sth	r6,-4(fp)
    USHORT  ISOBuffer[512];
    UCHAR   ep_last;
    USHORT  j=0;
 1000f08:	e03efc0d 	sth	zero,-1040(fp)

    ep_last = (UCHAR)Hal4D13_GetEndpointStatusWInteruptClear(bOUTEPIndex);
 1000f0c:	e13ffd03 	ldbu	r4,-12(fp)
 1000f10:	1003cdc0 	call	1003cdc <Hal4D13_GetEndpointStatusWInteruptClear>
 1000f14:	e0befc85 	stb	r2,-1038(fp)
    if(ep_last & 0x60)
 1000f18:	e0befc83 	ldbu	r2,-1038(fp)
 1000f1c:	1080180c 	andi	r2,r2,96
 1000f20:	1005003a 	cmpeq	r2,r2,zero
 1000f24:	1000091e 	bne	r2,zero,1000f4c <ISOLOOP+0x60>
    {
        j = Hal4D13_ReadISOEndpoint(bOUTEPIndex, ISOBuffer, len);
 1000f28:	e13ffd03 	ldbu	r4,-12(fp)
 1000f2c:	e1bfff0b 	ldhu	r6,-4(fp)
 1000f30:	e17efd04 	addi	r5,fp,-1036
 1000f34:	1000f640 	call	1000f64 <Hal4D13_ReadISOEndpoint>
 1000f38:	e0befc0d 	sth	r2,-1040(fp)
        Hal4D13_WriteISOEndpoint(bINEPIndex, ISOBuffer, j);
 1000f3c:	e13ffe03 	ldbu	r4,-8(fp)
 1000f40:	e1befc0b 	ldhu	r6,-1040(fp)
 1000f44:	e17efd04 	addi	r5,fp,-1036
 1000f48:	10010480 	call	1001048 <Hal4D13_WriteISOEndpoint>
    }

    return j;
 1000f4c:	e0befc0b 	ldhu	r2,-1040(fp)
}
 1000f50:	e037883a 	mov	sp,fp
 1000f54:	dfc00117 	ldw	ra,4(sp)
 1000f58:	df000017 	ldw	fp,0(sp)
 1000f5c:	dec00204 	addi	sp,sp,8
 1000f60:	f800283a 	ret

01000f64 <Hal4D13_ReadISOEndpoint>:

USHORT Hal4D13_ReadISOEndpoint(UCHAR bEPIndex, USHORT ISOBuffer[512], USHORT len)
{
 1000f64:	defffb04 	addi	sp,sp,-20
 1000f68:	df000415 	stw	fp,16(sp)
 1000f6c:	df000404 	addi	fp,sp,16
 1000f70:	e17ffe15 	stw	r5,-8(fp)
 1000f74:	e13ffd05 	stb	r4,-12(fp)
 1000f78:	e1bfff0d 	sth	r6,-4(fp)
    USHORT i, j;

    IOWR(ISP1362_BASE,D13_COMMAND_PORT, D13CMD_EP_RD_FIFO + bEPIndex);
 1000f7c:	00804074 	movhi	r2,257
 1000f80:	109ee404 	addi	r2,r2,31632
 1000f84:	10800017 	ldw	r2,0(r2)
 1000f88:	11000304 	addi	r4,r2,12
 1000f8c:	e0bffd03 	ldbu	r2,-12(fp)
 1000f90:	10c00404 	addi	r3,r2,16
 1000f94:	2005883a 	mov	r2,r4
 1000f98:	10c00035 	stwio	r3,0(r2)

    j = IORD(ISP1362_BASE,D13_DATA_PORT);
 1000f9c:	00804074 	movhi	r2,257
 1000fa0:	109ee404 	addi	r2,r2,31632
 1000fa4:	10800017 	ldw	r2,0(r2)
 1000fa8:	10800204 	addi	r2,r2,8
 1000fac:	10800037 	ldwio	r2,0(r2)
 1000fb0:	e0bffc0d 	sth	r2,-16(fp)

    if(j != len)
 1000fb4:	e0fffc0b 	ldhu	r3,-16(fp)
 1000fb8:	e0bfff0b 	ldhu	r2,-4(fp)
 1000fbc:	18800226 	beq	r3,r2,1000fc8 <Hal4D13_ReadISOEndpoint+0x64>
        j = len;
 1000fc0:	e0bfff0b 	ldhu	r2,-4(fp)
 1000fc4:	e0bffc0d 	sth	r2,-16(fp)

    for(i=0; i<j; i++)
 1000fc8:	e03ffc8d 	sth	zero,-14(fp)
 1000fcc:	00000e06 	br	1001008 <Hal4D13_ReadISOEndpoint+0xa4>
    {
        ISOBuffer[i] = IORD(ISP1362_BASE,D13_DATA_PORT);
 1000fd0:	e0bffc8b 	ldhu	r2,-14(fp)
 1000fd4:	1085883a 	add	r2,r2,r2
 1000fd8:	1007883a 	mov	r3,r2
 1000fdc:	e0bffe17 	ldw	r2,-8(fp)
 1000fe0:	1887883a 	add	r3,r3,r2
 1000fe4:	00804074 	movhi	r2,257
 1000fe8:	109ee404 	addi	r2,r2,31632
 1000fec:	10800017 	ldw	r2,0(r2)
 1000ff0:	10800204 	addi	r2,r2,8
 1000ff4:	10800037 	ldwio	r2,0(r2)
 1000ff8:	1880000d 	sth	r2,0(r3)
    j = IORD(ISP1362_BASE,D13_DATA_PORT);

    if(j != len)
        j = len;

    for(i=0; i<j; i++)
 1000ffc:	e0bffc8b 	ldhu	r2,-14(fp)
 1001000:	10800044 	addi	r2,r2,1
 1001004:	e0bffc8d 	sth	r2,-14(fp)
 1001008:	e0fffc8b 	ldhu	r3,-14(fp)
 100100c:	e0bffc0b 	ldhu	r2,-16(fp)
 1001010:	18bfef36 	bltu	r3,r2,1000fd0 <Hal4D13_ReadISOEndpoint+0x6c>
        ISOBuffer[i] = IORD(ISP1362_BASE,D13_DATA_PORT);

    }

    /* Clear Buffer */
    IOWR(ISP1362_BASE,D13_COMMAND_PORT, D13CMD_EP_CLEAR_BUF+bEPIndex);
 1001014:	00804074 	movhi	r2,257
 1001018:	109ee404 	addi	r2,r2,31632
 100101c:	10800017 	ldw	r2,0(r2)
 1001020:	11000304 	addi	r4,r2,12
 1001024:	e0bffd03 	ldbu	r2,-12(fp)
 1001028:	10c01c04 	addi	r3,r2,112
 100102c:	2005883a 	mov	r2,r4
 1001030:	10c00035 	stwio	r3,0(r2)

    return j;
 1001034:	e0bffc0b 	ldhu	r2,-16(fp)
}
 1001038:	e037883a 	mov	sp,fp
 100103c:	df000017 	ldw	fp,0(sp)
 1001040:	dec00104 	addi	sp,sp,4
 1001044:	f800283a 	ret

01001048 <Hal4D13_WriteISOEndpoint>:

USHORT Hal4D13_WriteISOEndpoint(UCHAR bEPIndex, USHORT ISOBuffer[512], USHORT len)
{
 1001048:	defffa04 	addi	sp,sp,-24
 100104c:	dfc00515 	stw	ra,20(sp)
 1001050:	df000415 	stw	fp,16(sp)
 1001054:	df000404 	addi	fp,sp,16
 1001058:	e17ffe15 	stw	r5,-8(fp)
 100105c:	e13ffd05 	stb	r4,-12(fp)
 1001060:	e1bfff0d 	sth	r6,-4(fp)
    USHORT i;

    if(bD13flags.bits.At_IRQL1 == 0)
 1001064:	00804074 	movhi	r2,257
 1001068:	109ee504 	addi	r2,r2,31636
 100106c:	10800017 	ldw	r2,0(r2)
 1001070:	1080010c 	andi	r2,r2,4
 1001074:	1004c03a 	cmpne	r2,r2,zero
 1001078:	1000011e 	bne	r2,zero,1001080 <Hal4D13_WriteISOEndpoint+0x38>
        RaiseIRQL();
 100107c:	10045a80 	call	10045a8 <usb_disable_all_interrupts>

    IOWR(ISP1362_BASE,D13_COMMAND_PORT, D13CMD_EP_WR_FIFO + bEPIndex);
 1001080:	00804074 	movhi	r2,257
 1001084:	109ee404 	addi	r2,r2,31632
 1001088:	10800017 	ldw	r2,0(r2)
 100108c:	10800304 	addi	r2,r2,12
 1001090:	e0fffd03 	ldbu	r3,-12(fp)
 1001094:	10c00035 	stwio	r3,0(r2)

    IOWR(ISP1362_BASE,D13_DATA_PORT, 512);
 1001098:	00804074 	movhi	r2,257
 100109c:	109ee404 	addi	r2,r2,31632
 10010a0:	10800017 	ldw	r2,0(r2)
 10010a4:	10800204 	addi	r2,r2,8
 10010a8:	1007883a 	mov	r3,r2
 10010ac:	00808004 	movi	r2,512
 10010b0:	18800035 	stwio	r2,0(r3)

    /* Write Buffer */

    for(i=0; i<len; i++)
 10010b4:	e03ffc0d 	sth	zero,-16(fp)
 10010b8:	00001006 	br	10010fc <Hal4D13_WriteISOEndpoint+0xb4>
    {
        IOWR(ISP1362_BASE,D13_DATA_PORT, ISOBuffer[i]);
 10010bc:	00804074 	movhi	r2,257
 10010c0:	109ee404 	addi	r2,r2,31632
 10010c4:	10800017 	ldw	r2,0(r2)
 10010c8:	11000204 	addi	r4,r2,8
 10010cc:	e0bffc0b 	ldhu	r2,-16(fp)
 10010d0:	1085883a 	add	r2,r2,r2
 10010d4:	1007883a 	mov	r3,r2
 10010d8:	e0bffe17 	ldw	r2,-8(fp)
 10010dc:	1885883a 	add	r2,r3,r2
 10010e0:	1080000b 	ldhu	r2,0(r2)
 10010e4:	10ffffcc 	andi	r3,r2,65535
 10010e8:	2005883a 	mov	r2,r4
 10010ec:	10c00035 	stwio	r3,0(r2)

    IOWR(ISP1362_BASE,D13_DATA_PORT, 512);

    /* Write Buffer */

    for(i=0; i<len; i++)
 10010f0:	e0bffc0b 	ldhu	r2,-16(fp)
 10010f4:	10800044 	addi	r2,r2,1
 10010f8:	e0bffc0d 	sth	r2,-16(fp)
 10010fc:	e0fffc0b 	ldhu	r3,-16(fp)
 1001100:	e0bfff0b 	ldhu	r2,-4(fp)
 1001104:	18bfed36 	bltu	r3,r2,10010bc <Hal4D13_WriteISOEndpoint+0x74>
        IOWR(ISP1362_BASE,D13_DATA_PORT, ISOBuffer[i]);
    }



    if(bD13flags.bits.At_IRQL1 == 0)
 1001108:	00804074 	movhi	r2,257
 100110c:	109ee504 	addi	r2,r2,31636
 1001110:	10800017 	ldw	r2,0(r2)
 1001114:	1080010c 	andi	r2,r2,4
 1001118:	1004c03a 	cmpne	r2,r2,zero
 100111c:	1000011e 	bne	r2,zero,1001124 <Hal4D13_WriteISOEndpoint+0xdc>
        LowerIRQL();
 1001120:	10045f80 	call	10045f8 <usb_reenable_all_interrupts>

    return i;
 1001124:	e0bffc0b 	ldhu	r2,-16(fp)
}
 1001128:	e037883a 	mov	sp,fp
 100112c:	dfc00117 	ldw	ra,4(sp)
 1001130:	df000017 	ldw	fp,0(sp)
 1001134:	dec00204 	addi	sp,sp,8
 1001138:	f800283a 	ret

0100113c <Chap9_GetStatus>:
// *************************************************************************
// USB standard device requests
// *************************************************************************

void Chap9_GetStatus(void)
{
 100113c:	defffa04 	addi	sp,sp,-24
 1001140:	dfc00515 	stw	ra,20(sp)
 1001144:	df000415 	stw	fp,16(sp)
 1001148:	df000404 	addi	fp,sp,16
    UCHAR   endp, txdat[2];
    UCHAR   c;
    UCHAR   bRecipient = ControlData.DeviceRequest.bmRequestType & USB_RECIPIENT;
 100114c:	00804074 	movhi	r2,257
 1001150:	109f0c04 	addi	r2,r2,31792
 1001154:	10800083 	ldbu	r2,2(r2)
 1001158:	108007cc 	andi	r2,r2,31
 100115c:	e0bffc05 	stb	r2,-16(fp)


    if(bUSBCheck_Device_State.State_bits.DEVICE_ADDRESS_STATE)
 1001160:	00804074 	movhi	r2,257
 1001164:	109eee04 	addi	r2,r2,31672
 1001168:	10800003 	ldbu	r2,0(r2)
 100116c:	1080008c 	andi	r2,r2,2
 1001170:	10803fcc 	andi	r2,r2,255
 1001174:	1005003a 	cmpeq	r2,r2,zero
 1001178:	10003e1e 	bne	r2,zero,1001274 <Chap9_GetStatus+0x138>
    {
    switch(bRecipient)
 100117c:	e0bffc03 	ldbu	r2,-16(fp)
 1001180:	e0bfff15 	stw	r2,-4(fp)
 1001184:	e0ffff17 	ldw	r3,-4(fp)
 1001188:	18800060 	cmpeqi	r2,r3,1
 100118c:	1000171e 	bne	r2,zero,10011ec <Chap9_GetStatus+0xb0>
 1001190:	e0ffff17 	ldw	r3,-4(fp)
 1001194:	188000a0 	cmpeqi	r2,r3,2
 1001198:	1000161e 	bne	r2,zero,10011f4 <Chap9_GetStatus+0xb8>
 100119c:	e0ffff17 	ldw	r3,-4(fp)
 10011a0:	1805003a 	cmpeq	r2,r3,zero
 10011a4:	1000011e 	bne	r2,zero,10011ac <Chap9_GetStatus+0x70>
 10011a8:	00003006 	br	100126c <Chap9_GetStatus+0x130>
            {
            case USB_RECIPIENT_DEVICE:
                    if(bD13flags.bits.remote_wakeup == 1)
 10011ac:	00804074 	movhi	r2,257
 10011b0:	109ee504 	addi	r2,r2,31636
 10011b4:	10800017 	ldw	r2,0(r2)
 10011b8:	1080040c 	andi	r2,r2,16
 10011bc:	1005003a 	cmpeq	r2,r2,zero
 10011c0:	1000031e 	bne	r2,zero,10011d0 <Chap9_GetStatus+0x94>
                        txdat[0] = DEVSTS_SELFPOWERED|DEVSTS_REMOTEWAKEUP;   /* remote wakeup and Self-powered */
 10011c4:	008000c4 	movi	r2,3
 10011c8:	e0bffcc5 	stb	r2,-13(fp)
 10011cc:	00000206 	br	10011d8 <Chap9_GetStatus+0x9c>
                    else
                        txdat[0] = DEVSTS_SELFPOWERED;   /* Self-powered*/
 10011d0:	00800044 	movi	r2,1
 10011d4:	e0bffcc5 	stb	r2,-13(fp)
                    txdat[1]=0;
 10011d8:	e03ffd05 	stb	zero,-12(fp)

                    Chap9_SingleTransmitEP0(txdat, 2);
 10011dc:	e13ffcc4 	addi	r4,fp,-13
 10011e0:	01400084 	movi	r5,2
 10011e4:	10022000 	call	1002200 <Chap9_SingleTransmitEP0>
                    break;
 10011e8:	00007306 	br	10013b8 <Chap9_GetStatus+0x27c>

            case USB_RECIPIENT_INTERFACE:

                    Chap9_StallEP0InControlRead();
 10011ec:	100219c0 	call	100219c <Chap9_StallEP0InControlRead>
                    break;
 10011f0:	00007106 	br	10013b8 <Chap9_GetStatus+0x27c>

            case USB_RECIPIENT_ENDPOINT:

                    if( ControlData.DeviceRequest.wIndex == 0x00 )
 10011f4:	00804074 	movhi	r2,257
 10011f8:	109f0c04 	addi	r2,r2,31792
 10011fc:	1080018b 	ldhu	r2,6(r2)
 1001200:	10bfffcc 	andi	r2,r2,65535
 1001204:	1004c03a 	cmpne	r2,r2,zero
 1001208:	1000161e 	bne	r2,zero,1001264 <Chap9_GetStatus+0x128>
                    {
                        endp = -1;
 100120c:	00bfffc4 	movi	r2,-1
 1001210:	e0bffc85 	stb	r2,-14(fp)
                        c = Hal4D13_GetEndpointStatusWOInteruptClear(endp + 1);
 1001214:	e0bffc83 	ldbu	r2,-14(fp)
 1001218:	10800044 	addi	r2,r2,1
 100121c:	11003fcc 	andi	r4,r2,255
 1001220:	1003d440 	call	1003d44 <Hal4D13_GetEndpointStatusWOInteruptClear>
 1001224:	e0bffc45 	stb	r2,-15(fp)
                        if(c & D13REG_EPSTS_STALL)
 1001228:	e0bffc43 	ldbu	r2,-15(fp)
 100122c:	10803fcc 	andi	r2,r2,255
 1001230:	1080201c 	xori	r2,r2,128
 1001234:	10bfe004 	addi	r2,r2,-128
 1001238:	1004403a 	cmpge	r2,r2,zero
 100123c:	1000031e 	bne	r2,zero,100124c <Chap9_GetStatus+0x110>
                            txdat[0] = ENDPSTS_HALT;   /* Halt */
 1001240:	00800044 	movi	r2,1
 1001244:	e0bffcc5 	stb	r2,-13(fp)
 1001248:	00000106 	br	1001250 <Chap9_GetStatus+0x114>
                        else
                            txdat[0] = 0;
 100124c:	e03ffcc5 	stb	zero,-13(fp)

                        txdat[1] = 0;
 1001250:	e03ffd05 	stb	zero,-12(fp)

                        Chap9_SingleTransmitEP0(txdat, 2);
 1001254:	e13ffcc4 	addi	r4,fp,-13
 1001258:	01400084 	movi	r5,2
 100125c:	10022000 	call	1002200 <Chap9_SingleTransmitEP0>
 1001260:	00005506 	br	10013b8 <Chap9_GetStatus+0x27c>
                    }
                    else
                        Chap9_StallEP0InControlRead();
 1001264:	100219c0 	call	100219c <Chap9_StallEP0InControlRead>

                    break;
 1001268:	00005306 	br	10013b8 <Chap9_GetStatus+0x27c>

            default:
                    Chap9_StallEP0InControlRead();
 100126c:	100219c0 	call	100219c <Chap9_StallEP0InControlRead>
 1001270:	00005106 	br	10013b8 <Chap9_GetStatus+0x27c>
    }


    else
    {
        if(ControlData.DeviceRequest.wValue == 0 && ControlData.DeviceRequest.wLength == 2 )
 1001274:	00804074 	movhi	r2,257
 1001278:	109f0c04 	addi	r2,r2,31792
 100127c:	1080010b 	ldhu	r2,4(r2)
 1001280:	10bfffcc 	andi	r2,r2,65535
 1001284:	1004c03a 	cmpne	r2,r2,zero
 1001288:	10004b1e 	bne	r2,zero,10013b8 <Chap9_GetStatus+0x27c>
 100128c:	00804074 	movhi	r2,257
 1001290:	109f0c04 	addi	r2,r2,31792
 1001294:	1080020b 	ldhu	r2,8(r2)
 1001298:	10bfffcc 	andi	r2,r2,65535
 100129c:	10800098 	cmpnei	r2,r2,2
 10012a0:	1000451e 	bne	r2,zero,10013b8 <Chap9_GetStatus+0x27c>
        {
            switch(bRecipient)
 10012a4:	e0bffc03 	ldbu	r2,-16(fp)
 10012a8:	e0bffe15 	stw	r2,-8(fp)
 10012ac:	e0fffe17 	ldw	r3,-8(fp)
 10012b0:	18800060 	cmpeqi	r2,r3,1
 10012b4:	1000171e 	bne	r2,zero,1001314 <Chap9_GetStatus+0x1d8>
 10012b8:	e0fffe17 	ldw	r3,-8(fp)
 10012bc:	188000a0 	cmpeqi	r2,r3,2
 10012c0:	10001a1e 	bne	r2,zero,100132c <Chap9_GetStatus+0x1f0>
 10012c4:	e0fffe17 	ldw	r3,-8(fp)
 10012c8:	1805003a 	cmpeq	r2,r3,zero
 10012cc:	1000011e 	bne	r2,zero,10012d4 <Chap9_GetStatus+0x198>
 10012d0:	00003806 	br	10013b4 <Chap9_GetStatus+0x278>
            {
            case USB_RECIPIENT_DEVICE:
                    if(bD13flags.bits.remote_wakeup == 1)
 10012d4:	00804074 	movhi	r2,257
 10012d8:	109ee504 	addi	r2,r2,31636
 10012dc:	10800017 	ldw	r2,0(r2)
 10012e0:	1080040c 	andi	r2,r2,16
 10012e4:	1005003a 	cmpeq	r2,r2,zero
 10012e8:	1000031e 	bne	r2,zero,10012f8 <Chap9_GetStatus+0x1bc>
                        txdat[0] = DEVSTS_SELFPOWERED|DEVSTS_REMOTEWAKEUP;   /* remote wakeup and Self-powered */
 10012ec:	008000c4 	movi	r2,3
 10012f0:	e0bffcc5 	stb	r2,-13(fp)
 10012f4:	00000206 	br	1001300 <Chap9_GetStatus+0x1c4>
                    else
                        txdat[0] = DEVSTS_SELFPOWERED;   /* Self-powered*/
 10012f8:	00800044 	movi	r2,1
 10012fc:	e0bffcc5 	stb	r2,-13(fp)
                    txdat[1]=0;
 1001300:	e03ffd05 	stb	zero,-12(fp)

                    Chap9_SingleTransmitEP0(txdat, 2);
 1001304:	e13ffcc4 	addi	r4,fp,-13
 1001308:	01400084 	movi	r5,2
 100130c:	10022000 	call	1002200 <Chap9_SingleTransmitEP0>
                    break;
 1001310:	00002906 	br	10013b8 <Chap9_GetStatus+0x27c>

            case USB_RECIPIENT_INTERFACE:
                    txdat[0]=0;
 1001314:	e03ffcc5 	stb	zero,-13(fp)
                    txdat[1]=0;
 1001318:	e03ffd05 	stb	zero,-12(fp)

                    Chap9_SingleTransmitEP0(txdat, 2);
 100131c:	e13ffcc4 	addi	r4,fp,-13
 1001320:	01400084 	movi	r5,2
 1001324:	10022000 	call	1002200 <Chap9_SingleTransmitEP0>
                    break;
 1001328:	00002306 	br	10013b8 <Chap9_GetStatus+0x27c>

            case USB_RECIPIENT_ENDPOINT:

                    if( ControlData.DeviceRequest.wIndex == 0x00 )
 100132c:	00804074 	movhi	r2,257
 1001330:	109f0c04 	addi	r2,r2,31792
 1001334:	1080018b 	ldhu	r2,6(r2)
 1001338:	10bfffcc 	andi	r2,r2,65535
 100133c:	1004c03a 	cmpne	r2,r2,zero
 1001340:	1000031e 	bne	r2,zero,1001350 <Chap9_GetStatus+0x214>
                        endp = -1;
 1001344:	00bfffc4 	movi	r2,-1
 1001348:	e0bffc85 	stb	r2,-14(fp)
 100134c:	00000506 	br	1001364 <Chap9_GetStatus+0x228>
                    else
                        endp = (UCHAR)(ControlData.DeviceRequest.wIndex & MAX_ENDPOINTS);
 1001350:	00804074 	movhi	r2,257
 1001354:	109f0c04 	addi	r2,r2,31792
 1001358:	1080018b 	ldhu	r2,6(r2)
 100135c:	108003cc 	andi	r2,r2,15
 1001360:	e0bffc85 	stb	r2,-14(fp)

                    c = Hal4D13_GetEndpointStatusWOInteruptClear(endp + 1);
 1001364:	e0bffc83 	ldbu	r2,-14(fp)
 1001368:	10800044 	addi	r2,r2,1
 100136c:	11003fcc 	andi	r4,r2,255
 1001370:	1003d440 	call	1003d44 <Hal4D13_GetEndpointStatusWOInteruptClear>
 1001374:	e0bffc45 	stb	r2,-15(fp)
                    if(c & D13REG_EPSTS_STALL)
 1001378:	e0bffc43 	ldbu	r2,-15(fp)
 100137c:	10803fcc 	andi	r2,r2,255
 1001380:	1080201c 	xori	r2,r2,128
 1001384:	10bfe004 	addi	r2,r2,-128
 1001388:	1004403a 	cmpge	r2,r2,zero
 100138c:	1000031e 	bne	r2,zero,100139c <Chap9_GetStatus+0x260>
                        txdat[0] = ENDPSTS_HALT;   /* Halt */
 1001390:	00800044 	movi	r2,1
 1001394:	e0bffcc5 	stb	r2,-13(fp)
 1001398:	00000106 	br	10013a0 <Chap9_GetStatus+0x264>
                    else
                        txdat[0] = 0;
 100139c:	e03ffcc5 	stb	zero,-13(fp)

                    txdat[1] = 0;
 10013a0:	e03ffd05 	stb	zero,-12(fp)

                    Chap9_SingleTransmitEP0(txdat, 2);
 10013a4:	e13ffcc4 	addi	r4,fp,-13
 10013a8:	01400084 	movi	r5,2
 10013ac:	10022000 	call	1002200 <Chap9_SingleTransmitEP0>
                    break;
 10013b0:	00000106 	br	10013b8 <Chap9_GetStatus+0x27c>

            default:
                    Chap9_StallEP0InControlRead();
 10013b4:	100219c0 	call	100219c <Chap9_StallEP0InControlRead>
                    break;
            }
        }
    }

}
 10013b8:	e037883a 	mov	sp,fp
 10013bc:	dfc00117 	ldw	ra,4(sp)
 10013c0:	df000017 	ldw	fp,0(sp)
 10013c4:	dec00204 	addi	sp,sp,8
 10013c8:	f800283a 	ret

010013cc <Chap9_ClearFeature>:

void Chap9_ClearFeature(void)
{
 10013cc:	defffb04 	addi	sp,sp,-20
 10013d0:	dfc00415 	stw	ra,16(sp)
 10013d4:	df000315 	stw	fp,12(sp)
 10013d8:	df000304 	addi	fp,sp,12
    UCHAR   endp;
    UCHAR   bRecipient = ControlData.DeviceRequest.bmRequestType & USB_RECIPIENT;
 10013dc:	00804074 	movhi	r2,257
 10013e0:	109f0c04 	addi	r2,r2,31792
 10013e4:	10800083 	ldbu	r2,2(r2)
 10013e8:	108007cc 	andi	r2,r2,31
 10013ec:	e0bffd85 	stb	r2,-10(fp)
    USHORT  wFeature = ControlData.DeviceRequest.wValue;
 10013f0:	00804074 	movhi	r2,257
 10013f4:	109f0c04 	addi	r2,r2,31792
 10013f8:	1080010b 	ldhu	r2,4(r2)
 10013fc:	e0bffd0d 	sth	r2,-12(fp)

    if(bUSBCheck_Device_State.State_bits.DEVICE_ADDRESS_STATE)
 1001400:	00804074 	movhi	r2,257
 1001404:	109eee04 	addi	r2,r2,31672
 1001408:	10800003 	ldbu	r2,0(r2)
 100140c:	1080008c 	andi	r2,r2,2
 1001410:	10803fcc 	andi	r2,r2,255
 1001414:	1005003a 	cmpeq	r2,r2,zero
 1001418:	1000351e 	bne	r2,zero,10014f0 <Chap9_ClearFeature+0x124>
    {
        if( ControlData.DeviceRequest.wLength == 0 )
 100141c:	00804074 	movhi	r2,257
 1001420:	109f0c04 	addi	r2,r2,31792
 1001424:	1080020b 	ldhu	r2,8(r2)
 1001428:	10bfffcc 	andi	r2,r2,65535
 100142c:	1004c03a 	cmpne	r2,r2,zero
 1001430:	10006f1e 	bne	r2,zero,10015f0 <Chap9_ClearFeature+0x224>
        {
            switch(bRecipient)
 1001434:	e0bffd83 	ldbu	r2,-10(fp)
 1001438:	e0bfff15 	stw	r2,-4(fp)
 100143c:	e0ffff17 	ldw	r3,-4(fp)
 1001440:	1805003a 	cmpeq	r2,r3,zero
 1001444:	1000041e 	bne	r2,zero,1001458 <Chap9_ClearFeature+0x8c>
 1001448:	e0ffff17 	ldw	r3,-4(fp)
 100144c:	188000a0 	cmpeqi	r2,r3,2
 1001450:	1000101e 	bne	r2,zero,1001494 <Chap9_ClearFeature+0xc8>
 1001454:	00002406 	br	10014e8 <Chap9_ClearFeature+0x11c>
            {
            case USB_RECIPIENT_DEVICE:
                        if(wFeature == USB_FEATURE_REMOTE_WAKEUP)
 1001458:	e0bffd0b 	ldhu	r2,-12(fp)
 100145c:	10800058 	cmpnei	r2,r2,1
 1001460:	10000a1e 	bne	r2,zero,100148c <Chap9_ClearFeature+0xc0>
                        {
                        bD13flags.bits.remote_wakeup = 0;
 1001464:	01004074 	movhi	r4,257
 1001468:	211ee504 	addi	r4,r4,31636
 100146c:	20c00017 	ldw	r3,0(r4)
 1001470:	00bffbc4 	movi	r2,-17
 1001474:	1884703a 	and	r2,r3,r2
 1001478:	20800015 	stw	r2,0(r4)
                        Chap9_SingleTransmitEP0(0, 0);
 100147c:	0009883a 	mov	r4,zero
 1001480:	000b883a 	mov	r5,zero
 1001484:	10022000 	call	1002200 <Chap9_SingleTransmitEP0>
 1001488:	00005906 	br	10015f0 <Chap9_ClearFeature+0x224>
                        }
                        else
                            Chap9_StallEP0InControlWrite();
 100148c:	10021380 	call	1002138 <Chap9_StallEP0InControlWrite>

                        break;
 1001490:	00005706 	br	10015f0 <Chap9_ClearFeature+0x224>



            case USB_RECIPIENT_ENDPOINT:

                        if(wFeature == USB_FEATURE_ENDPOINT_STALL)
 1001494:	e0bffd0b 	ldhu	r2,-12(fp)
 1001498:	1004c03a 	cmpne	r2,r2,zero
 100149c:	1000101e 	bne	r2,zero,10014e0 <Chap9_ClearFeature+0x114>
                        {
                            if( ControlData.DeviceRequest.wIndex == 0x00 )
 10014a0:	00804074 	movhi	r2,257
 10014a4:	109f0c04 	addi	r2,r2,31792
 10014a8:	1080018b 	ldhu	r2,6(r2)
 10014ac:	10bfffcc 	andi	r2,r2,65535
 10014b0:	1004c03a 	cmpne	r2,r2,zero
 10014b4:	1000081e 	bne	r2,zero,10014d8 <Chap9_ClearFeature+0x10c>
                            {
                                endp = 0;
 10014b8:	e03ffdc5 	stb	zero,-9(fp)
                                Hal4D13_SetEndpointStatus(endp, 0);
 10014bc:	e13ffdc3 	ldbu	r4,-9(fp)
 10014c0:	000b883a 	mov	r5,zero
 10014c4:	1003dac0 	call	1003dac <Hal4D13_SetEndpointStatus>

                                Chap9_SingleTransmitEP0(0, 0);
 10014c8:	0009883a 	mov	r4,zero
 10014cc:	000b883a 	mov	r5,zero
 10014d0:	10022000 	call	1002200 <Chap9_SingleTransmitEP0>
 10014d4:	00004606 	br	10015f0 <Chap9_ClearFeature+0x224>
                            }
                            else
                            {
                                Chap9_StallEP0InControlWrite();
 10014d8:	10021380 	call	1002138 <Chap9_StallEP0InControlWrite>
                                break;
 10014dc:	00004406 	br	10015f0 <Chap9_ClearFeature+0x224>
                            }

                        }

                        else
                            Chap9_StallEP0InControlWrite();
 10014e0:	10021380 	call	1002138 <Chap9_StallEP0InControlWrite>

                        break;
 10014e4:	00004206 	br	10015f0 <Chap9_ClearFeature+0x224>


            default:
                        Chap9_StallEP0InControlWrite();
 10014e8:	10021380 	call	1002138 <Chap9_StallEP0InControlWrite>
 10014ec:	00004006 	br	10015f0 <Chap9_ClearFeature+0x224>
    }

    else
    {

        if( ControlData.DeviceRequest.wLength == 0 )
 10014f0:	00804074 	movhi	r2,257
 10014f4:	109f0c04 	addi	r2,r2,31792
 10014f8:	1080020b 	ldhu	r2,8(r2)
 10014fc:	10bfffcc 	andi	r2,r2,65535
 1001500:	1004c03a 	cmpne	r2,r2,zero
 1001504:	10003a1e 	bne	r2,zero,10015f0 <Chap9_ClearFeature+0x224>
        {
            switch(bRecipient)
 1001508:	e0bffd83 	ldbu	r2,-10(fp)
 100150c:	e0bffe15 	stw	r2,-8(fp)
 1001510:	e0fffe17 	ldw	r3,-8(fp)
 1001514:	1805003a 	cmpeq	r2,r3,zero
 1001518:	1000041e 	bne	r2,zero,100152c <Chap9_ClearFeature+0x160>
 100151c:	e0fffe17 	ldw	r3,-8(fp)
 1001520:	188000a0 	cmpeqi	r2,r3,2
 1001524:	1000101e 	bne	r2,zero,1001568 <Chap9_ClearFeature+0x19c>
 1001528:	00003006 	br	10015ec <Chap9_ClearFeature+0x220>
            {
            case USB_RECIPIENT_DEVICE:
                if(wFeature == USB_FEATURE_REMOTE_WAKEUP)
 100152c:	e0bffd0b 	ldhu	r2,-12(fp)
 1001530:	10800058 	cmpnei	r2,r2,1
 1001534:	10000a1e 	bne	r2,zero,1001560 <Chap9_ClearFeature+0x194>
                {
                    bD13flags.bits.remote_wakeup = 0;
 1001538:	01004074 	movhi	r4,257
 100153c:	211ee504 	addi	r4,r4,31636
 1001540:	20c00017 	ldw	r3,0(r4)
 1001544:	00bffbc4 	movi	r2,-17
 1001548:	1884703a 	and	r2,r3,r2
 100154c:	20800015 	stw	r2,0(r4)
                    Chap9_SingleTransmitEP0(0, 0);
 1001550:	0009883a 	mov	r4,zero
 1001554:	000b883a 	mov	r5,zero
 1001558:	10022000 	call	1002200 <Chap9_SingleTransmitEP0>
 100155c:	00002406 	br	10015f0 <Chap9_ClearFeature+0x224>
                }
                else
                {
                    Chap9_StallEP0InControlWrite();
 1001560:	10021380 	call	1002138 <Chap9_StallEP0InControlWrite>
                }

                break;
 1001564:	00002206 	br	10015f0 <Chap9_ClearFeature+0x224>

                case USB_RECIPIENT_ENDPOINT:

                if(wFeature == USB_FEATURE_ENDPOINT_STALL)
 1001568:	e0bffd0b 	ldhu	r2,-12(fp)
 100156c:	1004c03a 	cmpne	r2,r2,zero
 1001570:	10001c1e 	bne	r2,zero,10015e4 <Chap9_ClearFeature+0x218>
                {
                    if( ControlData.DeviceRequest.wIndex == 0x00 )
 1001574:	00804074 	movhi	r2,257
 1001578:	109f0c04 	addi	r2,r2,31792
 100157c:	1080018b 	ldhu	r2,6(r2)
 1001580:	10bfffcc 	andi	r2,r2,65535
 1001584:	1004c03a 	cmpne	r2,r2,zero
 1001588:	1000031e 	bne	r2,zero,1001598 <Chap9_ClearFeature+0x1cc>
                            endp = -1;
 100158c:	00bfffc4 	movi	r2,-1
 1001590:	e0bffdc5 	stb	r2,-9(fp)
 1001594:	00000506 	br	10015ac <Chap9_ClearFeature+0x1e0>
                    else
                        endp = (UCHAR)(ControlData.DeviceRequest.wIndex & MAX_ENDPOINTS);
 1001598:	00804074 	movhi	r2,257
 100159c:	109f0c04 	addi	r2,r2,31792
 10015a0:	1080018b 	ldhu	r2,6(r2)
 10015a4:	108003cc 	andi	r2,r2,15
 10015a8:	e0bffdc5 	stb	r2,-9(fp)

                    Hal4D13_SetEndpointStatus(endp+1, 0);
 10015ac:	e0bffdc3 	ldbu	r2,-9(fp)
 10015b0:	10800044 	addi	r2,r2,1
 10015b4:	11003fcc 	andi	r4,r2,255
 10015b8:	000b883a 	mov	r5,zero
 10015bc:	1003dac0 	call	1003dac <Hal4D13_SetEndpointStatus>
                    Hal4D13_SetEndpointStatus(endp+1, 0);
 10015c0:	e0bffdc3 	ldbu	r2,-9(fp)
 10015c4:	10800044 	addi	r2,r2,1
 10015c8:	11003fcc 	andi	r4,r2,255
 10015cc:	000b883a 	mov	r5,zero
 10015d0:	1003dac0 	call	1003dac <Hal4D13_SetEndpointStatus>

                    Chap9_SingleTransmitEP0(0, 0);
 10015d4:	0009883a 	mov	r4,zero
 10015d8:	000b883a 	mov	r5,zero
 10015dc:	10022000 	call	1002200 <Chap9_SingleTransmitEP0>
 10015e0:	00000306 	br	10015f0 <Chap9_ClearFeature+0x224>
                }
                else
                {
                    Chap9_StallEP0InControlWrite();
 10015e4:	10021380 	call	1002138 <Chap9_StallEP0InControlWrite>
                }
                break;
 10015e8:	00000106 	br	10015f0 <Chap9_ClearFeature+0x224>

            default:
                    Chap9_StallEP0InControlWrite();
 10015ec:	10021380 	call	1002138 <Chap9_StallEP0InControlWrite>
                    break;
            }
      }
    }

}
 10015f0:	e037883a 	mov	sp,fp
 10015f4:	dfc00117 	ldw	ra,4(sp)
 10015f8:	df000017 	ldw	fp,0(sp)
 10015fc:	dec00204 	addi	sp,sp,8
 1001600:	f800283a 	ret

01001604 <Chap9_SetFeature>:

void Chap9_SetFeature(void)
{
 1001604:	defffb04 	addi	sp,sp,-20
 1001608:	dfc00415 	stw	ra,16(sp)
 100160c:	df000315 	stw	fp,12(sp)
 1001610:	df000304 	addi	fp,sp,12
  UCHAR   endp = 0;
 1001614:	e03ffdc5 	stb	zero,-9(fp)
    UCHAR   bRecipient = ControlData.DeviceRequest.bmRequestType & USB_RECIPIENT;
 1001618:	00804074 	movhi	r2,257
 100161c:	109f0c04 	addi	r2,r2,31792
 1001620:	10800083 	ldbu	r2,2(r2)
 1001624:	108007cc 	andi	r2,r2,31
 1001628:	e0bffd85 	stb	r2,-10(fp)
    USHORT  wFeature = ControlData.DeviceRequest.wValue;
 100162c:	00804074 	movhi	r2,257
 1001630:	109f0c04 	addi	r2,r2,31792
 1001634:	1080010b 	ldhu	r2,4(r2)
 1001638:	e0bffd0d 	sth	r2,-12(fp)
  

    if(bUSBCheck_Device_State.State_bits.DEVICE_ADDRESS_STATE)
 100163c:	00804074 	movhi	r2,257
 1001640:	109eee04 	addi	r2,r2,31672
 1001644:	10800003 	ldbu	r2,0(r2)
 1001648:	1080008c 	andi	r2,r2,2
 100164c:	10803fcc 	andi	r2,r2,255
 1001650:	1005003a 	cmpeq	r2,r2,zero
 1001654:	10002f1e 	bne	r2,zero,1001714 <Chap9_SetFeature+0x110>
    {
        switch(bRecipient)
 1001658:	e0bffd83 	ldbu	r2,-10(fp)
 100165c:	e0bfff15 	stw	r2,-4(fp)
 1001660:	e0ffff17 	ldw	r3,-4(fp)
 1001664:	1805003a 	cmpeq	r2,r3,zero
 1001668:	1000041e 	bne	r2,zero,100167c <Chap9_SetFeature+0x78>
 100166c:	e0ffff17 	ldw	r3,-4(fp)
 1001670:	188000a0 	cmpeqi	r2,r3,2
 1001674:	10000f1e 	bne	r2,zero,10016b4 <Chap9_SetFeature+0xb0>
 1001678:	00002406 	br	100170c <Chap9_SetFeature+0x108>
        {
        case USB_RECIPIENT_DEVICE:
            if(wFeature == USB_FEATURE_REMOTE_WAKEUP)
 100167c:	e0bffd0b 	ldhu	r2,-12(fp)
 1001680:	10800058 	cmpnei	r2,r2,1
 1001684:	1000091e 	bne	r2,zero,10016ac <Chap9_SetFeature+0xa8>
            {
                bD13flags.bits.remote_wakeup = 1;
 1001688:	00804074 	movhi	r2,257
 100168c:	109ee504 	addi	r2,r2,31636
 1001690:	10c00017 	ldw	r3,0(r2)
 1001694:	18c00414 	ori	r3,r3,16
 1001698:	10c00015 	stw	r3,0(r2)
                Chap9_SingleTransmitEP0(0, 0);
 100169c:	0009883a 	mov	r4,zero
 10016a0:	000b883a 	mov	r5,zero
 10016a4:	10022000 	call	1002200 <Chap9_SingleTransmitEP0>
 10016a8:	00005b06 	br	1001818 <Chap9_SetFeature+0x214>
            }
            else
            {
                Chap9_StallEP0InControlWrite();
 10016ac:	10021380 	call	1002138 <Chap9_StallEP0InControlWrite>
            }
            break;
 10016b0:	00005906 	br	1001818 <Chap9_SetFeature+0x214>

        case USB_RECIPIENT_ENDPOINT:
            if( wFeature == USB_FEATURE_ENDPOINT_STALL)
 10016b4:	e0bffd0b 	ldhu	r2,-12(fp)
 10016b8:	1004c03a 	cmpne	r2,r2,zero
 10016bc:	1000111e 	bne	r2,zero,1001704 <Chap9_SetFeature+0x100>
            {
                if( ControlData.DeviceRequest.wIndex == 0x00 )
 10016c0:	00804074 	movhi	r2,257
 10016c4:	109f0c04 	addi	r2,r2,31792
 10016c8:	1080018b 	ldhu	r2,6(r2)
 10016cc:	10bfffcc 	andi	r2,r2,65535
 10016d0:	1004c03a 	cmpne	r2,r2,zero
 10016d4:	1000021e 	bne	r2,zero,10016e0 <Chap9_SetFeature+0xdc>
                    endp = -1;
 10016d8:	00bfffc4 	movi	r2,-1
 10016dc:	e0bffdc5 	stb	r2,-9(fp)

                Hal4D13_SetEndpointStatus(endp+1, D13REG_EPSTS_STALL);
 10016e0:	e0bffdc3 	ldbu	r2,-9(fp)
 10016e4:	10800044 	addi	r2,r2,1
 10016e8:	11003fcc 	andi	r4,r2,255
 10016ec:	01402004 	movi	r5,128
 10016f0:	1003dac0 	call	1003dac <Hal4D13_SetEndpointStatus>
                Chap9_SingleTransmitEP0(0, 0);
 10016f4:	0009883a 	mov	r4,zero
 10016f8:	000b883a 	mov	r5,zero
 10016fc:	10022000 	call	1002200 <Chap9_SingleTransmitEP0>
 1001700:	00004506 	br	1001818 <Chap9_SetFeature+0x214>

            }
            else
                Chap9_StallEP0InControlWrite();
 1001704:	10021380 	call	1002138 <Chap9_StallEP0InControlWrite>

            break;
 1001708:	00004306 	br	1001818 <Chap9_SetFeature+0x214>
        default:
            Chap9_StallEP0InControlWrite();
 100170c:	10021380 	call	1002138 <Chap9_StallEP0InControlWrite>
 1001710:	00004106 	br	1001818 <Chap9_SetFeature+0x214>
    }


    else
    {
        if( ControlData.DeviceRequest.wLength == 0 )
 1001714:	00804074 	movhi	r2,257
 1001718:	109f0c04 	addi	r2,r2,31792
 100171c:	1080020b 	ldhu	r2,8(r2)
 1001720:	10bfffcc 	andi	r2,r2,65535
 1001724:	1004c03a 	cmpne	r2,r2,zero
 1001728:	10003b1e 	bne	r2,zero,1001818 <Chap9_SetFeature+0x214>
        {
            switch(bRecipient)
 100172c:	e0bffd83 	ldbu	r2,-10(fp)
 1001730:	e0bffe15 	stw	r2,-8(fp)
 1001734:	e0fffe17 	ldw	r3,-8(fp)
 1001738:	1805003a 	cmpeq	r2,r3,zero
 100173c:	1000041e 	bne	r2,zero,1001750 <Chap9_SetFeature+0x14c>
 1001740:	e0fffe17 	ldw	r3,-8(fp)
 1001744:	188000a0 	cmpeqi	r2,r3,2
 1001748:	10000f1e 	bne	r2,zero,1001788 <Chap9_SetFeature+0x184>
 100174c:	00003106 	br	1001814 <Chap9_SetFeature+0x210>
            {
            case USB_RECIPIENT_DEVICE:
                if(wFeature == USB_FEATURE_REMOTE_WAKEUP)
 1001750:	e0bffd0b 	ldhu	r2,-12(fp)
 1001754:	10800058 	cmpnei	r2,r2,1
 1001758:	1000091e 	bne	r2,zero,1001780 <Chap9_SetFeature+0x17c>
                {
                    bD13flags.bits.remote_wakeup = 1;
 100175c:	00804074 	movhi	r2,257
 1001760:	109ee504 	addi	r2,r2,31636
 1001764:	10c00017 	ldw	r3,0(r2)
 1001768:	18c00414 	ori	r3,r3,16
 100176c:	10c00015 	stw	r3,0(r2)
                    Chap9_SingleTransmitEP0(0, 0);
 1001770:	0009883a 	mov	r4,zero
 1001774:	000b883a 	mov	r5,zero
 1001778:	10022000 	call	1002200 <Chap9_SingleTransmitEP0>
 100177c:	00002606 	br	1001818 <Chap9_SetFeature+0x214>
                }
                else
                {
                    Chap9_StallEP0InControlWrite();
 1001780:	10021380 	call	1002138 <Chap9_StallEP0InControlWrite>
                }
                break;
 1001784:	00002406 	br	1001818 <Chap9_SetFeature+0x214>
            case USB_RECIPIENT_ENDPOINT:
                if( wFeature == USB_FEATURE_ENDPOINT_STALL)
 1001788:	e0bffd0b 	ldhu	r2,-12(fp)
 100178c:	1004c03a 	cmpne	r2,r2,zero
 1001790:	1000171e 	bne	r2,zero,10017f0 <Chap9_SetFeature+0x1ec>
                {
                    if( ControlData.DeviceRequest.wIndex == 0x00 )
 1001794:	00804074 	movhi	r2,257
 1001798:	109f0c04 	addi	r2,r2,31792
 100179c:	1080018b 	ldhu	r2,6(r2)
 10017a0:	10bfffcc 	andi	r2,r2,65535
 10017a4:	1004c03a 	cmpne	r2,r2,zero
 10017a8:	1000031e 	bne	r2,zero,10017b8 <Chap9_SetFeature+0x1b4>
                        endp = -1;
 10017ac:	00bfffc4 	movi	r2,-1
 10017b0:	e0bffdc5 	stb	r2,-9(fp)
 10017b4:	00000506 	br	10017cc <Chap9_SetFeature+0x1c8>
                    else
                        endp = (UCHAR)(ControlData.DeviceRequest.wIndex & MAX_ENDPOINTS);
 10017b8:	00804074 	movhi	r2,257
 10017bc:	109f0c04 	addi	r2,r2,31792
 10017c0:	1080018b 	ldhu	r2,6(r2)
 10017c4:	108003cc 	andi	r2,r2,15
 10017c8:	e0bffdc5 	stb	r2,-9(fp)

                    Hal4D13_SetEndpointStatus(endp+1, D13REG_EPSTS_STALL);
 10017cc:	e0bffdc3 	ldbu	r2,-9(fp)
 10017d0:	10800044 	addi	r2,r2,1
 10017d4:	11003fcc 	andi	r4,r2,255
 10017d8:	01402004 	movi	r5,128
 10017dc:	1003dac0 	call	1003dac <Hal4D13_SetEndpointStatus>

                    Chap9_SingleTransmitEP0(0, 0);
 10017e0:	0009883a 	mov	r4,zero
 10017e4:	000b883a 	mov	r5,zero
 10017e8:	10022000 	call	1002200 <Chap9_SingleTransmitEP0>
 10017ec:	00000a06 	br	1001818 <Chap9_SetFeature+0x214>

                }
                else
                {
                    Hal4D13_SetEndpointStatus(endp+1, 0);
 10017f0:	e0bffdc3 	ldbu	r2,-9(fp)
 10017f4:	10800044 	addi	r2,r2,1
 10017f8:	11003fcc 	andi	r4,r2,255
 10017fc:	000b883a 	mov	r5,zero
 1001800:	1003dac0 	call	1003dac <Hal4D13_SetEndpointStatus>
                    Chap9_SingleTransmitEP0(0, 0);
 1001804:	0009883a 	mov	r4,zero
 1001808:	000b883a 	mov	r5,zero
 100180c:	10022000 	call	1002200 <Chap9_SingleTransmitEP0>
                }
                break;
 1001810:	00000106 	br	1001818 <Chap9_SetFeature+0x214>
            default:
                Chap9_StallEP0InControlWrite();
 1001814:	10021380 	call	1002138 <Chap9_StallEP0InControlWrite>
        }
    }



}
 1001818:	e037883a 	mov	sp,fp
 100181c:	dfc00117 	ldw	ra,4(sp)
 1001820:	df000017 	ldw	fp,0(sp)
 1001824:	dec00204 	addi	sp,sp,8
 1001828:	f800283a 	ret

0100182c <Chap9_SetAddress>:

void Chap9_SetAddress(void)
{
 100182c:	defffd04 	addi	sp,sp,-12
 1001830:	dfc00215 	stw	ra,8(sp)
 1001834:	df000115 	stw	fp,4(sp)
 1001838:	df000104 	addi	fp,sp,4

    UCHAR   j;

    {
        RaiseIRQL();
 100183c:	10045a80 	call	10045a8 <usb_disable_all_interrupts>
        usb_disable_all_interrupts();
 1001840:	10045a80 	call	10045a8 <usb_disable_all_interrupts>
        if(!ControlData.Abort)
 1001844:	00804074 	movhi	r2,257
 1001848:	109f0c04 	addi	r2,r2,31792
 100184c:	10800003 	ldbu	r2,0(r2)
 1001850:	10803fcc 	andi	r2,r2,255
 1001854:	1004c03a 	cmpne	r2,r2,zero
 1001858:	1000791e 	bne	r2,zero,1001a40 <Chap9_SetAddress+0x214>
        {
            if(bUSBCheck_Device_State.State_bits.DEVICE_DEFAULT_STATE)
 100185c:	00804074 	movhi	r2,257
 1001860:	109eee04 	addi	r2,r2,31672
 1001864:	10800003 	ldbu	r2,0(r2)
 1001868:	1080004c 	andi	r2,r2,1
 100186c:	10803fcc 	andi	r2,r2,255
 1001870:	1005003a 	cmpeq	r2,r2,zero
 1001874:	1000231e 	bne	r2,zero,1001904 <Chap9_SetAddress+0xd8>
            {
                if((ControlData.DeviceRequest.wValue & DEVICE_ADDRESS_MASK) != 0 )
 1001878:	00804074 	movhi	r2,257
 100187c:	109f0c04 	addi	r2,r2,31792
 1001880:	1080010b 	ldhu	r2,4(r2)
 1001884:	10bfffcc 	andi	r2,r2,65535
 1001888:	10801fcc 	andi	r2,r2,127
 100188c:	1005003a 	cmpeq	r2,r2,zero
 1001890:	1000161e 	bne	r2,zero,10018ec <Chap9_SetAddress+0xc0>
                {
                    bUSBCheck_Device_State.State_bits.DEVICE_DEFAULT_STATE = 0;
 1001894:	01004074 	movhi	r4,257
 1001898:	211eee04 	addi	r4,r4,31672
 100189c:	20c00003 	ldbu	r3,0(r4)
 10018a0:	00bfff84 	movi	r2,-2
 10018a4:	1884703a 	and	r2,r3,r2
 10018a8:	20800005 	stb	r2,0(r4)
                    Hal4D13_SetAddressEnable((UCHAR)(ControlData.DeviceRequest.wValue &
 10018ac:	00804074 	movhi	r2,257
 10018b0:	109f0c04 	addi	r2,r2,31792
 10018b4:	1080010b 	ldhu	r2,4(r2)
 10018b8:	10803fcc 	andi	r2,r2,255
 10018bc:	11001fcc 	andi	r4,r2,127
 10018c0:	01400044 	movi	r5,1
 10018c4:	10033640 	call	1003364 <Hal4D13_SetAddressEnable>
                                            DEVICE_ADDRESS_MASK), 1);
                    bUSBCheck_Device_State.State_bits.DEVICE_ADDRESS_STATE = 1;
 10018c8:	00c04074 	movhi	r3,257
 10018cc:	18deee04 	addi	r3,r3,31672
 10018d0:	18800003 	ldbu	r2,0(r3)
 10018d4:	10800094 	ori	r2,r2,2
 10018d8:	18800005 	stb	r2,0(r3)
                    Chap9_SingleTransmitEP0(0, 0);
 10018dc:	0009883a 	mov	r4,zero
 10018e0:	000b883a 	mov	r5,zero
 10018e4:	10022000 	call	1002200 <Chap9_SingleTransmitEP0>
 10018e8:	00005506 	br	1001a40 <Chap9_SetAddress+0x214>

                }

                else
                    bUSBCheck_Device_State.State_bits.DEVICE_DEFAULT_STATE = 1;
 10018ec:	00c04074 	movhi	r3,257
 10018f0:	18deee04 	addi	r3,r3,31672
 10018f4:	18800003 	ldbu	r2,0(r3)
 10018f8:	10800054 	ori	r2,r2,1
 10018fc:	18800005 	stb	r2,0(r3)
 1001900:	00004f06 	br	1001a40 <Chap9_SetAddress+0x214>
            }

            else if(bUSBCheck_Device_State.State_bits.DEVICE_ADDRESS_STATE)
 1001904:	00804074 	movhi	r2,257
 1001908:	109eee04 	addi	r2,r2,31672
 100190c:	10800003 	ldbu	r2,0(r2)
 1001910:	1080008c 	andi	r2,r2,2
 1001914:	10803fcc 	andi	r2,r2,255
 1001918:	1005003a 	cmpeq	r2,r2,zero
 100191c:	1000331e 	bne	r2,zero,10019ec <Chap9_SetAddress+0x1c0>
            {
                if((ControlData.DeviceRequest.wValue & DEVICE_ADDRESS_MASK) == 0 )
 1001920:	00804074 	movhi	r2,257
 1001924:	109f0c04 	addi	r2,r2,31792
 1001928:	1080010b 	ldhu	r2,4(r2)
 100192c:	10bfffcc 	andi	r2,r2,65535
 1001930:	10801fcc 	andi	r2,r2,127
 1001934:	1004c03a 	cmpne	r2,r2,zero
 1001938:	1000161e 	bne	r2,zero,1001994 <Chap9_SetAddress+0x168>
                {
                    Hal4D13_SetAddressEnable((UCHAR)(ControlData.DeviceRequest.wValue &
 100193c:	00804074 	movhi	r2,257
 1001940:	109f0c04 	addi	r2,r2,31792
 1001944:	1080010b 	ldhu	r2,4(r2)
 1001948:	10803fcc 	andi	r2,r2,255
 100194c:	11001fcc 	andi	r4,r2,127
 1001950:	01400044 	movi	r5,1
 1001954:	10033640 	call	1003364 <Hal4D13_SetAddressEnable>
                                            DEVICE_ADDRESS_MASK), 1);
                    bUSBCheck_Device_State.State_bits.DEVICE_DEFAULT_STATE = 1;
 1001958:	00c04074 	movhi	r3,257
 100195c:	18deee04 	addi	r3,r3,31672
 1001960:	18800003 	ldbu	r2,0(r3)
 1001964:	10800054 	ori	r2,r2,1
 1001968:	18800005 	stb	r2,0(r3)
                    bUSBCheck_Device_State.State_bits.DEVICE_ADDRESS_STATE = 0;
 100196c:	01004074 	movhi	r4,257
 1001970:	211eee04 	addi	r4,r4,31672
 1001974:	20c00003 	ldbu	r3,0(r4)
 1001978:	00bfff44 	movi	r2,-3
 100197c:	1884703a 	and	r2,r3,r2
 1001980:	20800005 	stb	r2,0(r4)
                    Chap9_SingleTransmitEP0(0, 0);
 1001984:	0009883a 	mov	r4,zero
 1001988:	000b883a 	mov	r5,zero
 100198c:	10022000 	call	1002200 <Chap9_SingleTransmitEP0>
 1001990:	00002b06 	br	1001a40 <Chap9_SetAddress+0x214>

                }

                else
                {
                    bUSBCheck_Device_State.State_bits.DEVICE_DEFAULT_STATE = 0;
 1001994:	01004074 	movhi	r4,257
 1001998:	211eee04 	addi	r4,r4,31672
 100199c:	20c00003 	ldbu	r3,0(r4)
 10019a0:	00bfff84 	movi	r2,-2
 10019a4:	1884703a 	and	r2,r3,r2
 10019a8:	20800005 	stb	r2,0(r4)
                    Hal4D13_SetAddressEnable((UCHAR)(ControlData.DeviceRequest.wValue &
 10019ac:	00804074 	movhi	r2,257
 10019b0:	109f0c04 	addi	r2,r2,31792
 10019b4:	1080010b 	ldhu	r2,4(r2)
 10019b8:	10803fcc 	andi	r2,r2,255
 10019bc:	11001fcc 	andi	r4,r2,127
 10019c0:	01400044 	movi	r5,1
 10019c4:	10033640 	call	1003364 <Hal4D13_SetAddressEnable>
                                            DEVICE_ADDRESS_MASK), 1);
                    bUSBCheck_Device_State.State_bits.DEVICE_ADDRESS_STATE = 1;
 10019c8:	00c04074 	movhi	r3,257
 10019cc:	18deee04 	addi	r3,r3,31672
 10019d0:	18800003 	ldbu	r2,0(r3)
 10019d4:	10800094 	ori	r2,r2,2
 10019d8:	18800005 	stb	r2,0(r3)
                    Chap9_SingleTransmitEP0(0, 0);
 10019dc:	0009883a 	mov	r4,zero
 10019e0:	000b883a 	mov	r5,zero
 10019e4:	10022000 	call	1002200 <Chap9_SingleTransmitEP0>
 10019e8:	00001506 	br	1001a40 <Chap9_SetAddress+0x214>
            }

            else
            {

                bUSBCheck_Device_State.State_bits.DEVICE_CONFIGURATION_STATE = 0;
 10019ec:	01004074 	movhi	r4,257
 10019f0:	211eee04 	addi	r4,r4,31672
 10019f4:	20c00003 	ldbu	r3,0(r4)
 10019f8:	00bffec4 	movi	r2,-5
 10019fc:	1884703a 	and	r2,r3,r2
 1001a00:	20800005 	stb	r2,0(r4)
                bUSBCheck_Device_State.State_bits.DEVICE_ADDRESS_STATE = 0;
 1001a04:	01004074 	movhi	r4,257
 1001a08:	211eee04 	addi	r4,r4,31672
 1001a0c:	20c00003 	ldbu	r3,0(r4)
 1001a10:	00bfff44 	movi	r2,-3
 1001a14:	1884703a 	and	r2,r3,r2
 1001a18:	20800005 	stb	r2,0(r4)
                bUSBCheck_Device_State.State_bits.DEVICE_DEFAULT_STATE = 1;
 1001a1c:	00c04074 	movhi	r3,257
 1001a20:	18deee04 	addi	r3,r3,31672
 1001a24:	18800003 	ldbu	r2,0(r3)
 1001a28:	10800054 	ori	r2,r2,1
 1001a2c:	18800005 	stb	r2,0(r3)
                j = DEV_BEHAVIOUR_NOT_SPECIFIED;
 1001a30:	e03fff05 	stb	zero,-4(fp)
                Chap9_SingleTransmitEP0(&j, 0);
 1001a34:	e13fff04 	addi	r4,fp,-4
 1001a38:	000b883a 	mov	r5,zero
 1001a3c:	10022000 	call	1002200 <Chap9_SingleTransmitEP0>
            }

        }
        LowerIRQL();
 1001a40:	10045f80 	call	10045f8 <usb_reenable_all_interrupts>
        usb_reenable_all_interrupts();
 1001a44:	10045f80 	call	10045f8 <usb_reenable_all_interrupts>

    }
//    printf("USB Addr %x\n",Hal4D13_GetAddress());
}
 1001a48:	e037883a 	mov	sp,fp
 1001a4c:	dfc00117 	ldw	ra,4(sp)
 1001a50:	df000017 	ldw	fp,0(sp)
 1001a54:	dec00204 	addi	sp,sp,8
 1001a58:	f800283a 	ret

01001a5c <Chap9_GetDescriptor>:


void Chap9_GetDescriptor(void)
{
 1001a5c:	defffb04 	addi	sp,sp,-20
 1001a60:	dfc00415 	stw	ra,16(sp)
 1001a64:	df000315 	stw	fp,12(sp)
 1001a68:	df000304 	addi	fp,sp,12
    UCHAR   bDescriptor =      MSB(ControlData.DeviceRequest.wValue);
 1001a6c:	00804074 	movhi	r2,257
 1001a70:	109f0c04 	addi	r2,r2,31792
 1001a74:	1080010b 	ldhu	r2,4(r2)
 1001a78:	10bfffcc 	andi	r2,r2,65535
 1001a7c:	1004d23a 	srli	r2,r2,8
 1001a80:	1007883a 	mov	r3,r2
 1001a84:	00bfffc4 	movi	r2,-1
 1001a88:	1884703a 	and	r2,r3,r2
 1001a8c:	e0bffd45 	stb	r2,-11(fp)
    UCHAR   bDescriptorIndex = LSB(ControlData.DeviceRequest.wValue);
 1001a90:	00804074 	movhi	r2,257
 1001a94:	109f0c04 	addi	r2,r2,31792
 1001a98:	1080010b 	ldhu	r2,4(r2)
 1001a9c:	1007883a 	mov	r3,r2
 1001aa0:	00bfffc4 	movi	r2,-1
 1001aa4:	1884703a 	and	r2,r3,r2
 1001aa8:	e0bffd05 	stb	r2,-12(fp)
  //printf("bDescri %d",bDescriptor);
 // printf("Index %d\n",bDescriptorIndex);
//  printf("USB_DEVICE_DESCRIPTORsize %d\n",sizeof(USB_DEVICE_DESCRIPTOR));
 // printf("CONFIGURATIONsize %d\n",sizeof(USB_CONFIGURATION_DESCRIPTOR_a));
    switch(bDescriptor)
 1001aac:	e0bffd43 	ldbu	r2,-11(fp)
 1001ab0:	e0bfff15 	stw	r2,-4(fp)
 1001ab4:	e0ffff17 	ldw	r3,-4(fp)
 1001ab8:	188000a0 	cmpeqi	r2,r3,2
 1001abc:	10000c1e 	bne	r2,zero,1001af0 <Chap9_GetDescriptor+0x94>
 1001ac0:	e13fff17 	ldw	r4,-4(fp)
 1001ac4:	208000e0 	cmpeqi	r2,r4,3
 1001ac8:	10000e1e 	bne	r2,zero,1001b04 <Chap9_GetDescriptor+0xa8>
 1001acc:	e0ffff17 	ldw	r3,-4(fp)
 1001ad0:	18800060 	cmpeqi	r2,r3,1
 1001ad4:	1000011e 	bne	r2,zero,1001adc <Chap9_GetDescriptor+0x80>
 1001ad8:	00005106 	br	1001c20 <Chap9_GetDescriptor+0x1c4>
    //sDevice sConfiguration
    //sizeof(struct CONFIGURATION)
//sizeof( struct DEVICE)

    case USB_DEVICE_DESCRIPTOR_TYPE:{//1
        Chap9_BurstTransmitEP0( (PUCHAR)&DeviceDescr , sizeof(USB_DEVICE_DESCRIPTOR));
 1001adc:	01004074 	movhi	r4,257
 1001ae0:	210fc904 	addi	r4,r4,16164
 1001ae4:	01400484 	movi	r5,18
 1001ae8:	100229c0 	call	100229c <Chap9_BurstTransmitEP0>
//      Chap9_BurstTransmitEP0((PUCHAR)&sDevice,sizeof(struct DEVICE));
        break;}
 1001aec:	00004d06 	br	1001c24 <Chap9_GetDescriptor+0x1c8>
    case USB_CONFIGURATION_DESCRIPTOR_TYPE:{//2
//      Chap9_BurstTransmitEP0((PUCHAR)&ConfigDescr, CONFIG_DESCRIPTOR_LENGTH);

      
            //printf("\nConfigDescr     \n");  
          Chap9_BurstTransmitEP0((PUCHAR)&ConfigDescr_a, sizeof(USB_CONFIGURATION_DESCRIPTOR_a));//sizeof(USB_CONFIGURATION_DESCRIPTOR));
 1001af0:	01004074 	movhi	r4,257
 1001af4:	210fcd84 	addi	r4,r4,16182
 1001af8:	01400b84 	movi	r5,46
 1001afc:	100229c0 	call	100229c <Chap9_BurstTransmitEP0>
   //       printf("\nInterfaceDescr0  ");    Chap9_BurstTransmitEP0((PUCHAR)&InterfaceDescr0, sizeof(USB_INTERFACE_DESCRIPTOR));
//          printf("\nEP1_TXDesc       ");     Chap9_BurstTransmitEP0((PUCHAR)&EP1_TXDescr, sizeof(USB_ENDPOINT_DESCRIPTOR));
  //        printf("\nEP1_RXDescr      ");    Chap9_BurstTransmitEP0((PUCHAR)&EP1_RXDescr, sizeof(USB_ENDPOINT_DESCRIPTOR));
    //      printf("\nEP2_TXDescr      ");    Chap9_BurstTransmitEP0((PUCHAR)&EP2_TXDescr, sizeof(USB_ENDPOINT_DESCRIPTOR));
      //    printf("\nEP2_RXDescr      ");    Chap9_BurstTransmitEP0((PUCHAR)&EP2_RXDescr, sizeof(USB_ENDPOINT_DESCRIPTOR));
        break;}
 1001b00:	00004806 	br	1001c24 <Chap9_GetDescriptor+0x1c8>
    case USB_STRING_DESCRIPTOR_TYPE://3
        switch(bDescriptorIndex)
 1001b04:	e13ffd03 	ldbu	r4,-12(fp)
 1001b08:	e13ffe15 	stw	r4,-8(fp)
 1001b0c:	e0fffe17 	ldw	r3,-8(fp)
 1001b10:	188001a8 	cmpgeui	r2,r3,6
 1001b14:	10003e1e 	bne	r2,zero,1001c10 <Chap9_GetDescriptor+0x1b4>
 1001b18:	e13ffe17 	ldw	r4,-8(fp)
 1001b1c:	e13ffe17 	ldw	r4,-8(fp)
 1001b20:	2105883a 	add	r2,r4,r4
 1001b24:	1087883a 	add	r3,r2,r2
 1001b28:	00804034 	movhi	r2,256
 1001b2c:	1086cf04 	addi	r2,r2,6972
 1001b30:	1885883a 	add	r2,r3,r2
 1001b34:	10800017 	ldw	r2,0(r2)
 1001b38:	1000683a 	jmp	r2
 1001b3c:	01001b54 	movui	r4,109
 1001b40:	01001b70 	cmpltui	r4,zero,109
 1001b44:	01001b90 	cmplti	r4,zero,110
 1001b48:	01001bb0 	cmpltui	r4,zero,110
 1001b4c:	01001bd0 	cmplti	r4,zero,111
 1001b50:	01001bf0 	cmpltui	r4,zero,111
        {
        case STR_INDEX_LANGUAGE:
            printf("\n str1     \n");
 1001b54:	01004074 	movhi	r4,257
 1001b58:	210d6004 	addi	r4,r4,13696
 1001b5c:	1005f940 	call	1005f94 <puts>
      Chap9_BurstTransmitEP0((PUCHAR)&strLanguage, sizeof(USB_STRING_LANGUAGE_DESCRIPTOR));
 1001b60:	d1200484 	addi	r4,gp,-32750
 1001b64:	01400104 	movi	r5,4
 1001b68:	100229c0 	call	100229c <Chap9_BurstTransmitEP0>
            break;
 1001b6c:	00002c06 	br	1001c20 <Chap9_GetDescriptor+0x1c4>
        case STR_INDEX_MANUFACTURER:
            printf("\n str2     \n");Chap9_BurstTransmitEP0((PUCHAR)&strManufacturer, sizeof(USB_STRING_MANUFACTURER_DESCRIPTOR));
 1001b70:	01004074 	movhi	r4,257
 1001b74:	210d6304 	addi	r4,r4,13708
 1001b78:	1005f940 	call	1005f94 <puts>
 1001b7c:	01004074 	movhi	r4,257
 1001b80:	21102584 	addi	r4,r4,16534
 1001b84:	01400e04 	movi	r5,56
 1001b88:	100229c0 	call	100229c <Chap9_BurstTransmitEP0>
            break;
 1001b8c:	00002406 	br	1001c20 <Chap9_GetDescriptor+0x1c4>
        case STR_INDEX_PRODUCT:
            printf("\n str3     \n");Chap9_BurstTransmitEP0((PUCHAR)&strProduct, sizeof(USB_STRING_PRODUCT_DESCRIPTOR));
 1001b90:	01004074 	movhi	r4,257
 1001b94:	210d6604 	addi	r4,r4,13720
 1001b98:	1005f940 	call	1005f94 <puts>
 1001b9c:	01004074 	movhi	r4,257
 1001ba0:	21101504 	addi	r4,r4,16468
 1001ba4:	01401084 	movi	r5,66
 1001ba8:	100229c0 	call	100229c <Chap9_BurstTransmitEP0>
            break;
 1001bac:	00001c06 	br	1001c20 <Chap9_GetDescriptor+0x1c4>
        case STR_INDEX_SERIALNUMBER:
            printf("\n str4     \n");Chap9_BurstTransmitEP0((PUCHAR)&strSerialNum, sizeof(USB_STRING_SERIALNUMBER_DESCRIPTOR));
 1001bb0:	01004074 	movhi	r4,257
 1001bb4:	210d6904 	addi	r4,r4,13732
 1001bb8:	1005f940 	call	1005f94 <puts>
 1001bbc:	01004074 	movhi	r4,257
 1001bc0:	21100e84 	addi	r4,r4,16442
 1001bc4:	01400684 	movi	r5,26
 1001bc8:	100229c0 	call	100229c <Chap9_BurstTransmitEP0>
            break;
 1001bcc:	00001406 	br	1001c20 <Chap9_GetDescriptor+0x1c4>
        case STR_INDEX_CONFIGURATION:
            printf("\n str5     \n");Chap9_BurstTransmitEP0((PUCHAR)&strConfiguration, sizeof(USB_STRING_CONFIGURATION_DESCRIPTOR) );
 1001bd0:	01004074 	movhi	r4,257
 1001bd4:	210d6c04 	addi	r4,r4,13744
 1001bd8:	1005f940 	call	1005f94 <puts>
 1001bdc:	01004074 	movhi	r4,257
 1001be0:	21100a04 	addi	r4,r4,16424
 1001be4:	01400484 	movi	r5,18
 1001be8:	100229c0 	call	100229c <Chap9_BurstTransmitEP0>
            break;
 1001bec:	00000c06 	br	1001c20 <Chap9_GetDescriptor+0x1c4>
        case STR_INDEX_INTERFACE:
            printf("\n str6     \n");Chap9_BurstTransmitEP0((PUCHAR)&strInterface, sizeof(USB_STRING_INTERFACE_DESCRIPTOR) );
 1001bf0:	01004074 	movhi	r4,257
 1001bf4:	210d6f04 	addi	r4,r4,13756
 1001bf8:	1005f940 	call	1005f94 <puts>
 1001bfc:	01004074 	movhi	r4,257
 1001c00:	21100404 	addi	r4,r4,16400
 1001c04:	01400604 	movi	r5,24
 1001c08:	100229c0 	call	100229c <Chap9_BurstTransmitEP0>
            break;
 1001c0c:	00000406 	br	1001c20 <Chap9_GetDescriptor+0x1c4>
        default:
            printf("\n str7     \n");Chap9_StallEP0InControlRead();
 1001c10:	01004074 	movhi	r4,257
 1001c14:	210d7204 	addi	r4,r4,13768
 1001c18:	1005f940 	call	1005f94 <puts>
 1001c1c:	100219c0 	call	100219c <Chap9_StallEP0InControlRead>
        }
    case USB_INTERFACE_DESCRIPTOR_TYPE:
    case USB_ENDPOINT_DESCRIPTOR_TYPE:
    case USB_POWER_DESCRIPTOR_TYPE:
    default:
        Chap9_StallEP0InControlRead();
 1001c20:	100219c0 	call	100219c <Chap9_StallEP0InControlRead>
        break;
    }
}
 1001c24:	e037883a 	mov	sp,fp
 1001c28:	dfc00117 	ldw	ra,4(sp)
 1001c2c:	df000017 	ldw	fp,0(sp)
 1001c30:	dec00204 	addi	sp,sp,8
 1001c34:	f800283a 	ret

01001c38 <Chap9_GetConfiguration>:

void Chap9_GetConfiguration(void)
{
 1001c38:	defffd04 	addi	sp,sp,-12
 1001c3c:	dfc00215 	stw	ra,8(sp)
 1001c40:	df000115 	stw	fp,4(sp)
 1001c44:	df000104 	addi	fp,sp,4
    UCHAR   c = bD13flags.bits.configuration;
 1001c48:	00804074 	movhi	r2,257
 1001c4c:	109ee504 	addi	r2,r2,31636
 1001c50:	10800017 	ldw	r2,0(r2)
 1001c54:	1004d0fa 	srli	r2,r2,3
 1001c58:	1080004c 	andi	r2,r2,1
 1001c5c:	e0bfff05 	stb	r2,-4(fp)
    UCHAR   j;

    if(bUSBCheck_Device_State.State_bits.DEVICE_ADDRESS_STATE)
 1001c60:	00804074 	movhi	r2,257
 1001c64:	109eee04 	addi	r2,r2,31672
 1001c68:	10800003 	ldbu	r2,0(r2)
 1001c6c:	1080008c 	andi	r2,r2,2
 1001c70:	10803fcc 	andi	r2,r2,255
 1001c74:	1005003a 	cmpeq	r2,r2,zero
 1001c78:	1000051e 	bne	r2,zero,1001c90 <Chap9_GetConfiguration+0x58>
    {
        j = 0;
 1001c7c:	e03fff45 	stb	zero,-3(fp)
        Chap9_SingleTransmitEP0(&j, 1);
 1001c80:	e13fff44 	addi	r4,fp,-3
 1001c84:	01400044 	movi	r5,1
 1001c88:	10022000 	call	1002200 <Chap9_SingleTransmitEP0>
 1001c8c:	00001506 	br	1001ce4 <Chap9_GetConfiguration+0xac>
    }

    else
    {
        if (ControlData.DeviceRequest.wValue == 0 && ControlData.DeviceRequest.wIndex == 0 && ControlData.DeviceRequest.wLength == 1)
 1001c90:	00804074 	movhi	r2,257
 1001c94:	109f0c04 	addi	r2,r2,31792
 1001c98:	1080010b 	ldhu	r2,4(r2)
 1001c9c:	10bfffcc 	andi	r2,r2,65535
 1001ca0:	1004c03a 	cmpne	r2,r2,zero
 1001ca4:	10000f1e 	bne	r2,zero,1001ce4 <Chap9_GetConfiguration+0xac>
 1001ca8:	00804074 	movhi	r2,257
 1001cac:	109f0c04 	addi	r2,r2,31792
 1001cb0:	1080018b 	ldhu	r2,6(r2)
 1001cb4:	10bfffcc 	andi	r2,r2,65535
 1001cb8:	1004c03a 	cmpne	r2,r2,zero
 1001cbc:	1000091e 	bne	r2,zero,1001ce4 <Chap9_GetConfiguration+0xac>
 1001cc0:	00804074 	movhi	r2,257
 1001cc4:	109f0c04 	addi	r2,r2,31792
 1001cc8:	1080020b 	ldhu	r2,8(r2)
 1001ccc:	10bfffcc 	andi	r2,r2,65535
 1001cd0:	10800058 	cmpnei	r2,r2,1
 1001cd4:	1000031e 	bne	r2,zero,1001ce4 <Chap9_GetConfiguration+0xac>
        {

        Chap9_SingleTransmitEP0(&c, 1);
 1001cd8:	e13fff04 	addi	r4,fp,-4
 1001cdc:	01400044 	movi	r5,1
 1001ce0:	10022000 	call	1002200 <Chap9_SingleTransmitEP0>
        }
    }

}
 1001ce4:	e037883a 	mov	sp,fp
 1001ce8:	dfc00117 	ldw	ra,4(sp)
 1001cec:	df000017 	ldw	fp,0(sp)
 1001cf0:	dec00204 	addi	sp,sp,8
 1001cf4:	f800283a 	ret

01001cf8 <Chap9_SetConfiguration>:

void Chap9_SetConfiguration(void)
{
 1001cf8:	defffe04 	addi	sp,sp,-8
 1001cfc:	dfc00115 	stw	ra,4(sp)
 1001d00:	df000015 	stw	fp,0(sp)
 1001d04:	d839883a 	mov	fp,sp
  
    if(bUSBCheck_Device_State.State_bits.DEVICE_ADDRESS_STATE)
 1001d08:	00804074 	movhi	r2,257
 1001d0c:	109eee04 	addi	r2,r2,31672
 1001d10:	10800003 	ldbu	r2,0(r2)
 1001d14:	1080008c 	andi	r2,r2,2
 1001d18:	10803fcc 	andi	r2,r2,255
 1001d1c:	1005003a 	cmpeq	r2,r2,zero
 1001d20:	10003d1e 	bne	r2,zero,1001e18 <Chap9_SetConfiguration+0x120>
    {
        if(ControlData.DeviceRequest.wIndex == 0 && ControlData.DeviceRequest.wLength == 0)
 1001d24:	00804074 	movhi	r2,257
 1001d28:	109f0c04 	addi	r2,r2,31792
 1001d2c:	1080018b 	ldhu	r2,6(r2)
 1001d30:	10bfffcc 	andi	r2,r2,65535
 1001d34:	1004c03a 	cmpne	r2,r2,zero
 1001d38:	10006d1e 	bne	r2,zero,1001ef0 <Chap9_SetConfiguration+0x1f8>
 1001d3c:	00804074 	movhi	r2,257
 1001d40:	109f0c04 	addi	r2,r2,31792
 1001d44:	1080020b 	ldhu	r2,8(r2)
 1001d48:	10bfffcc 	andi	r2,r2,65535
 1001d4c:	1004c03a 	cmpne	r2,r2,zero
 1001d50:	1000671e 	bne	r2,zero,1001ef0 <Chap9_SetConfiguration+0x1f8>
        {
            if (ControlData.DeviceRequest.wValue == 0)
 1001d54:	00804074 	movhi	r2,257
 1001d58:	109f0c04 	addi	r2,r2,31792
 1001d5c:	1080010b 	ldhu	r2,4(r2)
 1001d60:	10bfffcc 	andi	r2,r2,65535
 1001d64:	1004c03a 	cmpne	r2,r2,zero
 1001d68:	10000f1e 	bne	r2,zero,1001da8 <Chap9_SetConfiguration+0xb0>
            {
                /* put device in unconfigured state */
                bD13flags.bits.configuration = 0;
 1001d6c:	01004074 	movhi	r4,257
 1001d70:	211ee504 	addi	r4,r4,31636
 1001d74:	20c00017 	ldw	r3,0(r4)
 1001d78:	00bffdc4 	movi	r2,-9
 1001d7c:	1884703a 	and	r2,r3,r2
 1001d80:	20800015 	stw	r2,0(r4)
                bUSBCheck_Device_State.State_bits.DEVICE_ADDRESS_STATE = 1;
 1001d84:	00c04074 	movhi	r3,257
 1001d88:	18deee04 	addi	r3,r3,31672
 1001d8c:	18800003 	ldbu	r2,0(r3)
 1001d90:	10800094 	ori	r2,r2,2
 1001d94:	18800005 	stb	r2,0(r3)
                Chap9_SingleTransmitEP0(0, 0);
 1001d98:	0009883a 	mov	r4,zero
 1001d9c:	000b883a 	mov	r5,zero
 1001da0:	10022000 	call	1002200 <Chap9_SingleTransmitEP0>
 1001da4:	00005206 	br	1001ef0 <Chap9_SetConfiguration+0x1f8>
            }
            else if (ControlData.DeviceRequest.wValue == 1)
 1001da8:	00804074 	movhi	r2,257
 1001dac:	109f0c04 	addi	r2,r2,31792
 1001db0:	1080010b 	ldhu	r2,4(r2)
 1001db4:	10bfffcc 	andi	r2,r2,65535
 1001db8:	10800058 	cmpnei	r2,r2,1
 1001dbc:	1000141e 	bne	r2,zero,1001e10 <Chap9_SetConfiguration+0x118>
            {
                /* Configure device */
                bD13flags.bits.configuration = 1;
 1001dc0:	00c04074 	movhi	r3,257
 1001dc4:	18dee504 	addi	r3,r3,31636
 1001dc8:	18800017 	ldw	r2,0(r3)
 1001dcc:	10800214 	ori	r2,r2,8
 1001dd0:	18800015 	stw	r2,0(r3)
                bUSBCheck_Device_State.State_bits.DEVICE_ADDRESS_STATE = 0;
 1001dd4:	01004074 	movhi	r4,257
 1001dd8:	211eee04 	addi	r4,r4,31672
 1001ddc:	20c00003 	ldbu	r3,0(r4)
 1001de0:	00bfff44 	movi	r2,-3
 1001de4:	1884703a 	and	r2,r3,r2
 1001de8:	20800005 	stb	r2,0(r4)
                bUSBCheck_Device_State.State_bits.DEVICE_CONFIGURATION_STATE = 1;
 1001dec:	00c04074 	movhi	r3,257
 1001df0:	18deee04 	addi	r3,r3,31672
 1001df4:	18800003 	ldbu	r2,0(r3)
 1001df8:	10800114 	ori	r2,r2,4
 1001dfc:	18800005 	stb	r2,0(r3)
                Chap9_SingleTransmitEP0(0, 0);
 1001e00:	0009883a 	mov	r4,zero
 1001e04:	000b883a 	mov	r5,zero
 1001e08:	10022000 	call	1002200 <Chap9_SingleTransmitEP0>
 1001e0c:	00003806 	br	1001ef0 <Chap9_SetConfiguration+0x1f8>
            }

            else
                Chap9_StallEP0InControlWrite();
 1001e10:	10021380 	call	1002138 <Chap9_StallEP0InControlWrite>
 1001e14:	00003606 	br	1001ef0 <Chap9_SetConfiguration+0x1f8>
        }
    }

    else
    {
        if (ControlData.DeviceRequest.wValue == 0)
 1001e18:	00804074 	movhi	r2,257
 1001e1c:	109f0c04 	addi	r2,r2,31792
 1001e20:	1080010b 	ldhu	r2,4(r2)
 1001e24:	10bfffcc 	andi	r2,r2,65535
 1001e28:	1004c03a 	cmpne	r2,r2,zero
 1001e2c:	1000151e 	bne	r2,zero,1001e84 <Chap9_SetConfiguration+0x18c>
        {
            /* put device in unconfigured state */
            bD13flags.bits.configuration = 0;
 1001e30:	01004074 	movhi	r4,257
 1001e34:	211ee504 	addi	r4,r4,31636
 1001e38:	20c00017 	ldw	r3,0(r4)
 1001e3c:	00bffdc4 	movi	r2,-9
 1001e40:	1884703a 	and	r2,r3,r2
 1001e44:	20800015 	stw	r2,0(r4)
            bUSBCheck_Device_State.State_bits.DEVICE_ADDRESS_STATE = 1;
 1001e48:	00c04074 	movhi	r3,257
 1001e4c:	18deee04 	addi	r3,r3,31672
 1001e50:	18800003 	ldbu	r2,0(r3)
 1001e54:	10800094 	ori	r2,r2,2
 1001e58:	18800005 	stb	r2,0(r3)
            bUSBCheck_Device_State.State_bits.DEVICE_CONFIGURATION_STATE = 0;
 1001e5c:	01004074 	movhi	r4,257
 1001e60:	211eee04 	addi	r4,r4,31672
 1001e64:	20c00003 	ldbu	r3,0(r4)
 1001e68:	00bffec4 	movi	r2,-5
 1001e6c:	1884703a 	and	r2,r3,r2
 1001e70:	20800005 	stb	r2,0(r4)
            Chap9_SingleTransmitEP0(0, 0);
 1001e74:	0009883a 	mov	r4,zero
 1001e78:	000b883a 	mov	r5,zero
 1001e7c:	10022000 	call	1002200 <Chap9_SingleTransmitEP0>
 1001e80:	00001b06 	br	1001ef0 <Chap9_SetConfiguration+0x1f8>

        }

        else if (ControlData.DeviceRequest.wValue == 1)
 1001e84:	00804074 	movhi	r2,257
 1001e88:	109f0c04 	addi	r2,r2,31792
 1001e8c:	1080010b 	ldhu	r2,4(r2)
 1001e90:	10bfffcc 	andi	r2,r2,65535
 1001e94:	10800058 	cmpnei	r2,r2,1
 1001e98:	1000141e 	bne	r2,zero,1001eec <Chap9_SetConfiguration+0x1f4>
        {
            /* Configure device */
            bD13flags.bits.configuration = 1;
 1001e9c:	00c04074 	movhi	r3,257
 1001ea0:	18dee504 	addi	r3,r3,31636
 1001ea4:	18800017 	ldw	r2,0(r3)
 1001ea8:	10800214 	ori	r2,r2,8
 1001eac:	18800015 	stw	r2,0(r3)
            bUSBCheck_Device_State.State_bits.DEVICE_ADDRESS_STATE = 0;
 1001eb0:	01004074 	movhi	r4,257
 1001eb4:	211eee04 	addi	r4,r4,31672
 1001eb8:	20c00003 	ldbu	r3,0(r4)
 1001ebc:	00bfff44 	movi	r2,-3
 1001ec0:	1884703a 	and	r2,r3,r2
 1001ec4:	20800005 	stb	r2,0(r4)
            bUSBCheck_Device_State.State_bits.DEVICE_CONFIGURATION_STATE = 1;
 1001ec8:	00c04074 	movhi	r3,257
 1001ecc:	18deee04 	addi	r3,r3,31672
 1001ed0:	18800003 	ldbu	r2,0(r3)
 1001ed4:	10800114 	ori	r2,r2,4
 1001ed8:	18800005 	stb	r2,0(r3)
            Chap9_SingleTransmitEP0(0, 0);
 1001edc:	0009883a 	mov	r4,zero
 1001ee0:	000b883a 	mov	r5,zero
 1001ee4:	10022000 	call	1002200 <Chap9_SingleTransmitEP0>
 1001ee8:	00000106 	br	1001ef0 <Chap9_SetConfiguration+0x1f8>
        }
        else
            Chap9_StallEP0InControlWrite();
 1001eec:	10021380 	call	1002138 <Chap9_StallEP0InControlWrite>
    }

}
 1001ef0:	e037883a 	mov	sp,fp
 1001ef4:	dfc00117 	ldw	ra,4(sp)
 1001ef8:	df000017 	ldw	fp,0(sp)
 1001efc:	dec00204 	addi	sp,sp,8
 1001f00:	f800283a 	ret

01001f04 <Chap9_GetInterface>:

void Chap9_GetInterface(void)
{
 1001f04:	defffe04 	addi	sp,sp,-8
 1001f08:	dfc00115 	stw	ra,4(sp)
 1001f0c:	df000015 	stw	fp,0(sp)
 1001f10:	d839883a 	mov	fp,sp

    if(bUSBCheck_Device_State.State_bits.DEVICE_ADDRESS_STATE)
 1001f14:	00804074 	movhi	r2,257
 1001f18:	109eee04 	addi	r2,r2,31672
 1001f1c:	10800003 	ldbu	r2,0(r2)
 1001f20:	1080008c 	andi	r2,r2,2
 1001f24:	10803fcc 	andi	r2,r2,255
 1001f28:	1005003a 	cmpeq	r2,r2,zero
 1001f2c:	1000021e 	bne	r2,zero,1001f38 <Chap9_GetInterface+0x34>
        Chap9_StallEP0InControlRead();
 1001f30:	100219c0 	call	100219c <Chap9_StallEP0InControlRead>
 1001f34:	00001706 	br	1001f94 <Chap9_GetInterface+0x90>


    else
    {

        if ((ControlData.DeviceRequest.wValue == 0 && ControlData.DeviceRequest.wIndex == 0 && ControlData.DeviceRequest.wLength == 1))
 1001f38:	00804074 	movhi	r2,257
 1001f3c:	109f0c04 	addi	r2,r2,31792
 1001f40:	1080010b 	ldhu	r2,4(r2)
 1001f44:	10bfffcc 	andi	r2,r2,65535
 1001f48:	1004c03a 	cmpne	r2,r2,zero
 1001f4c:	1000101e 	bne	r2,zero,1001f90 <Chap9_GetInterface+0x8c>
 1001f50:	00804074 	movhi	r2,257
 1001f54:	109f0c04 	addi	r2,r2,31792
 1001f58:	1080018b 	ldhu	r2,6(r2)
 1001f5c:	10bfffcc 	andi	r2,r2,65535
 1001f60:	1004c03a 	cmpne	r2,r2,zero
 1001f64:	10000a1e 	bne	r2,zero,1001f90 <Chap9_GetInterface+0x8c>
 1001f68:	00804074 	movhi	r2,257
 1001f6c:	109f0c04 	addi	r2,r2,31792
 1001f70:	1080020b 	ldhu	r2,8(r2)
 1001f74:	10bfffcc 	andi	r2,r2,65535
 1001f78:	10800058 	cmpnei	r2,r2,1
 1001f7c:	1000041e 	bne	r2,zero,1001f90 <Chap9_GetInterface+0x8c>
            Chap9_SingleTransmitEP0(&ALTERNATIVE_SETTING, 1);      //txdat
 1001f80:	d127b884 	addi	r4,gp,-24862
 1001f84:	01400044 	movi	r5,1
 1001f88:	10022000 	call	1002200 <Chap9_SingleTransmitEP0>


    else
    {

        if ((ControlData.DeviceRequest.wValue == 0 && ControlData.DeviceRequest.wIndex == 0 && ControlData.DeviceRequest.wLength == 1))
 1001f8c:	00000106 	br	1001f94 <Chap9_GetInterface+0x90>
            Chap9_SingleTransmitEP0(&ALTERNATIVE_SETTING, 1);      //txdat
        else
            Chap9_StallEP0InControlRead();
 1001f90:	100219c0 	call	100219c <Chap9_StallEP0InControlRead>
    }

}
 1001f94:	e037883a 	mov	sp,fp
 1001f98:	dfc00117 	ldw	ra,4(sp)
 1001f9c:	df000017 	ldw	fp,0(sp)
 1001fa0:	dec00204 	addi	sp,sp,8
 1001fa4:	f800283a 	ret

01001fa8 <Chap9_SetInterface>:

void Chap9_SetInterface(void)
{
 1001fa8:	defffd04 	addi	sp,sp,-12
 1001fac:	dfc00215 	stw	ra,8(sp)
 1001fb0:	df000115 	stw	fp,4(sp)
 1001fb4:	df000104 	addi	fp,sp,4
    UCHAR   dir = ControlData.DeviceRequest.bmRequestType & USB_REQUEST_DIR_MASK;
 1001fb8:	00804074 	movhi	r2,257
 1001fbc:	109f0c04 	addi	r2,r2,31792
 1001fc0:	10c00083 	ldbu	r3,2(r2)
 1001fc4:	00bfe004 	movi	r2,-128
 1001fc8:	1884703a 	and	r2,r3,r2
 1001fcc:	e0bfff05 	stb	r2,-4(fp)

    if(dir)
 1001fd0:	e0bfff03 	ldbu	r2,-4(fp)
 1001fd4:	1005003a 	cmpeq	r2,r2,zero
 1001fd8:	1000011e 	bne	r2,zero,1001fe0 <Chap9_SetInterface+0x38>
        Chap9_StallEP0InControlRead();
 1001fdc:	100219c0 	call	100219c <Chap9_StallEP0InControlRead>


    if(bUSBCheck_Device_State.State_bits.DEVICE_ADDRESS_STATE)
 1001fe0:	00804074 	movhi	r2,257
 1001fe4:	109eee04 	addi	r2,r2,31672
 1001fe8:	10800003 	ldbu	r2,0(r2)
 1001fec:	1080008c 	andi	r2,r2,2
 1001ff0:	10803fcc 	andi	r2,r2,255
 1001ff4:	1005003a 	cmpeq	r2,r2,zero
 1001ff8:	1000021e 	bne	r2,zero,1002004 <Chap9_SetInterface+0x5c>
        Chap9_StallEP0InControlRead();
 1001ffc:	100219c0 	call	100219c <Chap9_StallEP0InControlRead>
 1002000:	00002406 	br	1002094 <Chap9_SetInterface+0xec>


    else
    {

        if (ControlData.DeviceRequest.wValue == 0 && ControlData.DeviceRequest.wIndex == 0)
 1002004:	00804074 	movhi	r2,257
 1002008:	109f0c04 	addi	r2,r2,31792
 100200c:	1080010b 	ldhu	r2,4(r2)
 1002010:	10bfffcc 	andi	r2,r2,65535
 1002014:	1004c03a 	cmpne	r2,r2,zero
 1002018:	10000b1e 	bne	r2,zero,1002048 <Chap9_SetInterface+0xa0>
 100201c:	00804074 	movhi	r2,257
 1002020:	109f0c04 	addi	r2,r2,31792
 1002024:	1080018b 	ldhu	r2,6(r2)
 1002028:	10bfffcc 	andi	r2,r2,65535
 100202c:	1004c03a 	cmpne	r2,r2,zero
 1002030:	1000051e 	bne	r2,zero,1002048 <Chap9_SetInterface+0xa0>
        {
            ALTERNATIVE_SETTING = 0;
 1002034:	d027b885 	stb	zero,-24862(gp)
            Chap9_SingleTransmitEP0(0,0);
 1002038:	0009883a 	mov	r4,zero
 100203c:	000b883a 	mov	r5,zero
 1002040:	10022000 	call	1002200 <Chap9_SingleTransmitEP0>


    else
    {

        if (ControlData.DeviceRequest.wValue == 0 && ControlData.DeviceRequest.wIndex == 0)
 1002044:	00001306 	br	1002094 <Chap9_SetInterface+0xec>
        {
            ALTERNATIVE_SETTING = 0;
            Chap9_SingleTransmitEP0(0,0);
        }

        else if (ControlData.DeviceRequest.wValue == 1 && ControlData.DeviceRequest.wIndex == 0)
 1002048:	00804074 	movhi	r2,257
 100204c:	109f0c04 	addi	r2,r2,31792
 1002050:	1080010b 	ldhu	r2,4(r2)
 1002054:	10bfffcc 	andi	r2,r2,65535
 1002058:	10800058 	cmpnei	r2,r2,1
 100205c:	10000c1e 	bne	r2,zero,1002090 <Chap9_SetInterface+0xe8>
 1002060:	00804074 	movhi	r2,257
 1002064:	109f0c04 	addi	r2,r2,31792
 1002068:	1080018b 	ldhu	r2,6(r2)
 100206c:	10bfffcc 	andi	r2,r2,65535
 1002070:	1004c03a 	cmpne	r2,r2,zero
 1002074:	1000061e 	bne	r2,zero,1002090 <Chap9_SetInterface+0xe8>
        {
            ALTERNATIVE_SETTING = 1;
 1002078:	00800044 	movi	r2,1
 100207c:	d0a7b885 	stb	r2,-24862(gp)
            Chap9_SingleTransmitEP0(0,0);
 1002080:	0009883a 	mov	r4,zero
 1002084:	000b883a 	mov	r5,zero
 1002088:	10022000 	call	1002200 <Chap9_SingleTransmitEP0>
        {
            ALTERNATIVE_SETTING = 0;
            Chap9_SingleTransmitEP0(0,0);
        }

        else if (ControlData.DeviceRequest.wValue == 1 && ControlData.DeviceRequest.wIndex == 0)
 100208c:	00000106 	br	1002094 <Chap9_SetInterface+0xec>
            ALTERNATIVE_SETTING = 1;
            Chap9_SingleTransmitEP0(0,0);
        }
        else
        {
            Chap9_StallEP0InControlWrite();
 1002090:	10021380 	call	1002138 <Chap9_StallEP0InControlWrite>
        }
    }

}
 1002094:	e037883a 	mov	sp,fp
 1002098:	dfc00117 	ldw	ra,4(sp)
 100209c:	df000017 	ldw	fp,0(sp)
 10020a0:	dec00204 	addi	sp,sp,8
 10020a4:	f800283a 	ret

010020a8 <Chap9_StallEP0>:
// *************************************************************************
// Chap9 support functions
// *************************************************************************

void Chap9_StallEP0(void)
{
 10020a8:	defffd04 	addi	sp,sp,-12
 10020ac:	dfc00215 	stw	ra,8(sp)
 10020b0:	df000115 	stw	fp,4(sp)
 10020b4:	df000104 	addi	fp,sp,4
    UCHAR dir;
    dir = ControlData.DeviceRequest.bmRequestType & USB_REQUEST_DIR_MASK;
 10020b8:	00804074 	movhi	r2,257
 10020bc:	109f0c04 	addi	r2,r2,31792
 10020c0:	10c00083 	ldbu	r3,2(r2)
 10020c4:	00bfe004 	movi	r2,-128
 10020c8:	1884703a 	and	r2,r3,r2
 10020cc:	e0bfff05 	stb	r2,-4(fp)
    if(dir)
 10020d0:	e0bfff03 	ldbu	r2,-4(fp)
 10020d4:	1005003a 	cmpeq	r2,r2,zero
 10020d8:	1000021e 	bne	r2,zero,10020e4 <Chap9_StallEP0+0x3c>
    {
        Hal4D13_StallEP0InControlRead();
 10020dc:	10044900 	call	1004490 <Hal4D13_StallEP0InControlRead>
 10020e0:	00000106 	br	10020e8 <Chap9_StallEP0+0x40>
    }
    else
    {
        Hal4D13_StallEP0InControlWrite();
 10020e4:	10044540 	call	1004454 <Hal4D13_StallEP0InControlWrite>
    }

    RaiseIRQL();
 10020e8:	10045a80 	call	10045a8 <usb_disable_all_interrupts>
    if(!ControlData.Abort)
 10020ec:	00804074 	movhi	r2,257
 10020f0:	109f0c04 	addi	r2,r2,31792
 10020f4:	10800003 	ldbu	r2,0(r2)
 10020f8:	10803fcc 	andi	r2,r2,255
 10020fc:	1004c03a 	cmpne	r2,r2,zero
 1002100:	1000071e 	bne	r2,zero,1002120 <Chap9_StallEP0+0x78>
    {
        bD13flags.bits.DCP_state = USBFSM4DCP_STALL;
 1002104:	01004074 	movhi	r4,257
 1002108:	211ee504 	addi	r4,r4,31636
 100210c:	20c00017 	ldw	r3,0(r4)
 1002110:	00bc3fc4 	movi	r2,-3841
 1002114:	1884703a 	and	r2,r3,r2
 1002118:	1081c014 	ori	r2,r2,1792
 100211c:	20800015 	stw	r2,0(r4)

    }
    LowerIRQL();
 1002120:	10045f80 	call	10045f8 <usb_reenable_all_interrupts>
}
 1002124:	e037883a 	mov	sp,fp
 1002128:	dfc00117 	ldw	ra,4(sp)
 100212c:	df000017 	ldw	fp,0(sp)
 1002130:	dec00204 	addi	sp,sp,8
 1002134:	f800283a 	ret

01002138 <Chap9_StallEP0InControlWrite>:
void Chap9_StallEP0InControlWrite(void)
{
 1002138:	defffe04 	addi	sp,sp,-8
 100213c:	dfc00115 	stw	ra,4(sp)
 1002140:	df000015 	stw	fp,0(sp)
 1002144:	d839883a 	mov	fp,sp
    Hal4D13_StallEP0InControlWrite();
 1002148:	10044540 	call	1004454 <Hal4D13_StallEP0InControlWrite>

    RaiseIRQL();
 100214c:	10045a80 	call	10045a8 <usb_disable_all_interrupts>
    if(!ControlData.Abort)
 1002150:	00804074 	movhi	r2,257
 1002154:	109f0c04 	addi	r2,r2,31792
 1002158:	10800003 	ldbu	r2,0(r2)
 100215c:	10803fcc 	andi	r2,r2,255
 1002160:	1004c03a 	cmpne	r2,r2,zero
 1002164:	1000071e 	bne	r2,zero,1002184 <Chap9_StallEP0InControlWrite+0x4c>
    {
        bD13flags.bits.DCP_state = USBFSM4DCP_STALL;
 1002168:	01004074 	movhi	r4,257
 100216c:	211ee504 	addi	r4,r4,31636
 1002170:	20c00017 	ldw	r3,0(r4)
 1002174:	00bc3fc4 	movi	r2,-3841
 1002178:	1884703a 	and	r2,r3,r2
 100217c:	1081c014 	ori	r2,r2,1792
 1002180:	20800015 	stw	r2,0(r4)

    }
    LowerIRQL();
 1002184:	10045f80 	call	10045f8 <usb_reenable_all_interrupts>
}
 1002188:	e037883a 	mov	sp,fp
 100218c:	dfc00117 	ldw	ra,4(sp)
 1002190:	df000017 	ldw	fp,0(sp)
 1002194:	dec00204 	addi	sp,sp,8
 1002198:	f800283a 	ret

0100219c <Chap9_StallEP0InControlRead>:

void Chap9_StallEP0InControlRead(void)
{
 100219c:	defffe04 	addi	sp,sp,-8
 10021a0:	dfc00115 	stw	ra,4(sp)
 10021a4:	df000015 	stw	fp,0(sp)
 10021a8:	d839883a 	mov	fp,sp
    Hal4D13_StallEP0InControlRead();
 10021ac:	10044900 	call	1004490 <Hal4D13_StallEP0InControlRead>
    RaiseIRQL();
 10021b0:	10045a80 	call	10045a8 <usb_disable_all_interrupts>
    if(!ControlData.Abort)
 10021b4:	00804074 	movhi	r2,257
 10021b8:	109f0c04 	addi	r2,r2,31792
 10021bc:	10800003 	ldbu	r2,0(r2)
 10021c0:	10803fcc 	andi	r2,r2,255
 10021c4:	1004c03a 	cmpne	r2,r2,zero
 10021c8:	1000071e 	bne	r2,zero,10021e8 <Chap9_StallEP0InControlRead+0x4c>
    {
        bD13flags.bits.DCP_state = USBFSM4DCP_STALL;
 10021cc:	01004074 	movhi	r4,257
 10021d0:	211ee504 	addi	r4,r4,31636
 10021d4:	20c00017 	ldw	r3,0(r4)
 10021d8:	00bc3fc4 	movi	r2,-3841
 10021dc:	1884703a 	and	r2,r3,r2
 10021e0:	1081c014 	ori	r2,r2,1792
 10021e4:	20800015 	stw	r2,0(r4)

    }
    LowerIRQL();
 10021e8:	10045f80 	call	10045f8 <usb_reenable_all_interrupts>
}
 10021ec:	e037883a 	mov	sp,fp
 10021f0:	dfc00117 	ldw	ra,4(sp)
 10021f4:	df000017 	ldw	fp,0(sp)
 10021f8:	dec00204 	addi	sp,sp,8
 10021fc:	f800283a 	ret

01002200 <Chap9_SingleTransmitEP0>:

void Chap9_SingleTransmitEP0(PUCHAR buf, USHORT len)
{
 1002200:	defffc04 	addi	sp,sp,-16
 1002204:	dfc00315 	stw	ra,12(sp)
 1002208:	df000215 	stw	fp,8(sp)
 100220c:	df000204 	addi	fp,sp,8
 1002210:	e13ffe15 	stw	r4,-8(fp)
 1002214:	e17fff0d 	sth	r5,-4(fp)

    Hal4D13_SingleTransmitEP0(buf, len);
 1002218:	e17fff0b 	ldhu	r5,-4(fp)
 100221c:	e13ffe17 	ldw	r4,-8(fp)
 1002220:	10042a40 	call	10042a4 <Hal4D13_SingleTransmitEP0>

    RaiseIRQL();
 1002224:	10045a80 	call	10045a8 <usb_disable_all_interrupts>
    if(!ControlData.Abort)
 1002228:	00804074 	movhi	r2,257
 100222c:	109f0c04 	addi	r2,r2,31792
 1002230:	10800003 	ldbu	r2,0(r2)
 1002234:	10803fcc 	andi	r2,r2,255
 1002238:	1004c03a 	cmpne	r2,r2,zero
 100223c:	1000111e 	bne	r2,zero,1002284 <Chap9_SingleTransmitEP0+0x84>
    {
        ControlData.wLength = ControlData.wCount = len;
 1002240:	00c04074 	movhi	r3,257
 1002244:	18df0c04 	addi	r3,r3,31792
 1002248:	e0bfff0b 	ldhu	r2,-4(fp)
 100224c:	1880030d 	sth	r2,12(r3)
 1002250:	00804074 	movhi	r2,257
 1002254:	109f0c04 	addi	r2,r2,31792
 1002258:	10c0030b 	ldhu	r3,12(r2)
 100225c:	00804074 	movhi	r2,257
 1002260:	109f0c04 	addi	r2,r2,31792
 1002264:	10c0028d 	sth	r3,10(r2)
        bD13flags.bits.DCP_state = USBFSM4DCP_HANDSHAKE;
 1002268:	01004074 	movhi	r4,257
 100226c:	211ee504 	addi	r4,r4,31636
 1002270:	20c00017 	ldw	r3,0(r4)
 1002274:	00bc3fc4 	movi	r2,-3841
 1002278:	1884703a 	and	r2,r3,r2
 100227c:	10810014 	ori	r2,r2,1024
 1002280:	20800015 	stw	r2,0(r4)

    }
    LowerIRQL();
 1002284:	10045f80 	call	10045f8 <usb_reenable_all_interrupts>
}
 1002288:	e037883a 	mov	sp,fp
 100228c:	dfc00117 	ldw	ra,4(sp)
 1002290:	df000017 	ldw	fp,0(sp)
 1002294:	dec00204 	addi	sp,sp,8
 1002298:	f800283a 	ret

0100229c <Chap9_BurstTransmitEP0>:

void Chap9_BurstTransmitEP0(PUCHAR pData, USHORT len)
{
 100229c:	defffc04 	addi	sp,sp,-16
 10022a0:	dfc00315 	stw	ra,12(sp)
 10022a4:	df000215 	stw	fp,8(sp)
 10022a8:	df000204 	addi	fp,sp,8
 10022ac:	e13ffe15 	stw	r4,-8(fp)
 10022b0:	e17fff0d 	sth	r5,-4(fp)
    ControlData.wCount = 0;
 10022b4:	00804074 	movhi	r2,257
 10022b8:	109f0c04 	addi	r2,r2,31792
 10022bc:	1000030d 	sth	zero,12(r2)
    if(ControlData.wLength > len)
 10022c0:	00804074 	movhi	r2,257
 10022c4:	109f0c04 	addi	r2,r2,31792
 10022c8:	1080028b 	ldhu	r2,10(r2)
 10022cc:	10ffffcc 	andi	r3,r2,65535
 10022d0:	e0bfff0b 	ldhu	r2,-4(fp)
 10022d4:	10c0042e 	bgeu	r2,r3,10022e8 <Chap9_BurstTransmitEP0+0x4c>
        ControlData.wLength = len;
 10022d8:	00c04074 	movhi	r3,257
 10022dc:	18df0c04 	addi	r3,r3,31792
 10022e0:	e0bfff0b 	ldhu	r2,-4(fp)
 10022e4:	1880028d 	sth	r2,10(r3)

    ControlData.Addr.pData = pData;
 10022e8:	00c04074 	movhi	r3,257
 10022ec:	18df0c04 	addi	r3,r3,31792
 10022f0:	e0bffe17 	ldw	r2,-8(fp)
 10022f4:	18800415 	stw	r2,16(r3)

        if( ControlData.wLength >= EP0_PACKET_SIZE)
 10022f8:	00804074 	movhi	r2,257
 10022fc:	109f0c04 	addi	r2,r2,31792
 1002300:	1080028b 	ldhu	r2,10(r2)
 1002304:	10bfffcc 	andi	r2,r2,65535
 1002308:	10801030 	cmpltui	r2,r2,64
 100230c:	10001c1e 	bne	r2,zero,1002380 <Chap9_BurstTransmitEP0+0xe4>
        {
            Hal4D13_WriteEndpoint(EPINDEX4EP0_CONTROL_IN, pData, EP0_PACKET_SIZE);
 1002310:	01000044 	movi	r4,1
 1002314:	e17ffe17 	ldw	r5,-8(fp)
 1002318:	01801004 	movi	r6,64
 100231c:	10038cc0 	call	10038cc <Hal4D13_WriteEndpoint>

            RaiseIRQL();
 1002320:	10045a80 	call	10045a8 <usb_disable_all_interrupts>
            if(!ControlData.Abort)
 1002324:	00804074 	movhi	r2,257
 1002328:	109f0c04 	addi	r2,r2,31792
 100232c:	10800003 	ldbu	r2,0(r2)
 1002330:	10803fcc 	andi	r2,r2,255
 1002334:	1004c03a 	cmpne	r2,r2,zero
 1002338:	10000f1e 	bne	r2,zero,1002378 <Chap9_BurstTransmitEP0+0xdc>
            {
                ControlData.wCount += EP0_PACKET_SIZE;
 100233c:	00804074 	movhi	r2,257
 1002340:	109f0c04 	addi	r2,r2,31792
 1002344:	1080030b 	ldhu	r2,12(r2)
 1002348:	10801004 	addi	r2,r2,64
 100234c:	1007883a 	mov	r3,r2
 1002350:	00804074 	movhi	r2,257
 1002354:	109f0c04 	addi	r2,r2,31792
 1002358:	10c0030d 	sth	r3,12(r2)
                bD13flags.bits.DCP_state = USBFSM4DCP_DATAIN;
 100235c:	01004074 	movhi	r4,257
 1002360:	211ee504 	addi	r4,r4,31636
 1002364:	20c00017 	ldw	r3,0(r4)
 1002368:	00bc3fc4 	movi	r2,-3841
 100236c:	1884703a 	and	r2,r3,r2
 1002370:	10804014 	ori	r2,r2,256
 1002374:	20800015 	stw	r2,0(r4)

            }
            LowerIRQL();
 1002378:	10045f80 	call	10045f8 <usb_reenable_all_interrupts>
 100237c:	00002106 	br	1002404 <Chap9_BurstTransmitEP0+0x168>
        }
        else
        {
            Hal4D13_WriteEndpoint(EPINDEX4EP0_CONTROL_IN, pData, ControlData.wLength);
 1002380:	00804074 	movhi	r2,257
 1002384:	109f0c04 	addi	r2,r2,31792
 1002388:	1080028b 	ldhu	r2,10(r2)
 100238c:	11bfffcc 	andi	r6,r2,65535
 1002390:	01000044 	movi	r4,1
 1002394:	e17ffe17 	ldw	r5,-8(fp)
 1002398:	10038cc0 	call	10038cc <Hal4D13_WriteEndpoint>

            RaiseIRQL();
 100239c:	10045a80 	call	10045a8 <usb_disable_all_interrupts>
            if(!ControlData.Abort)
 10023a0:	00804074 	movhi	r2,257
 10023a4:	109f0c04 	addi	r2,r2,31792
 10023a8:	10800003 	ldbu	r2,0(r2)
 10023ac:	10803fcc 	andi	r2,r2,255
 10023b0:	1004c03a 	cmpne	r2,r2,zero
 10023b4:	1000121e 	bne	r2,zero,1002400 <Chap9_BurstTransmitEP0+0x164>
            {
                ControlData.wCount += ControlData.wLength;
 10023b8:	00804074 	movhi	r2,257
 10023bc:	109f0c04 	addi	r2,r2,31792
 10023c0:	10c0030b 	ldhu	r3,12(r2)
 10023c4:	00804074 	movhi	r2,257
 10023c8:	109f0c04 	addi	r2,r2,31792
 10023cc:	1080028b 	ldhu	r2,10(r2)
 10023d0:	1885883a 	add	r2,r3,r2
 10023d4:	1007883a 	mov	r3,r2
 10023d8:	00804074 	movhi	r2,257
 10023dc:	109f0c04 	addi	r2,r2,31792
 10023e0:	10c0030d 	sth	r3,12(r2)
                bD13flags.bits.DCP_state = USBFSM4DCP_HANDSHAKE;
 10023e4:	01004074 	movhi	r4,257
 10023e8:	211ee504 	addi	r4,r4,31636
 10023ec:	20c00017 	ldw	r3,0(r4)
 10023f0:	00bc3fc4 	movi	r2,-3841
 10023f4:	1884703a 	and	r2,r3,r2
 10023f8:	10810014 	ori	r2,r2,1024
 10023fc:	20800015 	stw	r2,0(r4)

            }
            LowerIRQL();
 1002400:	10045f80 	call	10045f8 <usb_reenable_all_interrupts>
        }
}
 1002404:	e037883a 	mov	sp,fp
 1002408:	dfc00117 	ldw	ra,4(sp)
 100240c:	df000017 	ldw	fp,0(sp)
 1002410:	dec00204 	addi	sp,sp,8
 1002414:	f800283a 	ret

01002418 <SetupToken_Handler>:
		{ "Iso mode enable", "Philips D13bus handler", "RESERVED", "RESERVED",
				"RESERVED", "RESERVED", "RESERVED", "RESERVED", "RESERVED",
				"RESERVED", "RESERVED", "RESERVED", "read Firmware version ",
				"RESERVED", "RESERVED", "RESERVED", };

void SetupToken_Handler(void) {
 1002418:	defffd04 	addi	sp,sp,-12
 100241c:	dfc00215 	stw	ra,8(sp)
 1002420:	df000115 	stw	fp,4(sp)
 1002424:	df000104 	addi	fp,sp,4
	unsigned short j;
	RaiseIRQL();
 1002428:	10045a80 	call	10045a8 <usb_disable_all_interrupts>
	bD13flags.bits.At_IRQL1 = 1;
 100242c:	00c04074 	movhi	r3,257
 1002430:	18dee504 	addi	r3,r3,31636
 1002434:	18800017 	ldw	r2,0(r3)
 1002438:	10800114 	ori	r2,r2,4
 100243c:	18800015 	stw	r2,0(r3)
	ControlData.Abort = FALSE;
 1002440:	00804074 	movhi	r2,257
 1002444:	109f0c04 	addi	r2,r2,31792
 1002448:	10000005 	stb	zero,0(r2)

	ControlData.wLength = 0;
 100244c:	00804074 	movhi	r2,257
 1002450:	109f0c04 	addi	r2,r2,31792
 1002454:	1000028d 	sth	zero,10(r2)
	ControlData.wCount = 0;
 1002458:	00804074 	movhi	r2,257
 100245c:	109f0c04 	addi	r2,r2,31792
 1002460:	1000030d 	sth	zero,12(r2)

	j = Hal4D13_ReadEndpointWOClearBuffer(EPINDEX4EP0_CONTROL_OUT,
 1002464:	01404074 	movhi	r5,257
 1002468:	295f0c84 	addi	r5,r5,31794
 100246c:	0009883a 	mov	r4,zero
 1002470:	01800204 	movi	r6,8
 1002474:	10037a80 	call	10037a8 <Hal4D13_ReadEndpointWOClearBuffer>
 1002478:	e0bfff0d 	sth	r2,-4(fp)
	 ControlData.DeviceRequest.bRequest,
	 ControlData.DeviceRequest.wValue,
	 ControlData.DeviceRequest.wIndex,
	 ControlData.DeviceRequest.wLength);
	 */
	if (j == sizeof(DEVICE_REQUEST))
 100247c:	e0bfff0b 	ldhu	r2,-4(fp)
 1002480:	10800218 	cmpnei	r2,r2,8
 1002484:	1000711e 	bne	r2,zero,100264c <SetupToken_Handler+0x234>
		//printf("ControlData.DeviceRequest.bRequest:0x%X\n",ControlData.DeviceRequest.bRequest);//1BYTE
		//printf("ControlData.DeviceRequest.wValue:0x%X\n",ControlData.DeviceRequest.wValue); //2BYTE
		//printf("ControlData.DeviceRequest.wIndex:0x%X\n",ControlData.DeviceRequest.wIndex); //2BYTE
		//printf("ControlData.DeviceRequest.wLength:0x%X\n",ControlData.DeviceRequest.wLength);//2BYTE

		bD13flags.bits.At_IRQL1 = 0;
 1002488:	01004074 	movhi	r4,257
 100248c:	211ee504 	addi	r4,r4,31636
 1002490:	20c00017 	ldw	r3,0(r4)
 1002494:	00bffec4 	movi	r2,-5
 1002498:	1884703a 	and	r2,r3,r2
 100249c:	20800015 	stw	r2,0(r4)
		LowerIRQL();
 10024a0:	10045f80 	call	10045f8 <usb_reenable_all_interrupts>
		ControlData.wLength = ControlData.DeviceRequest.wLength;
 10024a4:	00804074 	movhi	r2,257
 10024a8:	109f0c04 	addi	r2,r2,31792
 10024ac:	10c0020b 	ldhu	r3,8(r2)
 10024b0:	00804074 	movhi	r2,257
 10024b4:	109f0c04 	addi	r2,r2,31792
 10024b8:	10c0028d 	sth	r3,10(r2)
		ControlData.wCount = 0;
 10024bc:	00804074 	movhi	r2,257
 10024c0:	109f0c04 	addi	r2,r2,31792
 10024c4:	1000030d 	sth	zero,12(r2)

		if (ControlData.DeviceRequest.bmRequestType
 10024c8:	00804074 	movhi	r2,257
 10024cc:	109f0c04 	addi	r2,r2,31792
 10024d0:	10800083 	ldbu	r2,2(r2)
 10024d4:	10803fcc 	andi	r2,r2,255
 10024d8:	1080201c 	xori	r2,r2,128
 10024dc:	10bfe004 	addi	r2,r2,-128
 10024e0:	1004403a 	cmpge	r2,r2,zero
 10024e4:	1000221e 	bne	r2,zero,1002570 <SetupToken_Handler+0x158>
				& (UCHAR) USB_ENDPOINT_DIRECTION_MASK) {
			/* get command */
			RaiseIRQL();
 10024e8:	10045a80 	call	10045a8 <usb_disable_all_interrupts>
			ML_AcknowledgeSETUP();
 10024ec:	1002a440 	call	1002a44 <ML_AcknowledgeSETUP>
			if ((ControlData.DeviceRequest.bRequest == 0)
 10024f0:	00804074 	movhi	r2,257
 10024f4:	109f0c04 	addi	r2,r2,31792
 10024f8:	108000c3 	ldbu	r2,3(r2)
 10024fc:	10803fcc 	andi	r2,r2,255
 1002500:	1005003a 	cmpeq	r2,r2,zero
 1002504:	1007883a 	mov	r3,r2
 1002508:	00804074 	movhi	r2,257
 100250c:	109f0c04 	addi	r2,r2,31792
 1002510:	10800083 	ldbu	r2,2(r2)
 1002514:	10803fcc 	andi	r2,r2,255
 1002518:	10803020 	cmpeqi	r2,r2,192
 100251c:	1884703a 	and	r2,r3,r2
 1002520:	10803fcc 	andi	r2,r2,255
 1002524:	1005003a 	cmpeq	r2,r2,zero
 1002528:	1000081e 	bne	r2,zero,100254c <SetupToken_Handler+0x134>
					& (ControlData.DeviceRequest.bmRequestType == 0xc0))
				bD13flags.bits.DCP_state = USBFSM4DCP_HANDSHAKE;
 100252c:	01004074 	movhi	r4,257
 1002530:	211ee504 	addi	r4,r4,31636
 1002534:	20c00017 	ldw	r3,0(r4)
 1002538:	00bc3fc4 	movi	r2,-3841
 100253c:	1884703a 	and	r2,r3,r2
 1002540:	10810014 	ori	r2,r2,1024
 1002544:	20800015 	stw	r2,0(r4)
 1002548:	00000706 	br	1002568 <SetupToken_Handler+0x150>
			else
				bD13flags.bits.DCP_state = USBFSM4DCP_REQUESTPROC;
 100254c:	01004074 	movhi	r4,257
 1002550:	211ee504 	addi	r4,r4,31636
 1002554:	20c00017 	ldw	r3,0(r4)
 1002558:	00bc3fc4 	movi	r2,-3841
 100255c:	1884703a 	and	r2,r3,r2
 1002560:	1080c014 	ori	r2,r2,768
 1002564:	20800015 	stw	r2,0(r4)

			LowerIRQL();
 1002568:	10045f80 	call	10045f8 <usb_reenable_all_interrupts>
 100256c:	00004206 	br	1002678 <SetupToken_Handler+0x260>
		} else {
			/* set command */

			if (ControlData.DeviceRequest.wLength == 0) {
 1002570:	00804074 	movhi	r2,257
 1002574:	109f0c04 	addi	r2,r2,31792
 1002578:	1080020b 	ldhu	r2,8(r2)
 100257c:	10bfffcc 	andi	r2,r2,65535
 1002580:	1004c03a 	cmpne	r2,r2,zero
 1002584:	10000b1e 	bne	r2,zero,10025b4 <SetupToken_Handler+0x19c>
				/* Set command  without Data stage*/
				RaiseIRQL();
 1002588:	10045a80 	call	10045a8 <usb_disable_all_interrupts>
				ML_AcknowledgeSETUP();
 100258c:	1002a440 	call	1002a44 <ML_AcknowledgeSETUP>
				bD13flags.bits.DCP_state = USBFSM4DCP_REQUESTPROC;
 1002590:	01004074 	movhi	r4,257
 1002594:	211ee504 	addi	r4,r4,31636
 1002598:	20c00017 	ldw	r3,0(r4)
 100259c:	00bc3fc4 	movi	r2,-3841
 10025a0:	1884703a 	and	r2,r3,r2
 10025a4:	1080c014 	ori	r2,r2,768
 10025a8:	20800015 	stw	r2,0(r4)
				LowerIRQL();
 10025ac:	10045f80 	call	10045f8 <usb_reenable_all_interrupts>
 10025b0:	00003106 	br	1002678 <SetupToken_Handler+0x260>
			} else {
				/*
				 // Set command  with Data stage
				 // get Data Buffer
				 */
				if (ControlData.DeviceRequest.wLength <= MAX_CONTROLDATA_SIZE) {
 10025b4:	00804074 	movhi	r2,257
 10025b8:	109f0c04 	addi	r2,r2,31792
 10025bc:	1080020b 	ldhu	r2,8(r2)
 10025c0:	10bfffcc 	andi	r2,r2,65535
 10025c4:	10800468 	cmpgeui	r2,r2,17
 10025c8:	10000b1e 	bne	r2,zero,10025f8 <SetupToken_Handler+0x1e0>
					/* set command with OUT token */
					RaiseIRQL();
 10025cc:	10045a80 	call	10045a8 <usb_disable_all_interrupts>
					bD13flags.bits.DCP_state = USBFSM4DCP_DATAOUT;
 10025d0:	01004074 	movhi	r4,257
 10025d4:	211ee504 	addi	r4,r4,31636
 10025d8:	20c00017 	ldw	r3,0(r4)
 10025dc:	00bc3fc4 	movi	r2,-3841
 10025e0:	1884703a 	and	r2,r3,r2
 10025e4:	10808014 	ori	r2,r2,512
 10025e8:	20800015 	stw	r2,0(r4)
					LowerIRQL();
 10025ec:	10045f80 	call	10045f8 <usb_reenable_all_interrupts>
					ML_AcknowledgeSETUP();
 10025f0:	1002a440 	call	1002a44 <ML_AcknowledgeSETUP>
 10025f4:	00002006 	br	1002678 <SetupToken_Handler+0x260>

				} else {
					RaiseIRQL();
 10025f8:	10045a80 	call	10045a8 <usb_disable_all_interrupts>
					ML_AcknowledgeSETUP();
 10025fc:	1002a440 	call	1002a44 <ML_AcknowledgeSETUP>
					Hal4D13_StallEP0InControlWrite();
 1002600:	10044540 	call	1004454 <Hal4D13_StallEP0InControlWrite>
					bD13flags.bits.DCP_state = USBFSM4DCP_STALL;
 1002604:	01004074 	movhi	r4,257
 1002608:	211ee504 	addi	r4,r4,31636
 100260c:	20c00017 	ldw	r3,0(r4)
 1002610:	00bc3fc4 	movi	r2,-3841
 1002614:	1884703a 	and	r2,r3,r2
 1002618:	1081c014 	ori	r2,r2,1792
 100261c:	20800015 	stw	r2,0(r4)
					printf(
 1002620:	00804074 	movhi	r2,257
 1002624:	109ee504 	addi	r2,r2,31636
 1002628:	10800017 	ldw	r2,0(r2)
 100262c:	1004d23a 	srli	r2,r2,8
 1002630:	108003cc 	andi	r2,r2,15
 1002634:	11403fcc 	andi	r5,r2,255
 1002638:	01004074 	movhi	r4,257
 100263c:	210dd204 	addi	r4,r4,14152
 1002640:	1005e580 	call	1005e58 <printf>
							"bD13flags.bits.DCP_state = x%hx\n Unknow set up command\n",
							bD13flags.bits.DCP_state);
					LowerIRQL();
 1002644:	10045f80 	call	10045f8 <usb_reenable_all_interrupts>
 1002648:	00000b06 	br	1002678 <SetupToken_Handler+0x260>
				}
			}
		}
	} else {
		printf("wrong setup command\n");
 100264c:	01004074 	movhi	r4,257
 1002650:	210de004 	addi	r4,r4,14208
 1002654:	1005f940 	call	1005f94 <puts>
		bD13flags.bits.At_IRQL1 = 0;
 1002658:	01004074 	movhi	r4,257
 100265c:	211ee504 	addi	r4,r4,31636
 1002660:	20c00017 	ldw	r3,0(r4)
 1002664:	00bffec4 	movi	r2,-5
 1002668:	1884703a 	and	r2,r3,r2
 100266c:	20800015 	stw	r2,0(r4)
		LowerIRQL();
 1002670:	10045f80 	call	10045f8 <usb_reenable_all_interrupts>
		Chap9_StallEP0();
 1002674:	10020a80 	call	10020a8 <Chap9_StallEP0>
	}

	// printf("To_Ha_end\n");
}
 1002678:	e037883a 	mov	sp,fp
 100267c:	dfc00117 	ldw	ra,4(sp)
 1002680:	df000017 	ldw	fp,0(sp)
 1002684:	dec00204 	addi	sp,sp,8
 1002688:	f800283a 	ret

0100268c <DeviceRequest_Handler>:

void DeviceRequest_Handler(void) {
 100268c:	defffd04 	addi	sp,sp,-12
 1002690:	dfc00215 	stw	ra,8(sp)
 1002694:	df000115 	stw	fp,4(sp)
 1002698:	df000104 	addi	fp,sp,4
	UCHAR type, req;

	type = ControlData.DeviceRequest.bmRequestType & USB_REQUEST_TYPE_MASK;
 100269c:	00804074 	movhi	r2,257
 10026a0:	109f0c04 	addi	r2,r2,31792
 10026a4:	10800083 	ldbu	r2,2(r2)
 10026a8:	1080180c 	andi	r2,r2,96
 10026ac:	e0bfff45 	stb	r2,-3(fp)
	req = ControlData.DeviceRequest.bRequest & USB_REQUEST_MASK;
 10026b0:	00804074 	movhi	r2,257
 10026b4:	109f0c04 	addi	r2,r2,31792
 10026b8:	108000c3 	ldbu	r2,3(r2)
 10026bc:	e0bfff05 	stb	r2,-4(fp)
	//if (bD13flags.bits.verbose==1)
	//   printf("type = 0x%02x, req = 0x%02x\n", type, req);

	// help_devreq(type, req); /* print out device request */

	if ((type == USB_STANDARD_REQUEST) && (req < MAX_STANDARD_REQUEST)) {
 10026c0:	e0bfff43 	ldbu	r2,-3(fp)
 10026c4:	1004c03a 	cmpne	r2,r2,zero
 10026c8:	10000c1e 	bne	r2,zero,10026fc <DeviceRequest_Handler+0x70>
 10026cc:	e0bfff03 	ldbu	r2,-4(fp)
 10026d0:	10800368 	cmpgeui	r2,r2,13
 10026d4:	1000091e 	bne	r2,zero,10026fc <DeviceRequest_Handler+0x70>
		(*StandardDeviceRequest[req])();
 10026d8:	e0bfff03 	ldbu	r2,-4(fp)
 10026dc:	00c04074 	movhi	r3,257
 10026e0:	18d03404 	addi	r3,r3,16592
 10026e4:	1085883a 	add	r2,r2,r2
 10026e8:	1085883a 	add	r2,r2,r2
 10026ec:	10c5883a 	add	r2,r2,r3
 10026f0:	10800017 	ldw	r2,0(r2)
 10026f4:	103ee83a 	callr	r2
	//if (bD13flags.bits.verbose==1)
	//   printf("type = 0x%02x, req = 0x%02x\n", type, req);

	// help_devreq(type, req); /* print out device request */

	if ((type == USB_STANDARD_REQUEST) && (req < MAX_STANDARD_REQUEST)) {
 10026f8:	00001006 	br	100273c <DeviceRequest_Handler+0xb0>
		(*StandardDeviceRequest[req])();
	} else if ((type == USB_CLASS_REQUEST) && (req < MAX_CLASS_REQUEST))
		(*ClassDeviceRequest[req])();
	else if ((type == USB_VENDOR_REQUEST) && (req < MAX_VENDOR_REQUEST))
 10026fc:	e0bfff43 	ldbu	r2,-3(fp)
 1002700:	10801018 	cmpnei	r2,r2,64
 1002704:	10000c1e 	bne	r2,zero,1002738 <DeviceRequest_Handler+0xac>
 1002708:	e0bfff03 	ldbu	r2,-4(fp)
 100270c:	108003e8 	cmpgeui	r2,r2,15
 1002710:	1000091e 	bne	r2,zero,1002738 <DeviceRequest_Handler+0xac>
		(*VendorDeviceRequest[req])();
 1002714:	e0bfff03 	ldbu	r2,-4(fp)
 1002718:	00c04074 	movhi	r3,257
 100271c:	18d05604 	addi	r3,r3,16728
 1002720:	1085883a 	add	r2,r2,r2
 1002724:	1085883a 	add	r2,r2,r2
 1002728:	10c5883a 	add	r2,r2,r3
 100272c:	10800017 	ldw	r2,0(r2)
 1002730:	103ee83a 	callr	r2

	if ((type == USB_STANDARD_REQUEST) && (req < MAX_STANDARD_REQUEST)) {
		(*StandardDeviceRequest[req])();
	} else if ((type == USB_CLASS_REQUEST) && (req < MAX_CLASS_REQUEST))
		(*ClassDeviceRequest[req])();
	else if ((type == USB_VENDOR_REQUEST) && (req < MAX_VENDOR_REQUEST))
 1002734:	00000106 	br	100273c <DeviceRequest_Handler+0xb0>
		(*VendorDeviceRequest[req])();
	else {
		Chap9_StallEP0();
 1002738:	10020a80 	call	10020a8 <Chap9_StallEP0>
	}
}
 100273c:	e037883a 	mov	sp,fp
 1002740:	dfc00117 	ldw	ra,4(sp)
 1002744:	df000017 	ldw	fp,0(sp)
 1002748:	dec00204 	addi	sp,sp,8
 100274c:	f800283a 	ret

01002750 <help_devreq>:

void help_devreq(UCHAR type, UCHAR req) {
 1002750:	defffb04 	addi	sp,sp,-20
 1002754:	dfc00415 	stw	ra,16(sp)
 1002758:	df000315 	stw	fp,12(sp)
 100275c:	df000304 	addi	fp,sp,12
 1002760:	e13ffe05 	stb	r4,-8(fp)
 1002764:	e17fff05 	stb	r5,-4(fp)
	UCHAR typ = type;
 1002768:	e0bffe03 	ldbu	r2,-8(fp)
 100276c:	e0bffd05 	stb	r2,-12(fp)
	typ >>= 5;
 1002770:	e0bffd03 	ldbu	r2,-12(fp)
 1002774:	1004d17a 	srli	r2,r2,5
 1002778:	e0bffd05 	stb	r2,-12(fp)

	if (type == USB_STANDARD_REQUEST) {
 100277c:	e0bffe03 	ldbu	r2,-8(fp)
 1002780:	1004c03a 	cmpne	r2,r2,zero
 1002784:	1000121e 	bne	r2,zero,10027d0 <help_devreq+0x80>
		printf("Request Type = %s, Request = %s.\n",
 1002788:	e0bffd03 	ldbu	r2,-12(fp)
 100278c:	00c04074 	movhi	r3,257
 1002790:	18d04504 	addi	r3,r3,16660
 1002794:	1085883a 	add	r2,r2,r2
 1002798:	1085883a 	add	r2,r2,r2
 100279c:	10c5883a 	add	r2,r2,r3
 10027a0:	11400017 	ldw	r5,0(r2)
 10027a4:	e0bfff03 	ldbu	r2,-4(fp)
 10027a8:	00c04074 	movhi	r3,257
 10027ac:	18d04904 	addi	r3,r3,16676
 10027b0:	1085883a 	add	r2,r2,r2
 10027b4:	1085883a 	add	r2,r2,r2
 10027b8:	10c5883a 	add	r2,r2,r3
 10027bc:	11800017 	ldw	r6,0(r2)
 10027c0:	01004074 	movhi	r4,257
 10027c4:	210de504 	addi	r4,r4,14228
 10027c8:	1005e580 	call	1005e58 <printf>
 10027cc:	00002506 	br	1002864 <help_devreq+0x114>
				_NAME_USB_REQUEST_TYPE[typ], _NAME_USB_STANDARD_REQUEST[req]);
	} else if (type == USB_CLASS_REQUEST) {
 10027d0:	e0bffe03 	ldbu	r2,-8(fp)
 10027d4:	10800818 	cmpnei	r2,r2,32
 10027d8:	1000111e 	bne	r2,zero,1002820 <help_devreq+0xd0>
		printf("Request Type = %s, Request = %s.\n",
 10027dc:	e0bffd03 	ldbu	r2,-12(fp)
 10027e0:	00c04074 	movhi	r3,257
 10027e4:	18d04504 	addi	r3,r3,16660
 10027e8:	1085883a 	add	r2,r2,r2
 10027ec:	1085883a 	add	r2,r2,r2
 10027f0:	10c5883a 	add	r2,r2,r3
 10027f4:	11400017 	ldw	r5,0(r2)
 10027f8:	e0bfff03 	ldbu	r2,-4(fp)
 10027fc:	1085883a 	add	r2,r2,r2
 1002800:	1087883a 	add	r3,r2,r2
 1002804:	d0a00904 	addi	r2,gp,-32732
 1002808:	1885883a 	add	r2,r3,r2
 100280c:	11800017 	ldw	r6,0(r2)
 1002810:	01004074 	movhi	r4,257
 1002814:	210de504 	addi	r4,r4,14228
 1002818:	1005e580 	call	1005e58 <printf>
 100281c:	00001106 	br	1002864 <help_devreq+0x114>
				_NAME_USB_REQUEST_TYPE[typ], _NAME_USB_CLASS_REQUEST[req]);
	} else {
		if (bD13flags.bits.verbose)
 1002820:	00804074 	movhi	r2,257
 1002824:	109ee504 	addi	r2,r2,31636
 1002828:	10800017 	ldw	r2,0(r2)
 100282c:	1080402c 	andhi	r2,r2,256
 1002830:	1005003a 	cmpeq	r2,r2,zero
 1002834:	10000b1e 	bne	r2,zero,1002864 <help_devreq+0x114>
			printf("Request Type = %s, bRequest = 0x%x.\n",
 1002838:	e0bffd03 	ldbu	r2,-12(fp)
 100283c:	00c04074 	movhi	r3,257
 1002840:	18d04504 	addi	r3,r3,16660
 1002844:	1085883a 	add	r2,r2,r2
 1002848:	1085883a 	add	r2,r2,r2
 100284c:	10c5883a 	add	r2,r2,r3
 1002850:	11400017 	ldw	r5,0(r2)
 1002854:	e1bfff03 	ldbu	r6,-4(fp)
 1002858:	01004074 	movhi	r4,257
 100285c:	210dee04 	addi	r4,r4,14264
 1002860:	1005e580 	call	1005e58 <printf>
					_NAME_USB_REQUEST_TYPE[typ], req);
	}
}
 1002864:	e037883a 	mov	sp,fp
 1002868:	dfc00117 	ldw	ra,4(sp)
 100286c:	df000017 	ldw	fp,0(sp)
 1002870:	dec00204 	addi	sp,sp,8
 1002874:	f800283a 	ret

01002878 <disconnect_USB>:

void disconnect_USB(void) {
 1002878:	defffe04 	addi	sp,sp,-8
 100287c:	dfc00115 	stw	ra,4(sp)
 1002880:	df000015 	stw	fp,0(sp)
 1002884:	d839883a 	mov	fp,sp
//	printf("USB disconnect\n");
	Hal4D13_SetDevConfig(
 1002888:	010c0104 	movi	r4,12292
 100288c:	10031fc0 	call	10031fc <Hal4D13_SetDevConfig>
			D13REG_DEVCNFG_NOLAZYCLOCK | D13REG_DEVCNFG_PWROFF
					| D13REG_DEVCNFG_CLOCKRUNNING);
	Hal4D13_SetMode(
 1002890:	01000204 	movi	r4,8
 1002894:	10032500 	call	1003250 <Hal4D13_SetMode>

	D13REG_MODE_INT_EN);

}
 1002898:	e037883a 	mov	sp,fp
 100289c:	dfc00117 	ldw	ra,4(sp)
 10028a0:	df000017 	ldw	fp,0(sp)
 10028a4:	dec00204 	addi	sp,sp,8
 10028a8:	f800283a 	ret

010028ac <connect_USB>:

void connect_USB(void) {
 10028ac:	defffe04 	addi	sp,sp,-8
 10028b0:	dfc00115 	stw	ra,4(sp)
 10028b4:	df000015 	stw	fp,0(sp)
 10028b8:	d839883a 	mov	fp,sp

	RaiseIRQL();
 10028bc:	10045a80 	call	10045a8 <usb_disable_all_interrupts>
//	printf("USB connect\n");
	bD13flags.value = 0; /* reset event flags*/
 10028c0:	00804074 	movhi	r2,257
 10028c4:	109ee504 	addi	r2,r2,31636
 10028c8:	10000015 	stw	zero,0(r2)
	bD13flags.bits.DCP_state = USBFSM4DCP_IDLE;
 10028cc:	01004074 	movhi	r4,257
 10028d0:	211ee504 	addi	r4,r4,31636
 10028d4:	20c00017 	ldw	r3,0(r4)
 10028d8:	00bc3fc4 	movi	r2,-3841
 10028dc:	1884703a 	and	r2,r3,r2
 10028e0:	20800015 	stw	r2,0(r4)
	config_endpoint();
 10028e4:	10029080 	call	1002908 <config_endpoint>

	LowerIRQL();
 10028e8:	10045f80 	call	10045f8 <usb_reenable_all_interrupts>

	Hal4D13_SetMode(D13REG_MODE_SOFTCONNECT | D13REG_MODE_DMA16 |
 10028ec:	01002244 	movi	r4,137
 10028f0:	10032500 	call	1003250 <Hal4D13_SetMode>
			D13REG_MODE_INT_EN
//| D13REG_MODE_SUSPND            

			);

}
 10028f4:	e037883a 	mov	sp,fp
 10028f8:	dfc00117 	ldw	ra,4(sp)
 10028fc:	df000017 	ldw	fp,0(sp)
 1002900:	dec00204 	addi	sp,sp,8
 1002904:	f800283a 	ret

01002908 <config_endpoint>:

void config_endpoint(void) {
 1002908:	defffe04 	addi	sp,sp,-8
 100290c:	dfc00115 	stw	ra,4(sp)
 1002910:	df000015 	stw	fp,0(sp)
 1002914:	d839883a 	mov	fp,sp
	/*Control Endpoint*/
//	printf("USB config\n");
	Hal4D13_SetEndpointConfig(D13REG_EPCNFG_FIFO_EN | D13REG_EPCNFG_NONISOSZ_64,
 1002918:	010020c4 	movi	r4,131
 100291c:	000b883a 	mov	r5,zero
 1002920:	100420c0 	call	100420c <Hal4D13_SetEndpointConfig>
			EPINDEX4EP0_CONTROL_OUT);
	Hal4D13_SetEndpointConfig(
 1002924:	010030c4 	movi	r4,195
 1002928:	01400044 	movi	r5,1
 100292c:	100420c0 	call	100420c <Hal4D13_SetEndpointConfig>
			D13REG_EPCNFG_FIFO_EN | D13REG_EPCNFG_IN_EN
					| D13REG_EPCNFG_NONISOSZ_64, EPINDEX4EP0_CONTROL_IN);
	/*Control Endpoint*/

	/*port1 is OUT*/
	Hal4D13_SetEndpointConfig(
 1002930:	010028c4 	movi	r4,163
 1002934:	01400084 	movi	r5,2
 1002938:	100420c0 	call	100420c <Hal4D13_SetEndpointConfig>
			D13REG_EPCNFG_DBLBUF_EN |
			D13REG_EPCNFG_NONISOSZ_64,
			EPINDEX4EP01);

	/*port2 is IN*/
	Hal4D13_SetEndpointConfig(
 100293c:	010038c4 	movi	r4,227
 1002940:	014000c4 	movi	r5,3
 1002944:	100420c0 	call	100420c <Hal4D13_SetEndpointConfig>
			D13REG_EPCNFG_NONISOSZ_64,
			EPINDEX4EP02);
	/*DISABLED*/

	/*Bulk Enpoints Double Buffered*/
	Hal4D13_SetEndpointConfig(
 1002948:	010008c4 	movi	r4,35
 100294c:	01400104 	movi	r5,4
 1002950:	100420c0 	call	100420c <Hal4D13_SetEndpointConfig>
			/*D13REG_EPCNFG_FIFO_EN|*/D13REG_EPCNFG_DBLBUF_EN
					| D13REG_EPCNFG_NONISOSZ_64, EPINDEX4EP03);
	Hal4D13_SetEndpointConfig(
 1002954:	010018c4 	movi	r4,99
 1002958:	01400144 	movi	r5,5
 100295c:	100420c0 	call	100420c <Hal4D13_SetEndpointConfig>
					| D13REG_EPCNFG_IN_EN | D13REG_EPCNFG_NONISOSZ_64,
			EPINDEX4EP04);
	/*Bulk Enpoints Double Buffered*/

	/*Isochronous Endpoints*/
	Hal4D13_SetEndpointConfig(
 1002960:	01000c04 	movi	r4,48
 1002964:	01400184 	movi	r5,6
 1002968:	100420c0 	call	100420c <Hal4D13_SetEndpointConfig>
			/*D13REG_EPCNFG_FIFO_EN|*/D13REG_EPCNFG_DBLBUF_EN
					| D13REG_EPCNFG_ISOSZ_16 | D13REG_EPCNFG_ISO_EN,
			EPINDEX4EP05);
	Hal4D13_SetEndpointConfig(
 100296c:	01001c04 	movi	r4,112
 1002970:	014001c4 	movi	r5,7
 1002974:	100420c0 	call	100420c <Hal4D13_SetEndpointConfig>
					| D13REG_EPCNFG_ISOSZ_16 | D13REG_EPCNFG_ISO_EN
					| D13REG_EPCNFG_IN_EN, EPINDEX4EP06);
	/*Isochronous Endpoints*/

	/*DISABLED*/
	Hal4D13_SetEndpointConfig(
 1002978:	01000c04 	movi	r4,48
 100297c:	01400204 	movi	r5,8
 1002980:	100420c0 	call	100420c <Hal4D13_SetEndpointConfig>
			/*D13REG_EPCNFG_FIFO_EN|*/D13REG_EPCNFG_DBLBUF_EN
					| D13REG_EPCNFG_ISOSZ_16 | D13REG_EPCNFG_ISO_EN,
			EPINDEX4EP07);
	Hal4D13_SetEndpointConfig(
 1002984:	01001c04 	movi	r4,112
 1002988:	01400244 	movi	r5,9
 100298c:	100420c0 	call	100420c <Hal4D13_SetEndpointConfig>
			/*D13REG_EPCNFG_FIFO_EN|*/D13REG_EPCNFG_IN_EN
					| D13REG_EPCNFG_DBLBUF_EN | D13REG_EPCNFG_ISOSZ_16
					| D13REG_EPCNFG_ISO_EN, EPINDEX4EP08);
	Hal4D13_SetEndpointConfig(
 1002990:	01000c04 	movi	r4,48
 1002994:	01400284 	movi	r5,10
 1002998:	100420c0 	call	100420c <Hal4D13_SetEndpointConfig>
			/*D13REG_EPCNFG_FIFO_EN|*/D13REG_EPCNFG_DBLBUF_EN
					| D13REG_EPCNFG_ISOSZ_16 | D13REG_EPCNFG_ISO_EN,
			EPINDEX4EP09);
	Hal4D13_SetEndpointConfig(
 100299c:	01001c04 	movi	r4,112
 10029a0:	014002c4 	movi	r5,11
 10029a4:	100420c0 	call	100420c <Hal4D13_SetEndpointConfig>
			/*D13REG_EPCNFG_FIFO_EN|*/D13REG_EPCNFG_IN_EN
					| D13REG_EPCNFG_DBLBUF_EN | D13REG_EPCNFG_ISOSZ_16
					| D13REG_EPCNFG_ISO_EN, EPINDEX4EP0A);
	Hal4D13_SetEndpointConfig(
 10029a8:	01000cc4 	movi	r4,51
 10029ac:	01400304 	movi	r5,12
 10029b0:	100420c0 	call	100420c <Hal4D13_SetEndpointConfig>
			/*D13REG_EPCNFG_FIFO_EN|*/D13REG_EPCNFG_DBLBUF_EN
					| D13REG_EPCNFG_ISOSZ_64 | D13REG_EPCNFG_ISO_EN,
			EPINDEX4EP0B);
	Hal4D13_SetEndpointConfig(
 10029b4:	01001cc4 	movi	r4,115
 10029b8:	01400344 	movi	r5,13
 10029bc:	100420c0 	call	100420c <Hal4D13_SetEndpointConfig>
			/*D13REG_EPCNFG_FIFO_EN|*/D13REG_EPCNFG_IN_EN
					| D13REG_EPCNFG_DBLBUF_EN | D13REG_EPCNFG_ISOSZ_64
					| D13REG_EPCNFG_ISO_EN, EPINDEX4EP0C);
	Hal4D13_SetEndpointConfig(
 10029c0:	01000cc4 	movi	r4,51
 10029c4:	01400384 	movi	r5,14
 10029c8:	100420c0 	call	100420c <Hal4D13_SetEndpointConfig>
			/*D13REG_EPCNFG_FIFO_EN|*/D13REG_EPCNFG_DBLBUF_EN
					| D13REG_EPCNFG_ISOSZ_64 | D13REG_EPCNFG_ISO_EN,
			EPINDEX4EP0D);
	Hal4D13_SetEndpointConfig(
 10029cc:	01001cc4 	movi	r4,115
 10029d0:	014003c4 	movi	r5,15
 10029d4:	100420c0 	call	100420c <Hal4D13_SetEndpointConfig>
					| D13REG_EPCNFG_DBLBUF_EN | D13REG_EPCNFG_ISOSZ_64
					| D13REG_EPCNFG_ISO_EN, EPINDEX4EP0E);
	/*DISABLED*/

	/*Set interrupt configuration*/
	Hal4D13_SetIntEnable(
 10029d8:	0103c1c4 	movi	r4,3847
 10029dc:	1003bbc0 	call	1003bbc <Hal4D13_SetIntEnable>
					//          |D13REG_INTSRC_EP06
					| D13REG_INTSRC_SUSPEND | D13REG_INTSRC_RESUME
					| D13REG_INTSRC_BUSRESET);

	/*Set Hardware Configuration*/
	Hal4D13_SetDevConfig(
 10029e0:	0108d004 	movi	r4,9024
 10029e4:	10031fc0 	call	10031fc <Hal4D13_SetDevConfig>
			D13REG_DEVCNFG_NOLAZYCLOCK | D13REG_DEVCNFG_CLOCKDIV_120M
					| D13REG_DEVCNFG_DMARQPOL
//            |D13REG_DEVCNFG_EXPULLUP
			);

}
 10029e8:	e037883a 	mov	sp,fp
 10029ec:	dfc00117 	ldw	ra,4(sp)
 10029f0:	df000017 	ldw	fp,0(sp)
 10029f4:	dec00204 	addi	sp,sp,8
 10029f8:	f800283a 	ret

010029fc <reconnect_USB>:

void reconnect_USB(void) {
 10029fc:	defffe04 	addi	sp,sp,-8
 1002a00:	dfc00115 	stw	ra,4(sp)
 1002a04:	df000015 	stw	fp,0(sp)
 1002a08:	d839883a 	mov	fp,sp
	disconnect_USB();
 1002a0c:	10028780 	call	1002878 <disconnect_USB>
	connect_USB();
 1002a10:	10028ac0 	call	10028ac <connect_USB>
}
 1002a14:	e037883a 	mov	sp,fp
 1002a18:	dfc00117 	ldw	ra,4(sp)
 1002a1c:	df000017 	ldw	fp,0(sp)
 1002a20:	dec00204 	addi	sp,sp,8
 1002a24:	f800283a 	ret

01002a28 <suspend_change>:

void suspend_change(void) {
 1002a28:	deffff04 	addi	sp,sp,-4
 1002a2c:	df000015 	stw	fp,0(sp)
 1002a30:	d839883a 	mov	fp,sp
//    printf("SUSPEND CHANGE \n");
	// disconnect_USB();
//  Suspend_Device_Controller();
}
 1002a34:	e037883a 	mov	sp,fp
 1002a38:	df000017 	ldw	fp,0(sp)
 1002a3c:	dec00104 	addi	sp,sp,4
 1002a40:	f800283a 	ret

01002a44 <ML_AcknowledgeSETUP>:

void ML_AcknowledgeSETUP(void) {
 1002a44:	defffe04 	addi	sp,sp,-8
 1002a48:	dfc00115 	stw	ra,4(sp)
 1002a4c:	df000015 	stw	fp,0(sp)
 1002a50:	d839883a 	mov	fp,sp

	if (Hal4D13_IsSetupPktInvalid() || ControlData.Abort) {
 1002a54:	10044cc0 	call	10044cc <Hal4D13_IsSetupPktInvalid>
 1002a58:	10803fcc 	andi	r2,r2,255
 1002a5c:	1004c03a 	cmpne	r2,r2,zero
 1002a60:	10000a1e 	bne	r2,zero,1002a8c <ML_AcknowledgeSETUP+0x48>
 1002a64:	00804074 	movhi	r2,257
 1002a68:	109f0c04 	addi	r2,r2,31792
 1002a6c:	10800003 	ldbu	r2,0(r2)
 1002a70:	10803fcc 	andi	r2,r2,255
 1002a74:	1005003a 	cmpeq	r2,r2,zero
 1002a78:	1000011e 	bne	r2,zero,1002a80 <ML_AcknowledgeSETUP+0x3c>
		return;
 1002a7c:	00000306 	br	1002a8c <ML_AcknowledgeSETUP+0x48>
	}

	Hal4D13_AcknowledgeSETUP();
 1002a80:	10034a80 	call	10034a8 <Hal4D13_AcknowledgeSETUP>
	Hal4D13_ClearBuffer(EPINDEX4EP0_CONTROL_OUT);
 1002a84:	0009883a 	mov	r4,zero
 1002a88:	10034e00 	call	10034e0 <Hal4D13_ClearBuffer>
}
 1002a8c:	e037883a 	mov	sp,fp
 1002a90:	dfc00117 	ldw	ra,4(sp)
 1002a94:	df000017 	ldw	fp,0(sp)
 1002a98:	dec00204 	addi	sp,sp,8
 1002a9c:	f800283a 	ret

01002aa0 <ML_Reserved>:

void ML_Reserved(void) {
 1002aa0:	defffe04 	addi	sp,sp,-8
 1002aa4:	dfc00115 	stw	ra,4(sp)
 1002aa8:	df000015 	stw	fp,0(sp)
 1002aac:	d839883a 	mov	fp,sp
	Hal4D13_ClearBuffer(EPINDEX4EP0_CONTROL_OUT);
 1002ab0:	0009883a 	mov	r4,zero
 1002ab4:	10034e00 	call	10034e0 <Hal4D13_ClearBuffer>
}
 1002ab8:	e037883a 	mov	sp,fp
 1002abc:	dfc00117 	ldw	ra,4(sp)
 1002ac0:	df000017 	ldw	fp,0(sp)
 1002ac4:	dec00204 	addi	sp,sp,8
 1002ac8:	f800283a 	ret

01002acc <CHECK_CHIP_ID>:

unsigned short CHECK_CHIP_ID(void) {
 1002acc:	defffb04 	addi	sp,sp,-20
 1002ad0:	dfc00415 	stw	ra,16(sp)
 1002ad4:	df000315 	stw	fp,12(sp)
 1002ad8:	df000304 	addi	fp,sp,12
	unsigned short CHIP_ID;
	unsigned char LOW_ID, HIGH_ID;

	CHIP_ID = Hal4D13_ReadChipID();
 1002adc:	10040e80 	call	10040e8 <Hal4D13_ReadChipID>
 1002ae0:	e0bffd8d 	sth	r2,-10(fp)
	LOW_ID = (unsigned char) CHIP_ID;
 1002ae4:	e0bffd8b 	ldhu	r2,-10(fp)
 1002ae8:	e0bffd45 	stb	r2,-11(fp)
	HIGH_ID = (unsigned char) (CHIP_ID >> 8);
 1002aec:	e0bffd8b 	ldhu	r2,-10(fp)
 1002af0:	1004d23a 	srli	r2,r2,8
 1002af4:	e0bffd05 	stb	r2,-12(fp)

	switch (HIGH_ID) {
 1002af8:	e0bffd03 	ldbu	r2,-12(fp)
 1002afc:	e0bfff15 	stw	r2,-4(fp)
 1002b00:	e0ffff17 	ldw	r3,-4(fp)
 1002b04:	18800da0 	cmpeqi	r2,r3,54
 1002b08:	1000091e 	bne	r2,zero,1002b30 <CHECK_CHIP_ID+0x64>
 1002b0c:	e0ffff17 	ldw	r3,-4(fp)
 1002b10:	18801860 	cmpeqi	r2,r3,97
 1002b14:	1000011e 	bne	r2,zero,1002b1c <CHECK_CHIP_ID+0x50>
 1002b18:	00000a06 	br	1002b44 <CHECK_CHIP_ID+0x78>
	case 0x61: {
//		printf("USB ChipID=0x%04x\n", CHIP_ID);
		CHIP_ID = 0x1161;
 1002b1c:	00845844 	movi	r2,4449
 1002b20:	e0bffd8d 	sth	r2,-10(fp)
		return CHIP_ID;
 1002b24:	e0bffd8b 	ldhu	r2,-10(fp)
 1002b28:	e0bffe15 	stw	r2,-8(fp)
 1002b2c:	00000706 	br	1002b4c <CHECK_CHIP_ID+0x80>
		break;
	}

	case 0x36: {
//		printf("USB ChipID=0x%04x\n", CHIP_ID);
		CHIP_ID = 0x1362;
 1002b30:	0084d884 	movi	r2,4962
 1002b34:	e0bffd8d 	sth	r2,-10(fp)
		return CHIP_ID;
 1002b38:	e0fffd8b 	ldhu	r3,-10(fp)
 1002b3c:	e0fffe15 	stw	r3,-8(fp)
 1002b40:	00000206 	br	1002b4c <CHECK_CHIP_ID+0x80>
		break;
	}

	default: {
//		printf("USB Unknown ChipID=0x%04x\n", CHIP_ID);
		return CHIP_ID;
 1002b44:	e0bffd8b 	ldhu	r2,-10(fp)
 1002b48:	e0bffe15 	stw	r2,-8(fp)
 1002b4c:	e0bffe17 	ldw	r2,-8(fp)
		break;
	}

	}

}
 1002b50:	e037883a 	mov	sp,fp
 1002b54:	dfc00117 	ldw	ra,4(sp)
 1002b58:	df000017 	ldw	fp,0(sp)
 1002b5c:	dec00204 	addi	sp,sp,8
 1002b60:	f800283a 	ret

01002b64 <D13Bus_ControlEntry>:
// *************************************************************************
// Subroutines
// *************************************************************************

void D13Bus_ControlEntry(void)
{
 1002b64:	defffe04 	addi	sp,sp,-8
 1002b68:	dfc00115 	stw	ra,4(sp)
 1002b6c:	df000015 	stw	fp,0(sp)
 1002b70:	d839883a 	mov	fp,sp
    // No support now, just stall it.
    D13Bus_StallEP0();
 1002b74:	1002eec0 	call	1002eec <D13Bus_StallEP0>
}
 1002b78:	e037883a 	mov	sp,fp
 1002b7c:	dfc00117 	ldw	ra,4(sp)
 1002b80:	df000017 	ldw	fp,0(sp)
 1002b84:	dec00204 	addi	sp,sp,8
 1002b88:	f800283a 	ret

01002b8c <reserved>:

void reserved(void)
{
 1002b8c:	defffe04 	addi	sp,sp,-8
 1002b90:	dfc00115 	stw	ra,4(sp)
 1002b94:	df000015 	stw	fp,0(sp)
 1002b98:	d839883a 	mov	fp,sp
    // Undefined commands, stall them
    D13Bus_StallEP0();
 1002b9c:	1002eec0 	call	1002eec <D13Bus_StallEP0>
}
 1002ba0:	e037883a 	mov	sp,fp
 1002ba4:	dfc00117 	ldw	ra,4(sp)
 1002ba8:	df000017 	ldw	fp,0(sp)
 1002bac:	dec00204 	addi	sp,sp,8
 1002bb0:	f800283a 	ret

01002bb4 <read_write_register>:

void read_write_register(void)
{
 1002bb4:	defffd04 	addi	sp,sp,-12
 1002bb8:	dfc00215 	stw	ra,8(sp)
 1002bbc:	df000115 	stw	fp,4(sp)
 1002bc0:	df000104 	addi	fp,sp,4
    unsigned char i;

    if(ControlData.DeviceRequest.bmRequestType & (unsigned char)USB_ENDPOINT_DIRECTION_MASK)
 1002bc4:	00804074 	movhi	r2,257
 1002bc8:	109f0c04 	addi	r2,r2,31792
 1002bcc:	10800083 	ldbu	r2,2(r2)
 1002bd0:	10803fcc 	andi	r2,r2,255
 1002bd4:	1080201c 	xori	r2,r2,128
 1002bd8:	10bfe004 	addi	r2,r2,-128
 1002bdc:	1004403a 	cmpge	r2,r2,zero
 1002be0:	10002e1e 	bne	r2,zero,1002c9c <read_write_register+0xe8>
    {
        if(bD13flags.bits.verbose)
 1002be4:	00804074 	movhi	r2,257
 1002be8:	109ee504 	addi	r2,r2,31636
 1002bec:	10800017 	ldw	r2,0(r2)
 1002bf0:	1080402c 	andhi	r2,r2,256
 1002bf4:	1005003a 	cmpeq	r2,r2,zero
 1002bf8:	10000f1e 	bne	r2,zero,1002c38 <read_write_register+0x84>
        {
            printf("Read Registers: Offset = 0x%x, Length = 0x%x, Index = 0x%x.\n",
 1002bfc:	00804074 	movhi	r2,257
 1002c00:	109f0c04 	addi	r2,r2,31792
 1002c04:	1080010b 	ldhu	r2,4(r2)
 1002c08:	117fffcc 	andi	r5,r2,65535
 1002c0c:	00804074 	movhi	r2,257
 1002c10:	109f0c04 	addi	r2,r2,31792
 1002c14:	1080020b 	ldhu	r2,8(r2)
 1002c18:	11bfffcc 	andi	r6,r2,65535
 1002c1c:	00804074 	movhi	r2,257
 1002c20:	109f0c04 	addi	r2,r2,31792
 1002c24:	1080018b 	ldhu	r2,6(r2)
 1002c28:	11ffffcc 	andi	r7,r2,65535
 1002c2c:	01004074 	movhi	r4,257
 1002c30:	210df804 	addi	r4,r4,14304
 1002c34:	1005e580 	call	1005e58 <printf>
                ControlData.DeviceRequest.wValue,
                ControlData.DeviceRequest.wLength,
                ControlData.DeviceRequest.wIndex);
        }

        if(ControlData.DeviceRequest.wIndex == GET_FIRMWARE_VERSION &&
 1002c38:	00804074 	movhi	r2,257
 1002c3c:	109f0c04 	addi	r2,r2,31792
 1002c40:	1080018b 	ldhu	r2,6(r2)
 1002c44:	10bfffcc 	andi	r2,r2,65535
 1002c48:	10811c98 	cmpnei	r2,r2,1138
 1002c4c:	10000e1e 	bne	r2,zero,1002c88 <read_write_register+0xd4>
 1002c50:	00804074 	movhi	r2,257
 1002c54:	109f0c04 	addi	r2,r2,31792
 1002c58:	1080010b 	ldhu	r2,4(r2)
 1002c5c:	10bfffcc 	andi	r2,r2,65535
 1002c60:	1004c03a 	cmpne	r2,r2,zero
 1002c64:	1000081e 	bne	r2,zero,1002c88 <read_write_register+0xd4>
 1002c68:	00804074 	movhi	r2,257
 1002c6c:	109f0c04 	addi	r2,r2,31792
 1002c70:	1080020b 	ldhu	r2,8(r2)
 1002c74:	10bfffcc 	andi	r2,r2,65535
 1002c78:	10800058 	cmpnei	r2,r2,1
 1002c7c:	1000021e 	bne	r2,zero,1002c88 <read_write_register+0xd4>
            ControlData.DeviceRequest.wValue == 0 &&
            ControlData.DeviceRequest.wLength == 1)
            {
                get_firmware_version();
 1002c80:	1002eb40 	call	1002eb4 <get_firmware_version>
                ControlData.DeviceRequest.wValue,
                ControlData.DeviceRequest.wLength,
                ControlData.DeviceRequest.wIndex);
        }

        if(ControlData.DeviceRequest.wIndex == GET_FIRMWARE_VERSION &&
 1002c84:	00004a06 	br	1002db0 <read_write_register+0x1fc>
            {
                get_firmware_version();
            }
        else
        {
            Chap9_StallEP0();
 1002c88:	10020a80 	call	10020a8 <Chap9_StallEP0>
            printf("stall: get firmware version\n");
 1002c8c:	01004074 	movhi	r4,257
 1002c90:	210e0804 	addi	r4,r4,14368
 1002c94:	1005f940 	call	1005f94 <puts>
 1002c98:	00004506 	br	1002db0 <read_write_register+0x1fc>
        }

    }
    else
    {
        if(bD13flags.bits.verbose)
 1002c9c:	00804074 	movhi	r2,257
 1002ca0:	109ee504 	addi	r2,r2,31636
 1002ca4:	10800017 	ldw	r2,0(r2)
 1002ca8:	1080402c 	andhi	r2,r2,256
 1002cac:	1005003a 	cmpeq	r2,r2,zero
 1002cb0:	10002a1e 	bne	r2,zero,1002d5c <read_write_register+0x1a8>
        {

            printf("Write Registers: Offset = 0x%x, Length = 0x%x, Index = 0x%x.\n",
 1002cb4:	00804074 	movhi	r2,257
 1002cb8:	109f0c04 	addi	r2,r2,31792
 1002cbc:	1080010b 	ldhu	r2,4(r2)
 1002cc0:	117fffcc 	andi	r5,r2,65535
 1002cc4:	00804074 	movhi	r2,257
 1002cc8:	109f0c04 	addi	r2,r2,31792
 1002ccc:	1080020b 	ldhu	r2,8(r2)
 1002cd0:	11bfffcc 	andi	r6,r2,65535
 1002cd4:	00804074 	movhi	r2,257
 1002cd8:	109f0c04 	addi	r2,r2,31792
 1002cdc:	1080018b 	ldhu	r2,6(r2)
 1002ce0:	11ffffcc 	andi	r7,r2,65535
 1002ce4:	01004074 	movhi	r4,257
 1002ce8:	210e0f04 	addi	r4,r4,14396
 1002cec:	1005e580 	call	1005e58 <printf>
                ControlData.DeviceRequest.wValue,
                ControlData.DeviceRequest.wLength,
                ControlData.DeviceRequest.wIndex);

            printf("Data: ");
 1002cf0:	01004074 	movhi	r4,257
 1002cf4:	210e1f04 	addi	r4,r4,14460
 1002cf8:	1005e580 	call	1005e58 <printf>
            for(i = 0; i < ControlData.DeviceRequest.wLength; i ++)
 1002cfc:	e03fff05 	stb	zero,-4(fp)
 1002d00:	00000d06 	br	1002d38 <read_write_register+0x184>
                printf("0x%x, ", *((ControlData.dataBuffer)+i));
 1002d04:	e0bfff03 	ldbu	r2,-4(fp)
 1002d08:	1007883a 	mov	r3,r2
 1002d0c:	00804074 	movhi	r2,257
 1002d10:	109f1104 	addi	r2,r2,31812
 1002d14:	1885883a 	add	r2,r3,r2
 1002d18:	10800003 	ldbu	r2,0(r2)
 1002d1c:	11403fcc 	andi	r5,r2,255
 1002d20:	01004074 	movhi	r4,257
 1002d24:	210e2104 	addi	r4,r4,14468
 1002d28:	1005e580 	call	1005e58 <printf>
                ControlData.DeviceRequest.wValue,
                ControlData.DeviceRequest.wLength,
                ControlData.DeviceRequest.wIndex);

            printf("Data: ");
            for(i = 0; i < ControlData.DeviceRequest.wLength; i ++)
 1002d2c:	e0bfff03 	ldbu	r2,-4(fp)
 1002d30:	10800044 	addi	r2,r2,1
 1002d34:	e0bfff05 	stb	r2,-4(fp)
 1002d38:	e0ffff03 	ldbu	r3,-4(fp)
 1002d3c:	00804074 	movhi	r2,257
 1002d40:	109f0c04 	addi	r2,r2,31792
 1002d44:	1080020b 	ldhu	r2,8(r2)
 1002d48:	18ffffcc 	andi	r3,r3,65535
 1002d4c:	10bfffcc 	andi	r2,r2,65535
 1002d50:	18bfec36 	bltu	r3,r2,1002d04 <read_write_register+0x150>
                printf("0x%x, ", *((ControlData.dataBuffer)+i));
            printf("\n");
 1002d54:	01000284 	movi	r4,10
 1002d58:	1005ed00 	call	1005ed0 <putchar>
        }

        if(ControlData.DeviceRequest.wIndex == SETUP_DMA_REQUEST &&
 1002d5c:	00804074 	movhi	r2,257
 1002d60:	109f0c04 	addi	r2,r2,31792
 1002d64:	1080018b 	ldhu	r2,6(r2)
 1002d68:	10bfffcc 	andi	r2,r2,65535
 1002d6c:	10811c58 	cmpnei	r2,r2,1137
 1002d70:	10000f1e 	bne	r2,zero,1002db0 <read_write_register+0x1fc>
 1002d74:	00804074 	movhi	r2,257
 1002d78:	109f0c04 	addi	r2,r2,31792
 1002d7c:	1080010b 	ldhu	r2,4(r2)
 1002d80:	10bfffcc 	andi	r2,r2,65535
 1002d84:	1004c03a 	cmpne	r2,r2,zero
 1002d88:	1000091e 	bne	r2,zero,1002db0 <read_write_register+0x1fc>
 1002d8c:	00804074 	movhi	r2,257
 1002d90:	109f0c04 	addi	r2,r2,31792
 1002d94:	1080020b 	ldhu	r2,8(r2)
 1002d98:	10bfffcc 	andi	r2,r2,65535
 1002d9c:	10800198 	cmpnei	r2,r2,6
 1002da0:	1000031e 	bne	r2,zero,1002db0 <read_write_register+0x1fc>
            ControlData.DeviceRequest.wValue == 0 &&
            ControlData.DeviceRequest.wLength == 6)
            {
                RaiseIRQL();
 1002da4:	10045a80 	call	10045a8 <usb_disable_all_interrupts>
                setup_dma_request();
 1002da8:	1002dc40 	call	1002dc4 <setup_dma_request>
                LowerIRQL();
 1002dac:	10045f80 	call	10045f8 <usb_reenable_all_interrupts>
            }

    }
}
 1002db0:	e037883a 	mov	sp,fp
 1002db4:	dfc00117 	ldw	ra,4(sp)
 1002db8:	df000017 	ldw	fp,0(sp)
 1002dbc:	dec00204 	addi	sp,sp,8
 1002dc0:	f800283a 	ret

01002dc4 <setup_dma_request>:

void setup_dma_request()
{
 1002dc4:	defffe04 	addi	sp,sp,-8
 1002dc8:	dfc00115 	stw	ra,4(sp)
 1002dcc:	df000015 	stw	fp,0(sp)
 1002dd0:	d839883a 	mov	fp,sp
    memcpy((unsigned char *)&ioRequest + ControlData.DeviceRequest.wValue,
 1002dd4:	00804074 	movhi	r2,257
 1002dd8:	109f0c04 	addi	r2,r2,31792
 1002ddc:	1080010b 	ldhu	r2,4(r2)
 1002de0:	10bfffcc 	andi	r2,r2,65535
 1002de4:	1007883a 	mov	r3,r2
 1002de8:	00804074 	movhi	r2,257
 1002dec:	109eea04 	addi	r2,r2,31656
 1002df0:	1887883a 	add	r3,r3,r2
 1002df4:	00804074 	movhi	r2,257
 1002df8:	109f0c04 	addi	r2,r2,31792
 1002dfc:	1080020b 	ldhu	r2,8(r2)
 1002e00:	11bfffcc 	andi	r6,r2,65535
 1002e04:	00804074 	movhi	r2,257
 1002e08:	109f1104 	addi	r2,r2,31812
 1002e0c:	1809883a 	mov	r4,r3
 1002e10:	100b883a 	mov	r5,r2
 1002e14:	1005d200 	call	1005d20 <memcpy>
        ControlData.dataBuffer,
        ControlData.DeviceRequest.wLength);

    ioRequest.uSize = SWAP(ioRequest.uSize);
 1002e18:	00804074 	movhi	r2,257
 1002e1c:	109eea04 	addi	r2,r2,31656
 1002e20:	10c0010b 	ldhu	r3,4(r2)
 1002e24:	00804074 	movhi	r2,257
 1002e28:	109eea04 	addi	r2,r2,31656
 1002e2c:	10c0010d 	sth	r3,4(r2)
    ioRequest.uAddressL = SWAP(ioRequest.uAddressL);
 1002e30:	00804074 	movhi	r2,257
 1002e34:	109eea04 	addi	r2,r2,31656
 1002e38:	10c0000b 	ldhu	r3,0(r2)
 1002e3c:	00804074 	movhi	r2,257
 1002e40:	109eea04 	addi	r2,r2,31656
 1002e44:	10c0000d 	sth	r3,0(r2)
    printf("Setup Data: addL, addH, uSize =%x, %x, %x \n", \
 1002e48:	00804074 	movhi	r2,257
 1002e4c:	109eea04 	addi	r2,r2,31656
 1002e50:	1080000b 	ldhu	r2,0(r2)
 1002e54:	117fffcc 	andi	r5,r2,65535
 1002e58:	00804074 	movhi	r2,257
 1002e5c:	109eea04 	addi	r2,r2,31656
 1002e60:	10800083 	ldbu	r2,2(r2)
 1002e64:	11803fcc 	andi	r6,r2,255
 1002e68:	00804074 	movhi	r2,257
 1002e6c:	109eea04 	addi	r2,r2,31656
 1002e70:	1080010b 	ldhu	r2,4(r2)
 1002e74:	11ffffcc 	andi	r7,r2,65535
 1002e78:	01004074 	movhi	r4,257
 1002e7c:	210e2304 	addi	r4,r4,14476
 1002e80:	1005e580 	call	1005e58 <printf>
        Chap9_StallEP0();
        printf("stall: ioRequest.uSize > DMA_BUFFER_SIZE.\n");
    }
    else
    {
        RaiseIRQL();
 1002e84:	10045a80 	call	10045a8 <usb_disable_all_interrupts>
        bD13flags.bits.setup_dma = 1;
 1002e88:	00c04074 	movhi	r3,257
 1002e8c:	18dee504 	addi	r3,r3,31636
 1002e90:	18800017 	ldw	r2,0(r3)
 1002e94:	10800074 	orhi	r2,r2,1
 1002e98:	18800015 	stw	r2,0(r3)
        LowerIRQL();
 1002e9c:	10045f80 	call	10045f8 <usb_reenable_all_interrupts>
    }
}
 1002ea0:	e037883a 	mov	sp,fp
 1002ea4:	dfc00117 	ldw	ra,4(sp)
 1002ea8:	df000017 	ldw	fp,0(sp)
 1002eac:	dec00204 	addi	sp,sp,8
 1002eb0:	f800283a 	ret

01002eb4 <get_firmware_version>:

void get_firmware_version()
{
 1002eb4:	defffd04 	addi	sp,sp,-12
 1002eb8:	dfc00215 	stw	ra,8(sp)
 1002ebc:	df000115 	stw	fp,4(sp)
 1002ec0:	df000104 	addi	fp,sp,4
    unsigned char i;

    i = 0x01; 
 1002ec4:	00800044 	movi	r2,1
 1002ec8:	e0bfff05 	stb	r2,-4(fp)
    D13Bus_SingleTransmitEP0(&i, 1);
 1002ecc:	e13fff04 	addi	r4,fp,-4
 1002ed0:	01400044 	movi	r5,1
 1002ed4:	1002f140 	call	1002f14 <D13Bus_SingleTransmitEP0>
}
 1002ed8:	e037883a 	mov	sp,fp
 1002edc:	dfc00117 	ldw	ra,4(sp)
 1002ee0:	df000017 	ldw	fp,0(sp)
 1002ee4:	dec00204 	addi	sp,sp,8
 1002ee8:	f800283a 	ret

01002eec <D13Bus_StallEP0>:
// *************************************************************************
// D13Bus support functions
// *************************************************************************

void D13Bus_StallEP0(void)
{
 1002eec:	defffe04 	addi	sp,sp,-8
 1002ef0:	dfc00115 	stw	ra,4(sp)
 1002ef4:	df000015 	stw	fp,0(sp)
 1002ef8:	d839883a 	mov	fp,sp
    Chap9_StallEP0();
 1002efc:	10020a80 	call	10020a8 <Chap9_StallEP0>
}
 1002f00:	e037883a 	mov	sp,fp
 1002f04:	dfc00117 	ldw	ra,4(sp)
 1002f08:	df000017 	ldw	fp,0(sp)
 1002f0c:	dec00204 	addi	sp,sp,8
 1002f10:	f800283a 	ret

01002f14 <D13Bus_SingleTransmitEP0>:

void D13Bus_SingleTransmitEP0(UCHAR * buf, UCHAR len)
{
 1002f14:	defffc04 	addi	sp,sp,-16
 1002f18:	dfc00315 	stw	ra,12(sp)
 1002f1c:	df000215 	stw	fp,8(sp)
 1002f20:	df000204 	addi	fp,sp,8
 1002f24:	e13ffe15 	stw	r4,-8(fp)
 1002f28:	e17fff05 	stb	r5,-4(fp)
    Hal4D13_SingleTransmitEP0(buf, len);
 1002f2c:	e17fff03 	ldbu	r5,-4(fp)
 1002f30:	e13ffe17 	ldw	r4,-8(fp)
 1002f34:	10042a40 	call	10042a4 <Hal4D13_SingleTransmitEP0>

    RaiseIRQL();
 1002f38:	10045a80 	call	10045a8 <usb_disable_all_interrupts>
    if(!ControlData.Abort)
 1002f3c:	00804074 	movhi	r2,257
 1002f40:	109f0c04 	addi	r2,r2,31792
 1002f44:	10800003 	ldbu	r2,0(r2)
 1002f48:	10803fcc 	andi	r2,r2,255
 1002f4c:	1004c03a 	cmpne	r2,r2,zero
 1002f50:	1000111e 	bne	r2,zero,1002f98 <D13Bus_SingleTransmitEP0+0x84>
    {
        ControlData.wLength = ControlData.wCount = len;
 1002f54:	e0ffff03 	ldbu	r3,-4(fp)
 1002f58:	00804074 	movhi	r2,257
 1002f5c:	109f0c04 	addi	r2,r2,31792
 1002f60:	10c0030d 	sth	r3,12(r2)
 1002f64:	00804074 	movhi	r2,257
 1002f68:	109f0c04 	addi	r2,r2,31792
 1002f6c:	10c0030b 	ldhu	r3,12(r2)
 1002f70:	00804074 	movhi	r2,257
 1002f74:	109f0c04 	addi	r2,r2,31792
 1002f78:	10c0028d 	sth	r3,10(r2)
        bD13flags.bits.DCP_state = USBFSM4DCP_HANDSHAKE;
 1002f7c:	01004074 	movhi	r4,257
 1002f80:	211ee504 	addi	r4,r4,31636
 1002f84:	20c00017 	ldw	r3,0(r4)
 1002f88:	00bc3fc4 	movi	r2,-3841
 1002f8c:	1884703a 	and	r2,r3,r2
 1002f90:	10810014 	ori	r2,r2,1024
 1002f94:	20800015 	stw	r2,0(r4)
    }
    LowerIRQL();
 1002f98:	10045f80 	call	10045f8 <usb_reenable_all_interrupts>

}
 1002f9c:	e037883a 	mov	sp,fp
 1002fa0:	dfc00117 	ldw	ra,4(sp)
 1002fa4:	df000017 	ldw	fp,0(sp)
 1002fa8:	dec00204 	addi	sp,sp,8
 1002fac:	f800283a 	ret

01002fb0 <D13Bus_BurstTransmitEP0>:

void D13Bus_BurstTransmitEP0(UCHAR * pData, USHORT len)
{
 1002fb0:	defffc04 	addi	sp,sp,-16
 1002fb4:	dfc00315 	stw	ra,12(sp)
 1002fb8:	df000215 	stw	fp,8(sp)
 1002fbc:	df000204 	addi	fp,sp,8
 1002fc0:	e13ffe15 	stw	r4,-8(fp)
 1002fc4:	e17fff0d 	sth	r5,-4(fp)
    ControlData.wCount = 0;
 1002fc8:	00804074 	movhi	r2,257
 1002fcc:	109f0c04 	addi	r2,r2,31792
 1002fd0:	1000030d 	sth	zero,12(r2)
    if(ControlData.wLength > len)
 1002fd4:	00804074 	movhi	r2,257
 1002fd8:	109f0c04 	addi	r2,r2,31792
 1002fdc:	1080028b 	ldhu	r2,10(r2)
 1002fe0:	10ffffcc 	andi	r3,r2,65535
 1002fe4:	e0bfff0b 	ldhu	r2,-4(fp)
 1002fe8:	10c0042e 	bgeu	r2,r3,1002ffc <D13Bus_BurstTransmitEP0+0x4c>
        ControlData.wLength = len;
 1002fec:	00c04074 	movhi	r3,257
 1002ff0:	18df0c04 	addi	r3,r3,31792
 1002ff4:	e0bfff0b 	ldhu	r2,-4(fp)
 1002ff8:	1880028d 	sth	r2,10(r3)

    ControlData.Addr.pData = pData;
 1002ffc:	00c04074 	movhi	r3,257
 1003000:	18df0c04 	addi	r3,r3,31792
 1003004:	e0bffe17 	ldw	r2,-8(fp)
 1003008:	18800415 	stw	r2,16(r3)
    if( ControlData.wLength >= EP0_PACKET_SIZE)
 100300c:	00804074 	movhi	r2,257
 1003010:	109f0c04 	addi	r2,r2,31792
 1003014:	1080028b 	ldhu	r2,10(r2)
 1003018:	10bfffcc 	andi	r2,r2,65535
 100301c:	10801030 	cmpltui	r2,r2,64
 1003020:	10001e1e 	bne	r2,zero,100309c <D13Bus_BurstTransmitEP0+0xec>
    {
        Hal4D13_WriteEndpoint(EPINDEX4EP0_CONTROL_IN, ControlData.Addr.pData, EP0_PACKET_SIZE);
 1003024:	00804074 	movhi	r2,257
 1003028:	109f0c04 	addi	r2,r2,31792
 100302c:	11400417 	ldw	r5,16(r2)
 1003030:	01000044 	movi	r4,1
 1003034:	01801004 	movi	r6,64
 1003038:	10038cc0 	call	10038cc <Hal4D13_WriteEndpoint>
        RaiseIRQL();
 100303c:	10045a80 	call	10045a8 <usb_disable_all_interrupts>
        if(!ControlData.Abort)
 1003040:	00804074 	movhi	r2,257
 1003044:	109f0c04 	addi	r2,r2,31792
 1003048:	10800003 	ldbu	r2,0(r2)
 100304c:	10803fcc 	andi	r2,r2,255
 1003050:	1004c03a 	cmpne	r2,r2,zero
 1003054:	10000f1e 	bne	r2,zero,1003094 <D13Bus_BurstTransmitEP0+0xe4>
        {
            ControlData.wCount += EP0_PACKET_SIZE;
 1003058:	00804074 	movhi	r2,257
 100305c:	109f0c04 	addi	r2,r2,31792
 1003060:	1080030b 	ldhu	r2,12(r2)
 1003064:	10801004 	addi	r2,r2,64
 1003068:	1007883a 	mov	r3,r2
 100306c:	00804074 	movhi	r2,257
 1003070:	109f0c04 	addi	r2,r2,31792
 1003074:	10c0030d 	sth	r3,12(r2)
            bD13flags.bits.DCP_state = USBFSM4DCP_DATAIN;
 1003078:	01004074 	movhi	r4,257
 100307c:	211ee504 	addi	r4,r4,31636
 1003080:	20c00017 	ldw	r3,0(r4)
 1003084:	00bc3fc4 	movi	r2,-3841
 1003088:	1884703a 	and	r2,r3,r2
 100308c:	10804014 	ori	r2,r2,256
 1003090:	20800015 	stw	r2,0(r4)
        }

        LowerIRQL();
 1003094:	10045f80 	call	10045f8 <usb_reenable_all_interrupts>
 1003098:	00002106 	br	1003120 <D13Bus_BurstTransmitEP0+0x170>

    }
    else
    {
        Hal4D13_WriteEndpoint(EPINDEX4EP0_CONTROL_IN, pData, ControlData.wLength);
 100309c:	00804074 	movhi	r2,257
 10030a0:	109f0c04 	addi	r2,r2,31792
 10030a4:	1080028b 	ldhu	r2,10(r2)
 10030a8:	11bfffcc 	andi	r6,r2,65535
 10030ac:	01000044 	movi	r4,1
 10030b0:	e17ffe17 	ldw	r5,-8(fp)
 10030b4:	10038cc0 	call	10038cc <Hal4D13_WriteEndpoint>
        RaiseIRQL();
 10030b8:	10045a80 	call	10045a8 <usb_disable_all_interrupts>
        if(!ControlData.Abort)
 10030bc:	00804074 	movhi	r2,257
 10030c0:	109f0c04 	addi	r2,r2,31792
 10030c4:	10800003 	ldbu	r2,0(r2)
 10030c8:	10803fcc 	andi	r2,r2,255
 10030cc:	1004c03a 	cmpne	r2,r2,zero
 10030d0:	1000121e 	bne	r2,zero,100311c <D13Bus_BurstTransmitEP0+0x16c>
        {
            ControlData.wCount += ControlData.wLength;
 10030d4:	00804074 	movhi	r2,257
 10030d8:	109f0c04 	addi	r2,r2,31792
 10030dc:	10c0030b 	ldhu	r3,12(r2)
 10030e0:	00804074 	movhi	r2,257
 10030e4:	109f0c04 	addi	r2,r2,31792
 10030e8:	1080028b 	ldhu	r2,10(r2)
 10030ec:	1885883a 	add	r2,r3,r2
 10030f0:	1007883a 	mov	r3,r2
 10030f4:	00804074 	movhi	r2,257
 10030f8:	109f0c04 	addi	r2,r2,31792
 10030fc:	10c0030d 	sth	r3,12(r2)
            bD13flags.bits.DCP_state = USBFSM4DCP_DATAIN;
 1003100:	01004074 	movhi	r4,257
 1003104:	211ee504 	addi	r4,r4,31636
 1003108:	20c00017 	ldw	r3,0(r4)
 100310c:	00bc3fc4 	movi	r2,-3841
 1003110:	1884703a 	and	r2,r3,r2
 1003114:	10804014 	ori	r2,r2,256
 1003118:	20800015 	stw	r2,0(r4)
        }
        LowerIRQL();
 100311c:	10045f80 	call	10045f8 <usb_reenable_all_interrupts>
    }
}
 1003120:	e037883a 	mov	sp,fp
 1003124:	dfc00117 	ldw	ra,4(sp)
 1003128:	df000017 	ldw	fp,0(sp)
 100312c:	dec00204 	addi	sp,sp,8
 1003130:	f800283a 	ret

01003134 <Hal4D13_AcquireD13>:
 // ************************************************************************
 // Subroutines -- 1
 // ************************************************************************
 */

void Hal4D13_AcquireD13(unsigned char g_host_IRQ_num, void *usb_isr) {
 1003134:	defffc04 	addi	sp,sp,-16
 1003138:	dfc00315 	stw	ra,12(sp)
 100313c:	df000215 	stw	fp,8(sp)
 1003140:	df000204 	addi	fp,sp,8
 1003144:	e17fff15 	stw	r5,-4(fp)
 1003148:	e13ffe05 	stb	r4,-8(fp)
	alt_irq_register(g_host_IRQ_num, NULL, usb_isr);
 100314c:	e13ffe03 	ldbu	r4,-8(fp)
 1003150:	e1bfff17 	ldw	r6,-4(fp)
 1003154:	000b883a 	mov	r5,zero
 1003158:	10109600 	call	1010960 <alt_irq_register>
}
 100315c:	e037883a 	mov	sp,fp
 1003160:	dfc00117 	ldw	ra,4(sp)
 1003164:	df000017 	ldw	fp,0(sp)
 1003168:	dec00204 	addi	sp,sp,8
 100316c:	f800283a 	ret

01003170 <Hal4D13_ResetDevice>:

void Hal4D13_ResetDevice(void) {
 1003170:	deffff04 	addi	sp,sp,-4
 1003174:	df000015 	stw	fp,0(sp)
 1003178:	d839883a 	mov	fp,sp
	IOWR(ISP1362_BASE, D13_COMMAND_PORT, D13CMD_DEV_RESET);
 100317c:	00804074 	movhi	r2,257
 1003180:	109ee404 	addi	r2,r2,31632
 1003184:	10800017 	ldw	r2,0(r2)
 1003188:	10800304 	addi	r2,r2,12
 100318c:	1007883a 	mov	r3,r2
 1003190:	00803d84 	movi	r2,246
 1003194:	18800035 	stwio	r2,0(r3)
}
 1003198:	e037883a 	mov	sp,fp
 100319c:	df000017 	ldw	fp,0(sp)
 10031a0:	dec00104 	addi	sp,sp,4
 10031a4:	f800283a 	ret

010031a8 <Hal4D13_GetDevConfig>:

USHORT Hal4D13_GetDevConfig(void) {
 10031a8:	defffe04 	addi	sp,sp,-8
 10031ac:	df000115 	stw	fp,4(sp)
 10031b0:	df000104 	addi	fp,sp,4
	USHORT i;
	IOWR(ISP1362_BASE, D13_COMMAND_PORT, D13CMD_DEV_RD_CNFG);
 10031b4:	00804074 	movhi	r2,257
 10031b8:	109ee404 	addi	r2,r2,31632
 10031bc:	10800017 	ldw	r2,0(r2)
 10031c0:	10800304 	addi	r2,r2,12
 10031c4:	1007883a 	mov	r3,r2
 10031c8:	00802ec4 	movi	r2,187
 10031cc:	18800035 	stwio	r2,0(r3)
	i = IORD(ISP1362_BASE,D13_DATA_PORT);
 10031d0:	00804074 	movhi	r2,257
 10031d4:	109ee404 	addi	r2,r2,31632
 10031d8:	10800017 	ldw	r2,0(r2)
 10031dc:	10800204 	addi	r2,r2,8
 10031e0:	10800037 	ldwio	r2,0(r2)
 10031e4:	e0bfff0d 	sth	r2,-4(fp)
	return i;
 10031e8:	e0bfff0b 	ldhu	r2,-4(fp)
}
 10031ec:	e037883a 	mov	sp,fp
 10031f0:	df000017 	ldw	fp,0(sp)
 10031f4:	dec00104 	addi	sp,sp,4
 10031f8:	f800283a 	ret

010031fc <Hal4D13_SetDevConfig>:

void Hal4D13_SetDevConfig(USHORT wDevCnfg) {
 10031fc:	defffe04 	addi	sp,sp,-8
 1003200:	df000115 	stw	fp,4(sp)
 1003204:	df000104 	addi	fp,sp,4
 1003208:	e13fff0d 	sth	r4,-4(fp)
	IOWR(ISP1362_BASE, D13_COMMAND_PORT, D13CMD_DEV_WR_CNFG);
 100320c:	00804074 	movhi	r2,257
 1003210:	109ee404 	addi	r2,r2,31632
 1003214:	10800017 	ldw	r2,0(r2)
 1003218:	10800304 	addi	r2,r2,12
 100321c:	1007883a 	mov	r3,r2
 1003220:	00802e84 	movi	r2,186
 1003224:	18800035 	stwio	r2,0(r3)
	IOWR(ISP1362_BASE, D13_DATA_PORT, wDevCnfg);
 1003228:	00804074 	movhi	r2,257
 100322c:	109ee404 	addi	r2,r2,31632
 1003230:	10800017 	ldw	r2,0(r2)
 1003234:	10800204 	addi	r2,r2,8
 1003238:	e0ffff0b 	ldhu	r3,-4(fp)
 100323c:	10c00035 	stwio	r3,0(r2)
}
 1003240:	e037883a 	mov	sp,fp
 1003244:	df000017 	ldw	fp,0(sp)
 1003248:	dec00104 	addi	sp,sp,4
 100324c:	f800283a 	ret

01003250 <Hal4D13_SetMode>:

void Hal4D13_SetMode(UCHAR bMode) {
 1003250:	defffe04 	addi	sp,sp,-8
 1003254:	df000115 	stw	fp,4(sp)
 1003258:	df000104 	addi	fp,sp,4
 100325c:	e13fff05 	stb	r4,-4(fp)
	IOWR(ISP1362_BASE, D13_COMMAND_PORT, D13CMD_DEV_WR_MODE);
 1003260:	00804074 	movhi	r2,257
 1003264:	109ee404 	addi	r2,r2,31632
 1003268:	10800017 	ldw	r2,0(r2)
 100326c:	10800304 	addi	r2,r2,12
 1003270:	1007883a 	mov	r3,r2
 1003274:	00802e04 	movi	r2,184
 1003278:	18800035 	stwio	r2,0(r3)
	IOWR(ISP1362_BASE, D13_DATA_PORT, bMode);
 100327c:	00804074 	movhi	r2,257
 1003280:	109ee404 	addi	r2,r2,31632
 1003284:	10800017 	ldw	r2,0(r2)
 1003288:	10800204 	addi	r2,r2,8
 100328c:	e0ffff03 	ldbu	r3,-4(fp)
 1003290:	10c00035 	stwio	r3,0(r2)
}
 1003294:	e037883a 	mov	sp,fp
 1003298:	df000017 	ldw	fp,0(sp)
 100329c:	dec00104 	addi	sp,sp,4
 10032a0:	f800283a 	ret

010032a4 <Hal4D13_GetMode>:

UCHAR Hal4D13_GetMode(void) {
 10032a4:	defffe04 	addi	sp,sp,-8
 10032a8:	df000115 	stw	fp,4(sp)
 10032ac:	df000104 	addi	fp,sp,4
	UCHAR c;
	IOWR(ISP1362_BASE, D13_COMMAND_PORT, D13CMD_DEV_RD_MODE);
 10032b0:	00804074 	movhi	r2,257
 10032b4:	109ee404 	addi	r2,r2,31632
 10032b8:	10800017 	ldw	r2,0(r2)
 10032bc:	10800304 	addi	r2,r2,12
 10032c0:	1007883a 	mov	r3,r2
 10032c4:	00802e44 	movi	r2,185
 10032c8:	18800035 	stwio	r2,0(r3)
	c = (UCHAR) (IORD(ISP1362_BASE,D13_DATA_PORT) & 0x0ff);
 10032cc:	00804074 	movhi	r2,257
 10032d0:	109ee404 	addi	r2,r2,31632
 10032d4:	10800017 	ldw	r2,0(r2)
 10032d8:	10800204 	addi	r2,r2,8
 10032dc:	10800037 	ldwio	r2,0(r2)
 10032e0:	1007883a 	mov	r3,r2
 10032e4:	00bfffc4 	movi	r2,-1
 10032e8:	1884703a 	and	r2,r3,r2
 10032ec:	e0bfff05 	stb	r2,-4(fp)
	return c;
 10032f0:	e0bfff03 	ldbu	r2,-4(fp)
}
 10032f4:	e037883a 	mov	sp,fp
 10032f8:	df000017 	ldw	fp,0(sp)
 10032fc:	dec00104 	addi	sp,sp,4
 1003300:	f800283a 	ret

01003304 <Hal4D13_GetAddress>:

UCHAR Hal4D13_GetAddress(void) {
 1003304:	defffe04 	addi	sp,sp,-8
 1003308:	df000115 	stw	fp,4(sp)
 100330c:	df000104 	addi	fp,sp,4
	UCHAR c;
	IOWR(ISP1362_BASE, D13_COMMAND_PORT, D13CMD_DEV_RD_ADDR);
 1003310:	00804074 	movhi	r2,257
 1003314:	109ee404 	addi	r2,r2,31632
 1003318:	10800017 	ldw	r2,0(r2)
 100331c:	10800304 	addi	r2,r2,12
 1003320:	1007883a 	mov	r3,r2
 1003324:	00802dc4 	movi	r2,183
 1003328:	18800035 	stwio	r2,0(r3)
	c = (UCHAR) (IORD(ISP1362_BASE,D13_DATA_PORT) & 0x0ff);
 100332c:	00804074 	movhi	r2,257
 1003330:	109ee404 	addi	r2,r2,31632
 1003334:	10800017 	ldw	r2,0(r2)
 1003338:	10800204 	addi	r2,r2,8
 100333c:	10800037 	ldwio	r2,0(r2)
 1003340:	1007883a 	mov	r3,r2
 1003344:	00bfffc4 	movi	r2,-1
 1003348:	1884703a 	and	r2,r3,r2
 100334c:	e0bfff05 	stb	r2,-4(fp)
	return c;
 1003350:	e0bfff03 	ldbu	r2,-4(fp)
}
 1003354:	e037883a 	mov	sp,fp
 1003358:	df000017 	ldw	fp,0(sp)
 100335c:	dec00104 	addi	sp,sp,4
 1003360:	f800283a 	ret

01003364 <Hal4D13_SetAddressEnable>:

void Hal4D13_SetAddressEnable(UCHAR bAddress, UCHAR bEnable) {
 1003364:	defffd04 	addi	sp,sp,-12
 1003368:	df000215 	stw	fp,8(sp)
 100336c:	df000204 	addi	fp,sp,8
 1003370:	e13ffe05 	stb	r4,-8(fp)
 1003374:	e17fff05 	stb	r5,-4(fp)
	IOWR(ISP1362_BASE, D13_COMMAND_PORT, D13CMD_DEV_WR_ADDR);
 1003378:	00804074 	movhi	r2,257
 100337c:	109ee404 	addi	r2,r2,31632
 1003380:	10800017 	ldw	r2,0(r2)
 1003384:	10800304 	addi	r2,r2,12
 1003388:	1007883a 	mov	r3,r2
 100338c:	00802d84 	movi	r2,182
 1003390:	18800035 	stwio	r2,0(r3)
	if (bEnable)
 1003394:	e0bfff03 	ldbu	r2,-4(fp)
 1003398:	1005003a 	cmpeq	r2,r2,zero
 100339c:	1000051e 	bne	r2,zero,10033b4 <Hal4D13_SetAddressEnable+0x50>
		bAddress |= D13REG_DEVADDR_EN;
 10033a0:	e0bffe03 	ldbu	r2,-8(fp)
 10033a4:	00ffe004 	movi	r3,-128
 10033a8:	10c4b03a 	or	r2,r2,r3
 10033ac:	e0bffe05 	stb	r2,-8(fp)
 10033b0:	00000306 	br	10033c0 <Hal4D13_SetAddressEnable+0x5c>
	else
		bAddress &= D13REG_DEVADDR_MASK;
 10033b4:	e0bffe03 	ldbu	r2,-8(fp)
 10033b8:	10801fcc 	andi	r2,r2,127
 10033bc:	e0bffe05 	stb	r2,-8(fp)
	IOWR(ISP1362_BASE, D13_DATA_PORT, bAddress);
 10033c0:	00804074 	movhi	r2,257
 10033c4:	109ee404 	addi	r2,r2,31632
 10033c8:	10800017 	ldw	r2,0(r2)
 10033cc:	10800204 	addi	r2,r2,8
 10033d0:	e0fffe03 	ldbu	r3,-8(fp)
 10033d4:	10c00035 	stwio	r3,0(r2)
}
 10033d8:	e037883a 	mov	sp,fp
 10033dc:	df000017 	ldw	fp,0(sp)
 10033e0:	dec00104 	addi	sp,sp,4
 10033e4:	f800283a 	ret

010033e8 <Hal4D13_SoftConnect>:

void Hal4D13_SoftConnect(UCHAR bEnable) {
 10033e8:	defffd04 	addi	sp,sp,-12
 10033ec:	df000215 	stw	fp,8(sp)
 10033f0:	df000204 	addi	fp,sp,8
 10033f4:	e13fff05 	stb	r4,-4(fp)
	UCHAR c;
	IOWR(ISP1362_BASE, D13_COMMAND_PORT, D13CMD_DEV_RD_MODE);
 10033f8:	00804074 	movhi	r2,257
 10033fc:	109ee404 	addi	r2,r2,31632
 1003400:	10800017 	ldw	r2,0(r2)
 1003404:	10800304 	addi	r2,r2,12
 1003408:	1007883a 	mov	r3,r2
 100340c:	00802e44 	movi	r2,185
 1003410:	18800035 	stwio	r2,0(r3)
	c = (UCHAR) (IORD(ISP1362_BASE,D13_DATA_PORT) & 0x0ff);
 1003414:	00804074 	movhi	r2,257
 1003418:	109ee404 	addi	r2,r2,31632
 100341c:	10800017 	ldw	r2,0(r2)
 1003420:	10800204 	addi	r2,r2,8
 1003424:	10800037 	ldwio	r2,0(r2)
 1003428:	1007883a 	mov	r3,r2
 100342c:	00bfffc4 	movi	r2,-1
 1003430:	1884703a 	and	r2,r3,r2
 1003434:	e0bffe05 	stb	r2,-8(fp)
	if (bEnable)
 1003438:	e0bfff03 	ldbu	r2,-4(fp)
 100343c:	1005003a 	cmpeq	r2,r2,zero
 1003440:	1000041e 	bne	r2,zero,1003454 <Hal4D13_SoftConnect+0x6c>
		c |= D13REG_MODE_SOFTCONNECT;
 1003444:	e0bffe03 	ldbu	r2,-8(fp)
 1003448:	10800054 	ori	r2,r2,1
 100344c:	e0bffe05 	stb	r2,-8(fp)
 1003450:	00000406 	br	1003464 <Hal4D13_SoftConnect+0x7c>
	else
		c &= ~D13REG_MODE_SOFTCONNECT;
 1003454:	e0bffe03 	ldbu	r2,-8(fp)
 1003458:	00ffff84 	movi	r3,-2
 100345c:	10c4703a 	and	r2,r2,r3
 1003460:	e0bffe05 	stb	r2,-8(fp)
	IOWR(ISP1362_BASE, D13_COMMAND_PORT, D13CMD_DEV_WR_MODE);
 1003464:	00804074 	movhi	r2,257
 1003468:	109ee404 	addi	r2,r2,31632
 100346c:	10800017 	ldw	r2,0(r2)
 1003470:	10800304 	addi	r2,r2,12
 1003474:	1007883a 	mov	r3,r2
 1003478:	00802e04 	movi	r2,184
 100347c:	18800035 	stwio	r2,0(r3)
	IOWR(ISP1362_BASE, D13_DATA_PORT, c);
 1003480:	00804074 	movhi	r2,257
 1003484:	109ee404 	addi	r2,r2,31632
 1003488:	10800017 	ldw	r2,0(r2)
 100348c:	10800204 	addi	r2,r2,8
 1003490:	e0fffe03 	ldbu	r3,-8(fp)
 1003494:	10c00035 	stwio	r3,0(r2)
}
 1003498:	e037883a 	mov	sp,fp
 100349c:	df000017 	ldw	fp,0(sp)
 10034a0:	dec00104 	addi	sp,sp,4
 10034a4:	f800283a 	ret

010034a8 <Hal4D13_AcknowledgeSETUP>:

void Hal4D13_AcknowledgeSETUP(void) {
 10034a8:	deffff04 	addi	sp,sp,-4
 10034ac:	df000015 	stw	fp,0(sp)
 10034b0:	d839883a 	mov	fp,sp
	IOWR(ISP1362_BASE, D13_COMMAND_PORT, D13CMD_ACK_SETUP);
 10034b4:	00804074 	movhi	r2,257
 10034b8:	109ee404 	addi	r2,r2,31632
 10034bc:	10800017 	ldw	r2,0(r2)
 10034c0:	10800304 	addi	r2,r2,12
 10034c4:	1007883a 	mov	r3,r2
 10034c8:	00803d04 	movi	r2,244
 10034cc:	18800035 	stwio	r2,0(r3)
}
 10034d0:	e037883a 	mov	sp,fp
 10034d4:	df000017 	ldw	fp,0(sp)
 10034d8:	dec00104 	addi	sp,sp,4
 10034dc:	f800283a 	ret

010034e0 <Hal4D13_ClearBuffer>:

void Hal4D13_ClearBuffer(UCHAR bEPIndex) {
 10034e0:	defffe04 	addi	sp,sp,-8
 10034e4:	df000115 	stw	fp,4(sp)
 10034e8:	df000104 	addi	fp,sp,4
 10034ec:	e13fff05 	stb	r4,-4(fp)
	/* Select Endpoint */
	IOWR(ISP1362_BASE, D13_COMMAND_PORT, D13CMD_EP_CLEAR_BUF + bEPIndex);
 10034f0:	00804074 	movhi	r2,257
 10034f4:	109ee404 	addi	r2,r2,31632
 10034f8:	10800017 	ldw	r2,0(r2)
 10034fc:	11000304 	addi	r4,r2,12
 1003500:	e0bfff03 	ldbu	r2,-4(fp)
 1003504:	10c01c04 	addi	r3,r2,112
 1003508:	2005883a 	mov	r2,r4
 100350c:	10c00035 	stwio	r3,0(r2)
}
 1003510:	e037883a 	mov	sp,fp
 1003514:	df000017 	ldw	fp,0(sp)
 1003518:	dec00104 	addi	sp,sp,4
 100351c:	f800283a 	ret

01003520 <Hal4D13_ValidBuffer>:

void Hal4D13_ValidBuffer(UCHAR bEPIndex) {
 1003520:	defffe04 	addi	sp,sp,-8
 1003524:	df000115 	stw	fp,4(sp)
 1003528:	df000104 	addi	fp,sp,4
 100352c:	e13fff05 	stb	r4,-4(fp)
	IOWR(ISP1362_BASE, D13_COMMAND_PORT, D13CMD_EP_VALID_BUF + bEPIndex);
 1003530:	00804074 	movhi	r2,257
 1003534:	109ee404 	addi	r2,r2,31632
 1003538:	10800017 	ldw	r2,0(r2)
 100353c:	11000304 	addi	r4,r2,12
 1003540:	e0bfff03 	ldbu	r2,-4(fp)
 1003544:	10c01804 	addi	r3,r2,96
 1003548:	2005883a 	mov	r2,r4
 100354c:	10c00035 	stwio	r3,0(r2)
}
 1003550:	e037883a 	mov	sp,fp
 1003554:	df000017 	ldw	fp,0(sp)
 1003558:	dec00104 	addi	sp,sp,4
 100355c:	f800283a 	ret

01003560 <Hal4D13_ReadEndpoint>:

USHORT Hal4D13_ReadEndpoint(UCHAR bEPIndex, UCHAR *buf, USHORT len) {
 1003560:	defffa04 	addi	sp,sp,-24
 1003564:	df000515 	stw	fp,20(sp)
 1003568:	df000504 	addi	fp,sp,20
 100356c:	e17ffe15 	stw	r5,-8(fp)
 1003570:	e13ffd05 	stb	r4,-12(fp)
 1003574:	e1bfff0d 	sth	r6,-4(fp)
	USHORT i, j, c;
	IOWR(ISP1362_BASE, D13_COMMAND_PORT, D13CMD_EP_RD_FIFO + bEPIndex);
 1003578:	00804074 	movhi	r2,257
 100357c:	109ee404 	addi	r2,r2,31632
 1003580:	10800017 	ldw	r2,0(r2)
 1003584:	11000304 	addi	r4,r2,12
 1003588:	e0bffd03 	ldbu	r2,-12(fp)
 100358c:	10c00404 	addi	r3,r2,16
 1003590:	2005883a 	mov	r2,r4
 1003594:	10c00035 	stwio	r3,0(r2)
	/* read Buffer */
	j = IORD(ISP1362_BASE,D13_DATA_PORT);
 1003598:	00804074 	movhi	r2,257
 100359c:	109ee404 	addi	r2,r2,31632
 10035a0:	10800017 	ldw	r2,0(r2)
 10035a4:	10800204 	addi	r2,r2,8
 10035a8:	10800037 	ldwio	r2,0(r2)
 10035ac:	e0bffb8d 	sth	r2,-18(fp)
//	printf("Endpoint has %d bytes available\n", j);
	if (j > len)
 10035b0:	e0fffb8b 	ldhu	r3,-18(fp)
 10035b4:	e0bfff0b 	ldhu	r2,-4(fp)
 10035b8:	10c0022e 	bgeu	r2,r3,10035c4 <Hal4D13_ReadEndpoint+0x64>
		j = len;
 10035bc:	e0bfff0b 	ldhu	r2,-4(fp)
 10035c0:	e0bffb8d 	sth	r2,-18(fp)
	i = 0;
 10035c4:	e03ffc0d 	sth	zero,-16(fp)
	while (i < j) //<<
 10035c8:	00001e06 	br	1003644 <Hal4D13_ReadEndpoint+0xe4>
	//for(i=0; i<j; i=i+2, buf++ )
	{
		c = IORD(ISP1362_BASE,D13_DATA_PORT);
 10035cc:	00804074 	movhi	r2,257
 10035d0:	109ee404 	addi	r2,r2,31632
 10035d4:	10800017 	ldw	r2,0(r2)
 10035d8:	10800204 	addi	r2,r2,8
 10035dc:	10800037 	ldwio	r2,0(r2)
 10035e0:	e0bffb0d 	sth	r2,-20(fp)
		*buf = (UCHAR) c;
 10035e4:	e0bffb0b 	ldhu	r2,-20(fp)
 10035e8:	1007883a 	mov	r3,r2
 10035ec:	e0bffe17 	ldw	r2,-8(fp)
 10035f0:	10c00005 	stb	r3,0(r2)
		i++; //<<
 10035f4:	e0bffc0b 	ldhu	r2,-16(fp)
 10035f8:	10800044 	addi	r2,r2,1
 10035fc:	e0bffc0d 	sth	r2,-16(fp)
		if (i >= j)
 1003600:	e0fffc0b 	ldhu	r3,-16(fp)
 1003604:	e0bffb8b 	ldhu	r2,-18(fp)
 1003608:	1880112e 	bgeu	r3,r2,1003650 <Hal4D13_ReadEndpoint+0xf0>
			break; //<<
		buf++;
 100360c:	e0bffe17 	ldw	r2,-8(fp)
 1003610:	10800044 	addi	r2,r2,1
 1003614:	e0bffe15 	stw	r2,-8(fp)
		*buf = (UCHAR) (c >> 8);
 1003618:	e0bffb0b 	ldhu	r2,-20(fp)
 100361c:	1004d23a 	srli	r2,r2,8
 1003620:	1007883a 	mov	r3,r2
 1003624:	e0bffe17 	ldw	r2,-8(fp)
 1003628:	10c00005 	stb	r3,0(r2)
		i++; //<<
 100362c:	e0bffc0b 	ldhu	r2,-16(fp)
 1003630:	10800044 	addi	r2,r2,1
 1003634:	e0bffc0d 	sth	r2,-16(fp)
		buf++;
 1003638:	e0bffe17 	ldw	r2,-8(fp)
 100363c:	10800044 	addi	r2,r2,1
 1003640:	e0bffe15 	stw	r2,-8(fp)
	j = IORD(ISP1362_BASE,D13_DATA_PORT);
//	printf("Endpoint has %d bytes available\n", j);
	if (j > len)
		j = len;
	i = 0;
	while (i < j) //<<
 1003644:	e0fffc0b 	ldhu	r3,-16(fp)
 1003648:	e0bffb8b 	ldhu	r2,-18(fp)
 100364c:	18bfdf36 	bltu	r3,r2,10035cc <Hal4D13_ReadEndpoint+0x6c>
		*buf = (UCHAR) (c >> 8);
		i++; //<<
		buf++;
	}
	/* Clear Buffer */
	IOWR(ISP1362_BASE, D13_COMMAND_PORT, D13CMD_EP_CLEAR_BUF+bEPIndex);
 1003650:	00804074 	movhi	r2,257
 1003654:	109ee404 	addi	r2,r2,31632
 1003658:	10800017 	ldw	r2,0(r2)
 100365c:	11000304 	addi	r4,r2,12
 1003660:	e0bffd03 	ldbu	r2,-12(fp)
 1003664:	10c01c04 	addi	r3,r2,112
 1003668:	2005883a 	mov	r2,r4
 100366c:	10c00035 	stwio	r3,0(r2)

//	printf("We read %d bytes from the endpoint\n", j);
	return j;
 1003670:	e0bffb8b 	ldhu	r2,-18(fp)

}
 1003674:	e037883a 	mov	sp,fp
 1003678:	df000017 	ldw	fp,0(sp)
 100367c:	dec00104 	addi	sp,sp,4
 1003680:	f800283a 	ret

01003684 <Hal4D13_ReadBulkEndpoint>:

USHORT Hal4D13_ReadBulkEndpoint(UCHAR bEPIndex, UCHAR * buf, USHORT len) {
 1003684:	defffa04 	addi	sp,sp,-24
 1003688:	df000515 	stw	fp,20(sp)
 100368c:	df000504 	addi	fp,sp,20
 1003690:	e17ffe15 	stw	r5,-8(fp)
 1003694:	e13ffd05 	stb	r4,-12(fp)
 1003698:	e1bfff0d 	sth	r6,-4(fp)
	USHORT i, j, c;
	IOWR(ISP1362_BASE, D13_COMMAND_PORT, D13CMD_EP_RD_FIFO + bEPIndex);
 100369c:	00804074 	movhi	r2,257
 10036a0:	109ee404 	addi	r2,r2,31632
 10036a4:	10800017 	ldw	r2,0(r2)
 10036a8:	11000304 	addi	r4,r2,12
 10036ac:	e0bffd03 	ldbu	r2,-12(fp)
 10036b0:	10c00404 	addi	r3,r2,16
 10036b4:	2005883a 	mov	r2,r4
 10036b8:	10c00035 	stwio	r3,0(r2)
	j = IORD(ISP1362_BASE,D13_DATA_PORT);
 10036bc:	00804074 	movhi	r2,257
 10036c0:	109ee404 	addi	r2,r2,31632
 10036c4:	10800017 	ldw	r2,0(r2)
 10036c8:	10800204 	addi	r2,r2,8
 10036cc:	10800037 	ldwio	r2,0(r2)
 10036d0:	e0bffb8d 	sth	r2,-18(fp)
	if (j > len)
 10036d4:	e0fffb8b 	ldhu	r3,-18(fp)
 10036d8:	e0bfff0b 	ldhu	r2,-4(fp)
 10036dc:	10c0022e 	bgeu	r2,r3,10036e8 <Hal4D13_ReadBulkEndpoint+0x64>
		j = len;
 10036e0:	e0bfff0b 	ldhu	r2,-4(fp)
 10036e4:	e0bffb8d 	sth	r2,-18(fp)
	i = 0;
 10036e8:	e03ffc0d 	sth	zero,-16(fp)
	while (i < j) //<<
 10036ec:	00001e06 	br	1003768 <Hal4D13_ReadBulkEndpoint+0xe4>
//  for(i=0; i<j; i=i+2, buf++ )
	{
		c = IORD(ISP1362_BASE,D13_DATA_PORT);
 10036f0:	00804074 	movhi	r2,257
 10036f4:	109ee404 	addi	r2,r2,31632
 10036f8:	10800017 	ldw	r2,0(r2)
 10036fc:	10800204 	addi	r2,r2,8
 1003700:	10800037 	ldwio	r2,0(r2)
 1003704:	e0bffb0d 	sth	r2,-20(fp)
		*buf = (UCHAR) c;
 1003708:	e0bffb0b 	ldhu	r2,-20(fp)
 100370c:	1007883a 	mov	r3,r2
 1003710:	e0bffe17 	ldw	r2,-8(fp)
 1003714:	10c00005 	stb	r3,0(r2)
		i++; //<<
 1003718:	e0bffc0b 	ldhu	r2,-16(fp)
 100371c:	10800044 	addi	r2,r2,1
 1003720:	e0bffc0d 	sth	r2,-16(fp)
		if (i >= j)
 1003724:	e0fffc0b 	ldhu	r3,-16(fp)
 1003728:	e0bffb8b 	ldhu	r2,-18(fp)
 100372c:	1880112e 	bgeu	r3,r2,1003774 <Hal4D13_ReadBulkEndpoint+0xf0>
			break; //<<
		buf++;
 1003730:	e0bffe17 	ldw	r2,-8(fp)
 1003734:	10800044 	addi	r2,r2,1
 1003738:	e0bffe15 	stw	r2,-8(fp)
		*buf = (UCHAR) (c >> 8);
 100373c:	e0bffb0b 	ldhu	r2,-20(fp)
 1003740:	1004d23a 	srli	r2,r2,8
 1003744:	1007883a 	mov	r3,r2
 1003748:	e0bffe17 	ldw	r2,-8(fp)
 100374c:	10c00005 	stb	r3,0(r2)

		i++; //<<
 1003750:	e0bffc0b 	ldhu	r2,-16(fp)
 1003754:	10800044 	addi	r2,r2,1
 1003758:	e0bffc0d 	sth	r2,-16(fp)
		buf++;
 100375c:	e0bffe17 	ldw	r2,-8(fp)
 1003760:	10800044 	addi	r2,r2,1
 1003764:	e0bffe15 	stw	r2,-8(fp)
	IOWR(ISP1362_BASE, D13_COMMAND_PORT, D13CMD_EP_RD_FIFO + bEPIndex);
	j = IORD(ISP1362_BASE,D13_DATA_PORT);
	if (j > len)
		j = len;
	i = 0;
	while (i < j) //<<
 1003768:	e0fffc0b 	ldhu	r3,-16(fp)
 100376c:	e0bffb8b 	ldhu	r2,-18(fp)
 1003770:	18bfdf36 	bltu	r3,r2,10036f0 <Hal4D13_ReadBulkEndpoint+0x6c>

		i++; //<<
		buf++;
	}
	/* Clear Buffer */
	IOWR(ISP1362_BASE, D13_COMMAND_PORT, D13CMD_EP_CLEAR_BUF+bEPIndex);
 1003774:	00804074 	movhi	r2,257
 1003778:	109ee404 	addi	r2,r2,31632
 100377c:	10800017 	ldw	r2,0(r2)
 1003780:	11000304 	addi	r4,r2,12
 1003784:	e0bffd03 	ldbu	r2,-12(fp)
 1003788:	10c01c04 	addi	r3,r2,112
 100378c:	2005883a 	mov	r2,r4
 1003790:	10c00035 	stwio	r3,0(r2)

	return j;
 1003794:	e0bffb8b 	ldhu	r2,-18(fp)
}
 1003798:	e037883a 	mov	sp,fp
 100379c:	df000017 	ldw	fp,0(sp)
 10037a0:	dec00104 	addi	sp,sp,4
 10037a4:	f800283a 	ret

010037a8 <Hal4D13_ReadEndpointWOClearBuffer>:

USHORT Hal4D13_ReadEndpointWOClearBuffer(UCHAR bEPIndex, UCHAR * buf,
		USHORT len) {
 10037a8:	defffa04 	addi	sp,sp,-24
 10037ac:	df000515 	stw	fp,20(sp)
 10037b0:	df000504 	addi	fp,sp,20
 10037b4:	e17ffe15 	stw	r5,-8(fp)
 10037b8:	e13ffd05 	stb	r4,-12(fp)
 10037bc:	e1bfff0d 	sth	r6,-4(fp)
	USHORT i, j, c;
	IOWR(ISP1362_BASE, D13_COMMAND_PORT, D13CMD_EP_RD_FIFO + bEPIndex);
 10037c0:	00804074 	movhi	r2,257
 10037c4:	109ee404 	addi	r2,r2,31632
 10037c8:	10800017 	ldw	r2,0(r2)
 10037cc:	11000304 	addi	r4,r2,12
 10037d0:	e0bffd03 	ldbu	r2,-12(fp)
 10037d4:	10c00404 	addi	r3,r2,16
 10037d8:	2005883a 	mov	r2,r4
 10037dc:	10c00035 	stwio	r3,0(r2)
	/* read Buffer */
	j = IORD(ISP1362_BASE,D13_DATA_PORT);
 10037e0:	00804074 	movhi	r2,257
 10037e4:	109ee404 	addi	r2,r2,31632
 10037e8:	10800017 	ldw	r2,0(r2)
 10037ec:	10800204 	addi	r2,r2,8
 10037f0:	10800037 	ldwio	r2,0(r2)
 10037f4:	e0bffb8d 	sth	r2,-18(fp)
	if (j > len)
 10037f8:	e0fffb8b 	ldhu	r3,-18(fp)
 10037fc:	e0bfff0b 	ldhu	r2,-4(fp)
 1003800:	10c0022e 	bgeu	r2,r3,100380c <Hal4D13_ReadEndpointWOClearBuffer+0x64>
		j = len;
 1003804:	e0bfff0b 	ldhu	r2,-4(fp)
 1003808:	e0bffb8d 	sth	r2,-18(fp)
	i = 0;
 100380c:	e03ffc0d 	sth	zero,-16(fp)
	while (i < j) //<<
 1003810:	00001e06 	br	100388c <Hal4D13_ReadEndpointWOClearBuffer+0xe4>
	//for(i<j; i=i+2, buf++ )
	{
		c = IORD(ISP1362_BASE,D13_DATA_PORT);
 1003814:	00804074 	movhi	r2,257
 1003818:	109ee404 	addi	r2,r2,31632
 100381c:	10800017 	ldw	r2,0(r2)
 1003820:	10800204 	addi	r2,r2,8
 1003824:	10800037 	ldwio	r2,0(r2)
 1003828:	e0bffb0d 	sth	r2,-20(fp)
		*buf = (UCHAR) c; //printf("WOC= %02X ",*buf);//<<
 100382c:	e0bffb0b 	ldhu	r2,-20(fp)
 1003830:	1007883a 	mov	r3,r2
 1003834:	e0bffe17 	ldw	r2,-8(fp)
 1003838:	10c00005 	stb	r3,0(r2)
		i++; //<<
 100383c:	e0bffc0b 	ldhu	r2,-16(fp)
 1003840:	10800044 	addi	r2,r2,1
 1003844:	e0bffc0d 	sth	r2,-16(fp)
		if (i >= j)
 1003848:	e0fffc0b 	ldhu	r3,-16(fp)
 100384c:	e0bffb8b 	ldhu	r2,-18(fp)
 1003850:	1880112e 	bgeu	r3,r2,1003898 <Hal4D13_ReadEndpointWOClearBuffer+0xf0>
			break; //<<
		buf++;
 1003854:	e0bffe17 	ldw	r2,-8(fp)
 1003858:	10800044 	addi	r2,r2,1
 100385c:	e0bffe15 	stw	r2,-8(fp)
		*buf = (UCHAR) (c >> 8); //printf("WOC= %02X ",*buf);//<<
 1003860:	e0bffb0b 	ldhu	r2,-20(fp)
 1003864:	1004d23a 	srli	r2,r2,8
 1003868:	1007883a 	mov	r3,r2
 100386c:	e0bffe17 	ldw	r2,-8(fp)
 1003870:	10c00005 	stb	r3,0(r2)
		i++; //<<
 1003874:	e0bffc0b 	ldhu	r2,-16(fp)
 1003878:	10800044 	addi	r2,r2,1
 100387c:	e0bffc0d 	sth	r2,-16(fp)
		buf++;
 1003880:	e0bffe17 	ldw	r2,-8(fp)
 1003884:	10800044 	addi	r2,r2,1
 1003888:	e0bffe15 	stw	r2,-8(fp)
	/* read Buffer */
	j = IORD(ISP1362_BASE,D13_DATA_PORT);
	if (j > len)
		j = len;
	i = 0;
	while (i < j) //<<
 100388c:	e0fffc0b 	ldhu	r3,-16(fp)
 1003890:	e0bffb8b 	ldhu	r2,-18(fp)
 1003894:	18bfdf36 	bltu	r3,r2,1003814 <Hal4D13_ReadEndpointWOClearBuffer+0x6c>
		i++; //<<
		buf++;
	}
	// printf("\n",c);
	/* Clear Buffer */
	IOWR(ISP1362_BASE, D13_COMMAND_PORT, D13CMD_EP_CLEAR_BUF+bEPIndex);
 1003898:	00804074 	movhi	r2,257
 100389c:	109ee404 	addi	r2,r2,31632
 10038a0:	10800017 	ldw	r2,0(r2)
 10038a4:	11000304 	addi	r4,r2,12
 10038a8:	e0bffd03 	ldbu	r2,-12(fp)
 10038ac:	10c01c04 	addi	r3,r2,112
 10038b0:	2005883a 	mov	r2,r4
 10038b4:	10c00035 	stwio	r3,0(r2)

	return j;
 10038b8:	e0bffb8b 	ldhu	r2,-18(fp)
}
 10038bc:	e037883a 	mov	sp,fp
 10038c0:	df000017 	ldw	fp,0(sp)
 10038c4:	dec00104 	addi	sp,sp,4
 10038c8:	f800283a 	ret

010038cc <Hal4D13_WriteEndpoint>:

USHORT Hal4D13_WriteEndpoint(UCHAR bEPIndex, UCHAR * buf, USHORT len) {
 10038cc:	defffb04 	addi	sp,sp,-20
 10038d0:	df000415 	stw	fp,16(sp)
 10038d4:	df000404 	addi	fp,sp,16
 10038d8:	e17ffe15 	stw	r5,-8(fp)
 10038dc:	e13ffd05 	stb	r4,-12(fp)
 10038e0:	e1bfff0d 	sth	r6,-4(fp)
	USHORT i, c;
	/* Select Endpoint */

	IOWR(ISP1362_BASE, D13_COMMAND_PORT, D13CMD_EP_WR_FIFO + bEPIndex);
 10038e4:	00804074 	movhi	r2,257
 10038e8:	109ee404 	addi	r2,r2,31632
 10038ec:	10800017 	ldw	r2,0(r2)
 10038f0:	10800304 	addi	r2,r2,12
 10038f4:	e0fffd03 	ldbu	r3,-12(fp)
 10038f8:	10c00035 	stwio	r3,0(r2)
	IOWR(ISP1362_BASE, D13_DATA_PORT, len);
 10038fc:	00804074 	movhi	r2,257
 1003900:	109ee404 	addi	r2,r2,31632
 1003904:	10800017 	ldw	r2,0(r2)
 1003908:	10800204 	addi	r2,r2,8
 100390c:	e0ffff0b 	ldhu	r3,-4(fp)
 1003910:	10c00035 	stwio	r3,0(r2)
	if (len == 0)
 1003914:	e0bfff0b 	ldhu	r2,-4(fp)
 1003918:	1004c03a 	cmpne	r2,r2,zero
 100391c:	1000051e 	bne	r2,zero,1003934 <Hal4D13_WriteEndpoint+0x68>
		IOWR(ISP1362_BASE, D13_DATA_PORT, 0);
 1003920:	00804074 	movhi	r2,257
 1003924:	109ee404 	addi	r2,r2,31632
 1003928:	10800017 	ldw	r2,0(r2)
 100392c:	10800204 	addi	r2,r2,8
 1003930:	10000035 	stwio	zero,0(r2)
	/* Write Buffer */

	//for(i=0; i<len; i=i+2, buf++ )
	i = 0;
 1003934:	e03ffc8d 	sth	zero,-14(fp)
	while (i < len) {
 1003938:	00002b06 	br	10039e8 <Hal4D13_WriteEndpoint+0x11c>
		c = *buf;
 100393c:	e0bffe17 	ldw	r2,-8(fp)
 1003940:	10800003 	ldbu	r2,0(r2)
 1003944:	10803fcc 	andi	r2,r2,255
 1003948:	e0bffc0d 	sth	r2,-16(fp)
		buf++;
 100394c:	e0bffe17 	ldw	r2,-8(fp)
 1003950:	10800044 	addi	r2,r2,1
 1003954:	e0bffe15 	stw	r2,-8(fp)
		i++;
 1003958:	e0bffc8b 	ldhu	r2,-14(fp)
 100395c:	10800044 	addi	r2,r2,1
 1003960:	e0bffc8d 	sth	r2,-14(fp)
		if (i >= len) {
 1003964:	e0fffc8b 	ldhu	r3,-14(fp)
 1003968:	e0bfff0b 	ldhu	r2,-4(fp)
 100396c:	18800636 	bltu	r3,r2,1003988 <Hal4D13_WriteEndpoint+0xbc>
			IOWR(ISP1362_BASE, D13_DATA_PORT, c);
 1003970:	00804074 	movhi	r2,257
 1003974:	109ee404 	addi	r2,r2,31632
 1003978:	10800017 	ldw	r2,0(r2)
 100397c:	10800204 	addi	r2,r2,8
 1003980:	e0fffc0b 	ldhu	r3,-16(fp)
 1003984:	10c00035 	stwio	r3,0(r2)
		} //printf("w=%04x  ",c);break; }
		c = (c & 0xff) + (*buf << 8 & 0xff00);
 1003988:	e0bffc0b 	ldhu	r2,-16(fp)
 100398c:	10803fcc 	andi	r2,r2,255
 1003990:	1009883a 	mov	r4,r2
 1003994:	e0bffe17 	ldw	r2,-8(fp)
 1003998:	10800003 	ldbu	r2,0(r2)
 100399c:	10803fcc 	andi	r2,r2,255
 10039a0:	1004923a 	slli	r2,r2,8
 10039a4:	1007883a 	mov	r3,r2
 10039a8:	00bfc004 	movi	r2,-256
 10039ac:	1884703a 	and	r2,r3,r2
 10039b0:	2085883a 	add	r2,r4,r2
 10039b4:	e0bffc0d 	sth	r2,-16(fp)
		buf++;
 10039b8:	e0bffe17 	ldw	r2,-8(fp)
 10039bc:	10800044 	addi	r2,r2,1
 10039c0:	e0bffe15 	stw	r2,-8(fp)
		i++;
 10039c4:	e0bffc8b 	ldhu	r2,-14(fp)
 10039c8:	10800044 	addi	r2,r2,1
 10039cc:	e0bffc8d 	sth	r2,-14(fp)
		IOWR(ISP1362_BASE, D13_DATA_PORT, c);
 10039d0:	00804074 	movhi	r2,257
 10039d4:	109ee404 	addi	r2,r2,31632
 10039d8:	10800017 	ldw	r2,0(r2)
 10039dc:	10800204 	addi	r2,r2,8
 10039e0:	e0fffc0b 	ldhu	r3,-16(fp)
 10039e4:	10c00035 	stwio	r3,0(r2)
		IOWR(ISP1362_BASE, D13_DATA_PORT, 0);
	/* Write Buffer */

	//for(i=0; i<len; i=i+2, buf++ )
	i = 0;
	while (i < len) {
 10039e8:	e0fffc8b 	ldhu	r3,-14(fp)
 10039ec:	e0bfff0b 	ldhu	r2,-4(fp)
 10039f0:	18bfd236 	bltu	r3,r2,100393c <Hal4D13_WriteEndpoint+0x70>
//    printf("w=%04x  ",c);
	}
//  printf("\nlen=%d i=%d\n",len,i);

	/* Validate Buffer */
	IOWR(ISP1362_BASE, D13_COMMAND_PORT, D13CMD_EP_VALID_BUF+bEPIndex);
 10039f4:	00804074 	movhi	r2,257
 10039f8:	109ee404 	addi	r2,r2,31632
 10039fc:	10800017 	ldw	r2,0(r2)
 1003a00:	11000304 	addi	r4,r2,12
 1003a04:	e0bffd03 	ldbu	r2,-12(fp)
 1003a08:	10c01804 	addi	r3,r2,96
 1003a0c:	2005883a 	mov	r2,r4
 1003a10:	10c00035 	stwio	r3,0(r2)
	// printf("\n");
	return i;
 1003a14:	e0bffc8b 	ldhu	r2,-14(fp)
}
 1003a18:	e037883a 	mov	sp,fp
 1003a1c:	df000017 	ldw	fp,0(sp)
 1003a20:	dec00104 	addi	sp,sp,4
 1003a24:	f800283a 	ret

01003a28 <Hal4D13_WriteBulkEndpoint>:

USHORT Hal4D13_WriteBulkEndpoint(UCHAR bEPIndex, UCHAR * buf, USHORT len) {
 1003a28:	defffb04 	addi	sp,sp,-20
 1003a2c:	df000415 	stw	fp,16(sp)
 1003a30:	df000404 	addi	fp,sp,16
 1003a34:	e17ffe15 	stw	r5,-8(fp)
 1003a38:	e13ffd05 	stb	r4,-12(fp)
 1003a3c:	e1bfff0d 	sth	r6,-4(fp)
	USHORT i, c;
	/* Select Endpoint */
	IOWR(ISP1362_BASE, D13_COMMAND_PORT, D13CMD_EP_WR_FIFO + bEPIndex);
 1003a40:	00804074 	movhi	r2,257
 1003a44:	109ee404 	addi	r2,r2,31632
 1003a48:	10800017 	ldw	r2,0(r2)
 1003a4c:	10800304 	addi	r2,r2,12
 1003a50:	e0fffd03 	ldbu	r3,-12(fp)
 1003a54:	10c00035 	stwio	r3,0(r2)
	IOWR(ISP1362_BASE, D13_DATA_PORT, len);
 1003a58:	00804074 	movhi	r2,257
 1003a5c:	109ee404 	addi	r2,r2,31632
 1003a60:	10800017 	ldw	r2,0(r2)
 1003a64:	10800204 	addi	r2,r2,8
 1003a68:	e0ffff0b 	ldhu	r3,-4(fp)
 1003a6c:	10c00035 	stwio	r3,0(r2)
	if (len == 0)
 1003a70:	e0bfff0b 	ldhu	r2,-4(fp)
 1003a74:	1004c03a 	cmpne	r2,r2,zero
 1003a78:	1000051e 	bne	r2,zero,1003a90 <Hal4D13_WriteBulkEndpoint+0x68>
		IOWR(ISP1362_BASE, D13_DATA_PORT, 0);
 1003a7c:	00804074 	movhi	r2,257
 1003a80:	109ee404 	addi	r2,r2,31632
 1003a84:	10800017 	ldw	r2,0(r2)
 1003a88:	10800204 	addi	r2,r2,8
 1003a8c:	10000035 	stwio	zero,0(r2)

	/* Write Buffer */
	for (i = 0; i < len; i = i + 2, buf++) {
 1003a90:	e03ffc8d 	sth	zero,-14(fp)
 1003a94:	00001b06 	br	1003b04 <Hal4D13_WriteBulkEndpoint+0xdc>
		c = *buf;
 1003a98:	e0bffe17 	ldw	r2,-8(fp)
 1003a9c:	10800003 	ldbu	r2,0(r2)
 1003aa0:	10803fcc 	andi	r2,r2,255
 1003aa4:	e0bffc0d 	sth	r2,-16(fp)
		buf++;
 1003aa8:	e0bffe17 	ldw	r2,-8(fp)
 1003aac:	10800044 	addi	r2,r2,1
 1003ab0:	e0bffe15 	stw	r2,-8(fp)
		c += (USHORT) (*buf << 8);
 1003ab4:	e0bffe17 	ldw	r2,-8(fp)
 1003ab8:	10800003 	ldbu	r2,0(r2)
 1003abc:	10803fcc 	andi	r2,r2,255
 1003ac0:	1004923a 	slli	r2,r2,8
 1003ac4:	1007883a 	mov	r3,r2
 1003ac8:	e0bffc0b 	ldhu	r2,-16(fp)
 1003acc:	10c5883a 	add	r2,r2,r3
 1003ad0:	e0bffc0d 	sth	r2,-16(fp)
		IOWR(ISP1362_BASE, D13_DATA_PORT, c);
 1003ad4:	00804074 	movhi	r2,257
 1003ad8:	109ee404 	addi	r2,r2,31632
 1003adc:	10800017 	ldw	r2,0(r2)
 1003ae0:	10800204 	addi	r2,r2,8
 1003ae4:	e0fffc0b 	ldhu	r3,-16(fp)
 1003ae8:	10c00035 	stwio	r3,0(r2)
	IOWR(ISP1362_BASE, D13_DATA_PORT, len);
	if (len == 0)
		IOWR(ISP1362_BASE, D13_DATA_PORT, 0);

	/* Write Buffer */
	for (i = 0; i < len; i = i + 2, buf++) {
 1003aec:	e0bffc8b 	ldhu	r2,-14(fp)
 1003af0:	10800084 	addi	r2,r2,2
 1003af4:	e0bffc8d 	sth	r2,-14(fp)
 1003af8:	e0bffe17 	ldw	r2,-8(fp)
 1003afc:	10800044 	addi	r2,r2,1
 1003b00:	e0bffe15 	stw	r2,-8(fp)
 1003b04:	e0fffc8b 	ldhu	r3,-14(fp)
 1003b08:	e0bfff0b 	ldhu	r2,-4(fp)
 1003b0c:	18bfe236 	bltu	r3,r2,1003a98 <Hal4D13_WriteBulkEndpoint+0x70>
		buf++;
		c += (USHORT) (*buf << 8);
		IOWR(ISP1362_BASE, D13_DATA_PORT, c);
	}
	/* Validate Buffer */
	IOWR(ISP1362_BASE, D13_COMMAND_PORT, D13CMD_EP_VALID_BUF+bEPIndex);
 1003b10:	00804074 	movhi	r2,257
 1003b14:	109ee404 	addi	r2,r2,31632
 1003b18:	10800017 	ldw	r2,0(r2)
 1003b1c:	11000304 	addi	r4,r2,12
 1003b20:	e0bffd03 	ldbu	r2,-12(fp)
 1003b24:	10c01804 	addi	r3,r2,96
 1003b28:	2005883a 	mov	r2,r4
 1003b2c:	10c00035 	stwio	r3,0(r2)
	return len;
 1003b30:	e0bfff0b 	ldhu	r2,-4(fp)
}
 1003b34:	e037883a 	mov	sp,fp
 1003b38:	df000017 	ldw	fp,0(sp)
 1003b3c:	dec00104 	addi	sp,sp,4
 1003b40:	f800283a 	ret

01003b44 <Hal4D13_GetIntEnable>:

ULONG Hal4D13_GetIntEnable(void) {
 1003b44:	defffe04 	addi	sp,sp,-8
 1003b48:	df000115 	stw	fp,4(sp)
 1003b4c:	df000104 	addi	fp,sp,4
	ULONG i;
	IOWR(ISP1362_BASE, D13_COMMAND_PORT, D13CMD_DEV_RD_INTEN);
 1003b50:	00804074 	movhi	r2,257
 1003b54:	109ee404 	addi	r2,r2,31632
 1003b58:	10800017 	ldw	r2,0(r2)
 1003b5c:	10800304 	addi	r2,r2,12
 1003b60:	1007883a 	mov	r3,r2
 1003b64:	008030c4 	movi	r2,195
 1003b68:	18800035 	stwio	r2,0(r3)
	i = IORD(ISP1362_BASE,D13_DATA_PORT);
 1003b6c:	00804074 	movhi	r2,257
 1003b70:	109ee404 	addi	r2,r2,31632
 1003b74:	10800017 	ldw	r2,0(r2)
 1003b78:	10800204 	addi	r2,r2,8
 1003b7c:	10800037 	ldwio	r2,0(r2)
 1003b80:	e0bfff15 	stw	r2,-4(fp)
	i += (((ULONG) IORD(ISP1362_BASE,D13_DATA_PORT)) << 16);
 1003b84:	00804074 	movhi	r2,257
 1003b88:	109ee404 	addi	r2,r2,31632
 1003b8c:	10800017 	ldw	r2,0(r2)
 1003b90:	10800204 	addi	r2,r2,8
 1003b94:	10800037 	ldwio	r2,0(r2)
 1003b98:	1006943a 	slli	r3,r2,16
 1003b9c:	e0bfff17 	ldw	r2,-4(fp)
 1003ba0:	10c5883a 	add	r2,r2,r3
 1003ba4:	e0bfff15 	stw	r2,-4(fp)
	return i;
 1003ba8:	e0bfff17 	ldw	r2,-4(fp)
}
 1003bac:	e037883a 	mov	sp,fp
 1003bb0:	df000017 	ldw	fp,0(sp)
 1003bb4:	dec00104 	addi	sp,sp,4
 1003bb8:	f800283a 	ret

01003bbc <Hal4D13_SetIntEnable>:

void Hal4D13_SetIntEnable(ULONG dIntEn) {
 1003bbc:	defffe04 	addi	sp,sp,-8
 1003bc0:	df000115 	stw	fp,4(sp)
 1003bc4:	df000104 	addi	fp,sp,4
 1003bc8:	e13fff15 	stw	r4,-4(fp)
	IOWR(ISP1362_BASE, D13_COMMAND_PORT, D13CMD_DEV_WR_INTEN);
 1003bcc:	00804074 	movhi	r2,257
 1003bd0:	109ee404 	addi	r2,r2,31632
 1003bd4:	10800017 	ldw	r2,0(r2)
 1003bd8:	10800304 	addi	r2,r2,12
 1003bdc:	1007883a 	mov	r3,r2
 1003be0:	00803084 	movi	r2,194
 1003be4:	18800035 	stwio	r2,0(r3)
	dIntEn = (dIntEn & 0x0FFFFFF);
 1003be8:	e0ffff17 	ldw	r3,-4(fp)
 1003bec:	00804034 	movhi	r2,256
 1003bf0:	10bfffc4 	addi	r2,r2,-1
 1003bf4:	1884703a 	and	r2,r3,r2
 1003bf8:	e0bfff15 	stw	r2,-4(fp)
	IOWR(ISP1362_BASE, D13_DATA_PORT, (USHORT)dIntEn);
 1003bfc:	00804074 	movhi	r2,257
 1003c00:	109ee404 	addi	r2,r2,31632
 1003c04:	10800017 	ldw	r2,0(r2)
 1003c08:	11000204 	addi	r4,r2,8
 1003c0c:	e0bfff17 	ldw	r2,-4(fp)
 1003c10:	10ffffcc 	andi	r3,r2,65535
 1003c14:	2005883a 	mov	r2,r4
 1003c18:	10c00035 	stwio	r3,0(r2)
	IOWR(ISP1362_BASE, D13_DATA_PORT, (USHORT)(dIntEn >> 16));
 1003c1c:	00804074 	movhi	r2,257
 1003c20:	109ee404 	addi	r2,r2,31632
 1003c24:	10800017 	ldw	r2,0(r2)
 1003c28:	11000204 	addi	r4,r2,8
 1003c2c:	e0bfff17 	ldw	r2,-4(fp)
 1003c30:	1004d43a 	srli	r2,r2,16
 1003c34:	10ffffcc 	andi	r3,r2,65535
 1003c38:	2005883a 	mov	r2,r4
 1003c3c:	10c00035 	stwio	r3,0(r2)
}
 1003c40:	e037883a 	mov	sp,fp
 1003c44:	df000017 	ldw	fp,0(sp)
 1003c48:	dec00104 	addi	sp,sp,4
 1003c4c:	f800283a 	ret

01003c50 <Hal4D13_ReadInterruptRegister>:

ULONG Hal4D13_ReadInterruptRegister(void) {
 1003c50:	defffd04 	addi	sp,sp,-12
 1003c54:	df000215 	stw	fp,8(sp)
 1003c58:	df000204 	addi	fp,sp,8
	ULONG j, i = 0;
 1003c5c:	e03ffe15 	stw	zero,-8(fp)
	IOWR(ISP1362_BASE, D13_COMMAND_PORT, D13CMD_DEV_INT_SRC);
 1003c60:	00804074 	movhi	r2,257
 1003c64:	109ee404 	addi	r2,r2,31632
 1003c68:	10800017 	ldw	r2,0(r2)
 1003c6c:	10800304 	addi	r2,r2,12
 1003c70:	1007883a 	mov	r3,r2
 1003c74:	00803004 	movi	r2,192
 1003c78:	18800035 	stwio	r2,0(r3)
	i = IORD(ISP1362_BASE,D13_DATA_PORT);
 1003c7c:	00804074 	movhi	r2,257
 1003c80:	109ee404 	addi	r2,r2,31632
 1003c84:	10800017 	ldw	r2,0(r2)
 1003c88:	10800204 	addi	r2,r2,8
 1003c8c:	10800037 	ldwio	r2,0(r2)
 1003c90:	e0bffe15 	stw	r2,-8(fp)
	j = IORD(ISP1362_BASE,D13_DATA_PORT);
 1003c94:	00804074 	movhi	r2,257
 1003c98:	109ee404 	addi	r2,r2,31632
 1003c9c:	10800017 	ldw	r2,0(r2)
 1003ca0:	10800204 	addi	r2,r2,8
 1003ca4:	10800037 	ldwio	r2,0(r2)
 1003ca8:	e0bfff15 	stw	r2,-4(fp)
	j = ((j << 16) & 0xffff0000) + (i & 0xffff);
 1003cac:	e0bfff17 	ldw	r2,-4(fp)
 1003cb0:	1004943a 	slli	r2,r2,16
 1003cb4:	10ffffec 	andhi	r3,r2,65535
 1003cb8:	e0bffe17 	ldw	r2,-8(fp)
 1003cbc:	10bfffcc 	andi	r2,r2,65535
 1003cc0:	1885883a 	add	r2,r3,r2
 1003cc4:	e0bfff15 	stw	r2,-4(fp)
	return i;
 1003cc8:	e0bffe17 	ldw	r2,-8(fp)
}
 1003ccc:	e037883a 	mov	sp,fp
 1003cd0:	df000017 	ldw	fp,0(sp)
 1003cd4:	dec00104 	addi	sp,sp,4
 1003cd8:	f800283a 	ret

01003cdc <Hal4D13_GetEndpointStatusWInteruptClear>:

UCHAR Hal4D13_GetEndpointStatusWInteruptClear(UCHAR bEPIndex) {
 1003cdc:	defffd04 	addi	sp,sp,-12
 1003ce0:	df000215 	stw	fp,8(sp)
 1003ce4:	df000204 	addi	fp,sp,8
 1003ce8:	e13fff05 	stb	r4,-4(fp)
	UCHAR c;
	IOWR(ISP1362_BASE, D13_COMMAND_PORT, D13CMD_EP_RDSTS_CLRINT + bEPIndex);
 1003cec:	00804074 	movhi	r2,257
 1003cf0:	109ee404 	addi	r2,r2,31632
 1003cf4:	10800017 	ldw	r2,0(r2)
 1003cf8:	11000304 	addi	r4,r2,12
 1003cfc:	e0bfff03 	ldbu	r2,-4(fp)
 1003d00:	10c01404 	addi	r3,r2,80
 1003d04:	2005883a 	mov	r2,r4
 1003d08:	10c00035 	stwio	r3,0(r2)
	c = (UCHAR) (IORD(ISP1362_BASE,D13_DATA_PORT) & 0x0ff);
 1003d0c:	00804074 	movhi	r2,257
 1003d10:	109ee404 	addi	r2,r2,31632
 1003d14:	10800017 	ldw	r2,0(r2)
 1003d18:	10800204 	addi	r2,r2,8
 1003d1c:	10800037 	ldwio	r2,0(r2)
 1003d20:	1007883a 	mov	r3,r2
 1003d24:	00bfffc4 	movi	r2,-1
 1003d28:	1884703a 	and	r2,r3,r2
 1003d2c:	e0bffe05 	stb	r2,-8(fp)
	return c;
 1003d30:	e0bffe03 	ldbu	r2,-8(fp)
}
 1003d34:	e037883a 	mov	sp,fp
 1003d38:	df000017 	ldw	fp,0(sp)
 1003d3c:	dec00104 	addi	sp,sp,4
 1003d40:	f800283a 	ret

01003d44 <Hal4D13_GetEndpointStatusWOInteruptClear>:

UCHAR Hal4D13_GetEndpointStatusWOInteruptClear(UCHAR bEPIndex) {
 1003d44:	defffd04 	addi	sp,sp,-12
 1003d48:	df000215 	stw	fp,8(sp)
 1003d4c:	df000204 	addi	fp,sp,8
 1003d50:	e13fff05 	stb	r4,-4(fp)
	UCHAR c;
	IOWR(ISP1362_BASE, D13_COMMAND_PORT, D13CMD_EP_RDSTS + bEPIndex);
 1003d54:	00804074 	movhi	r2,257
 1003d58:	109ee404 	addi	r2,r2,31632
 1003d5c:	10800017 	ldw	r2,0(r2)
 1003d60:	11000304 	addi	r4,r2,12
 1003d64:	e0bfff03 	ldbu	r2,-4(fp)
 1003d68:	10c03404 	addi	r3,r2,208
 1003d6c:	2005883a 	mov	r2,r4
 1003d70:	10c00035 	stwio	r3,0(r2)
	c = (UCHAR) (IORD(ISP1362_BASE,D13_DATA_PORT) & 0x0ff);
 1003d74:	00804074 	movhi	r2,257
 1003d78:	109ee404 	addi	r2,r2,31632
 1003d7c:	10800017 	ldw	r2,0(r2)
 1003d80:	10800204 	addi	r2,r2,8
 1003d84:	10800037 	ldwio	r2,0(r2)
 1003d88:	1007883a 	mov	r3,r2
 1003d8c:	00bfffc4 	movi	r2,-1
 1003d90:	1884703a 	and	r2,r3,r2
 1003d94:	e0bffe05 	stb	r2,-8(fp)
	return c;
 1003d98:	e0bffe03 	ldbu	r2,-8(fp)
}
 1003d9c:	e037883a 	mov	sp,fp
 1003da0:	df000017 	ldw	fp,0(sp)
 1003da4:	dec00104 	addi	sp,sp,4
 1003da8:	f800283a 	ret

01003dac <Hal4D13_SetEndpointStatus>:

void Hal4D13_SetEndpointStatus(UCHAR bEPIndex, UCHAR bStalled) {
 1003dac:	defffd04 	addi	sp,sp,-12
 1003db0:	df000215 	stw	fp,8(sp)
 1003db4:	df000204 	addi	fp,sp,8
 1003db8:	e13ffe05 	stb	r4,-8(fp)
 1003dbc:	e17fff05 	stb	r5,-4(fp)
	if (bStalled & 0x80) {
 1003dc0:	e0bfff03 	ldbu	r2,-4(fp)
 1003dc4:	10803fcc 	andi	r2,r2,255
 1003dc8:	1080201c 	xori	r2,r2,128
 1003dcc:	10bfe004 	addi	r2,r2,-128
 1003dd0:	1004403a 	cmpge	r2,r2,zero
 1003dd4:	1000091e 	bne	r2,zero,1003dfc <Hal4D13_SetEndpointStatus+0x50>
		IOWR(ISP1362_BASE, D13_COMMAND_PORT, D13CMD_EP_WR_STS + bEPIndex);
 1003dd8:	00804074 	movhi	r2,257
 1003ddc:	109ee404 	addi	r2,r2,31632
 1003de0:	10800017 	ldw	r2,0(r2)
 1003de4:	11000304 	addi	r4,r2,12
 1003de8:	e0bffe03 	ldbu	r2,-8(fp)
 1003dec:	10c01004 	addi	r3,r2,64
 1003df0:	2005883a 	mov	r2,r4
 1003df4:	10c00035 	stwio	r3,0(r2)
 1003df8:	00000806 	br	1003e1c <Hal4D13_SetEndpointStatus+0x70>
	} else {
		// clear endpoint stall.
		IOWR(ISP1362_BASE, D13_COMMAND_PORT, D13CMD_EP_CLR_STALL + bEPIndex);
 1003dfc:	00804074 	movhi	r2,257
 1003e00:	109ee404 	addi	r2,r2,31632
 1003e04:	10800017 	ldw	r2,0(r2)
 1003e08:	11000304 	addi	r4,r2,12
 1003e0c:	e0bffe03 	ldbu	r2,-8(fp)
 1003e10:	10c02004 	addi	r3,r2,128
 1003e14:	2005883a 	mov	r2,r4
 1003e18:	10c00035 	stwio	r3,0(r2)
	}
}
 1003e1c:	e037883a 	mov	sp,fp
 1003e20:	df000017 	ldw	fp,0(sp)
 1003e24:	dec00104 	addi	sp,sp,4
 1003e28:	f800283a 	ret

01003e2c <Hal4D13_SetDMAConfig>:

void Hal4D13_SetDMAConfig(USHORT wDMACnfg) {
 1003e2c:	defffe04 	addi	sp,sp,-8
 1003e30:	df000115 	stw	fp,4(sp)
 1003e34:	df000104 	addi	fp,sp,4
 1003e38:	e13fff0d 	sth	r4,-4(fp)
	IOWR(ISP1362_BASE, D13_COMMAND_PORT, D13CMD_DMA_WR_CNFG);
 1003e3c:	00804074 	movhi	r2,257
 1003e40:	109ee404 	addi	r2,r2,31632
 1003e44:	10800017 	ldw	r2,0(r2)
 1003e48:	10800304 	addi	r2,r2,12
 1003e4c:	1007883a 	mov	r3,r2
 1003e50:	00803c04 	movi	r2,240
 1003e54:	18800035 	stwio	r2,0(r3)
	IOWR(ISP1362_BASE, D13_DATA_PORT, wDMACnfg);
 1003e58:	00804074 	movhi	r2,257
 1003e5c:	109ee404 	addi	r2,r2,31632
 1003e60:	10800017 	ldw	r2,0(r2)
 1003e64:	10800204 	addi	r2,r2,8
 1003e68:	e0ffff0b 	ldhu	r3,-4(fp)
 1003e6c:	10c00035 	stwio	r3,0(r2)
}
 1003e70:	e037883a 	mov	sp,fp
 1003e74:	df000017 	ldw	fp,0(sp)
 1003e78:	dec00104 	addi	sp,sp,4
 1003e7c:	f800283a 	ret

01003e80 <Hal4D13_GetDMAConfig>:

USHORT Hal4D13_GetDMAConfig(void) {
 1003e80:	defffe04 	addi	sp,sp,-8
 1003e84:	df000115 	stw	fp,4(sp)
 1003e88:	df000104 	addi	fp,sp,4
	USHORT i;
	IOWR(ISP1362_BASE, D13_COMMAND_PORT, D13CMD_DMA_RD_CNFG);
 1003e8c:	00804074 	movhi	r2,257
 1003e90:	109ee404 	addi	r2,r2,31632
 1003e94:	10800017 	ldw	r2,0(r2)
 1003e98:	10800304 	addi	r2,r2,12
 1003e9c:	1007883a 	mov	r3,r2
 1003ea0:	00803c44 	movi	r2,241
 1003ea4:	18800035 	stwio	r2,0(r3)
	i = IORD(ISP1362_BASE,D13_DATA_PORT);
 1003ea8:	00804074 	movhi	r2,257
 1003eac:	109ee404 	addi	r2,r2,31632
 1003eb0:	10800017 	ldw	r2,0(r2)
 1003eb4:	10800204 	addi	r2,r2,8
 1003eb8:	10800037 	ldwio	r2,0(r2)
 1003ebc:	e0bfff0d 	sth	r2,-4(fp)
	return i;
 1003ec0:	e0bfff0b 	ldhu	r2,-4(fp)
}
 1003ec4:	e037883a 	mov	sp,fp
 1003ec8:	df000017 	ldw	fp,0(sp)
 1003ecc:	dec00104 	addi	sp,sp,4
 1003ed0:	f800283a 	ret

01003ed4 <Hal4D13_SetDMACounter>:

void Hal4D13_SetDMACounter(USHORT wDMACounter) {
 1003ed4:	defffe04 	addi	sp,sp,-8
 1003ed8:	df000115 	stw	fp,4(sp)
 1003edc:	df000104 	addi	fp,sp,4
 1003ee0:	e13fff0d 	sth	r4,-4(fp)
	IOWR(ISP1362_BASE, D13_COMMAND_PORT, D13CMD_DMA_WR_COUNT);
 1003ee4:	00804074 	movhi	r2,257
 1003ee8:	109ee404 	addi	r2,r2,31632
 1003eec:	10800017 	ldw	r2,0(r2)
 1003ef0:	10800304 	addi	r2,r2,12
 1003ef4:	1007883a 	mov	r3,r2
 1003ef8:	00803c84 	movi	r2,242
 1003efc:	18800035 	stwio	r2,0(r3)
	IOWR(ISP1362_BASE, D13_DATA_PORT, wDMACounter);
 1003f00:	00804074 	movhi	r2,257
 1003f04:	109ee404 	addi	r2,r2,31632
 1003f08:	10800017 	ldw	r2,0(r2)
 1003f0c:	10800204 	addi	r2,r2,8
 1003f10:	e0ffff0b 	ldhu	r3,-4(fp)
 1003f14:	10c00035 	stwio	r3,0(r2)
}
 1003f18:	e037883a 	mov	sp,fp
 1003f1c:	df000017 	ldw	fp,0(sp)
 1003f20:	dec00104 	addi	sp,sp,4
 1003f24:	f800283a 	ret

01003f28 <Hal4D13_GetDMACounter>:

USHORT Hal4D13_GetDMACounter(void) {
 1003f28:	defffe04 	addi	sp,sp,-8
 1003f2c:	df000115 	stw	fp,4(sp)
 1003f30:	df000104 	addi	fp,sp,4
	USHORT i;
	IOWR(ISP1362_BASE, D13_COMMAND_PORT, D13CMD_DMA_RD_COUNT);
 1003f34:	00804074 	movhi	r2,257
 1003f38:	109ee404 	addi	r2,r2,31632
 1003f3c:	10800017 	ldw	r2,0(r2)
 1003f40:	10800304 	addi	r2,r2,12
 1003f44:	1007883a 	mov	r3,r2
 1003f48:	00803cc4 	movi	r2,243
 1003f4c:	18800035 	stwio	r2,0(r3)
	i = IORD(ISP1362_BASE,D13_DATA_PORT);
 1003f50:	00804074 	movhi	r2,257
 1003f54:	109ee404 	addi	r2,r2,31632
 1003f58:	10800017 	ldw	r2,0(r2)
 1003f5c:	10800204 	addi	r2,r2,8
 1003f60:	10800037 	ldwio	r2,0(r2)
 1003f64:	e0bfff0d 	sth	r2,-4(fp)
	return i;
 1003f68:	e0bfff0b 	ldhu	r2,-4(fp)
}
 1003f6c:	e037883a 	mov	sp,fp
 1003f70:	df000017 	ldw	fp,0(sp)
 1003f74:	dec00104 	addi	sp,sp,4
 1003f78:	f800283a 	ret

01003f7c <Hal4D13_GetDataFromChipRam>:

USHORT Hal4D13_GetDataFromChipRam(void) {
 1003f7c:	defffe04 	addi	sp,sp,-8
 1003f80:	df000115 	stw	fp,4(sp)
 1003f84:	df000104 	addi	fp,sp,4
	USHORT i;
	IOWR(ISP1362_BASE, D13_COMMAND_PORT, D13CMD_DEV_RD_RAM);
 1003f88:	00804074 	movhi	r2,257
 1003f8c:	109ee404 	addi	r2,r2,31632
 1003f90:	10800017 	ldw	r2,0(r2)
 1003f94:	10800304 	addi	r2,r2,12
 1003f98:	1007883a 	mov	r3,r2
 1003f9c:	00802cc4 	movi	r2,179
 1003fa0:	18800035 	stwio	r2,0(r3)
	i = IORD(ISP1362_BASE,D13_DATA_PORT);
 1003fa4:	00804074 	movhi	r2,257
 1003fa8:	109ee404 	addi	r2,r2,31632
 1003fac:	10800017 	ldw	r2,0(r2)
 1003fb0:	10800204 	addi	r2,r2,8
 1003fb4:	10800037 	ldwio	r2,0(r2)
 1003fb8:	e0bfff0d 	sth	r2,-4(fp)
	return i;
 1003fbc:	e0bfff0b 	ldhu	r2,-4(fp)
}
 1003fc0:	e037883a 	mov	sp,fp
 1003fc4:	df000017 	ldw	fp,0(sp)
 1003fc8:	dec00104 	addi	sp,sp,4
 1003fcc:	f800283a 	ret

01003fd0 <Hal4D13_SetDataToChipRam>:

void Hal4D13_SetDataToChipRam(USHORT wData) {
 1003fd0:	defffe04 	addi	sp,sp,-8
 1003fd4:	df000115 	stw	fp,4(sp)
 1003fd8:	df000104 	addi	fp,sp,4
 1003fdc:	e13fff0d 	sth	r4,-4(fp)
	IOWR(ISP1362_BASE, D13_COMMAND_PORT, D13CMD_DEV_WR_RAM);
 1003fe0:	00804074 	movhi	r2,257
 1003fe4:	109ee404 	addi	r2,r2,31632
 1003fe8:	10800017 	ldw	r2,0(r2)
 1003fec:	10800304 	addi	r2,r2,12
 1003ff0:	1007883a 	mov	r3,r2
 1003ff4:	00802c84 	movi	r2,178
 1003ff8:	18800035 	stwio	r2,0(r3)
	IOWR(ISP1362_BASE, D13_DATA_PORT, wData);
 1003ffc:	00804074 	movhi	r2,257
 1004000:	109ee404 	addi	r2,r2,31632
 1004004:	10800017 	ldw	r2,0(r2)
 1004008:	10800204 	addi	r2,r2,8
 100400c:	e0ffff0b 	ldhu	r3,-4(fp)
 1004010:	10c00035 	stwio	r3,0(r2)
}
 1004014:	e037883a 	mov	sp,fp
 1004018:	df000017 	ldw	fp,0(sp)
 100401c:	dec00104 	addi	sp,sp,4
 1004020:	f800283a 	ret

01004024 <Hal4D13_ReadCurrentFrameNumber>:

USHORT Hal4D13_ReadCurrentFrameNumber(void) {
 1004024:	defffe04 	addi	sp,sp,-8
 1004028:	df000115 	stw	fp,4(sp)
 100402c:	df000104 	addi	fp,sp,4
	USHORT i;
	IOWR(ISP1362_BASE, D13_COMMAND_PORT, D13CMD_RD_FRMNUM);
 1004030:	00804074 	movhi	r2,257
 1004034:	109ee404 	addi	r2,r2,31632
 1004038:	10800017 	ldw	r2,0(r2)
 100403c:	10800304 	addi	r2,r2,12
 1004040:	1007883a 	mov	r3,r2
 1004044:	00802d04 	movi	r2,180
 1004048:	18800035 	stwio	r2,0(r3)
	i = IORD(ISP1362_BASE,D13_DATA_PORT);
 100404c:	00804074 	movhi	r2,257
 1004050:	109ee404 	addi	r2,r2,31632
 1004054:	10800017 	ldw	r2,0(r2)
 1004058:	10800204 	addi	r2,r2,8
 100405c:	10800037 	ldwio	r2,0(r2)
 1004060:	e0bfff0d 	sth	r2,-4(fp)
	return i;
 1004064:	e0bfff0b 	ldhu	r2,-4(fp)
}
 1004068:	e037883a 	mov	sp,fp
 100406c:	df000017 	ldw	fp,0(sp)
 1004070:	dec00104 	addi	sp,sp,4
 1004074:	f800283a 	ret

01004078 <Hal4D13_LockDevice>:

void Hal4D13_LockDevice(UCHAR bTrue) {
 1004078:	defffd04 	addi	sp,sp,-12
 100407c:	df000215 	stw	fp,8(sp)
 1004080:	df000204 	addi	fp,sp,8
 1004084:	e13fff05 	stb	r4,-4(fp)
	USHORT c;
	if (bTrue)
 1004088:	e0bfff03 	ldbu	r2,-4(fp)
 100408c:	1005003a 	cmpeq	r2,r2,zero
 1004090:	1000021e 	bne	r2,zero,100409c <Hal4D13_LockDevice+0x24>
		c = 0;
 1004094:	e03ffe0d 	sth	zero,-8(fp)
 1004098:	00000206 	br	10040a4 <Hal4D13_LockDevice+0x2c>
	else
		c = 0xAA37;
 100409c:	00aa8dc4 	movi	r2,-21961
 10040a0:	e0bffe0d 	sth	r2,-8(fp)
	IOWR(ISP1362_BASE, D13_COMMAND_PORT, D13CMD_DEV_LOCK);
 10040a4:	00804074 	movhi	r2,257
 10040a8:	109ee404 	addi	r2,r2,31632
 10040ac:	10800017 	ldw	r2,0(r2)
 10040b0:	10800304 	addi	r2,r2,12
 10040b4:	1007883a 	mov	r3,r2
 10040b8:	00802c04 	movi	r2,176
 10040bc:	18800035 	stwio	r2,0(r3)
	IOWR(ISP1362_BASE, D13_DATA_PORT, c);
 10040c0:	00804074 	movhi	r2,257
 10040c4:	109ee404 	addi	r2,r2,31632
 10040c8:	10800017 	ldw	r2,0(r2)
 10040cc:	10800204 	addi	r2,r2,8
 10040d0:	e0fffe0b 	ldhu	r3,-8(fp)
 10040d4:	10c00035 	stwio	r3,0(r2)
}
 10040d8:	e037883a 	mov	sp,fp
 10040dc:	df000017 	ldw	fp,0(sp)
 10040e0:	dec00104 	addi	sp,sp,4
 10040e4:	f800283a 	ret

010040e8 <Hal4D13_ReadChipID>:

USHORT Hal4D13_ReadChipID(void) {
 10040e8:	defffe04 	addi	sp,sp,-8
 10040ec:	df000115 	stw	fp,4(sp)
 10040f0:	df000104 	addi	fp,sp,4
	USHORT i;
	IOWR(ISP1362_BASE, D13_COMMAND_PORT, D13CMD_DEV_RD_CHIPID);
 10040f4:	00804074 	movhi	r2,257
 10040f8:	109ee404 	addi	r2,r2,31632
 10040fc:	10800017 	ldw	r2,0(r2)
 1004100:	10800304 	addi	r2,r2,12
 1004104:	1007883a 	mov	r3,r2
 1004108:	00802d44 	movi	r2,181
 100410c:	18800035 	stwio	r2,0(r3)
	i = IORD(ISP1362_BASE,D13_DATA_PORT);
 1004110:	00804074 	movhi	r2,257
 1004114:	109ee404 	addi	r2,r2,31632
 1004118:	10800017 	ldw	r2,0(r2)
 100411c:	10800204 	addi	r2,r2,8
 1004120:	10800037 	ldwio	r2,0(r2)
 1004124:	e0bfff0d 	sth	r2,-4(fp)
	return i;
 1004128:	e0bfff0b 	ldhu	r2,-4(fp)
}
 100412c:	e037883a 	mov	sp,fp
 1004130:	df000017 	ldw	fp,0(sp)
 1004134:	dec00104 	addi	sp,sp,4
 1004138:	f800283a 	ret

0100413c <Hal4D13_GetErrorCode>:

UCHAR Hal4D13_GetErrorCode(UCHAR bEPIndex) {
 100413c:	defffd04 	addi	sp,sp,-12
 1004140:	df000215 	stw	fp,8(sp)
 1004144:	df000204 	addi	fp,sp,8
 1004148:	e13fff05 	stb	r4,-4(fp)
	UCHAR c;
	IOWR(ISP1362_BASE, D13_COMMAND_PORT, D13CMD_EP_RD_ERR+bEPIndex);
 100414c:	00804074 	movhi	r2,257
 1004150:	109ee404 	addi	r2,r2,31632
 1004154:	10800017 	ldw	r2,0(r2)
 1004158:	11000304 	addi	r4,r2,12
 100415c:	e0bfff03 	ldbu	r2,-4(fp)
 1004160:	10c02804 	addi	r3,r2,160
 1004164:	2005883a 	mov	r2,r4
 1004168:	10c00035 	stwio	r3,0(r2)
	c = (UCHAR) (IORD(ISP1362_BASE,D13_DATA_PORT) & 0x0ff);
 100416c:	00804074 	movhi	r2,257
 1004170:	109ee404 	addi	r2,r2,31632
 1004174:	10800017 	ldw	r2,0(r2)
 1004178:	10800204 	addi	r2,r2,8
 100417c:	10800037 	ldwio	r2,0(r2)
 1004180:	1007883a 	mov	r3,r2
 1004184:	00bfffc4 	movi	r2,-1
 1004188:	1884703a 	and	r2,r3,r2
 100418c:	e0bffe05 	stb	r2,-8(fp)
	return c;
 1004190:	e0bffe03 	ldbu	r2,-8(fp)
}
 1004194:	e037883a 	mov	sp,fp
 1004198:	df000017 	ldw	fp,0(sp)
 100419c:	dec00104 	addi	sp,sp,4
 10041a0:	f800283a 	ret

010041a4 <Hal4D13_GetEndpointConfig>:

UCHAR Hal4D13_GetEndpointConfig(UCHAR bEPIndex) {
 10041a4:	defffd04 	addi	sp,sp,-12
 10041a8:	df000215 	stw	fp,8(sp)
 10041ac:	df000204 	addi	fp,sp,8
 10041b0:	e13fff05 	stb	r4,-4(fp)
	UCHAR c;
	IOWR(ISP1362_BASE, D13_COMMAND_PORT, D13CMD_EP_RD_CNFG+bEPIndex);
 10041b4:	00804074 	movhi	r2,257
 10041b8:	109ee404 	addi	r2,r2,31632
 10041bc:	10800017 	ldw	r2,0(r2)
 10041c0:	11000304 	addi	r4,r2,12
 10041c4:	e0bfff03 	ldbu	r2,-4(fp)
 10041c8:	10c00c04 	addi	r3,r2,48
 10041cc:	2005883a 	mov	r2,r4
 10041d0:	10c00035 	stwio	r3,0(r2)
	c = (UCHAR) (IORD(ISP1362_BASE,D13_DATA_PORT) & 0x0ff);
 10041d4:	00804074 	movhi	r2,257
 10041d8:	109ee404 	addi	r2,r2,31632
 10041dc:	10800017 	ldw	r2,0(r2)
 10041e0:	10800204 	addi	r2,r2,8
 10041e4:	10800037 	ldwio	r2,0(r2)
 10041e8:	1007883a 	mov	r3,r2
 10041ec:	00bfffc4 	movi	r2,-1
 10041f0:	1884703a 	and	r2,r3,r2
 10041f4:	e0bffe05 	stb	r2,-8(fp)
	return c;
 10041f8:	e0bffe03 	ldbu	r2,-8(fp)
}
 10041fc:	e037883a 	mov	sp,fp
 1004200:	df000017 	ldw	fp,0(sp)
 1004204:	dec00104 	addi	sp,sp,4
 1004208:	f800283a 	ret

0100420c <Hal4D13_SetEndpointConfig>:

void Hal4D13_SetEndpointConfig(UCHAR bEPConfig, UCHAR bEPIndex) {
 100420c:	defffd04 	addi	sp,sp,-12
 1004210:	df000215 	stw	fp,8(sp)
 1004214:	df000204 	addi	fp,sp,8
 1004218:	e13ffe05 	stb	r4,-8(fp)
 100421c:	e17fff05 	stb	r5,-4(fp)
	IOWR(ISP1362_BASE, D13_COMMAND_PORT, (USHORT)(D13CMD_EP_WR_CNFG+bEPIndex));
 1004220:	00804074 	movhi	r2,257
 1004224:	109ee404 	addi	r2,r2,31632
 1004228:	10800017 	ldw	r2,0(r2)
 100422c:	11000304 	addi	r4,r2,12
 1004230:	e0bfff03 	ldbu	r2,-4(fp)
 1004234:	10800804 	addi	r2,r2,32
 1004238:	10ffffcc 	andi	r3,r2,65535
 100423c:	2005883a 	mov	r2,r4
 1004240:	10c00035 	stwio	r3,0(r2)
	IOWR(ISP1362_BASE, D13_DATA_PORT, (USHORT)bEPConfig);
 1004244:	00804074 	movhi	r2,257
 1004248:	109ee404 	addi	r2,r2,31632
 100424c:	10800017 	ldw	r2,0(r2)
 1004250:	10800204 	addi	r2,r2,8
 1004254:	e0fffe03 	ldbu	r3,-8(fp)
 1004258:	10c00035 	stwio	r3,0(r2)
}
 100425c:	e037883a 	mov	sp,fp
 1004260:	df000017 	ldw	fp,0(sp)
 1004264:	dec00104 	addi	sp,sp,4
 1004268:	f800283a 	ret

0100426c <Hal4D13_UnconfigDevice>:
/*
 // ************************************************************************
 // Subroutines -- 3
 // ************************************************************************
 */
void Hal4D13_UnconfigDevice(void) {
 100426c:	deffff04 	addi	sp,sp,-4
 1004270:	df000015 	stw	fp,0(sp)
 1004274:	d839883a 	mov	fp,sp
}
 1004278:	e037883a 	mov	sp,fp
 100427c:	df000017 	ldw	fp,0(sp)
 1004280:	dec00104 	addi	sp,sp,4
 1004284:	f800283a 	ret

01004288 <Hal4D13_ConfigDevice>:

void Hal4D13_ConfigDevice(void) {
 1004288:	deffff04 	addi	sp,sp,-4
 100428c:	df000015 	stw	fp,0(sp)
 1004290:	d839883a 	mov	fp,sp
}
 1004294:	e037883a 	mov	sp,fp
 1004298:	df000017 	ldw	fp,0(sp)
 100429c:	dec00104 	addi	sp,sp,4
 10042a0:	f800283a 	ret

010042a4 <Hal4D13_SingleTransmitEP0>:

void Hal4D13_SingleTransmitEP0(UCHAR * buf, USHORT len) {
 10042a4:	defffc04 	addi	sp,sp,-16
 10042a8:	dfc00315 	stw	ra,12(sp)
 10042ac:	df000215 	stw	fp,8(sp)
 10042b0:	df000204 	addi	fp,sp,8
 10042b4:	e13ffe15 	stw	r4,-8(fp)
 10042b8:	e17fff0d 	sth	r5,-4(fp)
	if (len <= EP0_PACKET_SIZE) {
 10042bc:	e0bfff0b 	ldhu	r2,-4(fp)
 10042c0:	10801068 	cmpgeui	r2,r2,65
 10042c4:	1000041e 	bne	r2,zero,10042d8 <Hal4D13_SingleTransmitEP0+0x34>
		Hal4D13_WriteEndpoint(EPINDEX4EP0_CONTROL_IN, buf, len);
 10042c8:	e1bfff0b 	ldhu	r6,-4(fp)
 10042cc:	01000044 	movi	r4,1
 10042d0:	e17ffe17 	ldw	r5,-8(fp)
 10042d4:	10038cc0 	call	10038cc <Hal4D13_WriteEndpoint>
	}
}
 10042d8:	e037883a 	mov	sp,fp
 10042dc:	dfc00117 	ldw	ra,4(sp)
 10042e0:	df000017 	ldw	fp,0(sp)
 10042e4:	dec00204 	addi	sp,sp,8
 10042e8:	f800283a 	ret

010042ec <Hal4D13_RegAccess>:

void Hal4D13_RegAccess(void) {
 10042ec:	defffc04 	addi	sp,sp,-16
 10042f0:	dfc00315 	stw	ra,12(sp)
 10042f4:	df000215 	stw	fp,8(sp)
 10042f8:	df000204 	addi	fp,sp,8
	USHORT c;
	USHORT i;
	ULONG l;

	Hal4D13_ResetDevice();
 10042fc:	10031700 	call	1003170 <Hal4D13_ResetDevice>
	printf("Reseting\n");
 1004300:	01004074 	movhi	r4,257
 1004304:	210e2e04 	addi	r4,r4,14520
 1004308:	1005f940 	call	1005f94 <puts>

	i = Hal4D13_ReadChipID();
 100430c:	10040e80 	call	10040e8 <Hal4D13_ReadChipID>
 1004310:	e0bfff0d 	sth	r2,-4(fp)
	printf(" ChipId = %hx\n", i);
 1004314:	e17fff0b 	ldhu	r5,-4(fp)
 1004318:	01004074 	movhi	r4,257
 100431c:	210e3104 	addi	r4,r4,14532
 1004320:	1005e580 	call	1005e58 <printf>

	i = Hal4D13_GetDataFromChipRam();
 1004324:	1003f7c0 	call	1003f7c <Hal4D13_GetDataFromChipRam>
 1004328:	e0bfff0d 	sth	r2,-4(fp)
	printf(" Chip RAM = %hx\n", i);
 100432c:	e17fff0b 	ldhu	r5,-4(fp)
 1004330:	01004074 	movhi	r4,257
 1004334:	210e3504 	addi	r4,r4,14548
 1004338:	1005e580 	call	1005e58 <printf>

	printf("Writing 0x55AA,");
 100433c:	01004074 	movhi	r4,257
 1004340:	210e3a04 	addi	r4,r4,14568
 1004344:	1005e580 	call	1005e58 <printf>
	Hal4D13_SetDataToChipRam(0x55AA);
 1004348:	01156a84 	movi	r4,21930
 100434c:	1003fd00 	call	1003fd0 <Hal4D13_SetDataToChipRam>
	i = Hal4D13_GetDataFromChipRam();
 1004350:	1003f7c0 	call	1003f7c <Hal4D13_GetDataFromChipRam>
 1004354:	e0bfff0d 	sth	r2,-4(fp)
	printf(" Chip RAM = %hx\n", i);
 1004358:	e17fff0b 	ldhu	r5,-4(fp)
 100435c:	01004074 	movhi	r4,257
 1004360:	210e3504 	addi	r4,r4,14548
 1004364:	1005e580 	call	1005e58 <printf>

	l = Hal4D13_GetIntEnable();
 1004368:	1003b440 	call	1003b44 <Hal4D13_GetIntEnable>
 100436c:	e0bffe15 	stw	r2,-8(fp)
	printf("Hal4D13_GetIntEnable = %lx\n", l);
 1004370:	01004074 	movhi	r4,257
 1004374:	210e3e04 	addi	r4,r4,14584
 1004378:	e17ffe17 	ldw	r5,-8(fp)
 100437c:	1005e580 	call	1005e58 <printf>

	l = Hal4D13_ReadInterruptRegister();
 1004380:	1003c500 	call	1003c50 <Hal4D13_ReadInterruptRegister>
 1004384:	e0bffe15 	stw	r2,-8(fp)
	printf("Hal4D13_ReadInterruptRegister = %lx\n", l);
 1004388:	01004074 	movhi	r4,257
 100438c:	210e4504 	addi	r4,r4,14612
 1004390:	e17ffe17 	ldw	r5,-8(fp)
 1004394:	1005e580 	call	1005e58 <printf>

	i = Hal4D13_GetDevConfig();
 1004398:	10031a80 	call	10031a8 <Hal4D13_GetDevConfig>
 100439c:	e0bfff0d 	sth	r2,-4(fp)
	printf("Hal4D13_GetDevConfig = %hx\n", i);
 10043a0:	e17fff0b 	ldhu	r5,-4(fp)
 10043a4:	01004074 	movhi	r4,257
 10043a8:	210e4f04 	addi	r4,r4,14652
 10043ac:	1005e580 	call	1005e58 <printf>

	i = Hal4D13_GetDMAConfig();
 10043b0:	1003e800 	call	1003e80 <Hal4D13_GetDMAConfig>
 10043b4:	e0bfff0d 	sth	r2,-4(fp)
	printf("Hal4D13_GetDMAConfig = %hx\n", i);
 10043b8:	e17fff0b 	ldhu	r5,-4(fp)
 10043bc:	01004074 	movhi	r4,257
 10043c0:	210e5604 	addi	r4,r4,14680
 10043c4:	1005e580 	call	1005e58 <printf>

	i = Hal4D13_GetDMACounter();
 10043c8:	1003f280 	call	1003f28 <Hal4D13_GetDMACounter>
 10043cc:	e0bfff0d 	sth	r2,-4(fp)
	printf("Hal4D13_GetDMACounter = %hx\n", i);
 10043d0:	e17fff0b 	ldhu	r5,-4(fp)
 10043d4:	01004074 	movhi	r4,257
 10043d8:	210e5d04 	addi	r4,r4,14708
 10043dc:	1005e580 	call	1005e58 <printf>

	i = Hal4D13_ReadCurrentFrameNumber();
 10043e0:	10040240 	call	1004024 <Hal4D13_ReadCurrentFrameNumber>
 10043e4:	e0bfff0d 	sth	r2,-4(fp)
	printf("Hal4D13_ReadCurrentFrameNumber = %hx\n", i);
 10043e8:	e17fff0b 	ldhu	r5,-4(fp)
 10043ec:	01004074 	movhi	r4,257
 10043f0:	210e6504 	addi	r4,r4,14740
 10043f4:	1005e580 	call	1005e58 <printf>

	c = Hal4D13_GetMode();
 10043f8:	10032a40 	call	10032a4 <Hal4D13_GetMode>
 10043fc:	10803fcc 	andi	r2,r2,255
 1004400:	e0bfff8d 	sth	r2,-2(fp)
	printf("Hal4D13_GetMode = %x\n", c);
 1004404:	e17fff8b 	ldhu	r5,-2(fp)
 1004408:	01004074 	movhi	r4,257
 100440c:	210e6f04 	addi	r4,r4,14780
 1004410:	1005e580 	call	1005e58 <printf>

	c = Hal4D13_GetEndpointStatusWOInteruptClear(EPINDEX4EP0_CONTROL_OUT);
 1004414:	0009883a 	mov	r4,zero
 1004418:	1003d440 	call	1003d44 <Hal4D13_GetEndpointStatusWOInteruptClear>
 100441c:	10803fcc 	andi	r2,r2,255
 1004420:	e0bfff8d 	sth	r2,-2(fp)
	printf("Hal4D13_GetEndpointStatus EP0 = %x\n", c);
 1004424:	e17fff8b 	ldhu	r5,-2(fp)
 1004428:	01004074 	movhi	r4,257
 100442c:	210e7504 	addi	r4,r4,14804
 1004430:	1005e580 	call	1005e58 <printf>

	c = Hal4D13_GetAddress();
 1004434:	10033040 	call	1003304 <Hal4D13_GetAddress>
 1004438:	10803fcc 	andi	r2,r2,255
 100443c:	e0bfff8d 	sth	r2,-2(fp)
//  printf("Hal4D13_GetAddress = %x\n",c);
}
 1004440:	e037883a 	mov	sp,fp
 1004444:	dfc00117 	ldw	ra,4(sp)
 1004448:	df000017 	ldw	fp,0(sp)
 100444c:	dec00204 	addi	sp,sp,8
 1004450:	f800283a 	ret

01004454 <Hal4D13_StallEP0InControlWrite>:

void Hal4D13_StallEP0InControlWrite(void) {
 1004454:	defffe04 	addi	sp,sp,-8
 1004458:	dfc00115 	stw	ra,4(sp)
 100445c:	df000015 	stw	fp,0(sp)
 1004460:	d839883a 	mov	fp,sp
	Hal4D13_SetEndpointStatus(EPINDEX4EP0_CONTROL_IN, D13REG_EPSTS_STALL);
 1004464:	01000044 	movi	r4,1
 1004468:	01402004 	movi	r5,128
 100446c:	1003dac0 	call	1003dac <Hal4D13_SetEndpointStatus>
	Hal4D13_SetEndpointStatus(EPINDEX4EP0_CONTROL_OUT, D13REG_EPSTS_STALL);
 1004470:	0009883a 	mov	r4,zero
 1004474:	01402004 	movi	r5,128
 1004478:	1003dac0 	call	1003dac <Hal4D13_SetEndpointStatus>
}
 100447c:	e037883a 	mov	sp,fp
 1004480:	dfc00117 	ldw	ra,4(sp)
 1004484:	df000017 	ldw	fp,0(sp)
 1004488:	dec00204 	addi	sp,sp,8
 100448c:	f800283a 	ret

01004490 <Hal4D13_StallEP0InControlRead>:

void Hal4D13_StallEP0InControlRead(void) {
 1004490:	defffe04 	addi	sp,sp,-8
 1004494:	dfc00115 	stw	ra,4(sp)
 1004498:	df000015 	stw	fp,0(sp)
 100449c:	d839883a 	mov	fp,sp
	Hal4D13_SetEndpointStatus(EPINDEX4EP0_CONTROL_OUT, D13REG_EPSTS_STALL);
 10044a0:	0009883a 	mov	r4,zero
 10044a4:	01402004 	movi	r5,128
 10044a8:	1003dac0 	call	1003dac <Hal4D13_SetEndpointStatus>
	Hal4D13_SetEndpointStatus(EPINDEX4EP0_CONTROL_IN, D13REG_EPSTS_STALL);
 10044ac:	01000044 	movi	r4,1
 10044b0:	01402004 	movi	r5,128
 10044b4:	1003dac0 	call	1003dac <Hal4D13_SetEndpointStatus>
}
 10044b8:	e037883a 	mov	sp,fp
 10044bc:	dfc00117 	ldw	ra,4(sp)
 10044c0:	df000017 	ldw	fp,0(sp)
 10044c4:	dec00204 	addi	sp,sp,8
 10044c8:	f800283a 	ret

010044cc <Hal4D13_IsSetupPktInvalid>:

BOOLEAN Hal4D13_IsSetupPktInvalid(void) {
 10044cc:	defffd04 	addi	sp,sp,-12
 10044d0:	dfc00215 	stw	ra,8(sp)
 10044d4:	df000115 	stw	fp,4(sp)
 10044d8:	df000104 	addi	fp,sp,4
	USHORT SetupPacketInvalid;
	SetupPacketInvalid = Hal4D13_GetEndpointStatusWOInteruptClear(
 10044dc:	0009883a 	mov	r4,zero
 10044e0:	1003d440 	call	1003d44 <Hal4D13_GetEndpointStatusWOInteruptClear>
 10044e4:	10803fcc 	andi	r2,r2,255
 10044e8:	1080020c 	andi	r2,r2,8
 10044ec:	e0bfff0d 	sth	r2,-4(fp)
			EPINDEX4EP0_CONTROL_OUT) & D13REG_EPSTS_OVWR;
	return SetupPacketInvalid;
 10044f0:	e0bfff0b 	ldhu	r2,-4(fp)
 10044f4:	10803fcc 	andi	r2,r2,255
}
 10044f8:	e037883a 	mov	sp,fp
 10044fc:	dfc00117 	ldw	ra,4(sp)
 1004500:	df000017 	ldw	fp,0(sp)
 1004504:	dec00204 	addi	sp,sp,8
 1004508:	f800283a 	ret

0100450c <Write_HC_Config_Reg>:

void Write_HC_Config_Reg(unsigned short Config) {
 100450c:	defffe04 	addi	sp,sp,-8
 1004510:	df000115 	stw	fp,4(sp)
 1004514:	df000104 	addi	fp,sp,4
 1004518:	e13fff0d 	sth	r4,-4(fp)
	IOWR(ISP1362_BASE, HC_COMMAND_PORT, HCCMD_WR_CNFG_REG);
 100451c:	00804074 	movhi	r2,257
 1004520:	109ee404 	addi	r2,r2,31632
 1004524:	10800017 	ldw	r2,0(r2)
 1004528:	10800104 	addi	r2,r2,4
 100452c:	1007883a 	mov	r3,r2
 1004530:	00802804 	movi	r2,160
 1004534:	18800035 	stwio	r2,0(r3)
	IOWR(ISP1362_BASE, HC_DATA_PORT, Config);
 1004538:	00804074 	movhi	r2,257
 100453c:	109ee404 	addi	r2,r2,31632
 1004540:	10800017 	ldw	r2,0(r2)
 1004544:	e0ffff0b 	ldhu	r3,-4(fp)
 1004548:	10c00035 	stwio	r3,0(r2)
}
 100454c:	e037883a 	mov	sp,fp
 1004550:	df000017 	ldw	fp,0(sp)
 1004554:	dec00104 	addi	sp,sp,4
 1004558:	f800283a 	ret

0100455c <Read_HC_Config_Reg>:

unsigned short Read_HC_Config_Reg(void) {
 100455c:	deffff04 	addi	sp,sp,-4
 1004560:	df000015 	stw	fp,0(sp)
 1004564:	d839883a 	mov	fp,sp
	IOWR(ISP1362_BASE, HC_COMMAND_PORT, HCCMD_RD_CNFG_REG);
 1004568:	00804074 	movhi	r2,257
 100456c:	109ee404 	addi	r2,r2,31632
 1004570:	10800017 	ldw	r2,0(r2)
 1004574:	10800104 	addi	r2,r2,4
 1004578:	1007883a 	mov	r3,r2
 100457c:	00800804 	movi	r2,32
 1004580:	18800035 	stwio	r2,0(r3)
	return IORD(ISP1362_BASE,HC_DATA_PORT);
 1004584:	00804074 	movhi	r2,257
 1004588:	109ee404 	addi	r2,r2,31632
 100458c:	10800017 	ldw	r2,0(r2)
 1004590:	10800037 	ldwio	r2,0(r2)
 1004594:	10bfffcc 	andi	r2,r2,65535
}
 1004598:	e037883a 	mov	sp,fp
 100459c:	df000017 	ldw	fp,0(sp)
 10045a0:	dec00104 	addi	sp,sp,4
 10045a4:	f800283a 	ret

010045a8 <usb_disable_all_interrupts>:

alt_irq_context status;
unsigned char INT_Enabled=1;

void usb_disable_all_interrupts(void)
{
 10045a8:	defffe04 	addi	sp,sp,-8
 10045ac:	df000115 	stw	fp,4(sp)
 10045b0:	df000104 	addi	fp,sp,4
  if(INT_Enabled)
 10045b4:	d0a00a03 	ldbu	r2,-32728(gp)
 10045b8:	10803fcc 	andi	r2,r2,255
 10045bc:	1005003a 	cmpeq	r2,r2,zero
 10045c0:	1000091e 	bne	r2,zero,10045e8 <usb_disable_all_interrupts+0x40>
static ALT_INLINE alt_irq_context ALT_ALWAYS_INLINE 
       alt_irq_disable_all (void)
{
  alt_irq_context context;

  NIOS2_READ_STATUS (context);
 10045c4:	0005303a 	rdctl	r2,status
 10045c8:	e0bfff15 	stw	r2,-4(fp)

  NIOS2_WRITE_STATUS (context & ~NIOS2_STATUS_PIE_MSK);
 10045cc:	e0ffff17 	ldw	r3,-4(fp)
 10045d0:	00bfff84 	movi	r2,-2
 10045d4:	1884703a 	and	r2,r3,r2
 10045d8:	1001703a 	wrctl	status,r2
  
  return context;
 10045dc:	e0bfff17 	ldw	r2,-4(fp)
  {
    status=alt_irq_disable_all();
 10045e0:	d0a7ba15 	stw	r2,-24856(gp)
    INT_Enabled=0;
 10045e4:	d0200a05 	stb	zero,-32728(gp)
  }
}
 10045e8:	e037883a 	mov	sp,fp
 10045ec:	df000017 	ldw	fp,0(sp)
 10045f0:	dec00104 	addi	sp,sp,4
 10045f4:	f800283a 	ret

010045f8 <usb_reenable_all_interrupts>:

void usb_reenable_all_interrupts(void)
{
 10045f8:	defffe04 	addi	sp,sp,-8
 10045fc:	df000115 	stw	fp,4(sp)
 1004600:	df000104 	addi	fp,sp,4
  if(!INT_Enabled)
 1004604:	d0a00a03 	ldbu	r2,-32728(gp)
 1004608:	10803fcc 	andi	r2,r2,255
 100460c:	1004c03a 	cmpne	r2,r2,zero
 1004610:	1000061e 	bne	r2,zero,100462c <usb_reenable_all_interrupts+0x34>
  {
    alt_irq_enable_all(status);
 1004614:	d0a7ba17 	ldw	r2,-24856(gp)
 1004618:	e0bfff15 	stw	r2,-4(fp)
  status &= ~NIOS2_STATUS_PIE_MSK;
  status |= (context & NIOS2_STATUS_PIE_MSK);
  
  NIOS2_WRITE_STATUS (status);
#else
  NIOS2_WRITE_STATUS (context);
 100461c:	e0bfff17 	ldw	r2,-4(fp)
 1004620:	1001703a 	wrctl	status,r2
    INT_Enabled=1;
 1004624:	00800044 	movi	r2,1
 1004628:	d0a00a05 	stb	r2,-32728(gp)
  }
}
 100462c:	e037883a 	mov	sp,fp
 1004630:	df000017 	ldw	fp,0(sp)
 1004634:	dec00104 	addi	sp,sp,4
 1004638:	f800283a 	ret

0100463c <fn_usb_isr>:



void fn_usb_isr(void) {
 100463c:	defffe04 	addi	sp,sp,-8
 1004640:	dfc00115 	stw	ra,4(sp)
 1004644:	df000015 	stw	fp,0(sp)
 1004648:	d839883a 	mov	fp,sp
	usb_disable_all_interrupts();
 100464c:	10045a80 	call	10045a8 <usb_disable_all_interrupts>
	Hal4D13_LockDevice(0);
 1004650:	0009883a 	mov	r4,zero
 1004654:	10040780 	call	1004078 <Hal4D13_LockDevice>
	usb_reenable_all_interrupts();
 1004658:	10045f80 	call	10045f8 <usb_reenable_all_interrupts>
}
 100465c:	e037883a 	mov	sp,fp
 1004660:	dfc00117 	ldw	ra,4(sp)
 1004664:	df000017 	ldw	fp,0(sp)
 1004668:	dec00204 	addi	sp,sp,8
 100466c:	f800283a 	ret

01004670 <usb_isr>:

void usb_isr(void) {
 1004670:	defffd04 	addi	sp,sp,-12
 1004674:	dfc00215 	stw	ra,8(sp)
 1004678:	df000115 	stw	fp,4(sp)
 100467c:	df000104 	addi	fp,sp,4
//	printf("USB ISR\n");
	ULONG i_st;
	usb_disable_all_interrupts();
 1004680:	10045a80 	call	10045a8 <usb_disable_all_interrupts>
	Hal4D13_LockDevice(0);
 1004684:	0009883a 	mov	r4,zero
 1004688:	10040780 	call	1004078 <Hal4D13_LockDevice>
	bD13flags.bits.At_IRQL1 = 1;
 100468c:	00c04074 	movhi	r3,257
 1004690:	18dee504 	addi	r3,r3,31636
 1004694:	18800017 	ldw	r2,0(r3)
 1004698:	10800114 	ori	r2,r2,4
 100469c:	18800015 	stw	r2,0(r3)
	i_st = Hal4D13_ReadInterruptRegister();
 10046a0:	1003c500 	call	1003c50 <Hal4D13_ReadInterruptRegister>
 10046a4:	e0bfff15 	stw	r2,-4(fp)
	if (i_st != 0) {
 10046a8:	e0bfff17 	ldw	r2,-4(fp)
 10046ac:	1005003a 	cmpeq	r2,r2,zero
 10046b0:	1000511e 	bne	r2,zero,10047f8 <usb_isr+0x188>
		if (i_st & D13REG_INTSRC_BUSRESET)
 10046b4:	e0bfff17 	ldw	r2,-4(fp)
 10046b8:	1080004c 	andi	r2,r2,1
 10046bc:	10803fcc 	andi	r2,r2,255
 10046c0:	1005003a 	cmpeq	r2,r2,zero
 10046c4:	1000021e 	bne	r2,zero,10046d0 <usb_isr+0x60>
			Isr_BusReset();
 10046c8:	10048280 	call	1004828 <Isr_BusReset>
 10046cc:	00004a06 	br	10047f8 <usb_isr+0x188>
		else if (i_st & D13REG_INTSRC_SUSPEND)
 10046d0:	e0bfff17 	ldw	r2,-4(fp)
 10046d4:	1080010c 	andi	r2,r2,4
 10046d8:	1005003a 	cmpeq	r2,r2,zero
 10046dc:	1000021e 	bne	r2,zero,10046e8 <usb_isr+0x78>
			Isr_SuspendChange();
 10046e0:	10048cc0 	call	10048cc <Isr_SuspendChange>
 10046e4:	00004406 	br	10047f8 <usb_isr+0x188>
		else if (i_st & D13REG_INTSRC_EOT)
 10046e8:	e0bfff17 	ldw	r2,-4(fp)
 10046ec:	1080020c 	andi	r2,r2,8
 10046f0:	1005003a 	cmpeq	r2,r2,zero
 10046f4:	1000021e 	bne	r2,zero,1004700 <usb_isr+0x90>
			Isr_DmaEot();
 10046f8:	100492c0 	call	100492c <Isr_DmaEot>
 10046fc:	00003e06 	br	10047f8 <usb_isr+0x188>
		else if (i_st & (D13REG_INTSRC_SOF | D13REG_INTSRC_PSEUDO_SOF))
 1004700:	e0bfff17 	ldw	r2,-4(fp)
 1004704:	10800c0c 	andi	r2,r2,48
 1004708:	1005003a 	cmpeq	r2,r2,zero
 100470c:	1000021e 	bne	r2,zero,1004718 <usb_isr+0xa8>
			Isr_SOF();
 1004710:	10049f80 	call	10049f8 <Isr_SOF>
 1004714:	00003806 	br	10047f8 <usb_isr+0x188>
		else if (i_st & D13REG_INTSRC_SHORT_PACKET)
 1004718:	e0bfff17 	ldw	r2,-4(fp)
 100471c:	1080100c 	andi	r2,r2,64
 1004720:	1005003a 	cmpeq	r2,r2,zero
 1004724:	1000021e 	bne	r2,zero,1004730 <usb_isr+0xc0>
			Isr_SHORT_PACKET();
 1004728:	10048fc0 	call	10048fc <Isr_SHORT_PACKET>
 100472c:	00003206 	br	10047f8 <usb_isr+0x188>
		else if (i_st & D13REG_INTSRC_RESUME) {
 1004730:	e0bfff17 	ldw	r2,-4(fp)
 1004734:	1080008c 	andi	r2,r2,2
 1004738:	1005003a 	cmpeq	r2,r2,zero
 100473c:	1000061e 	bne	r2,zero,1004758 <usb_isr+0xe8>
			printf("RESUME\n");
 1004740:	01004074 	movhi	r4,257
 1004744:	210e7e04 	addi	r4,r4,14840
 1004748:	1005f940 	call	1005f94 <puts>
			Hal4D13_LockDevice(0);
 100474c:	0009883a 	mov	r4,zero
 1004750:	10040780 	call	1004078 <Hal4D13_LockDevice>
 1004754:	00002806 	br	10047f8 <usb_isr+0x188>
		} else {
			if (i_st & D13REG_INTSRC_EP0OUT)
 1004758:	e0bfff17 	ldw	r2,-4(fp)
 100475c:	1080400c 	andi	r2,r2,256
 1004760:	1005003a 	cmpeq	r2,r2,zero
 1004764:	1000011e 	bne	r2,zero,100476c <usb_isr+0xfc>
				Isr_Ep00RxDone();
 1004768:	1004a140 	call	1004a14 <Isr_Ep00RxDone>
			if (i_st & D13REG_INTSRC_EP0IN)
 100476c:	e0bfff17 	ldw	r2,-4(fp)
 1004770:	1080800c 	andi	r2,r2,512
 1004774:	1005003a 	cmpeq	r2,r2,zero
 1004778:	1000011e 	bne	r2,zero,1004780 <usb_isr+0x110>
				Isr_Ep00TxDone();
 100477c:	1004c180 	call	1004c18 <Isr_Ep00TxDone>
			if (i_st & D13REG_INTSRC_EP01) {
 1004780:	e0bfff17 	ldw	r2,-4(fp)
 1004784:	1081000c 	andi	r2,r2,1024
 1004788:	1005003a 	cmpeq	r2,r2,zero
 100478c:	1000011e 	bne	r2,zero,1004794 <usb_isr+0x124>
//				printf("ISR EP1\n");
				Isr_Ep01Done();
 1004790:	1004eec0 	call	1004eec <Isr_Ep01Done>
			}
			if (i_st & D13REG_INTSRC_EP02) {
 1004794:	e0bfff17 	ldw	r2,-4(fp)
 1004798:	1082000c 	andi	r2,r2,2048
 100479c:	1005003a 	cmpeq	r2,r2,zero
 10047a0:	1000011e 	bne	r2,zero,10047a8 <usb_isr+0x138>
//				printf("ISR IP2\n");
				Isr_Ep02Done();
 10047a4:	1004f4c0 	call	1004f4c <Isr_Ep02Done>
			}
			if (i_st & D13REG_INTSRC_EP03)
 10047a8:	e0bfff17 	ldw	r2,-4(fp)
 10047ac:	1084000c 	andi	r2,r2,4096
 10047b0:	1005003a 	cmpeq	r2,r2,zero
 10047b4:	1000011e 	bne	r2,zero,10047bc <usb_isr+0x14c>
				Isr_Ep03Done();
 10047b8:	1004fb40 	call	1004fb4 <Isr_Ep03Done>
			if (i_st & D13REG_INTSRC_EP04)
 10047bc:	e0bfff17 	ldw	r2,-4(fp)
 10047c0:	1088000c 	andi	r2,r2,8192
 10047c4:	1005003a 	cmpeq	r2,r2,zero
 10047c8:	1000011e 	bne	r2,zero,10047d0 <usb_isr+0x160>
				Isr_Ep04Done();
 10047cc:	1004fe40 	call	1004fe4 <Isr_Ep04Done>
			if (i_st & D13REG_INTSRC_EP05)
 10047d0:	e0bfff17 	ldw	r2,-4(fp)
 10047d4:	1090000c 	andi	r2,r2,16384
 10047d8:	1005003a 	cmpeq	r2,r2,zero
 10047dc:	1000011e 	bne	r2,zero,10047e4 <usb_isr+0x174>
				Isr_Ep05Done();
 10047e0:	10050140 	call	1005014 <Isr_Ep05Done>
			if (i_st & D13REG_INTSRC_EP06)
 10047e4:	e0bfff17 	ldw	r2,-4(fp)
 10047e8:	10a0000c 	andi	r2,r2,32768
 10047ec:	1005003a 	cmpeq	r2,r2,zero
 10047f0:	1000011e 	bne	r2,zero,10047f8 <usb_isr+0x188>
				Isr_Ep06Done();
 10047f4:	10050700 	call	1005070 <Isr_Ep06Done>
		}
	}
	usb_reenable_all_interrupts();
 10047f8:	10045f80 	call	10045f8 <usb_reenable_all_interrupts>
	bD13flags.bits.At_IRQL1 = 0;
 10047fc:	01004074 	movhi	r4,257
 1004800:	211ee504 	addi	r4,r4,31636
 1004804:	20c00017 	ldw	r3,0(r4)
 1004808:	00bffec4 	movi	r2,-5
 100480c:	1884703a 	and	r2,r3,r2
 1004810:	20800015 	stw	r2,0(r4)
}
 1004814:	e037883a 	mov	sp,fp
 1004818:	dfc00117 	ldw	ra,4(sp)
 100481c:	df000017 	ldw	fp,0(sp)
 1004820:	dec00204 	addi	sp,sp,8
 1004824:	f800283a 	ret

01004828 <Isr_BusReset>:

void Isr_BusReset(void) {
 1004828:	defffe04 	addi	sp,sp,-8
 100482c:	dfc00115 	stw	ra,4(sp)
 1004830:	df000015 	stw	fp,0(sp)
 1004834:	d839883a 	mov	fp,sp
//	printf("USB Bus Reset\n");
	reconnect_USB();
 1004838:	10029fc0 	call	10029fc <reconnect_USB>
	bD13flags.bits.DCP_state = 0x00;
 100483c:	01004074 	movhi	r4,257
 1004840:	211ee504 	addi	r4,r4,31636
 1004844:	20c00017 	ldw	r3,0(r4)
 1004848:	00bc3fc4 	movi	r2,-3841
 100484c:	1884703a 	and	r2,r3,r2
 1004850:	20800015 	stw	r2,0(r4)
	bD13flags.bits.dma_disable = 0x00;
 1004854:	01004074 	movhi	r4,257
 1004858:	211ee504 	addi	r4,r4,31636
 100485c:	20c00017 	ldw	r3,0(r4)
 1004860:	00bfff34 	movhi	r2,65532
 1004864:	10bfffc4 	addi	r2,r2,-1
 1004868:	1884703a 	and	r2,r3,r2
 100486c:	20800015 	stw	r2,0(r4)

	bUSBCheck_Device_State.State_bits.DEVICE_DEFAULT_STATE = 1;
 1004870:	00c04074 	movhi	r3,257
 1004874:	18deee04 	addi	r3,r3,31672
 1004878:	18800003 	ldbu	r2,0(r3)
 100487c:	10800054 	ori	r2,r2,1
 1004880:	18800005 	stb	r2,0(r3)
	bUSBCheck_Device_State.State_bits.DEVICE_ADDRESS_STATE = 0;
 1004884:	01004074 	movhi	r4,257
 1004888:	211eee04 	addi	r4,r4,31672
 100488c:	20c00003 	ldbu	r3,0(r4)
 1004890:	00bfff44 	movi	r2,-3
 1004894:	1884703a 	and	r2,r3,r2
 1004898:	20800005 	stb	r2,0(r4)
	bUSBCheck_Device_State.State_bits.DEVICE_CONFIGURATION_STATE = 0;
 100489c:	01004074 	movhi	r4,257
 10048a0:	211eee04 	addi	r4,r4,31672
 10048a4:	20c00003 	ldbu	r3,0(r4)
 10048a8:	00bffec4 	movi	r2,-5
 10048ac:	1884703a 	and	r2,r3,r2
 10048b0:	20800005 	stb	r2,0(r4)
	config_endpoint();
 10048b4:	10029080 	call	1002908 <config_endpoint>
}
 10048b8:	e037883a 	mov	sp,fp
 10048bc:	dfc00117 	ldw	ra,4(sp)
 10048c0:	df000017 	ldw	fp,0(sp)
 10048c4:	dec00204 	addi	sp,sp,8
 10048c8:	f800283a 	ret

010048cc <Isr_SuspendChange>:

void Isr_SuspendChange(void) {
 10048cc:	deffff04 	addi	sp,sp,-4
 10048d0:	df000015 	stw	fp,0(sp)
 10048d4:	d839883a 	mov	fp,sp
	bD13flags.bits.suspend = 1;
 10048d8:	00804074 	movhi	r2,257
 10048dc:	109ee504 	addi	r2,r2,31636
 10048e0:	10c00017 	ldw	r3,0(r2)
 10048e4:	18c00094 	ori	r3,r3,2
 10048e8:	10c00015 	stw	r3,0(r2)
}
 10048ec:	e037883a 	mov	sp,fp
 10048f0:	df000017 	ldw	fp,0(sp)
 10048f4:	dec00104 	addi	sp,sp,4
 10048f8:	f800283a 	ret

010048fc <Isr_SHORT_PACKET>:

void Isr_SHORT_PACKET(void) {
 10048fc:	defffe04 	addi	sp,sp,-8
 1004900:	dfc00115 	stw	ra,4(sp)
 1004904:	df000015 	stw	fp,0(sp)
 1004908:	d839883a 	mov	fp,sp
	printf("SHORT PACKET INTERRUPT\n");
 100490c:	01004074 	movhi	r4,257
 1004910:	210e8004 	addi	r4,r4,14848
 1004914:	1005f940 	call	1005f94 <puts>
}
 1004918:	e037883a 	mov	sp,fp
 100491c:	dfc00117 	ldw	ra,4(sp)
 1004920:	df000017 	ldw	fp,0(sp)
 1004924:	dec00204 	addi	sp,sp,8
 1004928:	f800283a 	ret

0100492c <Isr_DmaEot>:

void Isr_DmaEot(void) {
 100492c:	defffe04 	addi	sp,sp,-8
 1004930:	dfc00115 	stw	ra,4(sp)
 1004934:	df000015 	stw	fp,0(sp)
 1004938:	d839883a 	mov	fp,sp
	bD13flags.bits.dma_disable = 0;
 100493c:	01004074 	movhi	r4,257
 1004940:	211ee504 	addi	r4,r4,31636
 1004944:	20c00017 	ldw	r3,0(r4)
 1004948:	00bfff34 	movhi	r2,65532
 100494c:	10bfffc4 	addi	r2,r2,-1
 1004950:	1884703a 	and	r2,r3,r2
 1004954:	20800015 	stw	r2,0(r4)

	if (bD13flags.bits.dma_state == DMA_PENDING)
 1004958:	00804074 	movhi	r2,257
 100495c:	109ee504 	addi	r2,r2,31636
 1004960:	10800017 	ldw	r2,0(r2)
 1004964:	10c0062c 	andhi	r3,r2,24
 1004968:	00800434 	movhi	r2,16
 100496c:	1880061e 	bne	r3,r2,1004988 <Isr_DmaEot+0x5c>
		bD13flags.bits.setup_dma = 1;
 1004970:	00804074 	movhi	r2,257
 1004974:	109ee504 	addi	r2,r2,31636
 1004978:	10c00017 	ldw	r3,0(r2)
 100497c:	18c00074 	orhi	r3,r3,1
 1004980:	10c00015 	stw	r3,0(r2)
 1004984:	00000706 	br	10049a4 <Isr_DmaEot+0x78>
	else
		bD13flags.bits.dma_state = DMA_IDLE;
 1004988:	01004074 	movhi	r4,257
 100498c:	211ee504 	addi	r4,r4,31636
 1004990:	20c00017 	ldw	r3,0(r4)
 1004994:	00bffa34 	movhi	r2,65512
 1004998:	10bfffc4 	addi	r2,r2,-1
 100499c:	1884703a 	and	r2,r3,r2
 10049a0:	20800015 	stw	r2,0(r4)
	printf("EOT reached!!!\n");
 10049a4:	01004074 	movhi	r4,257
 10049a8:	210e8604 	addi	r4,r4,14872
 10049ac:	1005f940 	call	1005f94 <puts>
	if (bD13flags.bits.verbose == 1)
 10049b0:	00804074 	movhi	r2,257
 10049b4:	109ee504 	addi	r2,r2,31636
 10049b8:	10800017 	ldw	r2,0(r2)
 10049bc:	1080402c 	andhi	r2,r2,256
 10049c0:	1005003a 	cmpeq	r2,r2,zero
 10049c4:	1000051e 	bne	r2,zero,10049dc <Isr_DmaEot+0xb0>
		printf("dma_counter = %x\n", Hal4D13_GetDMACounter());
 10049c8:	1003f280 	call	1003f28 <Hal4D13_GetDMACounter>
 10049cc:	117fffcc 	andi	r5,r2,65535
 10049d0:	01004074 	movhi	r4,257
 10049d4:	210e8a04 	addi	r4,r4,14888
 10049d8:	1005e580 	call	1005e58 <printf>
	printf("\n");
 10049dc:	01000284 	movi	r4,10
 10049e0:	1005ed00 	call	1005ed0 <putchar>
}
 10049e4:	e037883a 	mov	sp,fp
 10049e8:	dfc00117 	ldw	ra,4(sp)
 10049ec:	df000017 	ldw	fp,0(sp)
 10049f0:	dec00204 	addi	sp,sp,8
 10049f4:	f800283a 	ret

010049f8 <Isr_SOF>:

void Isr_SOF(void) {
 10049f8:	deffff04 	addi	sp,sp,-4
 10049fc:	df000015 	stw	fp,0(sp)
 1004a00:	d839883a 	mov	fp,sp

}
 1004a04:	e037883a 	mov	sp,fp
 1004a08:	df000017 	ldw	fp,0(sp)
 1004a0c:	dec00104 	addi	sp,sp,4
 1004a10:	f800283a 	ret

01004a14 <Isr_Ep00RxDone>:

void Isr_Ep00RxDone(void) {
 1004a14:	defffc04 	addi	sp,sp,-16
 1004a18:	dfc00315 	stw	ra,12(sp)
 1004a1c:	df000215 	stw	fp,8(sp)
 1004a20:	df000204 	addi	fp,sp,8
	UCHAR ep_last, i;
//	printf("RX %d\n", bUSBCheck_Device_State.State_bits.FOUR_RESERVED_BITS++);
	ep_last = Hal4D13_GetEndpointStatusWInteruptClear(EPINDEX4EP0_CONTROL_OUT); /* Clear interrupt flag */
 1004a24:	0009883a 	mov	r4,zero
 1004a28:	1003cdc0 	call	1003cdc <Hal4D13_GetEndpointStatusWInteruptClear>
 1004a2c:	e0bffe45 	stb	r2,-7(fp)

	if (ep_last & D13REG_EPSTS_SETUP) {
 1004a30:	e0bffe43 	ldbu	r2,-7(fp)
 1004a34:	1080010c 	andi	r2,r2,4
 1004a38:	1005003a 	cmpeq	r2,r2,zero
 1004a3c:	10001a1e 	bne	r2,zero,1004aa8 <Isr_Ep00RxDone+0x94>
		if (bD13flags.bits.DCP_state == USBFSM4DCP_REQUESTPROC) {
 1004a40:	00804074 	movhi	r2,257
 1004a44:	109ee504 	addi	r2,r2,31636
 1004a48:	10800017 	ldw	r2,0(r2)
 1004a4c:	1083c00c 	andi	r2,r2,3840
 1004a50:	1080c018 	cmpnei	r2,r2,768
 1004a54:	10000c1e 	bne	r2,zero,1004a88 <Isr_Ep00RxDone+0x74>
			ControlData.Abort = 1;
 1004a58:	00c04074 	movhi	r3,257
 1004a5c:	18df0c04 	addi	r3,r3,31792
 1004a60:	00800044 	movi	r2,1
 1004a64:	18800005 	stb	r2,0(r3)
			bD13flags.bits.DCP_state = USBFSM4DCP_SETUPPROC;
 1004a68:	01004074 	movhi	r4,257
 1004a6c:	211ee504 	addi	r4,r4,31636
 1004a70:	20c00017 	ldw	r3,0(r4)
 1004a74:	00bc3fc4 	movi	r2,-3841
 1004a78:	1884703a 	and	r2,r3,r2
 1004a7c:	10814014 	ori	r2,r2,1280
 1004a80:	20800015 	stw	r2,0(r4)
 1004a84:	00005f06 	br	1004c04 <Isr_Ep00RxDone+0x1f0>
		} else
			bD13flags.bits.DCP_state = USBFSM4DCP_SETUPPROC;
 1004a88:	01004074 	movhi	r4,257
 1004a8c:	211ee504 	addi	r4,r4,31636
 1004a90:	20c00017 	ldw	r3,0(r4)
 1004a94:	00bc3fc4 	movi	r2,-3841
 1004a98:	1884703a 	and	r2,r3,r2
 1004a9c:	10814014 	ori	r2,r2,1280
 1004aa0:	20800015 	stw	r2,0(r4)
 1004aa4:	00005706 	br	1004c04 <Isr_Ep00RxDone+0x1f0>
	} else /* not a setup packet, just a Data Out Packet */
	{
		switch (bD13flags.bits.DCP_state) {
 1004aa8:	00804074 	movhi	r2,257
 1004aac:	109ee504 	addi	r2,r2,31636
 1004ab0:	10800017 	ldw	r2,0(r2)
 1004ab4:	1004d23a 	srli	r2,r2,8
 1004ab8:	108003cc 	andi	r2,r2,15
 1004abc:	10803fcc 	andi	r2,r2,255
 1004ac0:	e0bfff15 	stw	r2,-4(fp)
 1004ac4:	e0ffff17 	ldw	r3,-4(fp)
 1004ac8:	18800228 	cmpgeui	r2,r3,8
 1004acc:	1000411e 	bne	r2,zero,1004bd4 <Isr_Ep00RxDone+0x1c0>
 1004ad0:	e13fff17 	ldw	r4,-4(fp)
 1004ad4:	e13fff17 	ldw	r4,-4(fp)
 1004ad8:	2105883a 	add	r2,r4,r4
 1004adc:	1087883a 	add	r3,r2,r2
 1004ae0:	00804034 	movhi	r2,256
 1004ae4:	1092bd04 	addi	r2,r2,19188
 1004ae8:	1885883a 	add	r2,r3,r2
 1004aec:	10800017 	ldw	r2,0(r2)
 1004af0:	1000683a 	jmp	r2
 1004af4:	01004bd4 	movui	r4,303
 1004af8:	01004c04 	movi	r4,304
 1004afc:	01004b14 	movui	r4,300
 1004b00:	01004c04 	movi	r4,304
 1004b04:	01004bb8 	rdprs	r4,zero,302
 1004b08:	01004c04 	movi	r4,304
 1004b0c:	01004bd4 	movui	r4,303
 1004b10:	01004c04 	movi	r4,304
		case USBFSM4DCP_DATAOUT:

			i = Hal4D13_ReadEndpoint(EPINDEX4EP0_CONTROL_OUT,
 1004b14:	00804074 	movhi	r2,257
 1004b18:	109f0c04 	addi	r2,r2,31792
 1004b1c:	1080030b 	ldhu	r2,12(r2)
 1004b20:	10bfffcc 	andi	r2,r2,65535
 1004b24:	1007883a 	mov	r3,r2
 1004b28:	00804074 	movhi	r2,257
 1004b2c:	109f1104 	addi	r2,r2,31812
 1004b30:	188b883a 	add	r5,r3,r2
 1004b34:	0009883a 	mov	r4,zero
 1004b38:	01801004 	movi	r6,64
 1004b3c:	10035600 	call	1003560 <Hal4D13_ReadEndpoint>
 1004b40:	e0bffe05 	stb	r2,-8(fp)
					ControlData.dataBuffer + ControlData.wCount,
					EP0_PACKET_SIZE);

			ControlData.wCount += i;
 1004b44:	00804074 	movhi	r2,257
 1004b48:	109f0c04 	addi	r2,r2,31792
 1004b4c:	10c0030b 	ldhu	r3,12(r2)
 1004b50:	e0bffe03 	ldbu	r2,-8(fp)
 1004b54:	1885883a 	add	r2,r3,r2
 1004b58:	1007883a 	mov	r3,r2
 1004b5c:	00804074 	movhi	r2,257
 1004b60:	109f0c04 	addi	r2,r2,31792
 1004b64:	10c0030d 	sth	r3,12(r2)
			if (i != EP0_PACKET_SIZE
 1004b68:	e0bffe03 	ldbu	r2,-8(fp)
 1004b6c:	10801018 	cmpnei	r2,r2,64
 1004b70:	1000091e 	bne	r2,zero,1004b98 <Isr_Ep00RxDone+0x184>
 1004b74:	00804074 	movhi	r2,257
 1004b78:	109f0c04 	addi	r2,r2,31792
 1004b7c:	10c0030b 	ldhu	r3,12(r2)
 1004b80:	00804074 	movhi	r2,257
 1004b84:	109f0c04 	addi	r2,r2,31792
 1004b88:	1080028b 	ldhu	r2,10(r2)
 1004b8c:	18ffffcc 	andi	r3,r3,65535
 1004b90:	10bfffcc 	andi	r2,r2,65535
 1004b94:	18801b36 	bltu	r3,r2,1004c04 <Isr_Ep00RxDone+0x1f0>
					|| ControlData.wCount >= ControlData.wLength) {
				bD13flags.bits.DCP_state = USBFSM4DCP_REQUESTPROC;
 1004b98:	01004074 	movhi	r4,257
 1004b9c:	211ee504 	addi	r4,r4,31636
 1004ba0:	20c00017 	ldw	r3,0(r4)
 1004ba4:	00bc3fc4 	movi	r2,-3841
 1004ba8:	1884703a 	and	r2,r3,r2
 1004bac:	1080c014 	ori	r2,r2,768
 1004bb0:	20800015 	stw	r2,0(r4)

			}
			break;
 1004bb4:	00001306 	br	1004c04 <Isr_Ep00RxDone+0x1f0>
		case USBFSM4DCP_HANDSHAKE:

			bD13flags.bits.DCP_state = USBFSM4DCP_IDLE;
 1004bb8:	01004074 	movhi	r4,257
 1004bbc:	211ee504 	addi	r4,r4,31636
 1004bc0:	20c00017 	ldw	r3,0(r4)
 1004bc4:	00bc3fc4 	movi	r2,-3841
 1004bc8:	1884703a 	and	r2,r3,r2
 1004bcc:	20800015 	stw	r2,0(r4)
			break;
 1004bd0:	00000c06 	br	1004c04 <Isr_Ep00RxDone+0x1f0>

		case USBFSM4DCP_DATAIN:
			break;

		default:
			printf("Fatal Error: Isr_Ep0RxDone ReadLastTranactionStatus=%x\n",
 1004bd4:	e17ffe43 	ldbu	r5,-7(fp)
 1004bd8:	01004074 	movhi	r4,257
 1004bdc:	210e8f04 	addi	r4,r4,14908
 1004be0:	1005e580 	call	1005e58 <printf>
					ep_last);
			bD13flags.bits.DCP_state = USBFSM4DCP_STALL;
 1004be4:	01004074 	movhi	r4,257
 1004be8:	211ee504 	addi	r4,r4,31636
 1004bec:	20c00017 	ldw	r3,0(r4)
 1004bf0:	00bc3fc4 	movi	r2,-3841
 1004bf4:	1884703a 	and	r2,r3,r2
 1004bf8:	1081c014 	ori	r2,r2,1792
 1004bfc:	20800015 	stw	r2,0(r4)
			Hal4D13_StallEP0InControlWrite();
 1004c00:	10044540 	call	1004454 <Hal4D13_StallEP0InControlWrite>
			break;
		}
	}
	return;
}
 1004c04:	e037883a 	mov	sp,fp
 1004c08:	dfc00117 	ldw	ra,4(sp)
 1004c0c:	df000017 	ldw	fp,0(sp)
 1004c10:	dec00204 	addi	sp,sp,8
 1004c14:	f800283a 	ret

01004c18 <Isr_Ep00TxDone>:

void Isr_Ep00TxDone(void) {
 1004c18:	defffc04 	addi	sp,sp,-16
 1004c1c:	dfc00315 	stw	ra,12(sp)
 1004c20:	df000215 	stw	fp,8(sp)
 1004c24:	df000204 	addi	fp,sp,8
	short i = ControlData.wLength - ControlData.wCount;
 1004c28:	00804074 	movhi	r2,257
 1004c2c:	109f0c04 	addi	r2,r2,31792
 1004c30:	10c0028b 	ldhu	r3,10(r2)
 1004c34:	00804074 	movhi	r2,257
 1004c38:	109f0c04 	addi	r2,r2,31792
 1004c3c:	1080030b 	ldhu	r2,12(r2)
 1004c40:	1885c83a 	sub	r2,r3,r2
 1004c44:	e0bffe8d 	sth	r2,-6(fp)
	UCHAR ep_last;
	Hal4D13_ReadInterruptRegister();
 1004c48:	1003c500 	call	1003c50 <Hal4D13_ReadInterruptRegister>
	ep_last = Hal4D13_GetEndpointStatusWInteruptClear(EPINDEX4EP0_CONTROL_IN); /* Clear interrupt flag */
 1004c4c:	01000044 	movi	r4,1
 1004c50:	1003cdc0 	call	1003cdc <Hal4D13_GetEndpointStatusWInteruptClear>
 1004c54:	e0bffe05 	stb	r2,-8(fp)

	switch (bD13flags.bits.DCP_state) {
 1004c58:	00804074 	movhi	r2,257
 1004c5c:	109ee504 	addi	r2,r2,31636
 1004c60:	10800017 	ldw	r2,0(r2)
 1004c64:	1004d23a 	srli	r2,r2,8
 1004c68:	108003cc 	andi	r2,r2,15
 1004c6c:	10803fcc 	andi	r2,r2,255
 1004c70:	e0bfff15 	stw	r2,-4(fp)
 1004c74:	e0ffff17 	ldw	r3,-4(fp)
 1004c78:	18800228 	cmpgeui	r2,r3,8
 1004c7c:	1000561e 	bne	r2,zero,1004dd8 <Isr_Ep00TxDone+0x1c0>
 1004c80:	e13fff17 	ldw	r4,-4(fp)
 1004c84:	e13fff17 	ldw	r4,-4(fp)
 1004c88:	2105883a 	add	r2,r4,r4
 1004c8c:	1087883a 	add	r3,r2,r2
 1004c90:	00804034 	movhi	r2,256
 1004c94:	10932904 	addi	r2,r2,19620
 1004c98:	1885883a 	add	r2,r3,r2
 1004c9c:	10800017 	ldw	r2,0(r2)
 1004ca0:	1000683a 	jmp	r2
 1004ca4:	01004e1c 	xori	r4,zero,312
 1004ca8:	01004cc4 	movi	r4,307
 1004cac:	01004e1c 	xori	r4,zero,312
 1004cb0:	01004e1c 	xori	r4,zero,312
 1004cb4:	01004e1c 	xori	r4,zero,312
 1004cb8:	01004e1c 	xori	r4,zero,312
 1004cbc:	01004dd8 	cmpnei	r4,zero,311
 1004cc0:	01004e1c 	xori	r4,zero,312
	case USBFSM4DCP_HANDSHAKE:
		break;
	case USBFSM4DCP_DATAIN:
		if (i >= EP0_PACKET_SIZE) {
 1004cc4:	e0bffe8f 	ldh	r2,-6(fp)
 1004cc8:	10801010 	cmplti	r2,r2,64
 1004ccc:	1000141e 	bne	r2,zero,1004d20 <Isr_Ep00TxDone+0x108>
			Hal4D13_WriteEndpoint(EPINDEX4EP0_CONTROL_IN,
 1004cd0:	00804074 	movhi	r2,257
 1004cd4:	109f0c04 	addi	r2,r2,31792
 1004cd8:	10c00417 	ldw	r3,16(r2)
 1004cdc:	00804074 	movhi	r2,257
 1004ce0:	109f0c04 	addi	r2,r2,31792
 1004ce4:	1080030b 	ldhu	r2,12(r2)
 1004ce8:	10bfffcc 	andi	r2,r2,65535
 1004cec:	188b883a 	add	r5,r3,r2
 1004cf0:	01000044 	movi	r4,1
 1004cf4:	01801004 	movi	r6,64
 1004cf8:	10038cc0 	call	10038cc <Hal4D13_WriteEndpoint>
					ControlData.Addr.pData + ControlData.wCount,
					EP0_PACKET_SIZE);
			ControlData.wCount += EP0_PACKET_SIZE;
 1004cfc:	00804074 	movhi	r2,257
 1004d00:	109f0c04 	addi	r2,r2,31792
 1004d04:	1080030b 	ldhu	r2,12(r2)
 1004d08:	10801004 	addi	r2,r2,64
 1004d0c:	1007883a 	mov	r3,r2
 1004d10:	00804074 	movhi	r2,257
 1004d14:	109f0c04 	addi	r2,r2,31792
 1004d18:	10c0030d 	sth	r3,12(r2)
 1004d1c:	00003f06 	br	1004e1c <Isr_Ep00TxDone+0x204>
			// State remains at USBFSM4DCP_DATAIN
		} else if (i != 0) {
 1004d20:	e0bffe8f 	ldh	r2,-6(fp)
 1004d24:	1005003a 	cmpeq	r2,r2,zero
 1004d28:	10001d1e 	bne	r2,zero,1004da0 <Isr_Ep00TxDone+0x188>
			Hal4D13_WriteEndpoint(1,
 1004d2c:	00804074 	movhi	r2,257
 1004d30:	109f0c04 	addi	r2,r2,31792
 1004d34:	10c00417 	ldw	r3,16(r2)
 1004d38:	00804074 	movhi	r2,257
 1004d3c:	109f0c04 	addi	r2,r2,31792
 1004d40:	1080030b 	ldhu	r2,12(r2)
 1004d44:	10bfffcc 	andi	r2,r2,65535
 1004d48:	188b883a 	add	r5,r3,r2
 1004d4c:	e0bffe8b 	ldhu	r2,-6(fp)
 1004d50:	11bfffcc 	andi	r6,r2,65535
 1004d54:	01000044 	movi	r4,1
 1004d58:	10038cc0 	call	10038cc <Hal4D13_WriteEndpoint>
					ControlData.Addr.pData + ControlData.wCount, i);
			ControlData.wCount += i;
 1004d5c:	00804074 	movhi	r2,257
 1004d60:	109f0c04 	addi	r2,r2,31792
 1004d64:	10c0030b 	ldhu	r3,12(r2)
 1004d68:	e0bffe8b 	ldhu	r2,-6(fp)
 1004d6c:	1885883a 	add	r2,r3,r2
 1004d70:	1007883a 	mov	r3,r2
 1004d74:	00804074 	movhi	r2,257
 1004d78:	109f0c04 	addi	r2,r2,31792
 1004d7c:	10c0030d 	sth	r3,12(r2)
			bD13flags.bits.DCP_state = USBFSM4DCP_HANDSHAKE;
 1004d80:	01004074 	movhi	r4,257
 1004d84:	211ee504 	addi	r4,r4,31636
 1004d88:	20c00017 	ldw	r3,0(r4)
 1004d8c:	00bc3fc4 	movi	r2,-3841
 1004d90:	1884703a 	and	r2,r3,r2
 1004d94:	10810014 	ori	r2,r2,1024
 1004d98:	20800015 	stw	r2,0(r4)
 1004d9c:	00001f06 	br	1004e1c <Isr_Ep00TxDone+0x204>
		} else if (i == 0) {
 1004da0:	e0bffe8f 	ldh	r2,-6(fp)
 1004da4:	1004c03a 	cmpne	r2,r2,zero
 1004da8:	10001c1e 	bne	r2,zero,1004e1c <Isr_Ep00TxDone+0x204>
			bD13flags.bits.DCP_state = USBFSM4DCP_HANDSHAKE;
 1004dac:	01004074 	movhi	r4,257
 1004db0:	211ee504 	addi	r4,r4,31636
 1004db4:	20c00017 	ldw	r3,0(r4)
 1004db8:	00bc3fc4 	movi	r2,-3841
 1004dbc:	1884703a 	and	r2,r3,r2
 1004dc0:	10810014 	ori	r2,r2,1024
 1004dc4:	20800015 	stw	r2,0(r4)
			Hal4D13_SingleTransmitEP0(0, 0);
 1004dc8:	0009883a 	mov	r4,zero
 1004dcc:	000b883a 	mov	r5,zero
 1004dd0:	10042a40 	call	10042a4 <Hal4D13_SingleTransmitEP0>
		}
		break;
 1004dd4:	00001106 	br	1004e1c <Isr_Ep00TxDone+0x204>
	case USBFSM4DCP_STALL:
		break;
	case USBFSM4DCP_DATAOUT:
		break;
	default:
		printf("Fatal Error: Isr_Ep0TxDone Unexpected FSMState=%x\n",
 1004dd8:	00804074 	movhi	r2,257
 1004ddc:	109ee504 	addi	r2,r2,31636
 1004de0:	10800017 	ldw	r2,0(r2)
 1004de4:	1004d23a 	srli	r2,r2,8
 1004de8:	108003cc 	andi	r2,r2,15
 1004dec:	11403fcc 	andi	r5,r2,255
 1004df0:	01004074 	movhi	r4,257
 1004df4:	210e9d04 	addi	r4,r4,14964
 1004df8:	1005e580 	call	1005e58 <printf>
				bD13flags.bits.DCP_state);
		bD13flags.bits.DCP_state = USBFSM4DCP_STALL;
 1004dfc:	01004074 	movhi	r4,257
 1004e00:	211ee504 	addi	r4,r4,31636
 1004e04:	20c00017 	ldw	r3,0(r4)
 1004e08:	00bc3fc4 	movi	r2,-3841
 1004e0c:	1884703a 	and	r2,r3,r2
 1004e10:	1081c014 	ori	r2,r2,1792
 1004e14:	20800015 	stw	r2,0(r4)
		Hal4D13_StallEP0InControlRead();
 1004e18:	10044900 	call	1004490 <Hal4D13_StallEP0InControlRead>
		break;
	}
}
 1004e1c:	e037883a 	mov	sp,fp
 1004e20:	dfc00117 	ldw	ra,4(sp)
 1004e24:	df000017 	ldw	fp,0(sp)
 1004e28:	dec00204 	addi	sp,sp,8
 1004e2c:	f800283a 	ret

01004e30 <usb_check_send>:
volatile unsigned char return_buf[4096];
volatile unsigned char * rb_wr_ptr = return_buf;
volatile unsigned char * rb_rd_ptr = return_buf;
volatile int inflight = 0;

void usb_check_send(void * context) {
 1004e30:	defffa04 	addi	sp,sp,-24
 1004e34:	dfc00515 	stw	ra,20(sp)
 1004e38:	df000415 	stw	fp,16(sp)
 1004e3c:	df000404 	addi	fp,sp,16
 1004e40:	e13fff15 	stw	r4,-4(fp)
	while (inflight < 2 && !usb_send_queue_is_empty()) {
 1004e44:	00001e06 	br	1004ec0 <usb_check_send+0x90>
		unsigned char * data;
		unsigned int len;
		usb_send_queue_pop(&data, &len);
 1004e48:	e13ffd04 	addi	r4,fp,-12
 1004e4c:	e17ffe04 	addi	r5,fp,-8
 1004e50:	10006300 	call	1000630 <usb_send_queue_pop>

		assert(len <= 64);
 1004e54:	e0bffe17 	ldw	r2,-8(fp)
 1004e58:	10801070 	cmpltui	r2,r2,65
 1004e5c:	1000081e 	bne	r2,zero,1004e80 <usb_check_send+0x50>
 1004e60:	01004074 	movhi	r4,257
 1004e64:	210eae04 	addi	r4,r4,15032
 1004e68:	01403f04 	movi	r5,252
 1004e6c:	01804074 	movhi	r6,257
 1004e70:	318eaa04 	addi	r6,r6,15016
 1004e74:	01c04074 	movhi	r7,257
 1004e78:	39ceb204 	addi	r7,r7,15048
 1004e7c:	10053cc0 	call	10053cc <__assert_func>

		inflight++;
 1004e80:	d0a7b917 	ldw	r2,-24860(gp)
 1004e84:	10800044 	addi	r2,r2,1
 1004e88:	d0a7b915 	stw	r2,-24860(gp)
//		printf("EP 2 sending %d bytes\n", len);
		Hal4D13_WriteBulkEndpoint(EPINDEX4EP02, data, len);
 1004e8c:	e17ffd17 	ldw	r5,-12(fp)
 1004e90:	e0bffe17 	ldw	r2,-8(fp)
 1004e94:	11bfffcc 	andi	r6,r2,65535
 1004e98:	010000c4 	movi	r4,3
 1004e9c:	1003a280 	call	1003a28 <Hal4D13_WriteBulkEndpoint>
		if (data)
 1004ea0:	e0bffd17 	ldw	r2,-12(fp)
 1004ea4:	1005003a 	cmpeq	r2,r2,zero
 1004ea8:	1000021e 	bne	r2,zero,1004eb4 <usb_check_send+0x84>
			free(data);
 1004eac:	e13ffd17 	ldw	r4,-12(fp)
 1004eb0:	10055b80 	call	10055b8 <free>

		unsigned char c;
		c = Hal4D13_GetEndpointStatusWInteruptClear(EPINDEX4EP02);
 1004eb4:	010000c4 	movi	r4,3
 1004eb8:	1003cdc0 	call	1003cdc <Hal4D13_GetEndpointStatusWInteruptClear>
 1004ebc:	e0bffc05 	stb	r2,-16(fp)
volatile unsigned char * rb_wr_ptr = return_buf;
volatile unsigned char * rb_rd_ptr = return_buf;
volatile int inflight = 0;

void usb_check_send(void * context) {
	while (inflight < 2 && !usb_send_queue_is_empty()) {
 1004ec0:	d0a7b917 	ldw	r2,-24860(gp)
 1004ec4:	10800088 	cmpgei	r2,r2,2
 1004ec8:	1000031e 	bne	r2,zero,1004ed8 <usb_check_send+0xa8>
 1004ecc:	1000aa40 	call	1000aa4 <usb_send_queue_is_empty>
 1004ed0:	1005003a 	cmpeq	r2,r2,zero
 1004ed4:	103fdc1e 	bne	r2,zero,1004e48 <usb_check_send+0x18>

//		printf("cc = %02hhx\n", c);
//		Hal4D13_GetEndpointStatusWInteruptClear(EPINDEX4EP02);
	}
//	printf("Inflight %d, Empty %d\n", inflight, usb_send_queue_is_empty());
}
 1004ed8:	e037883a 	mov	sp,fp
 1004edc:	dfc00117 	ldw	ra,4(sp)
 1004ee0:	df000017 	ldw	fp,0(sp)
 1004ee4:	dec00204 	addi	sp,sp,8
 1004ee8:	f800283a 	ret

01004eec <Isr_Ep01Done>:

void Isr_Ep01Done(void) {
 1004eec:	defffc04 	addi	sp,sp,-16
 1004ef0:	dfc00315 	stw	ra,12(sp)
 1004ef4:	df000215 	stw	fp,8(sp)
 1004ef8:	df000204 	addi	fp,sp,8
//	UCHAR c;
//	c = Hal4D13_GetEndpointStatusWInteruptClear(EPINDEX4EP01);

	unsigned char * buf = calloc(sizeof(unsigned char), 64);
 1004efc:	01000044 	movi	r4,1
 1004f00:	01401004 	movi	r5,64
 1004f04:	10054440 	call	1005444 <calloc>
 1004f08:	e0bfff15 	stw	r2,-4(fp)

	int recvd = Hal4D13_ReadEndpoint(EPINDEX4EP01, buf, 64);
 1004f0c:	01000084 	movi	r4,2
 1004f10:	e17fff17 	ldw	r5,-4(fp)
 1004f14:	01801004 	movi	r6,64
 1004f18:	10035600 	call	1003560 <Hal4D13_ReadEndpoint>
 1004f1c:	10bfffcc 	andi	r2,r2,65535
 1004f20:	e0bffe15 	stw	r2,-8(fp)
//	printf("EP 1 received %d bytes\n", recvd);
//	printf("%02hhx %02hhx %02hhx\n", buf[0], buf[1], buf[2]);
//	usleep(10000);
	usb_recv_queue_push(buf, recvd);
 1004f24:	e17ffe17 	ldw	r5,-8(fp)
 1004f28:	e13fff17 	ldw	r4,-4(fp)
 1004f2c:	10005ac0 	call	10005ac <usb_recv_queue_push>

	Hal4D13_GetEndpointStatusWInteruptClear(EPINDEX4EP01); /* Clear interrupt flag*/
 1004f30:	01000084 	movi	r4,2
 1004f34:	1003cdc0 	call	1003cdc <Hal4D13_GetEndpointStatusWInteruptClear>
}
 1004f38:	e037883a 	mov	sp,fp
 1004f3c:	dfc00117 	ldw	ra,4(sp)
 1004f40:	df000017 	ldw	fp,0(sp)
 1004f44:	dec00204 	addi	sp,sp,8
 1004f48:	f800283a 	ret

01004f4c <Isr_Ep02Done>:

void Isr_Ep02Done(void) {
 1004f4c:	defffd04 	addi	sp,sp,-12
 1004f50:	dfc00215 	stw	ra,8(sp)
 1004f54:	df000115 	stw	fp,4(sp)
 1004f58:	df000104 	addi	fp,sp,4
//	printf("EP 2 sent message\n");
	unsigned char c;
	c = Hal4D13_GetEndpointStatusWInteruptClear(EPINDEX4EP02);
 1004f5c:	010000c4 	movi	r4,3
 1004f60:	1003cdc0 	call	1003cdc <Hal4D13_GetEndpointStatusWInteruptClear>
 1004f64:	e0bfff05 	stb	r2,-4(fp)

//	printf("c = %02hhx\n", c);
	if ((c & 0x40) || (c & 0x20))
 1004f68:	e0bfff03 	ldbu	r2,-4(fp)
 1004f6c:	1080100c 	andi	r2,r2,64
 1004f70:	1004c03a 	cmpne	r2,r2,zero
 1004f74:	1000041e 	bne	r2,zero,1004f88 <Isr_Ep02Done+0x3c>
 1004f78:	e0bfff03 	ldbu	r2,-4(fp)
 1004f7c:	1080080c 	andi	r2,r2,32
 1004f80:	1005003a 	cmpeq	r2,r2,zero
 1004f84:	1000031e 	bne	r2,zero,1004f94 <Isr_Ep02Done+0x48>
		inflight = 1;
 1004f88:	00800044 	movi	r2,1
 1004f8c:	d0a7b915 	stw	r2,-24860(gp)
//	printf("EP 2 sent message\n");
	unsigned char c;
	c = Hal4D13_GetEndpointStatusWInteruptClear(EPINDEX4EP02);

//	printf("c = %02hhx\n", c);
	if ((c & 0x40) || (c & 0x20))
 1004f90:	00000106 	br	1004f98 <Isr_Ep02Done+0x4c>
		inflight = 1;
	else
		inflight = 0;
 1004f94:	d027b915 	stw	zero,-24860(gp)

//	printf("Now inflight: %d\n", inflight);
	usb_check_send(NULL);
 1004f98:	0009883a 	mov	r4,zero
 1004f9c:	1004e300 	call	1004e30 <usb_check_send>
}
 1004fa0:	e037883a 	mov	sp,fp
 1004fa4:	dfc00117 	ldw	ra,4(sp)
 1004fa8:	df000017 	ldw	fp,0(sp)
 1004fac:	dec00204 	addi	sp,sp,8
 1004fb0:	f800283a 	ret

01004fb4 <Isr_Ep03Done>:

void Isr_Ep03Done(void) {
 1004fb4:	defffd04 	addi	sp,sp,-12
 1004fb8:	dfc00215 	stw	ra,8(sp)
 1004fbc:	df000115 	stw	fp,4(sp)
 1004fc0:	df000104 	addi	fp,sp,4
	UCHAR ep_last;
	ep_last = Hal4D13_GetEndpointStatusWInteruptClear(EPINDEX4EP03); /* Clear interrupt flag*/
 1004fc4:	01000104 	movi	r4,4
 1004fc8:	1003cdc0 	call	1003cdc <Hal4D13_GetEndpointStatusWInteruptClear>
 1004fcc:	e0bfff05 	stb	r2,-4(fp)
}
 1004fd0:	e037883a 	mov	sp,fp
 1004fd4:	dfc00117 	ldw	ra,4(sp)
 1004fd8:	df000017 	ldw	fp,0(sp)
 1004fdc:	dec00204 	addi	sp,sp,8
 1004fe0:	f800283a 	ret

01004fe4 <Isr_Ep04Done>:

void Isr_Ep04Done(void) {
 1004fe4:	defffd04 	addi	sp,sp,-12
 1004fe8:	dfc00215 	stw	ra,8(sp)
 1004fec:	df000115 	stw	fp,4(sp)
 1004ff0:	df000104 	addi	fp,sp,4
	UCHAR ep_last;
	ep_last = Hal4D13_GetEndpointStatusWInteruptClear(EPINDEX4EP04); /* Clear interrupt flag*/
 1004ff4:	01000144 	movi	r4,5
 1004ff8:	1003cdc0 	call	1003cdc <Hal4D13_GetEndpointStatusWInteruptClear>
 1004ffc:	e0bfff05 	stb	r2,-4(fp)
}
 1005000:	e037883a 	mov	sp,fp
 1005004:	dfc00117 	ldw	ra,4(sp)
 1005008:	df000017 	ldw	fp,0(sp)
 100500c:	dec00204 	addi	sp,sp,8
 1005010:	f800283a 	ret

01005014 <Isr_Ep05Done>:

void Isr_Ep05Done(void) {
 1005014:	defefd04 	addi	sp,sp,-1036
 1005018:	dfc10215 	stw	ra,1032(sp)
 100501c:	df010115 	stw	fp,1028(sp)
 1005020:	df010104 	addi	fp,sp,1028
	UCHAR ep_last, DoubleBuff = 1;
 1005024:	00800044 	movi	r2,1
 1005028:	e0beff85 	stb	r2,-1026(fp)
	USHORT ISO_Buffer[512], len;
	ep_last = Hal4D13_GetEndpointStatusWInteruptClear(EPINDEX4EP05); // Clear interrupt flag
 100502c:	01000184 	movi	r4,6
 1005030:	1003cdc0 	call	1003cdc <Hal4D13_GetEndpointStatusWInteruptClear>
 1005034:	e0beffc5 	stb	r2,-1025(fp)
	if ((ep_last & (D13REG_EPSTS_DBF0 | D13REG_EPSTS_DBF1)) == 0x00)
 1005038:	e0beffc3 	ldbu	r2,-1025(fp)
 100503c:	1080180c 	andi	r2,r2,96
 1005040:	1004c03a 	cmpne	r2,r2,zero
 1005044:	1000031e 	bne	r2,zero,1005054 <Isr_Ep05Done+0x40>
		DoubleBuff = 2;
 1005048:	00800084 	movi	r2,2
 100504c:	e0beff85 	stb	r2,-1026(fp)
 1005050:	00000206 	br	100505c <Isr_Ep05Done+0x48>
	else
		DoubleBuff = 1;
 1005054:	00800044 	movi	r2,1
 1005058:	e0beff85 	stb	r2,-1026(fp)
				len = Hal4D13_ReadISOEndpoint(EPINDEX4EP05, ISO_Buffer, 512);
				Hal4D13_WriteISOEndpoint(EPINDEX4EP06, ISO_Buffer, len);
			}
		}
	}
}
 100505c:	e037883a 	mov	sp,fp
 1005060:	dfc00117 	ldw	ra,4(sp)
 1005064:	df000017 	ldw	fp,0(sp)
 1005068:	dec00204 	addi	sp,sp,8
 100506c:	f800283a 	ret

01005070 <Isr_Ep06Done>:

void Isr_Ep06Done(void) {
 1005070:	defffd04 	addi	sp,sp,-12
 1005074:	dfc00215 	stw	ra,8(sp)
 1005078:	df000115 	stw	fp,4(sp)
 100507c:	df000104 	addi	fp,sp,4
	UCHAR ep_last;
	ep_last = Hal4D13_GetEndpointStatusWInteruptClear(EPINDEX4EP06); /* Clear interrupt flag*/
 1005080:	010001c4 	movi	r4,7
 1005084:	1003cdc0 	call	1003cdc <Hal4D13_GetEndpointStatusWInteruptClear>
 1005088:	e0bfff05 	stb	r2,-4(fp)
}
 100508c:	e037883a 	mov	sp,fp
 1005090:	dfc00117 	ldw	ra,4(sp)
 1005094:	df000017 	ldw	fp,0(sp)
 1005098:	dec00204 	addi	sp,sp,8
 100509c:	f800283a 	ret

010050a0 <Isr_Ep07Done>:

void Isr_Ep07Done(void) {
 10050a0:	deffff04 	addi	sp,sp,-4
 10050a4:	df000015 	stw	fp,0(sp)
 10050a8:	d839883a 	mov	fp,sp
//  UCHAR  c;
//  c = Hal4D13_GetEndpointStatusWInteruptClear(EPINDEX4EP07); /* Clear interrupt flag */
}
 10050ac:	e037883a 	mov	sp,fp
 10050b0:	df000017 	ldw	fp,0(sp)
 10050b4:	dec00104 	addi	sp,sp,4
 10050b8:	f800283a 	ret

010050bc <Isr_Ep08Done>:
void Isr_Ep08Done(void) {
 10050bc:	deffff04 	addi	sp,sp,-4
 10050c0:	df000015 	stw	fp,0(sp)
 10050c4:	d839883a 	mov	fp,sp
//  UCHAR  c;
//  c = Hal4D13_GetEndpointStatusWInteruptClear(EPINDEX4EP08); /* Clear interrupt flag */
}
 10050c8:	e037883a 	mov	sp,fp
 10050cc:	df000017 	ldw	fp,0(sp)
 10050d0:	dec00104 	addi	sp,sp,4
 10050d4:	f800283a 	ret

010050d8 <Isr_Ep09Done>:
void Isr_Ep09Done(void) {
 10050d8:	deffff04 	addi	sp,sp,-4
 10050dc:	df000015 	stw	fp,0(sp)
 10050e0:	d839883a 	mov	fp,sp
//  UCHAR  c;
//  c = Hal4D13_GetEndpointStatusWInteruptClear(EPINDEX4EP09); /* Clear interrupt flag */
}
 10050e4:	e037883a 	mov	sp,fp
 10050e8:	df000017 	ldw	fp,0(sp)
 10050ec:	dec00104 	addi	sp,sp,4
 10050f0:	f800283a 	ret

010050f4 <Isr_Ep0ADone>:
void Isr_Ep0ADone(void) {
 10050f4:	deffff04 	addi	sp,sp,-4
 10050f8:	df000015 	stw	fp,0(sp)
 10050fc:	d839883a 	mov	fp,sp
//  UCHAR  c;
//  c = Hal4D13_GetEndpointStatusWInteruptClear(EPINDEX4EP0A); /* Clear interrupt flag */
}
 1005100:	e037883a 	mov	sp,fp
 1005104:	df000017 	ldw	fp,0(sp)
 1005108:	dec00104 	addi	sp,sp,4
 100510c:	f800283a 	ret

01005110 <Isr_Ep0BDone>:
void Isr_Ep0BDone(void) {
 1005110:	deffff04 	addi	sp,sp,-4
 1005114:	df000015 	stw	fp,0(sp)
 1005118:	d839883a 	mov	fp,sp
//  UCHAR  c;
//  c = Hal4D13_GetEndpointStatusWInteruptClear(EPINDEX4EP0B); /* Clear interrupt flag */
}
 100511c:	e037883a 	mov	sp,fp
 1005120:	df000017 	ldw	fp,0(sp)
 1005124:	dec00104 	addi	sp,sp,4
 1005128:	f800283a 	ret

0100512c <Isr_Ep0CDone>:
void Isr_Ep0CDone(void) {
 100512c:	deffff04 	addi	sp,sp,-4
 1005130:	df000015 	stw	fp,0(sp)
 1005134:	d839883a 	mov	fp,sp
//  UCHAR  c;
//  c = Hal4D13_GetEndpointStatusWInteruptClear(EPINDEX4EP0C); /* Clear interrupt flag */
}
 1005138:	e037883a 	mov	sp,fp
 100513c:	df000017 	ldw	fp,0(sp)
 1005140:	dec00104 	addi	sp,sp,4
 1005144:	f800283a 	ret

01005148 <Isr_Ep0DDone>:
void Isr_Ep0DDone(void) {
 1005148:	deffff04 	addi	sp,sp,-4
 100514c:	df000015 	stw	fp,0(sp)
 1005150:	d839883a 	mov	fp,sp
//  UCHAR  c;
//  c = Hal4D13_GetEndpointStatusWInteruptClear(EPINDEX4EP0D); /* Clear interrupt flag */
}
 1005154:	e037883a 	mov	sp,fp
 1005158:	df000017 	ldw	fp,0(sp)
 100515c:	dec00104 	addi	sp,sp,4
 1005160:	f800283a 	ret

01005164 <Isr_Ep0EDone>:
void Isr_Ep0EDone(void) {
 1005164:	deffff04 	addi	sp,sp,-4
 1005168:	df000015 	stw	fp,0(sp)
 100516c:	d839883a 	mov	fp,sp
//  UCHAR  c;
//  c = Hal4D13_GetEndpointStatusWInteruptClear(EPINDEX4EP0E); /* Clear interrupt flag */
}
 1005170:	e037883a 	mov	sp,fp
 1005174:	df000017 	ldw	fp,0(sp)
 1005178:	dec00104 	addi	sp,sp,4
 100517c:	f800283a 	ret

01005180 <usb_fifo_init>:
#include <stdlib.h>
#include <assert.h>



void usb_fifo_init(usb_fifo * fifo) {
 1005180:	defffe04 	addi	sp,sp,-8
 1005184:	df000115 	stw	fp,4(sp)
 1005188:	df000104 	addi	fp,sp,4
 100518c:	e13fff15 	stw	r4,-4(fp)
	fifo->head = NULL;
 1005190:	e0bfff17 	ldw	r2,-4(fp)
 1005194:	10000015 	stw	zero,0(r2)
	fifo->tail = NULL;
 1005198:	e0bfff17 	ldw	r2,-4(fp)
 100519c:	10000115 	stw	zero,4(r2)
}
 10051a0:	e037883a 	mov	sp,fp
 10051a4:	df000017 	ldw	fp,0(sp)
 10051a8:	dec00104 	addi	sp,sp,4
 10051ac:	f800283a 	ret

010051b0 <usb_fifo_push>:

void usb_fifo_push(usb_fifo * fifo, unsigned char * data, unsigned int len) {
 10051b0:	defffa04 	addi	sp,sp,-24
 10051b4:	dfc00515 	stw	ra,20(sp)
 10051b8:	df000415 	stw	fp,16(sp)
 10051bc:	df000404 	addi	fp,sp,16
 10051c0:	e13ffd15 	stw	r4,-12(fp)
 10051c4:	e17ffe15 	stw	r5,-8(fp)
 10051c8:	e1bfff15 	stw	r6,-4(fp)
	usb_packet * new_packet = malloc(sizeof(usb_packet));
 10051cc:	01000404 	movi	r4,16
 10051d0:	10055cc0 	call	10055cc <malloc>
 10051d4:	e0bffc15 	stw	r2,-16(fp)
	assert(new_packet);
 10051d8:	e0bffc17 	ldw	r2,-16(fp)
 10051dc:	1004c03a 	cmpne	r2,r2,zero
 10051e0:	1000081e 	bne	r2,zero,1005204 <usb_fifo_push+0x54>
 10051e4:	01004074 	movhi	r4,257
 10051e8:	210eb904 	addi	r4,r4,15076
 10051ec:	014003c4 	movi	r5,15
 10051f0:	01804074 	movhi	r6,257
 10051f4:	318eb504 	addi	r6,r6,15060
 10051f8:	01c04074 	movhi	r7,257
 10051fc:	39cebd04 	addi	r7,r7,15092
 1005200:	10053cc0 	call	10053cc <__assert_func>
	new_packet->len = len;
 1005204:	e0ffff17 	ldw	r3,-4(fp)
 1005208:	e0bffc17 	ldw	r2,-16(fp)
 100520c:	10c00015 	stw	r3,0(r2)
	new_packet->offset = 0;
 1005210:	e0bffc17 	ldw	r2,-16(fp)
 1005214:	10000115 	stw	zero,4(r2)
	new_packet->data = data;
 1005218:	e0fffc17 	ldw	r3,-16(fp)
 100521c:	e0bffe17 	ldw	r2,-8(fp)
 1005220:	18800215 	stw	r2,8(r3)

	new_packet->next = NULL;
 1005224:	e0bffc17 	ldw	r2,-16(fp)
 1005228:	10000315 	stw	zero,12(r2)
	if (! fifo->head)
 100522c:	e0bffd17 	ldw	r2,-12(fp)
 1005230:	10800017 	ldw	r2,0(r2)
 1005234:	1004c03a 	cmpne	r2,r2,zero
 1005238:	1000031e 	bne	r2,zero,1005248 <usb_fifo_push+0x98>
		fifo->head = new_packet;
 100523c:	e0fffd17 	ldw	r3,-12(fp)
 1005240:	e0bffc17 	ldw	r2,-16(fp)
 1005244:	18800015 	stw	r2,0(r3)
	if (fifo->tail)
 1005248:	e0bffd17 	ldw	r2,-12(fp)
 100524c:	10800117 	ldw	r2,4(r2)
 1005250:	1005003a 	cmpeq	r2,r2,zero
 1005254:	1000041e 	bne	r2,zero,1005268 <usb_fifo_push+0xb8>
		fifo->tail->next = new_packet;
 1005258:	e0bffd17 	ldw	r2,-12(fp)
 100525c:	10c00117 	ldw	r3,4(r2)
 1005260:	e0bffc17 	ldw	r2,-16(fp)
 1005264:	18800315 	stw	r2,12(r3)
	fifo->tail = new_packet;
 1005268:	e0fffd17 	ldw	r3,-12(fp)
 100526c:	e0bffc17 	ldw	r2,-16(fp)
 1005270:	18800115 	stw	r2,4(r3)
}
 1005274:	e037883a 	mov	sp,fp
 1005278:	dfc00117 	ldw	ra,4(sp)
 100527c:	df000017 	ldw	fp,0(sp)
 1005280:	dec00204 	addi	sp,sp,8
 1005284:	f800283a 	ret

01005288 <usb_fifo_is_empty>:

int usb_fifo_is_empty(usb_fifo * fifo) {
 1005288:	defffd04 	addi	sp,sp,-12
 100528c:	df000215 	stw	fp,8(sp)
 1005290:	df000204 	addi	fp,sp,8
 1005294:	e13ffe15 	stw	r4,-8(fp)
	if (fifo->head == NULL)
 1005298:	e0bffe17 	ldw	r2,-8(fp)
 100529c:	10800017 	ldw	r2,0(r2)
 10052a0:	1004c03a 	cmpne	r2,r2,zero
 10052a4:	1000031e 	bne	r2,zero,10052b4 <usb_fifo_is_empty+0x2c>
		return 1;
 10052a8:	00800044 	movi	r2,1
 10052ac:	e0bfff15 	stw	r2,-4(fp)
 10052b0:	00000106 	br	10052b8 <usb_fifo_is_empty+0x30>
	else
		return 0;
 10052b4:	e03fff15 	stw	zero,-4(fp)
 10052b8:	e0bfff17 	ldw	r2,-4(fp)
}
 10052bc:	e037883a 	mov	sp,fp
 10052c0:	df000017 	ldw	fp,0(sp)
 10052c4:	dec00104 	addi	sp,sp,4
 10052c8:	f800283a 	ret

010052cc <usb_fifo_pop>:

void usb_fifo_pop(usb_fifo * fifo, unsigned char ** data, unsigned int * len, unsigned int * offset) {
 10052cc:	defff904 	addi	sp,sp,-28
 10052d0:	dfc00615 	stw	ra,24(sp)
 10052d4:	df000515 	stw	fp,20(sp)
 10052d8:	df000504 	addi	fp,sp,20
 10052dc:	e13ffc15 	stw	r4,-16(fp)
 10052e0:	e17ffd15 	stw	r5,-12(fp)
 10052e4:	e1bffe15 	stw	r6,-8(fp)
 10052e8:	e1ffff15 	stw	r7,-4(fp)
	if (usb_fifo_is_empty(fifo)) {
 10052ec:	e13ffc17 	ldw	r4,-16(fp)
 10052f0:	10052880 	call	1005288 <usb_fifo_is_empty>
 10052f4:	1005003a 	cmpeq	r2,r2,zero
 10052f8:	1000071e 	bne	r2,zero,1005318 <usb_fifo_pop+0x4c>
		*data = NULL;
 10052fc:	e0bffd17 	ldw	r2,-12(fp)
 1005300:	10000015 	stw	zero,0(r2)
		*len = 0;
 1005304:	e0bffe17 	ldw	r2,-8(fp)
 1005308:	10000015 	stw	zero,0(r2)
		*offset = 0;
 100530c:	e0bfff17 	ldw	r2,-4(fp)
 1005310:	10000015 	stw	zero,0(r2)
		return;
 1005314:	00001e06 	br	1005390 <usb_fifo_pop+0xc4>
	}

	usb_packet * packet_removed = fifo->head;
 1005318:	e0bffc17 	ldw	r2,-16(fp)
 100531c:	10800017 	ldw	r2,0(r2)
 1005320:	e0bffb15 	stw	r2,-20(fp)
	fifo->head = fifo->head->next;
 1005324:	e0bffc17 	ldw	r2,-16(fp)
 1005328:	10800017 	ldw	r2,0(r2)
 100532c:	10c00317 	ldw	r3,12(r2)
 1005330:	e0bffc17 	ldw	r2,-16(fp)
 1005334:	10c00015 	stw	r3,0(r2)
	if (! fifo->head)
 1005338:	e0bffc17 	ldw	r2,-16(fp)
 100533c:	10800017 	ldw	r2,0(r2)
 1005340:	1004c03a 	cmpne	r2,r2,zero
 1005344:	1000021e 	bne	r2,zero,1005350 <usb_fifo_pop+0x84>
		fifo->tail = NULL;
 1005348:	e0bffc17 	ldw	r2,-16(fp)
 100534c:	10000115 	stw	zero,4(r2)

	*data = packet_removed->data;
 1005350:	e0bffb17 	ldw	r2,-20(fp)
 1005354:	10c00217 	ldw	r3,8(r2)
 1005358:	e0bffd17 	ldw	r2,-12(fp)
 100535c:	10c00015 	stw	r3,0(r2)
	*len = packet_removed->len;
 1005360:	e0bffb17 	ldw	r2,-20(fp)
 1005364:	10800017 	ldw	r2,0(r2)
 1005368:	1007883a 	mov	r3,r2
 100536c:	e0bffe17 	ldw	r2,-8(fp)
 1005370:	10c00015 	stw	r3,0(r2)
	*offset = packet_removed->offset;
 1005374:	e0bffb17 	ldw	r2,-20(fp)
 1005378:	10800117 	ldw	r2,4(r2)
 100537c:	1007883a 	mov	r3,r2
 1005380:	e0bfff17 	ldw	r2,-4(fp)
 1005384:	10c00015 	stw	r3,0(r2)
	free(packet_removed);
 1005388:	e13ffb17 	ldw	r4,-20(fp)
 100538c:	10055b80 	call	10055b8 <free>

}
 1005390:	e037883a 	mov	sp,fp
 1005394:	dfc00117 	ldw	ra,4(sp)
 1005398:	df000017 	ldw	fp,0(sp)
 100539c:	dec00204 	addi	sp,sp,8
 10053a0:	f800283a 	ret

010053a4 <usb_fifo_peek>:

usb_packet * usb_fifo_peek(usb_fifo * fifo) {
 10053a4:	defffe04 	addi	sp,sp,-8
 10053a8:	df000115 	stw	fp,4(sp)
 10053ac:	df000104 	addi	fp,sp,4
 10053b0:	e13fff15 	stw	r4,-4(fp)
	return fifo->head;
 10053b4:	e0bfff17 	ldw	r2,-4(fp)
 10053b8:	10800017 	ldw	r2,0(r2)
}
 10053bc:	e037883a 	mov	sp,fp
 10053c0:	df000017 	ldw	fp,0(sp)
 10053c4:	dec00104 	addi	sp,sp,4
 10053c8:	f800283a 	ret

010053cc <__assert_func>:
 10053cc:	00804074 	movhi	r2,257
 10053d0:	10974504 	addi	r2,r2,23828
 10053d4:	10c00017 	ldw	r3,0(r2)
 10053d8:	defffc04 	addi	sp,sp,-16
 10053dc:	2011883a 	mov	r8,r4
 10053e0:	dfc00315 	stw	ra,12(sp)
 10053e4:	3005883a 	mov	r2,r6
 10053e8:	2813883a 	mov	r9,r5
 10053ec:	19000317 	ldw	r4,12(r3)
 10053f0:	30000b26 	beq	r6,zero,1005420 <__assert_func+0x54>
 10053f4:	00c04074 	movhi	r3,257
 10053f8:	18cecc04 	addi	r3,r3,15152
 10053fc:	380d883a 	mov	r6,r7
 1005400:	01404074 	movhi	r5,257
 1005404:	294ec004 	addi	r5,r5,15104
 1005408:	400f883a 	mov	r7,r8
 100540c:	da400015 	stw	r9,0(sp)
 1005410:	d8c00115 	stw	r3,4(sp)
 1005414:	d8800215 	stw	r2,8(sp)
 1005418:	100554c0 	call	100554c <fiprintf>
 100541c:	10082c00 	call	10082c0 <abort>
 1005420:	00804074 	movhi	r2,257
 1005424:	108ecf04 	addi	r2,r2,15164
 1005428:	1007883a 	mov	r3,r2
 100542c:	003ff306 	br	10053fc <__assert_func+0x30>

01005430 <__assert>:
 1005430:	deffff04 	addi	sp,sp,-4
 1005434:	300f883a 	mov	r7,r6
 1005438:	000d883a 	mov	r6,zero
 100543c:	dfc00015 	stw	ra,0(sp)
 1005440:	10053cc0 	call	10053cc <__assert_func>

01005444 <calloc>:
 1005444:	01804074 	movhi	r6,257
 1005448:	31974504 	addi	r6,r6,23828
 100544c:	2007883a 	mov	r3,r4
 1005450:	31000017 	ldw	r4,0(r6)
 1005454:	280d883a 	mov	r6,r5
 1005458:	180b883a 	mov	r5,r3
 100545c:	10054601 	jmpi	1005460 <_calloc_r>

01005460 <_calloc_r>:
 1005460:	298b383a 	mul	r5,r5,r6
 1005464:	defffe04 	addi	sp,sp,-8
 1005468:	dc000015 	stw	r16,0(sp)
 100546c:	dfc00115 	stw	ra,4(sp)
 1005470:	10055e00 	call	10055e0 <_malloc_r>
 1005474:	1021883a 	mov	r16,r2
 1005478:	01c00904 	movi	r7,36
 100547c:	10000d26 	beq	r2,zero,10054b4 <_calloc_r+0x54>
 1005480:	10ffff17 	ldw	r3,-4(r2)
 1005484:	1009883a 	mov	r4,r2
 1005488:	00bfff04 	movi	r2,-4
 100548c:	1886703a 	and	r3,r3,r2
 1005490:	1887883a 	add	r3,r3,r2
 1005494:	180d883a 	mov	r6,r3
 1005498:	000b883a 	mov	r5,zero
 100549c:	38c01736 	bltu	r7,r3,10054fc <_calloc_r+0x9c>
 10054a0:	008004c4 	movi	r2,19
 10054a4:	10c00836 	bltu	r2,r3,10054c8 <_calloc_r+0x68>
 10054a8:	20000215 	stw	zero,8(r4)
 10054ac:	20000015 	stw	zero,0(r4)
 10054b0:	20000115 	stw	zero,4(r4)
 10054b4:	8005883a 	mov	r2,r16
 10054b8:	dfc00117 	ldw	ra,4(sp)
 10054bc:	dc000017 	ldw	r16,0(sp)
 10054c0:	dec00204 	addi	sp,sp,8
 10054c4:	f800283a 	ret
 10054c8:	008006c4 	movi	r2,27
 10054cc:	80000015 	stw	zero,0(r16)
 10054d0:	80000115 	stw	zero,4(r16)
 10054d4:	81000204 	addi	r4,r16,8
 10054d8:	10fff32e 	bgeu	r2,r3,10054a8 <_calloc_r+0x48>
 10054dc:	80000215 	stw	zero,8(r16)
 10054e0:	80000315 	stw	zero,12(r16)
 10054e4:	81000404 	addi	r4,r16,16
 10054e8:	19ffef1e 	bne	r3,r7,10054a8 <_calloc_r+0x48>
 10054ec:	81000604 	addi	r4,r16,24
 10054f0:	80000415 	stw	zero,16(r16)
 10054f4:	80000515 	stw	zero,20(r16)
 10054f8:	003feb06 	br	10054a8 <_calloc_r+0x48>
 10054fc:	1005dc00 	call	1005dc0 <memset>
 1005500:	8005883a 	mov	r2,r16
 1005504:	dfc00117 	ldw	ra,4(sp)
 1005508:	dc000017 	ldw	r16,0(sp)
 100550c:	dec00204 	addi	sp,sp,8
 1005510:	f800283a 	ret

01005514 <exit>:
 1005514:	defffe04 	addi	sp,sp,-8
 1005518:	000b883a 	mov	r5,zero
 100551c:	dc000015 	stw	r16,0(sp)
 1005520:	dfc00115 	stw	ra,4(sp)
 1005524:	2021883a 	mov	r16,r4
 1005528:	10081100 	call	1008110 <__call_exitprocs>
 100552c:	00804074 	movhi	r2,257
 1005530:	10974604 	addi	r2,r2,23832
 1005534:	11000017 	ldw	r4,0(r2)
 1005538:	20800f17 	ldw	r2,60(r4)
 100553c:	10000126 	beq	r2,zero,1005544 <exit+0x30>
 1005540:	103ee83a 	callr	r2
 1005544:	8009883a 	mov	r4,r16
 1005548:	10107ec0 	call	10107ec <_exit>

0100554c <fiprintf>:
 100554c:	defffc04 	addi	sp,sp,-16
 1005550:	2007883a 	mov	r3,r4
 1005554:	dfc00115 	stw	ra,4(sp)
 1005558:	d9800215 	stw	r6,8(sp)
 100555c:	d9c00315 	stw	r7,12(sp)
 1005560:	01804074 	movhi	r6,257
 1005564:	31974504 	addi	r6,r6,23828
 1005568:	31000017 	ldw	r4,0(r6)
 100556c:	d8800204 	addi	r2,sp,8
 1005570:	280d883a 	mov	r6,r5
 1005574:	100f883a 	mov	r7,r2
 1005578:	180b883a 	mov	r5,r3
 100557c:	d8800015 	stw	r2,0(sp)
 1005580:	100608c0 	call	100608c <_vfiprintf_r>
 1005584:	dfc00117 	ldw	ra,4(sp)
 1005588:	dec00404 	addi	sp,sp,16
 100558c:	f800283a 	ret

01005590 <_fiprintf_r>:
 1005590:	defffd04 	addi	sp,sp,-12
 1005594:	dfc00115 	stw	ra,4(sp)
 1005598:	d9c00215 	stw	r7,8(sp)
 100559c:	d8800204 	addi	r2,sp,8
 10055a0:	100f883a 	mov	r7,r2
 10055a4:	d8800015 	stw	r2,0(sp)
 10055a8:	100608c0 	call	100608c <_vfiprintf_r>
 10055ac:	dfc00117 	ldw	ra,4(sp)
 10055b0:	dec00304 	addi	sp,sp,12
 10055b4:	f800283a 	ret

010055b8 <free>:
 10055b8:	00804074 	movhi	r2,257
 10055bc:	10974504 	addi	r2,r2,23828
 10055c0:	200b883a 	mov	r5,r4
 10055c4:	11000017 	ldw	r4,0(r2)
 10055c8:	100a0c01 	jmpi	100a0c0 <_free_r>

010055cc <malloc>:
 10055cc:	00804074 	movhi	r2,257
 10055d0:	10974504 	addi	r2,r2,23828
 10055d4:	200b883a 	mov	r5,r4
 10055d8:	11000017 	ldw	r4,0(r2)
 10055dc:	10055e01 	jmpi	10055e0 <_malloc_r>

010055e0 <_malloc_r>:
 10055e0:	defff604 	addi	sp,sp,-40
 10055e4:	28c002c4 	addi	r3,r5,11
 10055e8:	00800584 	movi	r2,22
 10055ec:	dc800215 	stw	r18,8(sp)
 10055f0:	dfc00915 	stw	ra,36(sp)
 10055f4:	df000815 	stw	fp,32(sp)
 10055f8:	ddc00715 	stw	r23,28(sp)
 10055fc:	dd800615 	stw	r22,24(sp)
 1005600:	dd400515 	stw	r21,20(sp)
 1005604:	dd000415 	stw	r20,16(sp)
 1005608:	dcc00315 	stw	r19,12(sp)
 100560c:	dc400115 	stw	r17,4(sp)
 1005610:	dc000015 	stw	r16,0(sp)
 1005614:	2025883a 	mov	r18,r4
 1005618:	10c01236 	bltu	r2,r3,1005664 <_malloc_r+0x84>
 100561c:	04400404 	movi	r17,16
 1005620:	8940142e 	bgeu	r17,r5,1005674 <_malloc_r+0x94>
 1005624:	00800304 	movi	r2,12
 1005628:	0007883a 	mov	r3,zero
 100562c:	90800015 	stw	r2,0(r18)
 1005630:	1805883a 	mov	r2,r3
 1005634:	dfc00917 	ldw	ra,36(sp)
 1005638:	df000817 	ldw	fp,32(sp)
 100563c:	ddc00717 	ldw	r23,28(sp)
 1005640:	dd800617 	ldw	r22,24(sp)
 1005644:	dd400517 	ldw	r21,20(sp)
 1005648:	dd000417 	ldw	r20,16(sp)
 100564c:	dcc00317 	ldw	r19,12(sp)
 1005650:	dc800217 	ldw	r18,8(sp)
 1005654:	dc400117 	ldw	r17,4(sp)
 1005658:	dc000017 	ldw	r16,0(sp)
 100565c:	dec00a04 	addi	sp,sp,40
 1005660:	f800283a 	ret
 1005664:	00bffe04 	movi	r2,-8
 1005668:	18a2703a 	and	r17,r3,r2
 100566c:	883fed16 	blt	r17,zero,1005624 <_malloc_r+0x44>
 1005670:	897fec36 	bltu	r17,r5,1005624 <_malloc_r+0x44>
 1005674:	9009883a 	mov	r4,r18
 1005678:	10110880 	call	1011088 <__malloc_lock>
 100567c:	00807dc4 	movi	r2,503
 1005680:	14402b2e 	bgeu	r2,r17,1005730 <_malloc_r+0x150>
 1005684:	8806d27a 	srli	r3,r17,9
 1005688:	18003f1e 	bne	r3,zero,1005788 <_malloc_r+0x1a8>
 100568c:	880cd0fa 	srli	r6,r17,3
 1005690:	300490fa 	slli	r2,r6,3
 1005694:	02c04074 	movhi	r11,257
 1005698:	5ad17604 	addi	r11,r11,17880
 100569c:	12cb883a 	add	r5,r2,r11
 10056a0:	2c000317 	ldw	r16,12(r5)
 10056a4:	580f883a 	mov	r7,r11
 10056a8:	2c00041e 	bne	r5,r16,10056bc <_malloc_r+0xdc>
 10056ac:	00000a06 	br	10056d8 <_malloc_r+0xf8>
 10056b0:	1800860e 	bge	r3,zero,10058cc <_malloc_r+0x2ec>
 10056b4:	84000317 	ldw	r16,12(r16)
 10056b8:	2c000726 	beq	r5,r16,10056d8 <_malloc_r+0xf8>
 10056bc:	80800117 	ldw	r2,4(r16)
 10056c0:	00ffff04 	movi	r3,-4
 10056c4:	10c8703a 	and	r4,r2,r3
 10056c8:	2447c83a 	sub	r3,r4,r17
 10056cc:	008003c4 	movi	r2,15
 10056d0:	10fff70e 	bge	r2,r3,10056b0 <_malloc_r+0xd0>
 10056d4:	31bfffc4 	addi	r6,r6,-1
 10056d8:	32400044 	addi	r9,r6,1
 10056dc:	02804074 	movhi	r10,257
 10056e0:	52917804 	addi	r10,r10,17888
 10056e4:	54000217 	ldw	r16,8(r10)
 10056e8:	8280a026 	beq	r16,r10,100596c <_malloc_r+0x38c>
 10056ec:	80800117 	ldw	r2,4(r16)
 10056f0:	00ffff04 	movi	r3,-4
 10056f4:	10ca703a 	and	r5,r2,r3
 10056f8:	2c4dc83a 	sub	r6,r5,r17
 10056fc:	008003c4 	movi	r2,15
 1005700:	11808316 	blt	r2,r6,1005910 <_malloc_r+0x330>
 1005704:	52800315 	stw	r10,12(r10)
 1005708:	52800215 	stw	r10,8(r10)
 100570c:	30002916 	blt	r6,zero,10057b4 <_malloc_r+0x1d4>
 1005710:	8147883a 	add	r3,r16,r5
 1005714:	18800117 	ldw	r2,4(r3)
 1005718:	9009883a 	mov	r4,r18
 100571c:	10800054 	ori	r2,r2,1
 1005720:	18800115 	stw	r2,4(r3)
 1005724:	10110a80 	call	10110a8 <__malloc_unlock>
 1005728:	80c00204 	addi	r3,r16,8
 100572c:	003fc006 	br	1005630 <_malloc_r+0x50>
 1005730:	02c04074 	movhi	r11,257
 1005734:	5ad17604 	addi	r11,r11,17880
 1005738:	8ac5883a 	add	r2,r17,r11
 100573c:	14000317 	ldw	r16,12(r2)
 1005740:	580f883a 	mov	r7,r11
 1005744:	8806d0fa 	srli	r3,r17,3
 1005748:	14006c26 	beq	r2,r16,10058fc <_malloc_r+0x31c>
 100574c:	80c00117 	ldw	r3,4(r16)
 1005750:	00bfff04 	movi	r2,-4
 1005754:	81800317 	ldw	r6,12(r16)
 1005758:	1886703a 	and	r3,r3,r2
 100575c:	80c7883a 	add	r3,r16,r3
 1005760:	18800117 	ldw	r2,4(r3)
 1005764:	81400217 	ldw	r5,8(r16)
 1005768:	9009883a 	mov	r4,r18
 100576c:	10800054 	ori	r2,r2,1
 1005770:	18800115 	stw	r2,4(r3)
 1005774:	31400215 	stw	r5,8(r6)
 1005778:	29800315 	stw	r6,12(r5)
 100577c:	10110a80 	call	10110a8 <__malloc_unlock>
 1005780:	80c00204 	addi	r3,r16,8
 1005784:	003faa06 	br	1005630 <_malloc_r+0x50>
 1005788:	00800104 	movi	r2,4
 100578c:	10c0052e 	bgeu	r2,r3,10057a4 <_malloc_r+0x1c4>
 1005790:	00800504 	movi	r2,20
 1005794:	10c07836 	bltu	r2,r3,1005978 <_malloc_r+0x398>
 1005798:	198016c4 	addi	r6,r3,91
 100579c:	300490fa 	slli	r2,r6,3
 10057a0:	003fbc06 	br	1005694 <_malloc_r+0xb4>
 10057a4:	8804d1ba 	srli	r2,r17,6
 10057a8:	11800e04 	addi	r6,r2,56
 10057ac:	300490fa 	slli	r2,r6,3
 10057b0:	003fb806 	br	1005694 <_malloc_r+0xb4>
 10057b4:	00807fc4 	movi	r2,511
 10057b8:	1140bb36 	bltu	r2,r5,1005aa8 <_malloc_r+0x4c8>
 10057bc:	2806d0fa 	srli	r3,r5,3
 10057c0:	573ffe04 	addi	fp,r10,-8
 10057c4:	00800044 	movi	r2,1
 10057c8:	180890fa 	slli	r4,r3,3
 10057cc:	1807d0ba 	srai	r3,r3,2
 10057d0:	e1c00117 	ldw	r7,4(fp)
 10057d4:	5909883a 	add	r4,r11,r4
 10057d8:	21400217 	ldw	r5,8(r4)
 10057dc:	10c4983a 	sll	r2,r2,r3
 10057e0:	81000315 	stw	r4,12(r16)
 10057e4:	81400215 	stw	r5,8(r16)
 10057e8:	388eb03a 	or	r7,r7,r2
 10057ec:	2c000315 	stw	r16,12(r5)
 10057f0:	24000215 	stw	r16,8(r4)
 10057f4:	e1c00115 	stw	r7,4(fp)
 10057f8:	4807883a 	mov	r3,r9
 10057fc:	4800cd16 	blt	r9,zero,1005b34 <_malloc_r+0x554>
 1005800:	1807d0ba 	srai	r3,r3,2
 1005804:	00800044 	movi	r2,1
 1005808:	10c8983a 	sll	r4,r2,r3
 100580c:	39004436 	bltu	r7,r4,1005920 <_malloc_r+0x340>
 1005810:	21c4703a 	and	r2,r4,r7
 1005814:	10000a1e 	bne	r2,zero,1005840 <_malloc_r+0x260>
 1005818:	2109883a 	add	r4,r4,r4
 100581c:	00bfff04 	movi	r2,-4
 1005820:	4884703a 	and	r2,r9,r2
 1005824:	3906703a 	and	r3,r7,r4
 1005828:	12400104 	addi	r9,r2,4
 100582c:	1800041e 	bne	r3,zero,1005840 <_malloc_r+0x260>
 1005830:	2109883a 	add	r4,r4,r4
 1005834:	3904703a 	and	r2,r7,r4
 1005838:	4a400104 	addi	r9,r9,4
 100583c:	103ffc26 	beq	r2,zero,1005830 <_malloc_r+0x250>
 1005840:	480490fa 	slli	r2,r9,3
 1005844:	4819883a 	mov	r12,r9
 1005848:	023fff04 	movi	r8,-4
 100584c:	589b883a 	add	r13,r11,r2
 1005850:	6807883a 	mov	r3,r13
 1005854:	014003c4 	movi	r5,15
 1005858:	1c000317 	ldw	r16,12(r3)
 100585c:	1c00041e 	bne	r3,r16,1005870 <_malloc_r+0x290>
 1005860:	0000a706 	br	1005b00 <_malloc_r+0x520>
 1005864:	3000ab0e 	bge	r6,zero,1005b14 <_malloc_r+0x534>
 1005868:	84000317 	ldw	r16,12(r16)
 100586c:	1c00a426 	beq	r3,r16,1005b00 <_malloc_r+0x520>
 1005870:	80800117 	ldw	r2,4(r16)
 1005874:	1204703a 	and	r2,r2,r8
 1005878:	144dc83a 	sub	r6,r2,r17
 100587c:	29bff90e 	bge	r5,r6,1005864 <_malloc_r+0x284>
 1005880:	81000317 	ldw	r4,12(r16)
 1005884:	80c00217 	ldw	r3,8(r16)
 1005888:	89400054 	ori	r5,r17,1
 100588c:	8445883a 	add	r2,r16,r17
 1005890:	20c00215 	stw	r3,8(r4)
 1005894:	19000315 	stw	r4,12(r3)
 1005898:	81400115 	stw	r5,4(r16)
 100589c:	1187883a 	add	r3,r2,r6
 10058a0:	31000054 	ori	r4,r6,1
 10058a4:	50800315 	stw	r2,12(r10)
 10058a8:	50800215 	stw	r2,8(r10)
 10058ac:	19800015 	stw	r6,0(r3)
 10058b0:	11000115 	stw	r4,4(r2)
 10058b4:	12800215 	stw	r10,8(r2)
 10058b8:	12800315 	stw	r10,12(r2)
 10058bc:	9009883a 	mov	r4,r18
 10058c0:	10110a80 	call	10110a8 <__malloc_unlock>
 10058c4:	80c00204 	addi	r3,r16,8
 10058c8:	003f5906 	br	1005630 <_malloc_r+0x50>
 10058cc:	8109883a 	add	r4,r16,r4
 10058d0:	20800117 	ldw	r2,4(r4)
 10058d4:	80c00217 	ldw	r3,8(r16)
 10058d8:	81400317 	ldw	r5,12(r16)
 10058dc:	10800054 	ori	r2,r2,1
 10058e0:	20800115 	stw	r2,4(r4)
 10058e4:	28c00215 	stw	r3,8(r5)
 10058e8:	19400315 	stw	r5,12(r3)
 10058ec:	9009883a 	mov	r4,r18
 10058f0:	10110a80 	call	10110a8 <__malloc_unlock>
 10058f4:	80c00204 	addi	r3,r16,8
 10058f8:	003f4d06 	br	1005630 <_malloc_r+0x50>
 10058fc:	80800204 	addi	r2,r16,8
 1005900:	14000317 	ldw	r16,12(r2)
 1005904:	143f911e 	bne	r2,r16,100574c <_malloc_r+0x16c>
 1005908:	1a400084 	addi	r9,r3,2
 100590c:	003f7306 	br	10056dc <_malloc_r+0xfc>
 1005910:	88c00054 	ori	r3,r17,1
 1005914:	8445883a 	add	r2,r16,r17
 1005918:	80c00115 	stw	r3,4(r16)
 100591c:	003fdf06 	br	100589c <_malloc_r+0x2bc>
 1005920:	e4000217 	ldw	r16,8(fp)
 1005924:	00bfff04 	movi	r2,-4
 1005928:	80c00117 	ldw	r3,4(r16)
 100592c:	802d883a 	mov	r22,r16
 1005930:	18aa703a 	and	r21,r3,r2
 1005934:	ac401636 	bltu	r21,r17,1005990 <_malloc_r+0x3b0>
 1005938:	ac49c83a 	sub	r4,r21,r17
 100593c:	008003c4 	movi	r2,15
 1005940:	1100130e 	bge	r2,r4,1005990 <_malloc_r+0x3b0>
 1005944:	88800054 	ori	r2,r17,1
 1005948:	8447883a 	add	r3,r16,r17
 100594c:	80800115 	stw	r2,4(r16)
 1005950:	20800054 	ori	r2,r4,1
 1005954:	18800115 	stw	r2,4(r3)
 1005958:	e0c00215 	stw	r3,8(fp)
 100595c:	9009883a 	mov	r4,r18
 1005960:	10110a80 	call	10110a8 <__malloc_unlock>
 1005964:	80c00204 	addi	r3,r16,8
 1005968:	003f3106 	br	1005630 <_malloc_r+0x50>
 100596c:	39c00117 	ldw	r7,4(r7)
 1005970:	573ffe04 	addi	fp,r10,-8
 1005974:	003fa006 	br	10057f8 <_malloc_r+0x218>
 1005978:	00801504 	movi	r2,84
 100597c:	10c06736 	bltu	r2,r3,1005b1c <_malloc_r+0x53c>
 1005980:	8804d33a 	srli	r2,r17,12
 1005984:	11801b84 	addi	r6,r2,110
 1005988:	300490fa 	slli	r2,r6,3
 100598c:	003f4106 	br	1005694 <_malloc_r+0xb4>
 1005990:	d0a7bb17 	ldw	r2,-24852(gp)
 1005994:	d0e01017 	ldw	r3,-32704(gp)
 1005998:	053fffc4 	movi	r20,-1
 100599c:	10800404 	addi	r2,r2,16
 10059a0:	88a7883a 	add	r19,r17,r2
 10059a4:	1d000326 	beq	r3,r20,10059b4 <_malloc_r+0x3d4>
 10059a8:	98c3ffc4 	addi	r3,r19,4095
 10059ac:	00bc0004 	movi	r2,-4096
 10059b0:	18a6703a 	and	r19,r3,r2
 10059b4:	9009883a 	mov	r4,r18
 10059b8:	980b883a 	mov	r5,r19
 10059bc:	1005fa80 	call	1005fa8 <_sbrk_r>
 10059c0:	1009883a 	mov	r4,r2
 10059c4:	15000426 	beq	r2,r20,10059d8 <_malloc_r+0x3f8>
 10059c8:	854b883a 	add	r5,r16,r21
 10059cc:	1029883a 	mov	r20,r2
 10059d0:	11405a2e 	bgeu	r2,r5,1005b3c <_malloc_r+0x55c>
 10059d4:	87000c26 	beq	r16,fp,1005a08 <_malloc_r+0x428>
 10059d8:	e4000217 	ldw	r16,8(fp)
 10059dc:	80c00117 	ldw	r3,4(r16)
 10059e0:	00bfff04 	movi	r2,-4
 10059e4:	1884703a 	and	r2,r3,r2
 10059e8:	14400336 	bltu	r2,r17,10059f8 <_malloc_r+0x418>
 10059ec:	1449c83a 	sub	r4,r2,r17
 10059f0:	008003c4 	movi	r2,15
 10059f4:	113fd316 	blt	r2,r4,1005944 <_malloc_r+0x364>
 10059f8:	9009883a 	mov	r4,r18
 10059fc:	10110a80 	call	10110a8 <__malloc_unlock>
 1005a00:	0007883a 	mov	r3,zero
 1005a04:	003f0a06 	br	1005630 <_malloc_r+0x50>
 1005a08:	05c04074 	movhi	r23,257
 1005a0c:	bddf0204 	addi	r23,r23,31752
 1005a10:	b8800017 	ldw	r2,0(r23)
 1005a14:	988d883a 	add	r6,r19,r2
 1005a18:	b9800015 	stw	r6,0(r23)
 1005a1c:	d0e01017 	ldw	r3,-32704(gp)
 1005a20:	00bfffc4 	movi	r2,-1
 1005a24:	18808e26 	beq	r3,r2,1005c60 <_malloc_r+0x680>
 1005a28:	2145c83a 	sub	r2,r4,r5
 1005a2c:	3085883a 	add	r2,r6,r2
 1005a30:	b8800015 	stw	r2,0(r23)
 1005a34:	20c001cc 	andi	r3,r4,7
 1005a38:	18005f1e 	bne	r3,zero,1005bb8 <_malloc_r+0x5d8>
 1005a3c:	000b883a 	mov	r5,zero
 1005a40:	a4c5883a 	add	r2,r20,r19
 1005a44:	1083ffcc 	andi	r2,r2,4095
 1005a48:	00c40004 	movi	r3,4096
 1005a4c:	1887c83a 	sub	r3,r3,r2
 1005a50:	28e7883a 	add	r19,r5,r3
 1005a54:	9009883a 	mov	r4,r18
 1005a58:	980b883a 	mov	r5,r19
 1005a5c:	1005fa80 	call	1005fa8 <_sbrk_r>
 1005a60:	1007883a 	mov	r3,r2
 1005a64:	00bfffc4 	movi	r2,-1
 1005a68:	18807a26 	beq	r3,r2,1005c54 <_malloc_r+0x674>
 1005a6c:	1d05c83a 	sub	r2,r3,r20
 1005a70:	9885883a 	add	r2,r19,r2
 1005a74:	10c00054 	ori	r3,r2,1
 1005a78:	b8800017 	ldw	r2,0(r23)
 1005a7c:	a021883a 	mov	r16,r20
 1005a80:	a0c00115 	stw	r3,4(r20)
 1005a84:	9885883a 	add	r2,r19,r2
 1005a88:	b8800015 	stw	r2,0(r23)
 1005a8c:	e5000215 	stw	r20,8(fp)
 1005a90:	b7003626 	beq	r22,fp,1005b6c <_malloc_r+0x58c>
 1005a94:	018003c4 	movi	r6,15
 1005a98:	35404b36 	bltu	r6,r21,1005bc8 <_malloc_r+0x5e8>
 1005a9c:	00800044 	movi	r2,1
 1005aa0:	a0800115 	stw	r2,4(r20)
 1005aa4:	003fcd06 	br	10059dc <_malloc_r+0x3fc>
 1005aa8:	2808d27a 	srli	r4,r5,9
 1005aac:	2000371e 	bne	r4,zero,1005b8c <_malloc_r+0x5ac>
 1005ab0:	2808d0fa 	srli	r4,r5,3
 1005ab4:	200690fa 	slli	r3,r4,3
 1005ab8:	1ad1883a 	add	r8,r3,r11
 1005abc:	41800217 	ldw	r6,8(r8)
 1005ac0:	41805b26 	beq	r8,r6,1005c30 <_malloc_r+0x650>
 1005ac4:	30800117 	ldw	r2,4(r6)
 1005ac8:	00ffff04 	movi	r3,-4
 1005acc:	10c4703a 	and	r2,r2,r3
 1005ad0:	2880022e 	bgeu	r5,r2,1005adc <_malloc_r+0x4fc>
 1005ad4:	31800217 	ldw	r6,8(r6)
 1005ad8:	41bffa1e 	bne	r8,r6,1005ac4 <_malloc_r+0x4e4>
 1005adc:	32000317 	ldw	r8,12(r6)
 1005ae0:	39c00117 	ldw	r7,4(r7)
 1005ae4:	82000315 	stw	r8,12(r16)
 1005ae8:	81800215 	stw	r6,8(r16)
 1005aec:	07004074 	movhi	fp,257
 1005af0:	e7117604 	addi	fp,fp,17880
 1005af4:	34000315 	stw	r16,12(r6)
 1005af8:	44000215 	stw	r16,8(r8)
 1005afc:	003f3e06 	br	10057f8 <_malloc_r+0x218>
 1005b00:	63000044 	addi	r12,r12,1
 1005b04:	608000cc 	andi	r2,r12,3
 1005b08:	10005d26 	beq	r2,zero,1005c80 <_malloc_r+0x6a0>
 1005b0c:	18c00204 	addi	r3,r3,8
 1005b10:	003f5106 	br	1005858 <_malloc_r+0x278>
 1005b14:	8089883a 	add	r4,r16,r2
 1005b18:	003f6d06 	br	10058d0 <_malloc_r+0x2f0>
 1005b1c:	00805504 	movi	r2,340
 1005b20:	10c02036 	bltu	r2,r3,1005ba4 <_malloc_r+0x5c4>
 1005b24:	8804d3fa 	srli	r2,r17,15
 1005b28:	11801dc4 	addi	r6,r2,119
 1005b2c:	300490fa 	slli	r2,r6,3
 1005b30:	003ed806 	br	1005694 <_malloc_r+0xb4>
 1005b34:	48c000c4 	addi	r3,r9,3
 1005b38:	003f3106 	br	1005800 <_malloc_r+0x220>
 1005b3c:	05c04074 	movhi	r23,257
 1005b40:	bddf0204 	addi	r23,r23,31752
 1005b44:	b8800017 	ldw	r2,0(r23)
 1005b48:	988d883a 	add	r6,r19,r2
 1005b4c:	b9800015 	stw	r6,0(r23)
 1005b50:	293fb21e 	bne	r5,r4,1005a1c <_malloc_r+0x43c>
 1005b54:	2083ffcc 	andi	r2,r4,4095
 1005b58:	103fb01e 	bne	r2,zero,1005a1c <_malloc_r+0x43c>
 1005b5c:	e4000217 	ldw	r16,8(fp)
 1005b60:	9d45883a 	add	r2,r19,r21
 1005b64:	10800054 	ori	r2,r2,1
 1005b68:	80800115 	stw	r2,4(r16)
 1005b6c:	b8c00017 	ldw	r3,0(r23)
 1005b70:	d0a7bc17 	ldw	r2,-24848(gp)
 1005b74:	10c0012e 	bgeu	r2,r3,1005b7c <_malloc_r+0x59c>
 1005b78:	d0e7bc15 	stw	r3,-24848(gp)
 1005b7c:	d0a7bd17 	ldw	r2,-24844(gp)
 1005b80:	10ff962e 	bgeu	r2,r3,10059dc <_malloc_r+0x3fc>
 1005b84:	d0e7bd15 	stw	r3,-24844(gp)
 1005b88:	003f9406 	br	10059dc <_malloc_r+0x3fc>
 1005b8c:	00800104 	movi	r2,4
 1005b90:	11001e36 	bltu	r2,r4,1005c0c <_malloc_r+0x62c>
 1005b94:	2804d1ba 	srli	r2,r5,6
 1005b98:	11000e04 	addi	r4,r2,56
 1005b9c:	200690fa 	slli	r3,r4,3
 1005ba0:	003fc506 	br	1005ab8 <_malloc_r+0x4d8>
 1005ba4:	00815504 	movi	r2,1364
 1005ba8:	10c01d2e 	bgeu	r2,r3,1005c20 <_malloc_r+0x640>
 1005bac:	01801f84 	movi	r6,126
 1005bb0:	0080fc04 	movi	r2,1008
 1005bb4:	003eb706 	br	1005694 <_malloc_r+0xb4>
 1005bb8:	00800204 	movi	r2,8
 1005bbc:	10cbc83a 	sub	r5,r2,r3
 1005bc0:	2169883a 	add	r20,r4,r5
 1005bc4:	003f9e06 	br	1005a40 <_malloc_r+0x460>
 1005bc8:	00bffe04 	movi	r2,-8
 1005bcc:	a93ffd04 	addi	r4,r21,-12
 1005bd0:	2088703a 	and	r4,r4,r2
 1005bd4:	b10b883a 	add	r5,r22,r4
 1005bd8:	00c00144 	movi	r3,5
 1005bdc:	28c00215 	stw	r3,8(r5)
 1005be0:	28c00115 	stw	r3,4(r5)
 1005be4:	b0800117 	ldw	r2,4(r22)
 1005be8:	1080004c 	andi	r2,r2,1
 1005bec:	2084b03a 	or	r2,r4,r2
 1005bf0:	b0800115 	stw	r2,4(r22)
 1005bf4:	313fdd2e 	bgeu	r6,r4,1005b6c <_malloc_r+0x58c>
 1005bf8:	b1400204 	addi	r5,r22,8
 1005bfc:	9009883a 	mov	r4,r18
 1005c00:	100a0c00 	call	100a0c0 <_free_r>
 1005c04:	e4000217 	ldw	r16,8(fp)
 1005c08:	003fd806 	br	1005b6c <_malloc_r+0x58c>
 1005c0c:	00800504 	movi	r2,20
 1005c10:	11001536 	bltu	r2,r4,1005c68 <_malloc_r+0x688>
 1005c14:	210016c4 	addi	r4,r4,91
 1005c18:	200690fa 	slli	r3,r4,3
 1005c1c:	003fa606 	br	1005ab8 <_malloc_r+0x4d8>
 1005c20:	8804d4ba 	srli	r2,r17,18
 1005c24:	11801f04 	addi	r6,r2,124
 1005c28:	300490fa 	slli	r2,r6,3
 1005c2c:	003e9906 	br	1005694 <_malloc_r+0xb4>
 1005c30:	2009d0ba 	srai	r4,r4,2
 1005c34:	01404074 	movhi	r5,257
 1005c38:	29517604 	addi	r5,r5,17880
 1005c3c:	00c00044 	movi	r3,1
 1005c40:	28800117 	ldw	r2,4(r5)
 1005c44:	1906983a 	sll	r3,r3,r4
 1005c48:	10c4b03a 	or	r2,r2,r3
 1005c4c:	28800115 	stw	r2,4(r5)
 1005c50:	003fa306 	br	1005ae0 <_malloc_r+0x500>
 1005c54:	0027883a 	mov	r19,zero
 1005c58:	00c00044 	movi	r3,1
 1005c5c:	003f8606 	br	1005a78 <_malloc_r+0x498>
 1005c60:	d1201015 	stw	r4,-32704(gp)
 1005c64:	003f7306 	br	1005a34 <_malloc_r+0x454>
 1005c68:	00801504 	movi	r2,84
 1005c6c:	11001936 	bltu	r2,r4,1005cd4 <_malloc_r+0x6f4>
 1005c70:	2804d33a 	srli	r2,r5,12
 1005c74:	11001b84 	addi	r4,r2,110
 1005c78:	200690fa 	slli	r3,r4,3
 1005c7c:	003f8e06 	br	1005ab8 <_malloc_r+0x4d8>
 1005c80:	480b883a 	mov	r5,r9
 1005c84:	6807883a 	mov	r3,r13
 1005c88:	288000cc 	andi	r2,r5,3
 1005c8c:	18fffe04 	addi	r3,r3,-8
 1005c90:	297fffc4 	addi	r5,r5,-1
 1005c94:	10001526 	beq	r2,zero,1005cec <_malloc_r+0x70c>
 1005c98:	18800217 	ldw	r2,8(r3)
 1005c9c:	10fffa26 	beq	r2,r3,1005c88 <_malloc_r+0x6a8>
 1005ca0:	2109883a 	add	r4,r4,r4
 1005ca4:	393f1e36 	bltu	r7,r4,1005920 <_malloc_r+0x340>
 1005ca8:	203f1d26 	beq	r4,zero,1005920 <_malloc_r+0x340>
 1005cac:	21c4703a 	and	r2,r4,r7
 1005cb0:	10000226 	beq	r2,zero,1005cbc <_malloc_r+0x6dc>
 1005cb4:	6013883a 	mov	r9,r12
 1005cb8:	003ee106 	br	1005840 <_malloc_r+0x260>
 1005cbc:	2109883a 	add	r4,r4,r4
 1005cc0:	3904703a 	and	r2,r7,r4
 1005cc4:	63000104 	addi	r12,r12,4
 1005cc8:	103ffc26 	beq	r2,zero,1005cbc <_malloc_r+0x6dc>
 1005ccc:	6013883a 	mov	r9,r12
 1005cd0:	003edb06 	br	1005840 <_malloc_r+0x260>
 1005cd4:	00805504 	movi	r2,340
 1005cd8:	11000836 	bltu	r2,r4,1005cfc <_malloc_r+0x71c>
 1005cdc:	2804d3fa 	srli	r2,r5,15
 1005ce0:	11001dc4 	addi	r4,r2,119
 1005ce4:	200690fa 	slli	r3,r4,3
 1005ce8:	003f7306 	br	1005ab8 <_malloc_r+0x4d8>
 1005cec:	0104303a 	nor	r2,zero,r4
 1005cf0:	388e703a 	and	r7,r7,r2
 1005cf4:	e1c00115 	stw	r7,4(fp)
 1005cf8:	003fe906 	br	1005ca0 <_malloc_r+0x6c0>
 1005cfc:	00815504 	movi	r2,1364
 1005d00:	1100032e 	bgeu	r2,r4,1005d10 <_malloc_r+0x730>
 1005d04:	01001f84 	movi	r4,126
 1005d08:	00c0fc04 	movi	r3,1008
 1005d0c:	003f6a06 	br	1005ab8 <_malloc_r+0x4d8>
 1005d10:	2804d4ba 	srli	r2,r5,18
 1005d14:	11001f04 	addi	r4,r2,124
 1005d18:	200690fa 	slli	r3,r4,3
 1005d1c:	003f6606 	br	1005ab8 <_malloc_r+0x4d8>

01005d20 <memcpy>:
 1005d20:	01c003c4 	movi	r7,15
 1005d24:	2007883a 	mov	r3,r4
 1005d28:	3980032e 	bgeu	r7,r6,1005d38 <memcpy+0x18>
 1005d2c:	2904b03a 	or	r2,r5,r4
 1005d30:	108000cc 	andi	r2,r2,3
 1005d34:	10000926 	beq	r2,zero,1005d5c <memcpy+0x3c>
 1005d38:	30000626 	beq	r6,zero,1005d54 <memcpy+0x34>
 1005d3c:	30cd883a 	add	r6,r6,r3
 1005d40:	28800003 	ldbu	r2,0(r5)
 1005d44:	29400044 	addi	r5,r5,1
 1005d48:	18800005 	stb	r2,0(r3)
 1005d4c:	18c00044 	addi	r3,r3,1
 1005d50:	30fffb1e 	bne	r6,r3,1005d40 <memcpy+0x20>
 1005d54:	2005883a 	mov	r2,r4
 1005d58:	f800283a 	ret
 1005d5c:	3811883a 	mov	r8,r7
 1005d60:	200f883a 	mov	r7,r4
 1005d64:	28c00017 	ldw	r3,0(r5)
 1005d68:	31bffc04 	addi	r6,r6,-16
 1005d6c:	38c00015 	stw	r3,0(r7)
 1005d70:	28800117 	ldw	r2,4(r5)
 1005d74:	38800115 	stw	r2,4(r7)
 1005d78:	28c00217 	ldw	r3,8(r5)
 1005d7c:	38c00215 	stw	r3,8(r7)
 1005d80:	28800317 	ldw	r2,12(r5)
 1005d84:	29400404 	addi	r5,r5,16
 1005d88:	38800315 	stw	r2,12(r7)
 1005d8c:	39c00404 	addi	r7,r7,16
 1005d90:	41bff436 	bltu	r8,r6,1005d64 <memcpy+0x44>
 1005d94:	008000c4 	movi	r2,3
 1005d98:	1180072e 	bgeu	r2,r6,1005db8 <memcpy+0x98>
 1005d9c:	1007883a 	mov	r3,r2
 1005da0:	28800017 	ldw	r2,0(r5)
 1005da4:	31bfff04 	addi	r6,r6,-4
 1005da8:	29400104 	addi	r5,r5,4
 1005dac:	38800015 	stw	r2,0(r7)
 1005db0:	39c00104 	addi	r7,r7,4
 1005db4:	19bffa36 	bltu	r3,r6,1005da0 <memcpy+0x80>
 1005db8:	3807883a 	mov	r3,r7
 1005dbc:	003fde06 	br	1005d38 <memcpy+0x18>

01005dc0 <memset>:
 1005dc0:	008000c4 	movi	r2,3
 1005dc4:	29403fcc 	andi	r5,r5,255
 1005dc8:	2007883a 	mov	r3,r4
 1005dcc:	1180022e 	bgeu	r2,r6,1005dd8 <memset+0x18>
 1005dd0:	2084703a 	and	r2,r4,r2
 1005dd4:	10000826 	beq	r2,zero,1005df8 <memset+0x38>
 1005dd8:	30000526 	beq	r6,zero,1005df0 <memset+0x30>
 1005ddc:	2805883a 	mov	r2,r5
 1005de0:	30cd883a 	add	r6,r6,r3
 1005de4:	18800005 	stb	r2,0(r3)
 1005de8:	18c00044 	addi	r3,r3,1
 1005dec:	19bffd1e 	bne	r3,r6,1005de4 <memset+0x24>
 1005df0:	2005883a 	mov	r2,r4
 1005df4:	f800283a 	ret
 1005df8:	2804923a 	slli	r2,r5,8
 1005dfc:	020003c4 	movi	r8,15
 1005e00:	200f883a 	mov	r7,r4
 1005e04:	2884b03a 	or	r2,r5,r2
 1005e08:	1006943a 	slli	r3,r2,16
 1005e0c:	10c6b03a 	or	r3,r2,r3
 1005e10:	41800a2e 	bgeu	r8,r6,1005e3c <memset+0x7c>
 1005e14:	4005883a 	mov	r2,r8
 1005e18:	31bffc04 	addi	r6,r6,-16
 1005e1c:	38c00015 	stw	r3,0(r7)
 1005e20:	38c00115 	stw	r3,4(r7)
 1005e24:	38c00215 	stw	r3,8(r7)
 1005e28:	38c00315 	stw	r3,12(r7)
 1005e2c:	39c00404 	addi	r7,r7,16
 1005e30:	11bff936 	bltu	r2,r6,1005e18 <memset+0x58>
 1005e34:	008000c4 	movi	r2,3
 1005e38:	1180052e 	bgeu	r2,r6,1005e50 <memset+0x90>
 1005e3c:	31bfff04 	addi	r6,r6,-4
 1005e40:	008000c4 	movi	r2,3
 1005e44:	38c00015 	stw	r3,0(r7)
 1005e48:	39c00104 	addi	r7,r7,4
 1005e4c:	11bffb36 	bltu	r2,r6,1005e3c <memset+0x7c>
 1005e50:	3807883a 	mov	r3,r7
 1005e54:	003fe006 	br	1005dd8 <memset+0x18>

01005e58 <printf>:
 1005e58:	defffb04 	addi	sp,sp,-20
 1005e5c:	dfc00115 	stw	ra,4(sp)
 1005e60:	d9400215 	stw	r5,8(sp)
 1005e64:	d9800315 	stw	r6,12(sp)
 1005e68:	d9c00415 	stw	r7,16(sp)
 1005e6c:	00804074 	movhi	r2,257
 1005e70:	10974504 	addi	r2,r2,23828
 1005e74:	10c00017 	ldw	r3,0(r2)
 1005e78:	200b883a 	mov	r5,r4
 1005e7c:	d8800204 	addi	r2,sp,8
 1005e80:	19000217 	ldw	r4,8(r3)
 1005e84:	100d883a 	mov	r6,r2
 1005e88:	d8800015 	stw	r2,0(sp)
 1005e8c:	1007fac0 	call	1007fac <__vfprintf_internal>
 1005e90:	dfc00117 	ldw	ra,4(sp)
 1005e94:	dec00504 	addi	sp,sp,20
 1005e98:	f800283a 	ret

01005e9c <_printf_r>:
 1005e9c:	defffc04 	addi	sp,sp,-16
 1005ea0:	dfc00115 	stw	ra,4(sp)
 1005ea4:	d9800215 	stw	r6,8(sp)
 1005ea8:	d9c00315 	stw	r7,12(sp)
 1005eac:	280d883a 	mov	r6,r5
 1005eb0:	21400217 	ldw	r5,8(r4)
 1005eb4:	d8c00204 	addi	r3,sp,8
 1005eb8:	180f883a 	mov	r7,r3
 1005ebc:	d8c00015 	stw	r3,0(sp)
 1005ec0:	10061000 	call	1006100 <___vfprintf_internal_r>
 1005ec4:	dfc00117 	ldw	ra,4(sp)
 1005ec8:	dec00404 	addi	sp,sp,16
 1005ecc:	f800283a 	ret

01005ed0 <putchar>:
 1005ed0:	00804074 	movhi	r2,257
 1005ed4:	10974504 	addi	r2,r2,23828
 1005ed8:	11800017 	ldw	r6,0(r2)
 1005edc:	200b883a 	mov	r5,r4
 1005ee0:	3009883a 	mov	r4,r6
 1005ee4:	31800217 	ldw	r6,8(r6)
 1005ee8:	100bf041 	jmpi	100bf04 <_putc_r>

01005eec <_putchar_r>:
 1005eec:	21800217 	ldw	r6,8(r4)
 1005ef0:	100bf041 	jmpi	100bf04 <_putc_r>

01005ef4 <_puts_r>:
 1005ef4:	defff604 	addi	sp,sp,-40
 1005ef8:	dc400715 	stw	r17,28(sp)
 1005efc:	2023883a 	mov	r17,r4
 1005f00:	2809883a 	mov	r4,r5
 1005f04:	dfc00915 	stw	ra,36(sp)
 1005f08:	dcc00815 	stw	r19,32(sp)
 1005f0c:	2827883a 	mov	r19,r5
 1005f10:	10060180 	call	1006018 <strlen>
 1005f14:	89400217 	ldw	r5,8(r17)
 1005f18:	00c04074 	movhi	r3,257
 1005f1c:	18ced104 	addi	r3,r3,15172
 1005f20:	01c00044 	movi	r7,1
 1005f24:	12000044 	addi	r8,r2,1
 1005f28:	d8c00515 	stw	r3,20(sp)
 1005f2c:	d9c00615 	stw	r7,24(sp)
 1005f30:	d8c00304 	addi	r3,sp,12
 1005f34:	01c00084 	movi	r7,2
 1005f38:	8809883a 	mov	r4,r17
 1005f3c:	d80d883a 	mov	r6,sp
 1005f40:	d8c00015 	stw	r3,0(sp)
 1005f44:	dcc00315 	stw	r19,12(sp)
 1005f48:	da000215 	stw	r8,8(sp)
 1005f4c:	d9c00115 	stw	r7,4(sp)
 1005f50:	d8800415 	stw	r2,16(sp)
 1005f54:	100a3d40 	call	100a3d4 <__sfvwrite_r>
 1005f58:	00ffffc4 	movi	r3,-1
 1005f5c:	10000626 	beq	r2,zero,1005f78 <_puts_r+0x84>
 1005f60:	1805883a 	mov	r2,r3
 1005f64:	dfc00917 	ldw	ra,36(sp)
 1005f68:	dcc00817 	ldw	r19,32(sp)
 1005f6c:	dc400717 	ldw	r17,28(sp)
 1005f70:	dec00a04 	addi	sp,sp,40
 1005f74:	f800283a 	ret
 1005f78:	00c00284 	movi	r3,10
 1005f7c:	1805883a 	mov	r2,r3
 1005f80:	dfc00917 	ldw	ra,36(sp)
 1005f84:	dcc00817 	ldw	r19,32(sp)
 1005f88:	dc400717 	ldw	r17,28(sp)
 1005f8c:	dec00a04 	addi	sp,sp,40
 1005f90:	f800283a 	ret

01005f94 <puts>:
 1005f94:	00804074 	movhi	r2,257
 1005f98:	10974504 	addi	r2,r2,23828
 1005f9c:	200b883a 	mov	r5,r4
 1005fa0:	11000017 	ldw	r4,0(r2)
 1005fa4:	1005ef41 	jmpi	1005ef4 <_puts_r>

01005fa8 <_sbrk_r>:
 1005fa8:	defffd04 	addi	sp,sp,-12
 1005fac:	dc000015 	stw	r16,0(sp)
 1005fb0:	04004074 	movhi	r16,257
 1005fb4:	841ef604 	addi	r16,r16,31704
 1005fb8:	dc400115 	stw	r17,4(sp)
 1005fbc:	80000015 	stw	zero,0(r16)
 1005fc0:	2023883a 	mov	r17,r4
 1005fc4:	2809883a 	mov	r4,r5
 1005fc8:	dfc00215 	stw	ra,8(sp)
 1005fcc:	10112a80 	call	10112a8 <sbrk>
 1005fd0:	1007883a 	mov	r3,r2
 1005fd4:	00bfffc4 	movi	r2,-1
 1005fd8:	18800626 	beq	r3,r2,1005ff4 <_sbrk_r+0x4c>
 1005fdc:	1805883a 	mov	r2,r3
 1005fe0:	dfc00217 	ldw	ra,8(sp)
 1005fe4:	dc400117 	ldw	r17,4(sp)
 1005fe8:	dc000017 	ldw	r16,0(sp)
 1005fec:	dec00304 	addi	sp,sp,12
 1005ff0:	f800283a 	ret
 1005ff4:	80800017 	ldw	r2,0(r16)
 1005ff8:	103ff826 	beq	r2,zero,1005fdc <_sbrk_r+0x34>
 1005ffc:	88800015 	stw	r2,0(r17)
 1006000:	1805883a 	mov	r2,r3
 1006004:	dfc00217 	ldw	ra,8(sp)
 1006008:	dc400117 	ldw	r17,4(sp)
 100600c:	dc000017 	ldw	r16,0(sp)
 1006010:	dec00304 	addi	sp,sp,12
 1006014:	f800283a 	ret

01006018 <strlen>:
 1006018:	208000cc 	andi	r2,r4,3
 100601c:	2011883a 	mov	r8,r4
 1006020:	1000161e 	bne	r2,zero,100607c <strlen+0x64>
 1006024:	20c00017 	ldw	r3,0(r4)
 1006028:	017fbff4 	movhi	r5,65279
 100602c:	297fbfc4 	addi	r5,r5,-257
 1006030:	01e02074 	movhi	r7,32897
 1006034:	39e02004 	addi	r7,r7,-32640
 1006038:	1945883a 	add	r2,r3,r5
 100603c:	11c4703a 	and	r2,r2,r7
 1006040:	00c6303a 	nor	r3,zero,r3
 1006044:	1886703a 	and	r3,r3,r2
 1006048:	18000c1e 	bne	r3,zero,100607c <strlen+0x64>
 100604c:	280d883a 	mov	r6,r5
 1006050:	380b883a 	mov	r5,r7
 1006054:	21000104 	addi	r4,r4,4
 1006058:	20800017 	ldw	r2,0(r4)
 100605c:	1187883a 	add	r3,r2,r6
 1006060:	1946703a 	and	r3,r3,r5
 1006064:	0084303a 	nor	r2,zero,r2
 1006068:	10c4703a 	and	r2,r2,r3
 100606c:	103ff926 	beq	r2,zero,1006054 <strlen+0x3c>
 1006070:	20800007 	ldb	r2,0(r4)
 1006074:	10000326 	beq	r2,zero,1006084 <strlen+0x6c>
 1006078:	21000044 	addi	r4,r4,1
 100607c:	20800007 	ldb	r2,0(r4)
 1006080:	103ffd1e 	bne	r2,zero,1006078 <strlen+0x60>
 1006084:	2205c83a 	sub	r2,r4,r8
 1006088:	f800283a 	ret

0100608c <_vfiprintf_r>:
 100608c:	defffe04 	addi	sp,sp,-8
 1006090:	dfc00115 	stw	ra,4(sp)
 1006094:	d9c00015 	stw	r7,0(sp)
 1006098:	100cc000 	call	100cc00 <___vfiprintf_internal_r>
 100609c:	dfc00117 	ldw	ra,4(sp)
 10060a0:	dec00204 	addi	sp,sp,8
 10060a4:	f800283a 	ret

010060a8 <__sprint_r>:
 10060a8:	30800217 	ldw	r2,8(r6)
 10060ac:	defffe04 	addi	sp,sp,-8
 10060b0:	dc000015 	stw	r16,0(sp)
 10060b4:	dfc00115 	stw	ra,4(sp)
 10060b8:	3021883a 	mov	r16,r6
 10060bc:	0007883a 	mov	r3,zero
 10060c0:	1000061e 	bne	r2,zero,10060dc <__sprint_r+0x34>
 10060c4:	1805883a 	mov	r2,r3
 10060c8:	30000115 	stw	zero,4(r6)
 10060cc:	dfc00117 	ldw	ra,4(sp)
 10060d0:	dc000017 	ldw	r16,0(sp)
 10060d4:	dec00204 	addi	sp,sp,8
 10060d8:	f800283a 	ret
 10060dc:	100a3d40 	call	100a3d4 <__sfvwrite_r>
 10060e0:	1007883a 	mov	r3,r2
 10060e4:	1805883a 	mov	r2,r3
 10060e8:	80000115 	stw	zero,4(r16)
 10060ec:	80000215 	stw	zero,8(r16)
 10060f0:	dfc00117 	ldw	ra,4(sp)
 10060f4:	dc000017 	ldw	r16,0(sp)
 10060f8:	dec00204 	addi	sp,sp,8
 10060fc:	f800283a 	ret

01006100 <___vfprintf_internal_r>:
 1006100:	defea404 	addi	sp,sp,-1392
 1006104:	dd815815 	stw	r22,1376(sp)
 1006108:	dc015215 	stw	r16,1352(sp)
 100610c:	d9c15115 	stw	r7,1348(sp)
 1006110:	dfc15b15 	stw	ra,1388(sp)
 1006114:	df015a15 	stw	fp,1384(sp)
 1006118:	ddc15915 	stw	r23,1380(sp)
 100611c:	dd415715 	stw	r21,1372(sp)
 1006120:	dd015615 	stw	r20,1368(sp)
 1006124:	dcc15515 	stw	r19,1364(sp)
 1006128:	dc815415 	stw	r18,1360(sp)
 100612c:	dc415315 	stw	r17,1356(sp)
 1006130:	282d883a 	mov	r22,r5
 1006134:	3021883a 	mov	r16,r6
 1006138:	d9014f15 	stw	r4,1340(sp)
 100613c:	100a9f80 	call	100a9f8 <_localeconv_r>
 1006140:	10800017 	ldw	r2,0(r2)
 1006144:	d9c15117 	ldw	r7,1348(sp)
 1006148:	d8814915 	stw	r2,1316(sp)
 100614c:	d8814f17 	ldw	r2,1340(sp)
 1006150:	10000226 	beq	r2,zero,100615c <___vfprintf_internal_r+0x5c>
 1006154:	10800e17 	ldw	r2,56(r2)
 1006158:	10020d26 	beq	r2,zero,1006990 <___vfprintf_internal_r+0x890>
 100615c:	b080030b 	ldhu	r2,12(r22)
 1006160:	1080020c 	andi	r2,r2,8
 1006164:	10020e26 	beq	r2,zero,10069a0 <___vfprintf_internal_r+0x8a0>
 1006168:	b0800417 	ldw	r2,16(r22)
 100616c:	10020c26 	beq	r2,zero,10069a0 <___vfprintf_internal_r+0x8a0>
 1006170:	b200030b 	ldhu	r8,12(r22)
 1006174:	00800284 	movi	r2,10
 1006178:	40c0068c 	andi	r3,r8,26
 100617c:	18802f1e 	bne	r3,r2,100623c <___vfprintf_internal_r+0x13c>
 1006180:	b080038f 	ldh	r2,14(r22)
 1006184:	10002d16 	blt	r2,zero,100623c <___vfprintf_internal_r+0x13c>
 1006188:	b240038b 	ldhu	r9,14(r22)
 100618c:	b2800717 	ldw	r10,28(r22)
 1006190:	b2c00917 	ldw	r11,36(r22)
 1006194:	d9014f17 	ldw	r4,1340(sp)
 1006198:	dc402904 	addi	r17,sp,164
 100619c:	d8804004 	addi	r2,sp,256
 10061a0:	00c10004 	movi	r3,1024
 10061a4:	423fff4c 	andi	r8,r8,65533
 10061a8:	800d883a 	mov	r6,r16
 10061ac:	880b883a 	mov	r5,r17
 10061b0:	da002c0d 	sth	r8,176(sp)
 10061b4:	da402c8d 	sth	r9,178(sp)
 10061b8:	da803015 	stw	r10,192(sp)
 10061bc:	dac03215 	stw	r11,200(sp)
 10061c0:	d8802d15 	stw	r2,180(sp)
 10061c4:	d8c02e15 	stw	r3,184(sp)
 10061c8:	d8802915 	stw	r2,164(sp)
 10061cc:	d8c02b15 	stw	r3,172(sp)
 10061d0:	d8002f15 	stw	zero,188(sp)
 10061d4:	10061000 	call	1006100 <___vfprintf_internal_r>
 10061d8:	d8814b15 	stw	r2,1324(sp)
 10061dc:	10000416 	blt	r2,zero,10061f0 <___vfprintf_internal_r+0xf0>
 10061e0:	d9014f17 	ldw	r4,1340(sp)
 10061e4:	880b883a 	mov	r5,r17
 10061e8:	1009aa40 	call	1009aa4 <_fflush_r>
 10061ec:	1002321e 	bne	r2,zero,1006ab8 <___vfprintf_internal_r+0x9b8>
 10061f0:	d8802c0b 	ldhu	r2,176(sp)
 10061f4:	1080100c 	andi	r2,r2,64
 10061f8:	10000326 	beq	r2,zero,1006208 <___vfprintf_internal_r+0x108>
 10061fc:	b080030b 	ldhu	r2,12(r22)
 1006200:	10801014 	ori	r2,r2,64
 1006204:	b080030d 	sth	r2,12(r22)
 1006208:	d8814b17 	ldw	r2,1324(sp)
 100620c:	dfc15b17 	ldw	ra,1388(sp)
 1006210:	df015a17 	ldw	fp,1384(sp)
 1006214:	ddc15917 	ldw	r23,1380(sp)
 1006218:	dd815817 	ldw	r22,1376(sp)
 100621c:	dd415717 	ldw	r21,1372(sp)
 1006220:	dd015617 	ldw	r20,1368(sp)
 1006224:	dcc15517 	ldw	r19,1364(sp)
 1006228:	dc815417 	ldw	r18,1360(sp)
 100622c:	dc415317 	ldw	r17,1356(sp)
 1006230:	dc015217 	ldw	r16,1352(sp)
 1006234:	dec15c04 	addi	sp,sp,1392
 1006238:	f800283a 	ret
 100623c:	0005883a 	mov	r2,zero
 1006240:	0007883a 	mov	r3,zero
 1006244:	dd401904 	addi	r21,sp,100
 1006248:	d8814215 	stw	r2,1288(sp)
 100624c:	802f883a 	mov	r23,r16
 1006250:	d8c14315 	stw	r3,1292(sp)
 1006254:	d8014b15 	stw	zero,1324(sp)
 1006258:	d8014815 	stw	zero,1312(sp)
 100625c:	d8014415 	stw	zero,1296(sp)
 1006260:	d8014715 	stw	zero,1308(sp)
 1006264:	dd400c15 	stw	r21,48(sp)
 1006268:	d8000e15 	stw	zero,56(sp)
 100626c:	d8000d15 	stw	zero,52(sp)
 1006270:	b8800007 	ldb	r2,0(r23)
 1006274:	10001926 	beq	r2,zero,10062dc <___vfprintf_internal_r+0x1dc>
 1006278:	00c00944 	movi	r3,37
 100627c:	10c01726 	beq	r2,r3,10062dc <___vfprintf_internal_r+0x1dc>
 1006280:	b821883a 	mov	r16,r23
 1006284:	00000106 	br	100628c <___vfprintf_internal_r+0x18c>
 1006288:	10c00326 	beq	r2,r3,1006298 <___vfprintf_internal_r+0x198>
 100628c:	84000044 	addi	r16,r16,1
 1006290:	80800007 	ldb	r2,0(r16)
 1006294:	103ffc1e 	bne	r2,zero,1006288 <___vfprintf_internal_r+0x188>
 1006298:	85e7c83a 	sub	r19,r16,r23
 100629c:	98000e26 	beq	r19,zero,10062d8 <___vfprintf_internal_r+0x1d8>
 10062a0:	dc800e17 	ldw	r18,56(sp)
 10062a4:	dc400d17 	ldw	r17,52(sp)
 10062a8:	008001c4 	movi	r2,7
 10062ac:	94e5883a 	add	r18,r18,r19
 10062b0:	8c400044 	addi	r17,r17,1
 10062b4:	adc00015 	stw	r23,0(r21)
 10062b8:	dc800e15 	stw	r18,56(sp)
 10062bc:	acc00115 	stw	r19,4(r21)
 10062c0:	dc400d15 	stw	r17,52(sp)
 10062c4:	14428b16 	blt	r2,r17,1006cf4 <___vfprintf_internal_r+0xbf4>
 10062c8:	ad400204 	addi	r21,r21,8
 10062cc:	d9014b17 	ldw	r4,1324(sp)
 10062d0:	24c9883a 	add	r4,r4,r19
 10062d4:	d9014b15 	stw	r4,1324(sp)
 10062d8:	802f883a 	mov	r23,r16
 10062dc:	b8800007 	ldb	r2,0(r23)
 10062e0:	10013c26 	beq	r2,zero,10067d4 <___vfprintf_internal_r+0x6d4>
 10062e4:	bdc00044 	addi	r23,r23,1
 10062e8:	d8000405 	stb	zero,16(sp)
 10062ec:	b8c00007 	ldb	r3,0(r23)
 10062f0:	04ffffc4 	movi	r19,-1
 10062f4:	d8014c15 	stw	zero,1328(sp)
 10062f8:	d8014a15 	stw	zero,1320(sp)
 10062fc:	d8c14d15 	stw	r3,1332(sp)
 1006300:	bdc00044 	addi	r23,r23,1
 1006304:	d9414d17 	ldw	r5,1332(sp)
 1006308:	00801604 	movi	r2,88
 100630c:	28fff804 	addi	r3,r5,-32
 1006310:	10c06036 	bltu	r2,r3,1006494 <___vfprintf_internal_r+0x394>
 1006314:	18c5883a 	add	r2,r3,r3
 1006318:	1085883a 	add	r2,r2,r2
 100631c:	00c04034 	movhi	r3,256
 1006320:	18d8cc04 	addi	r3,r3,25392
 1006324:	10c5883a 	add	r2,r2,r3
 1006328:	11000017 	ldw	r4,0(r2)
 100632c:	2000683a 	jmp	r4
 1006330:	010072a4 	muli	r4,zero,458
 1006334:	01006494 	movui	r4,402
 1006338:	01006494 	movui	r4,402
 100633c:	01007290 	cmplti	r4,zero,458
 1006340:	01006494 	movui	r4,402
 1006344:	01006494 	movui	r4,402
 1006348:	01006494 	movui	r4,402
 100634c:	01006494 	movui	r4,402
 1006350:	01006494 	movui	r4,402
 1006354:	01006494 	movui	r4,402
 1006358:	01007070 	cmpltui	r4,zero,449
 100635c:	01007280 	call	100728 <__alt_mem_onchip_memory2_0+0x100728>
 1006360:	01006494 	movui	r4,402
 1006364:	01007088 	cmpgei	r4,zero,450
 1006368:	0100731c 	xori	r4,zero,460
 100636c:	01006494 	movui	r4,402
 1006370:	01007308 	cmpgei	r4,zero,460
 1006374:	010072d0 	cmplti	r4,zero,459
 1006378:	010072d0 	cmplti	r4,zero,459
 100637c:	010072d0 	cmplti	r4,zero,459
 1006380:	010072d0 	cmplti	r4,zero,459
 1006384:	010072d0 	cmplti	r4,zero,459
 1006388:	010072d0 	cmplti	r4,zero,459
 100638c:	010072d0 	cmplti	r4,zero,459
 1006390:	010072d0 	cmplti	r4,zero,459
 1006394:	010072d0 	cmplti	r4,zero,459
 1006398:	01006494 	movui	r4,402
 100639c:	01006494 	movui	r4,402
 10063a0:	01006494 	movui	r4,402
 10063a4:	01006494 	movui	r4,402
 10063a8:	01006494 	movui	r4,402
 10063ac:	01006494 	movui	r4,402
 10063b0:	01006494 	movui	r4,402
 10063b4:	01006494 	movui	r4,402
 10063b8:	01006494 	movui	r4,402
 10063bc:	01006494 	movui	r4,402
 10063c0:	01006aec 	andhi	r4,zero,427
 10063c4:	01007158 	cmpnei	r4,zero,453
 10063c8:	01006494 	movui	r4,402
 10063cc:	01007158 	cmpnei	r4,zero,453
 10063d0:	01006494 	movui	r4,402
 10063d4:	01006494 	movui	r4,402
 10063d8:	01006494 	movui	r4,402
 10063dc:	01006494 	movui	r4,402
 10063e0:	010072bc 	xorhi	r4,zero,458
 10063e4:	01006494 	movui	r4,402
 10063e8:	01006494 	movui	r4,402
 10063ec:	01006ba0 	cmpeqi	r4,zero,430
 10063f0:	01006494 	movui	r4,402
 10063f4:	01006494 	movui	r4,402
 10063f8:	01006494 	movui	r4,402
 10063fc:	01006494 	movui	r4,402
 1006400:	01006494 	movui	r4,402
 1006404:	01006bec 	andhi	r4,zero,431
 1006408:	01006494 	movui	r4,402
 100640c:	01006494 	movui	r4,402
 1006410:	0100720c 	andi	r4,zero,456
 1006414:	01006494 	movui	r4,402
 1006418:	01006494 	movui	r4,402
 100641c:	01006494 	movui	r4,402
 1006420:	01006494 	movui	r4,402
 1006424:	01006494 	movui	r4,402
 1006428:	01006494 	movui	r4,402
 100642c:	01006494 	movui	r4,402
 1006430:	01006494 	movui	r4,402
 1006434:	01006494 	movui	r4,402
 1006438:	01006494 	movui	r4,402
 100643c:	010071e0 	cmpeqi	r4,zero,455
 1006440:	01006af8 	rdprs	r4,zero,427
 1006444:	01007158 	cmpnei	r4,zero,453
 1006448:	01007158 	cmpnei	r4,zero,453
 100644c:	01007158 	cmpnei	r4,zero,453
 1006450:	01007144 	movi	r4,453
 1006454:	01006af8 	rdprs	r4,zero,427
 1006458:	01006494 	movui	r4,402
 100645c:	01006494 	movui	r4,402
 1006460:	010070cc 	andi	r4,zero,451
 1006464:	01006494 	movui	r4,402
 1006468:	0100709c 	xori	r4,zero,450
 100646c:	01006bac 	andhi	r4,zero,430
 1006470:	010070fc 	xorhi	r4,zero,451
 1006474:	010070e8 	cmpgeui	r4,zero,451
 1006478:	01006494 	movui	r4,402
 100647c:	01007378 	rdprs	r4,zero,461
 1006480:	01006494 	movui	r4,402
 1006484:	01006bf8 	rdprs	r4,zero,431
 1006488:	01006494 	movui	r4,402
 100648c:	01006494 	movui	r4,402
 1006490:	01007270 	cmpltui	r4,zero,457
 1006494:	d9014d17 	ldw	r4,1332(sp)
 1006498:	2000ce26 	beq	r4,zero,10067d4 <___vfprintf_internal_r+0x6d4>
 100649c:	01400044 	movi	r5,1
 10064a0:	d9800f04 	addi	r6,sp,60
 10064a4:	d9c14015 	stw	r7,1280(sp)
 10064a8:	d9414515 	stw	r5,1300(sp)
 10064ac:	d9814115 	stw	r6,1284(sp)
 10064b0:	280f883a 	mov	r7,r5
 10064b4:	d9000f05 	stb	r4,60(sp)
 10064b8:	d8000405 	stb	zero,16(sp)
 10064bc:	d8014615 	stw	zero,1304(sp)
 10064c0:	d8c14c17 	ldw	r3,1328(sp)
 10064c4:	1880008c 	andi	r2,r3,2
 10064c8:	1005003a 	cmpeq	r2,r2,zero
 10064cc:	d8815015 	stw	r2,1344(sp)
 10064d0:	1000031e 	bne	r2,zero,10064e0 <___vfprintf_internal_r+0x3e0>
 10064d4:	d9014517 	ldw	r4,1300(sp)
 10064d8:	21000084 	addi	r4,r4,2
 10064dc:	d9014515 	stw	r4,1300(sp)
 10064e0:	d9414c17 	ldw	r5,1328(sp)
 10064e4:	2940210c 	andi	r5,r5,132
 10064e8:	d9414e15 	stw	r5,1336(sp)
 10064ec:	28002d1e 	bne	r5,zero,10065a4 <___vfprintf_internal_r+0x4a4>
 10064f0:	d9814a17 	ldw	r6,1320(sp)
 10064f4:	d8814517 	ldw	r2,1300(sp)
 10064f8:	30a1c83a 	sub	r16,r6,r2
 10064fc:	0400290e 	bge	zero,r16,10065a4 <___vfprintf_internal_r+0x4a4>
 1006500:	00800404 	movi	r2,16
 1006504:	1404580e 	bge	r2,r16,1007668 <___vfprintf_internal_r+0x1568>
 1006508:	dc800e17 	ldw	r18,56(sp)
 100650c:	dc400d17 	ldw	r17,52(sp)
 1006510:	1027883a 	mov	r19,r2
 1006514:	07004074 	movhi	fp,257
 1006518:	e70eed84 	addi	fp,fp,15286
 100651c:	050001c4 	movi	r20,7
 1006520:	00000306 	br	1006530 <___vfprintf_internal_r+0x430>
 1006524:	843ffc04 	addi	r16,r16,-16
 1006528:	ad400204 	addi	r21,r21,8
 100652c:	9c00130e 	bge	r19,r16,100657c <___vfprintf_internal_r+0x47c>
 1006530:	94800404 	addi	r18,r18,16
 1006534:	8c400044 	addi	r17,r17,1
 1006538:	af000015 	stw	fp,0(r21)
 100653c:	acc00115 	stw	r19,4(r21)
 1006540:	dc800e15 	stw	r18,56(sp)
 1006544:	dc400d15 	stw	r17,52(sp)
 1006548:	a47ff60e 	bge	r20,r17,1006524 <___vfprintf_internal_r+0x424>
 100654c:	d9014f17 	ldw	r4,1340(sp)
 1006550:	b00b883a 	mov	r5,r22
 1006554:	d9800c04 	addi	r6,sp,48
 1006558:	d9c15115 	stw	r7,1348(sp)
 100655c:	10060a80 	call	10060a8 <__sprint_r>
 1006560:	d9c15117 	ldw	r7,1348(sp)
 1006564:	10009e1e 	bne	r2,zero,10067e0 <___vfprintf_internal_r+0x6e0>
 1006568:	843ffc04 	addi	r16,r16,-16
 100656c:	dc800e17 	ldw	r18,56(sp)
 1006570:	dc400d17 	ldw	r17,52(sp)
 1006574:	dd401904 	addi	r21,sp,100
 1006578:	9c3fed16 	blt	r19,r16,1006530 <___vfprintf_internal_r+0x430>
 100657c:	9425883a 	add	r18,r18,r16
 1006580:	8c400044 	addi	r17,r17,1
 1006584:	008001c4 	movi	r2,7
 1006588:	af000015 	stw	fp,0(r21)
 100658c:	ac000115 	stw	r16,4(r21)
 1006590:	dc800e15 	stw	r18,56(sp)
 1006594:	dc400d15 	stw	r17,52(sp)
 1006598:	1441f516 	blt	r2,r17,1006d70 <___vfprintf_internal_r+0xc70>
 100659c:	ad400204 	addi	r21,r21,8
 10065a0:	00000206 	br	10065ac <___vfprintf_internal_r+0x4ac>
 10065a4:	dc800e17 	ldw	r18,56(sp)
 10065a8:	dc400d17 	ldw	r17,52(sp)
 10065ac:	d8800407 	ldb	r2,16(sp)
 10065b0:	10000b26 	beq	r2,zero,10065e0 <___vfprintf_internal_r+0x4e0>
 10065b4:	00800044 	movi	r2,1
 10065b8:	94800044 	addi	r18,r18,1
 10065bc:	8c400044 	addi	r17,r17,1
 10065c0:	a8800115 	stw	r2,4(r21)
 10065c4:	d8c00404 	addi	r3,sp,16
 10065c8:	008001c4 	movi	r2,7
 10065cc:	a8c00015 	stw	r3,0(r21)
 10065d0:	dc800e15 	stw	r18,56(sp)
 10065d4:	dc400d15 	stw	r17,52(sp)
 10065d8:	1441da16 	blt	r2,r17,1006d44 <___vfprintf_internal_r+0xc44>
 10065dc:	ad400204 	addi	r21,r21,8
 10065e0:	d9015017 	ldw	r4,1344(sp)
 10065e4:	20000b1e 	bne	r4,zero,1006614 <___vfprintf_internal_r+0x514>
 10065e8:	d8800444 	addi	r2,sp,17
 10065ec:	94800084 	addi	r18,r18,2
 10065f0:	8c400044 	addi	r17,r17,1
 10065f4:	a8800015 	stw	r2,0(r21)
 10065f8:	00c00084 	movi	r3,2
 10065fc:	008001c4 	movi	r2,7
 1006600:	a8c00115 	stw	r3,4(r21)
 1006604:	dc800e15 	stw	r18,56(sp)
 1006608:	dc400d15 	stw	r17,52(sp)
 100660c:	1441c216 	blt	r2,r17,1006d18 <___vfprintf_internal_r+0xc18>
 1006610:	ad400204 	addi	r21,r21,8
 1006614:	d9414e17 	ldw	r5,1336(sp)
 1006618:	00802004 	movi	r2,128
 100661c:	2880b126 	beq	r5,r2,10068e4 <___vfprintf_internal_r+0x7e4>
 1006620:	d8c14617 	ldw	r3,1304(sp)
 1006624:	19e1c83a 	sub	r16,r3,r7
 1006628:	0400260e 	bge	zero,r16,10066c4 <___vfprintf_internal_r+0x5c4>
 100662c:	00800404 	movi	r2,16
 1006630:	1403c90e 	bge	r2,r16,1007558 <___vfprintf_internal_r+0x1458>
 1006634:	1027883a 	mov	r19,r2
 1006638:	07004074 	movhi	fp,257
 100663c:	e70ee984 	addi	fp,fp,15270
 1006640:	050001c4 	movi	r20,7
 1006644:	00000306 	br	1006654 <___vfprintf_internal_r+0x554>
 1006648:	843ffc04 	addi	r16,r16,-16
 100664c:	ad400204 	addi	r21,r21,8
 1006650:	9c00130e 	bge	r19,r16,10066a0 <___vfprintf_internal_r+0x5a0>
 1006654:	94800404 	addi	r18,r18,16
 1006658:	8c400044 	addi	r17,r17,1
 100665c:	af000015 	stw	fp,0(r21)
 1006660:	acc00115 	stw	r19,4(r21)
 1006664:	dc800e15 	stw	r18,56(sp)
 1006668:	dc400d15 	stw	r17,52(sp)
 100666c:	a47ff60e 	bge	r20,r17,1006648 <___vfprintf_internal_r+0x548>
 1006670:	d9014f17 	ldw	r4,1340(sp)
 1006674:	b00b883a 	mov	r5,r22
 1006678:	d9800c04 	addi	r6,sp,48
 100667c:	d9c15115 	stw	r7,1348(sp)
 1006680:	10060a80 	call	10060a8 <__sprint_r>
 1006684:	d9c15117 	ldw	r7,1348(sp)
 1006688:	1000551e 	bne	r2,zero,10067e0 <___vfprintf_internal_r+0x6e0>
 100668c:	843ffc04 	addi	r16,r16,-16
 1006690:	dc800e17 	ldw	r18,56(sp)
 1006694:	dc400d17 	ldw	r17,52(sp)
 1006698:	dd401904 	addi	r21,sp,100
 100669c:	9c3fed16 	blt	r19,r16,1006654 <___vfprintf_internal_r+0x554>
 10066a0:	9425883a 	add	r18,r18,r16
 10066a4:	8c400044 	addi	r17,r17,1
 10066a8:	008001c4 	movi	r2,7
 10066ac:	af000015 	stw	fp,0(r21)
 10066b0:	ac000115 	stw	r16,4(r21)
 10066b4:	dc800e15 	stw	r18,56(sp)
 10066b8:	dc400d15 	stw	r17,52(sp)
 10066bc:	14418216 	blt	r2,r17,1006cc8 <___vfprintf_internal_r+0xbc8>
 10066c0:	ad400204 	addi	r21,r21,8
 10066c4:	d9014c17 	ldw	r4,1328(sp)
 10066c8:	2080400c 	andi	r2,r4,256
 10066cc:	10004a1e 	bne	r2,zero,10067f8 <___vfprintf_internal_r+0x6f8>
 10066d0:	d9414117 	ldw	r5,1284(sp)
 10066d4:	91e5883a 	add	r18,r18,r7
 10066d8:	8c400044 	addi	r17,r17,1
 10066dc:	008001c4 	movi	r2,7
 10066e0:	a9400015 	stw	r5,0(r21)
 10066e4:	a9c00115 	stw	r7,4(r21)
 10066e8:	dc800e15 	stw	r18,56(sp)
 10066ec:	dc400d15 	stw	r17,52(sp)
 10066f0:	14416716 	blt	r2,r17,1006c90 <___vfprintf_internal_r+0xb90>
 10066f4:	a8c00204 	addi	r3,r21,8
 10066f8:	d9814c17 	ldw	r6,1328(sp)
 10066fc:	3080010c 	andi	r2,r6,4
 1006700:	10002826 	beq	r2,zero,10067a4 <___vfprintf_internal_r+0x6a4>
 1006704:	d8814a17 	ldw	r2,1320(sp)
 1006708:	d9014517 	ldw	r4,1300(sp)
 100670c:	1121c83a 	sub	r16,r2,r4
 1006710:	0400240e 	bge	zero,r16,10067a4 <___vfprintf_internal_r+0x6a4>
 1006714:	00800404 	movi	r2,16
 1006718:	14044f0e 	bge	r2,r16,1007858 <___vfprintf_internal_r+0x1758>
 100671c:	dc400d17 	ldw	r17,52(sp)
 1006720:	1027883a 	mov	r19,r2
 1006724:	07004074 	movhi	fp,257
 1006728:	e70eed84 	addi	fp,fp,15286
 100672c:	050001c4 	movi	r20,7
 1006730:	00000306 	br	1006740 <___vfprintf_internal_r+0x640>
 1006734:	843ffc04 	addi	r16,r16,-16
 1006738:	18c00204 	addi	r3,r3,8
 100673c:	9c00110e 	bge	r19,r16,1006784 <___vfprintf_internal_r+0x684>
 1006740:	94800404 	addi	r18,r18,16
 1006744:	8c400044 	addi	r17,r17,1
 1006748:	1f000015 	stw	fp,0(r3)
 100674c:	1cc00115 	stw	r19,4(r3)
 1006750:	dc800e15 	stw	r18,56(sp)
 1006754:	dc400d15 	stw	r17,52(sp)
 1006758:	a47ff60e 	bge	r20,r17,1006734 <___vfprintf_internal_r+0x634>
 100675c:	d9014f17 	ldw	r4,1340(sp)
 1006760:	b00b883a 	mov	r5,r22
 1006764:	d9800c04 	addi	r6,sp,48
 1006768:	10060a80 	call	10060a8 <__sprint_r>
 100676c:	10001c1e 	bne	r2,zero,10067e0 <___vfprintf_internal_r+0x6e0>
 1006770:	843ffc04 	addi	r16,r16,-16
 1006774:	dc800e17 	ldw	r18,56(sp)
 1006778:	dc400d17 	ldw	r17,52(sp)
 100677c:	d8c01904 	addi	r3,sp,100
 1006780:	9c3fef16 	blt	r19,r16,1006740 <___vfprintf_internal_r+0x640>
 1006784:	9425883a 	add	r18,r18,r16
 1006788:	8c400044 	addi	r17,r17,1
 100678c:	008001c4 	movi	r2,7
 1006790:	1f000015 	stw	fp,0(r3)
 1006794:	1c000115 	stw	r16,4(r3)
 1006798:	dc800e15 	stw	r18,56(sp)
 100679c:	dc400d15 	stw	r17,52(sp)
 10067a0:	1440cb16 	blt	r2,r17,1006ad0 <___vfprintf_internal_r+0x9d0>
 10067a4:	d8814a17 	ldw	r2,1320(sp)
 10067a8:	d9414517 	ldw	r5,1300(sp)
 10067ac:	1140010e 	bge	r2,r5,10067b4 <___vfprintf_internal_r+0x6b4>
 10067b0:	2805883a 	mov	r2,r5
 10067b4:	d9814b17 	ldw	r6,1324(sp)
 10067b8:	308d883a 	add	r6,r6,r2
 10067bc:	d9814b15 	stw	r6,1324(sp)
 10067c0:	90013b1e 	bne	r18,zero,1006cb0 <___vfprintf_internal_r+0xbb0>
 10067c4:	d9c14017 	ldw	r7,1280(sp)
 10067c8:	dd401904 	addi	r21,sp,100
 10067cc:	d8000d15 	stw	zero,52(sp)
 10067d0:	003ea706 	br	1006270 <___vfprintf_internal_r+0x170>
 10067d4:	d8800e17 	ldw	r2,56(sp)
 10067d8:	10053f1e 	bne	r2,zero,1007cd8 <___vfprintf_internal_r+0x1bd8>
 10067dc:	d8000d15 	stw	zero,52(sp)
 10067e0:	b080030b 	ldhu	r2,12(r22)
 10067e4:	1080100c 	andi	r2,r2,64
 10067e8:	103e8726 	beq	r2,zero,1006208 <___vfprintf_internal_r+0x108>
 10067ec:	00bfffc4 	movi	r2,-1
 10067f0:	d8814b15 	stw	r2,1324(sp)
 10067f4:	003e8406 	br	1006208 <___vfprintf_internal_r+0x108>
 10067f8:	d9814d17 	ldw	r6,1332(sp)
 10067fc:	00801944 	movi	r2,101
 1006800:	11806e16 	blt	r2,r6,10069bc <___vfprintf_internal_r+0x8bc>
 1006804:	d9414717 	ldw	r5,1308(sp)
 1006808:	00c00044 	movi	r3,1
 100680c:	1943430e 	bge	r3,r5,100751c <___vfprintf_internal_r+0x141c>
 1006810:	d8814117 	ldw	r2,1284(sp)
 1006814:	94800044 	addi	r18,r18,1
 1006818:	8c400044 	addi	r17,r17,1
 100681c:	a8800015 	stw	r2,0(r21)
 1006820:	008001c4 	movi	r2,7
 1006824:	a8c00115 	stw	r3,4(r21)
 1006828:	dc800e15 	stw	r18,56(sp)
 100682c:	dc400d15 	stw	r17,52(sp)
 1006830:	1441ca16 	blt	r2,r17,1006f5c <___vfprintf_internal_r+0xe5c>
 1006834:	a8c00204 	addi	r3,r21,8
 1006838:	d9014917 	ldw	r4,1316(sp)
 100683c:	00800044 	movi	r2,1
 1006840:	94800044 	addi	r18,r18,1
 1006844:	8c400044 	addi	r17,r17,1
 1006848:	18800115 	stw	r2,4(r3)
 100684c:	008001c4 	movi	r2,7
 1006850:	19000015 	stw	r4,0(r3)
 1006854:	dc800e15 	stw	r18,56(sp)
 1006858:	dc400d15 	stw	r17,52(sp)
 100685c:	1441b616 	blt	r2,r17,1006f38 <___vfprintf_internal_r+0xe38>
 1006860:	1cc00204 	addi	r19,r3,8
 1006864:	d9014217 	ldw	r4,1288(sp)
 1006868:	d9414317 	ldw	r5,1292(sp)
 100686c:	000d883a 	mov	r6,zero
 1006870:	000f883a 	mov	r7,zero
 1006874:	100f9280 	call	100f928 <__nedf2>
 1006878:	10017426 	beq	r2,zero,1006e4c <___vfprintf_internal_r+0xd4c>
 100687c:	d9414717 	ldw	r5,1308(sp)
 1006880:	d9814117 	ldw	r6,1284(sp)
 1006884:	8c400044 	addi	r17,r17,1
 1006888:	2c85883a 	add	r2,r5,r18
 100688c:	14bfffc4 	addi	r18,r2,-1
 1006890:	28bfffc4 	addi	r2,r5,-1
 1006894:	30c00044 	addi	r3,r6,1
 1006898:	98800115 	stw	r2,4(r19)
 100689c:	008001c4 	movi	r2,7
 10068a0:	98c00015 	stw	r3,0(r19)
 10068a4:	dc800e15 	stw	r18,56(sp)
 10068a8:	dc400d15 	stw	r17,52(sp)
 10068ac:	14418e16 	blt	r2,r17,1006ee8 <___vfprintf_internal_r+0xde8>
 10068b0:	9cc00204 	addi	r19,r19,8
 10068b4:	d9414817 	ldw	r5,1312(sp)
 10068b8:	d8800804 	addi	r2,sp,32
 10068bc:	8c400044 	addi	r17,r17,1
 10068c0:	9165883a 	add	r18,r18,r5
 10068c4:	98800015 	stw	r2,0(r19)
 10068c8:	008001c4 	movi	r2,7
 10068cc:	99400115 	stw	r5,4(r19)
 10068d0:	dc800e15 	stw	r18,56(sp)
 10068d4:	dc400d15 	stw	r17,52(sp)
 10068d8:	1440ed16 	blt	r2,r17,1006c90 <___vfprintf_internal_r+0xb90>
 10068dc:	98c00204 	addi	r3,r19,8
 10068e0:	003f8506 	br	10066f8 <___vfprintf_internal_r+0x5f8>
 10068e4:	d9814a17 	ldw	r6,1320(sp)
 10068e8:	d8814517 	ldw	r2,1300(sp)
 10068ec:	30a1c83a 	sub	r16,r6,r2
 10068f0:	043f4b0e 	bge	zero,r16,1006620 <___vfprintf_internal_r+0x520>
 10068f4:	00800404 	movi	r2,16
 10068f8:	1404340e 	bge	r2,r16,10079cc <___vfprintf_internal_r+0x18cc>
 10068fc:	1027883a 	mov	r19,r2
 1006900:	07004074 	movhi	fp,257
 1006904:	e70ee984 	addi	fp,fp,15270
 1006908:	050001c4 	movi	r20,7
 100690c:	00000306 	br	100691c <___vfprintf_internal_r+0x81c>
 1006910:	843ffc04 	addi	r16,r16,-16
 1006914:	ad400204 	addi	r21,r21,8
 1006918:	9c00130e 	bge	r19,r16,1006968 <___vfprintf_internal_r+0x868>
 100691c:	94800404 	addi	r18,r18,16
 1006920:	8c400044 	addi	r17,r17,1
 1006924:	af000015 	stw	fp,0(r21)
 1006928:	acc00115 	stw	r19,4(r21)
 100692c:	dc800e15 	stw	r18,56(sp)
 1006930:	dc400d15 	stw	r17,52(sp)
 1006934:	a47ff60e 	bge	r20,r17,1006910 <___vfprintf_internal_r+0x810>
 1006938:	d9014f17 	ldw	r4,1340(sp)
 100693c:	b00b883a 	mov	r5,r22
 1006940:	d9800c04 	addi	r6,sp,48
 1006944:	d9c15115 	stw	r7,1348(sp)
 1006948:	10060a80 	call	10060a8 <__sprint_r>
 100694c:	d9c15117 	ldw	r7,1348(sp)
 1006950:	103fa31e 	bne	r2,zero,10067e0 <___vfprintf_internal_r+0x6e0>
 1006954:	843ffc04 	addi	r16,r16,-16
 1006958:	dc800e17 	ldw	r18,56(sp)
 100695c:	dc400d17 	ldw	r17,52(sp)
 1006960:	dd401904 	addi	r21,sp,100
 1006964:	9c3fed16 	blt	r19,r16,100691c <___vfprintf_internal_r+0x81c>
 1006968:	9425883a 	add	r18,r18,r16
 100696c:	8c400044 	addi	r17,r17,1
 1006970:	008001c4 	movi	r2,7
 1006974:	af000015 	stw	fp,0(r21)
 1006978:	ac000115 	stw	r16,4(r21)
 100697c:	dc800e15 	stw	r18,56(sp)
 1006980:	dc400d15 	stw	r17,52(sp)
 1006984:	14416116 	blt	r2,r17,1006f0c <___vfprintf_internal_r+0xe0c>
 1006988:	ad400204 	addi	r21,r21,8
 100698c:	003f2406 	br	1006620 <___vfprintf_internal_r+0x520>
 1006990:	d9014f17 	ldw	r4,1340(sp)
 1006994:	1009d3c0 	call	1009d3c <__sinit>
 1006998:	d9c15117 	ldw	r7,1348(sp)
 100699c:	003def06 	br	100615c <___vfprintf_internal_r+0x5c>
 10069a0:	d9014f17 	ldw	r4,1340(sp)
 10069a4:	b00b883a 	mov	r5,r22
 10069a8:	d9c15115 	stw	r7,1348(sp)
 10069ac:	1007fd00 	call	1007fd0 <__swsetup_r>
 10069b0:	d9c15117 	ldw	r7,1348(sp)
 10069b4:	103dee26 	beq	r2,zero,1006170 <___vfprintf_internal_r+0x70>
 10069b8:	003f8c06 	br	10067ec <___vfprintf_internal_r+0x6ec>
 10069bc:	d9014217 	ldw	r4,1288(sp)
 10069c0:	d9414317 	ldw	r5,1292(sp)
 10069c4:	000d883a 	mov	r6,zero
 10069c8:	000f883a 	mov	r7,zero
 10069cc:	100f8a00 	call	100f8a0 <__eqdf2>
 10069d0:	1000f21e 	bne	r2,zero,1006d9c <___vfprintf_internal_r+0xc9c>
 10069d4:	00804074 	movhi	r2,257
 10069d8:	108ee904 	addi	r2,r2,15268
 10069dc:	94800044 	addi	r18,r18,1
 10069e0:	8c400044 	addi	r17,r17,1
 10069e4:	a8800015 	stw	r2,0(r21)
 10069e8:	00c00044 	movi	r3,1
 10069ec:	008001c4 	movi	r2,7
 10069f0:	a8c00115 	stw	r3,4(r21)
 10069f4:	dc800e15 	stw	r18,56(sp)
 10069f8:	dc400d15 	stw	r17,52(sp)
 10069fc:	1442fa16 	blt	r2,r17,10075e8 <___vfprintf_internal_r+0x14e8>
 1006a00:	a8c00204 	addi	r3,r21,8
 1006a04:	d8800517 	ldw	r2,20(sp)
 1006a08:	d9014717 	ldw	r4,1308(sp)
 1006a0c:	11015c0e 	bge	r2,r4,1006f80 <___vfprintf_internal_r+0xe80>
 1006a10:	dc400d17 	ldw	r17,52(sp)
 1006a14:	d9814917 	ldw	r6,1316(sp)
 1006a18:	00800044 	movi	r2,1
 1006a1c:	94800044 	addi	r18,r18,1
 1006a20:	8c400044 	addi	r17,r17,1
 1006a24:	18800115 	stw	r2,4(r3)
 1006a28:	008001c4 	movi	r2,7
 1006a2c:	19800015 	stw	r6,0(r3)
 1006a30:	dc800e15 	stw	r18,56(sp)
 1006a34:	dc400d15 	stw	r17,52(sp)
 1006a38:	14431016 	blt	r2,r17,100767c <___vfprintf_internal_r+0x157c>
 1006a3c:	18c00204 	addi	r3,r3,8
 1006a40:	d8814717 	ldw	r2,1308(sp)
 1006a44:	143fffc4 	addi	r16,r2,-1
 1006a48:	043f2b0e 	bge	zero,r16,10066f8 <___vfprintf_internal_r+0x5f8>
 1006a4c:	00800404 	movi	r2,16
 1006a50:	1402a20e 	bge	r2,r16,10074dc <___vfprintf_internal_r+0x13dc>
 1006a54:	dc400d17 	ldw	r17,52(sp)
 1006a58:	1027883a 	mov	r19,r2
 1006a5c:	07004074 	movhi	fp,257
 1006a60:	e70ee984 	addi	fp,fp,15270
 1006a64:	050001c4 	movi	r20,7
 1006a68:	00000306 	br	1006a78 <___vfprintf_internal_r+0x978>
 1006a6c:	18c00204 	addi	r3,r3,8
 1006a70:	843ffc04 	addi	r16,r16,-16
 1006a74:	9c029c0e 	bge	r19,r16,10074e8 <___vfprintf_internal_r+0x13e8>
 1006a78:	94800404 	addi	r18,r18,16
 1006a7c:	8c400044 	addi	r17,r17,1
 1006a80:	1f000015 	stw	fp,0(r3)
 1006a84:	1cc00115 	stw	r19,4(r3)
 1006a88:	dc800e15 	stw	r18,56(sp)
 1006a8c:	dc400d15 	stw	r17,52(sp)
 1006a90:	a47ff60e 	bge	r20,r17,1006a6c <___vfprintf_internal_r+0x96c>
 1006a94:	d9014f17 	ldw	r4,1340(sp)
 1006a98:	b00b883a 	mov	r5,r22
 1006a9c:	d9800c04 	addi	r6,sp,48
 1006aa0:	10060a80 	call	10060a8 <__sprint_r>
 1006aa4:	103f4e1e 	bne	r2,zero,10067e0 <___vfprintf_internal_r+0x6e0>
 1006aa8:	dc800e17 	ldw	r18,56(sp)
 1006aac:	dc400d17 	ldw	r17,52(sp)
 1006ab0:	d8c01904 	addi	r3,sp,100
 1006ab4:	003fee06 	br	1006a70 <___vfprintf_internal_r+0x970>
 1006ab8:	d8802c0b 	ldhu	r2,176(sp)
 1006abc:	00ffffc4 	movi	r3,-1
 1006ac0:	d8c14b15 	stw	r3,1324(sp)
 1006ac4:	1080100c 	andi	r2,r2,64
 1006ac8:	103dcc1e 	bne	r2,zero,10061fc <___vfprintf_internal_r+0xfc>
 1006acc:	003dce06 	br	1006208 <___vfprintf_internal_r+0x108>
 1006ad0:	d9014f17 	ldw	r4,1340(sp)
 1006ad4:	b00b883a 	mov	r5,r22
 1006ad8:	d9800c04 	addi	r6,sp,48
 1006adc:	10060a80 	call	10060a8 <__sprint_r>
 1006ae0:	103f3f1e 	bne	r2,zero,10067e0 <___vfprintf_internal_r+0x6e0>
 1006ae4:	dc800e17 	ldw	r18,56(sp)
 1006ae8:	003f2e06 	br	10067a4 <___vfprintf_internal_r+0x6a4>
 1006aec:	d9414c17 	ldw	r5,1328(sp)
 1006af0:	29400414 	ori	r5,r5,16
 1006af4:	d9414c15 	stw	r5,1328(sp)
 1006af8:	d9814c17 	ldw	r6,1328(sp)
 1006afc:	3080080c 	andi	r2,r6,32
 1006b00:	10014f1e 	bne	r2,zero,1007040 <___vfprintf_internal_r+0xf40>
 1006b04:	d8c14c17 	ldw	r3,1328(sp)
 1006b08:	1880040c 	andi	r2,r3,16
 1006b0c:	1002ea1e 	bne	r2,zero,10076b8 <___vfprintf_internal_r+0x15b8>
 1006b10:	d9014c17 	ldw	r4,1328(sp)
 1006b14:	2080100c 	andi	r2,r4,64
 1006b18:	1002e726 	beq	r2,zero,10076b8 <___vfprintf_internal_r+0x15b8>
 1006b1c:	3880000f 	ldh	r2,0(r7)
 1006b20:	39c00104 	addi	r7,r7,4
 1006b24:	d9c14015 	stw	r7,1280(sp)
 1006b28:	1023d7fa 	srai	r17,r2,31
 1006b2c:	1021883a 	mov	r16,r2
 1006b30:	88037216 	blt	r17,zero,10078fc <___vfprintf_internal_r+0x17fc>
 1006b34:	01000044 	movi	r4,1
 1006b38:	98000416 	blt	r19,zero,1006b4c <___vfprintf_internal_r+0xa4c>
 1006b3c:	d8c14c17 	ldw	r3,1328(sp)
 1006b40:	00bfdfc4 	movi	r2,-129
 1006b44:	1886703a 	and	r3,r3,r2
 1006b48:	d8c14c15 	stw	r3,1328(sp)
 1006b4c:	8444b03a 	or	r2,r16,r17
 1006b50:	1002261e 	bne	r2,zero,10073ec <___vfprintf_internal_r+0x12ec>
 1006b54:	9802251e 	bne	r19,zero,10073ec <___vfprintf_internal_r+0x12ec>
 1006b58:	20803fcc 	andi	r2,r4,255
 1006b5c:	10029b26 	beq	r2,zero,10075cc <___vfprintf_internal_r+0x14cc>
 1006b60:	d8c01904 	addi	r3,sp,100
 1006b64:	dd000f04 	addi	r20,sp,60
 1006b68:	d8c14115 	stw	r3,1284(sp)
 1006b6c:	d8c14117 	ldw	r3,1284(sp)
 1006b70:	dcc14515 	stw	r19,1300(sp)
 1006b74:	a0c5c83a 	sub	r2,r20,r3
 1006b78:	11c00a04 	addi	r7,r2,40
 1006b7c:	99c0010e 	bge	r19,r7,1006b84 <___vfprintf_internal_r+0xa84>
 1006b80:	d9c14515 	stw	r7,1300(sp)
 1006b84:	dcc14615 	stw	r19,1304(sp)
 1006b88:	d8800407 	ldb	r2,16(sp)
 1006b8c:	103e4c26 	beq	r2,zero,10064c0 <___vfprintf_internal_r+0x3c0>
 1006b90:	d8814517 	ldw	r2,1300(sp)
 1006b94:	10800044 	addi	r2,r2,1
 1006b98:	d8814515 	stw	r2,1300(sp)
 1006b9c:	003e4806 	br	10064c0 <___vfprintf_internal_r+0x3c0>
 1006ba0:	d9814c17 	ldw	r6,1328(sp)
 1006ba4:	31800414 	ori	r6,r6,16
 1006ba8:	d9814c15 	stw	r6,1328(sp)
 1006bac:	d8c14c17 	ldw	r3,1328(sp)
 1006bb0:	1880080c 	andi	r2,r3,32
 1006bb4:	1001271e 	bne	r2,zero,1007054 <___vfprintf_internal_r+0xf54>
 1006bb8:	d9414c17 	ldw	r5,1328(sp)
 1006bbc:	2880040c 	andi	r2,r5,16
 1006bc0:	1002b61e 	bne	r2,zero,100769c <___vfprintf_internal_r+0x159c>
 1006bc4:	d9814c17 	ldw	r6,1328(sp)
 1006bc8:	3080100c 	andi	r2,r6,64
 1006bcc:	1002b326 	beq	r2,zero,100769c <___vfprintf_internal_r+0x159c>
 1006bd0:	3c00000b 	ldhu	r16,0(r7)
 1006bd4:	0009883a 	mov	r4,zero
 1006bd8:	39c00104 	addi	r7,r7,4
 1006bdc:	0023883a 	mov	r17,zero
 1006be0:	d9c14015 	stw	r7,1280(sp)
 1006be4:	d8000405 	stb	zero,16(sp)
 1006be8:	003fd306 	br	1006b38 <___vfprintf_internal_r+0xa38>
 1006bec:	d9014c17 	ldw	r4,1328(sp)
 1006bf0:	21000414 	ori	r4,r4,16
 1006bf4:	d9014c15 	stw	r4,1328(sp)
 1006bf8:	d9414c17 	ldw	r5,1328(sp)
 1006bfc:	2880080c 	andi	r2,r5,32
 1006c00:	1001081e 	bne	r2,zero,1007024 <___vfprintf_internal_r+0xf24>
 1006c04:	d8c14c17 	ldw	r3,1328(sp)
 1006c08:	1880040c 	andi	r2,r3,16
 1006c0c:	1002b01e 	bne	r2,zero,10076d0 <___vfprintf_internal_r+0x15d0>
 1006c10:	d9014c17 	ldw	r4,1328(sp)
 1006c14:	2080100c 	andi	r2,r4,64
 1006c18:	1002ad26 	beq	r2,zero,10076d0 <___vfprintf_internal_r+0x15d0>
 1006c1c:	3c00000b 	ldhu	r16,0(r7)
 1006c20:	01000044 	movi	r4,1
 1006c24:	39c00104 	addi	r7,r7,4
 1006c28:	0023883a 	mov	r17,zero
 1006c2c:	d9c14015 	stw	r7,1280(sp)
 1006c30:	d8000405 	stb	zero,16(sp)
 1006c34:	003fc006 	br	1006b38 <___vfprintf_internal_r+0xa38>
 1006c38:	d9014f17 	ldw	r4,1340(sp)
 1006c3c:	b00b883a 	mov	r5,r22
 1006c40:	d9800c04 	addi	r6,sp,48
 1006c44:	10060a80 	call	10060a8 <__sprint_r>
 1006c48:	103ee51e 	bne	r2,zero,10067e0 <___vfprintf_internal_r+0x6e0>
 1006c4c:	dc800e17 	ldw	r18,56(sp)
 1006c50:	d8c01904 	addi	r3,sp,100
 1006c54:	d9814c17 	ldw	r6,1328(sp)
 1006c58:	3080004c 	andi	r2,r6,1
 1006c5c:	1005003a 	cmpeq	r2,r2,zero
 1006c60:	103ea51e 	bne	r2,zero,10066f8 <___vfprintf_internal_r+0x5f8>
 1006c64:	00800044 	movi	r2,1
 1006c68:	dc400d17 	ldw	r17,52(sp)
 1006c6c:	18800115 	stw	r2,4(r3)
 1006c70:	d8814917 	ldw	r2,1316(sp)
 1006c74:	94800044 	addi	r18,r18,1
 1006c78:	8c400044 	addi	r17,r17,1
 1006c7c:	18800015 	stw	r2,0(r3)
 1006c80:	008001c4 	movi	r2,7
 1006c84:	dc800e15 	stw	r18,56(sp)
 1006c88:	dc400d15 	stw	r17,52(sp)
 1006c8c:	14421e0e 	bge	r2,r17,1007508 <___vfprintf_internal_r+0x1408>
 1006c90:	d9014f17 	ldw	r4,1340(sp)
 1006c94:	b00b883a 	mov	r5,r22
 1006c98:	d9800c04 	addi	r6,sp,48
 1006c9c:	10060a80 	call	10060a8 <__sprint_r>
 1006ca0:	103ecf1e 	bne	r2,zero,10067e0 <___vfprintf_internal_r+0x6e0>
 1006ca4:	dc800e17 	ldw	r18,56(sp)
 1006ca8:	d8c01904 	addi	r3,sp,100
 1006cac:	003e9206 	br	10066f8 <___vfprintf_internal_r+0x5f8>
 1006cb0:	d9014f17 	ldw	r4,1340(sp)
 1006cb4:	b00b883a 	mov	r5,r22
 1006cb8:	d9800c04 	addi	r6,sp,48
 1006cbc:	10060a80 	call	10060a8 <__sprint_r>
 1006cc0:	103ec026 	beq	r2,zero,10067c4 <___vfprintf_internal_r+0x6c4>
 1006cc4:	003ec606 	br	10067e0 <___vfprintf_internal_r+0x6e0>
 1006cc8:	d9014f17 	ldw	r4,1340(sp)
 1006ccc:	b00b883a 	mov	r5,r22
 1006cd0:	d9800c04 	addi	r6,sp,48
 1006cd4:	d9c15115 	stw	r7,1348(sp)
 1006cd8:	10060a80 	call	10060a8 <__sprint_r>
 1006cdc:	d9c15117 	ldw	r7,1348(sp)
 1006ce0:	103ebf1e 	bne	r2,zero,10067e0 <___vfprintf_internal_r+0x6e0>
 1006ce4:	dc800e17 	ldw	r18,56(sp)
 1006ce8:	dc400d17 	ldw	r17,52(sp)
 1006cec:	dd401904 	addi	r21,sp,100
 1006cf0:	003e7406 	br	10066c4 <___vfprintf_internal_r+0x5c4>
 1006cf4:	d9014f17 	ldw	r4,1340(sp)
 1006cf8:	b00b883a 	mov	r5,r22
 1006cfc:	d9800c04 	addi	r6,sp,48
 1006d00:	d9c15115 	stw	r7,1348(sp)
 1006d04:	10060a80 	call	10060a8 <__sprint_r>
 1006d08:	d9c15117 	ldw	r7,1348(sp)
 1006d0c:	103eb41e 	bne	r2,zero,10067e0 <___vfprintf_internal_r+0x6e0>
 1006d10:	dd401904 	addi	r21,sp,100
 1006d14:	003d6d06 	br	10062cc <___vfprintf_internal_r+0x1cc>
 1006d18:	d9014f17 	ldw	r4,1340(sp)
 1006d1c:	b00b883a 	mov	r5,r22
 1006d20:	d9800c04 	addi	r6,sp,48
 1006d24:	d9c15115 	stw	r7,1348(sp)
 1006d28:	10060a80 	call	10060a8 <__sprint_r>
 1006d2c:	d9c15117 	ldw	r7,1348(sp)
 1006d30:	103eab1e 	bne	r2,zero,10067e0 <___vfprintf_internal_r+0x6e0>
 1006d34:	dc800e17 	ldw	r18,56(sp)
 1006d38:	dc400d17 	ldw	r17,52(sp)
 1006d3c:	dd401904 	addi	r21,sp,100
 1006d40:	003e3406 	br	1006614 <___vfprintf_internal_r+0x514>
 1006d44:	d9014f17 	ldw	r4,1340(sp)
 1006d48:	b00b883a 	mov	r5,r22
 1006d4c:	d9800c04 	addi	r6,sp,48
 1006d50:	d9c15115 	stw	r7,1348(sp)
 1006d54:	10060a80 	call	10060a8 <__sprint_r>
 1006d58:	d9c15117 	ldw	r7,1348(sp)
 1006d5c:	103ea01e 	bne	r2,zero,10067e0 <___vfprintf_internal_r+0x6e0>
 1006d60:	dc800e17 	ldw	r18,56(sp)
 1006d64:	dc400d17 	ldw	r17,52(sp)
 1006d68:	dd401904 	addi	r21,sp,100
 1006d6c:	003e1c06 	br	10065e0 <___vfprintf_internal_r+0x4e0>
 1006d70:	d9014f17 	ldw	r4,1340(sp)
 1006d74:	b00b883a 	mov	r5,r22
 1006d78:	d9800c04 	addi	r6,sp,48
 1006d7c:	d9c15115 	stw	r7,1348(sp)
 1006d80:	10060a80 	call	10060a8 <__sprint_r>
 1006d84:	d9c15117 	ldw	r7,1348(sp)
 1006d88:	103e951e 	bne	r2,zero,10067e0 <___vfprintf_internal_r+0x6e0>
 1006d8c:	dc800e17 	ldw	r18,56(sp)
 1006d90:	dc400d17 	ldw	r17,52(sp)
 1006d94:	dd401904 	addi	r21,sp,100
 1006d98:	003e0406 	br	10065ac <___vfprintf_internal_r+0x4ac>
 1006d9c:	d9000517 	ldw	r4,20(sp)
 1006da0:	0102520e 	bge	zero,r4,10076ec <___vfprintf_internal_r+0x15ec>
 1006da4:	d9814717 	ldw	r6,1308(sp)
 1006da8:	21807a16 	blt	r4,r6,1006f94 <___vfprintf_internal_r+0xe94>
 1006dac:	d8814117 	ldw	r2,1284(sp)
 1006db0:	91a5883a 	add	r18,r18,r6
 1006db4:	8c400044 	addi	r17,r17,1
 1006db8:	a8800015 	stw	r2,0(r21)
 1006dbc:	008001c4 	movi	r2,7
 1006dc0:	a9800115 	stw	r6,4(r21)
 1006dc4:	dc800e15 	stw	r18,56(sp)
 1006dc8:	dc400d15 	stw	r17,52(sp)
 1006dcc:	1442f616 	blt	r2,r17,10079a8 <___vfprintf_internal_r+0x18a8>
 1006dd0:	a8c00204 	addi	r3,r21,8
 1006dd4:	d9414717 	ldw	r5,1308(sp)
 1006dd8:	2161c83a 	sub	r16,r4,r5
 1006ddc:	043f9d0e 	bge	zero,r16,1006c54 <___vfprintf_internal_r+0xb54>
 1006de0:	00800404 	movi	r2,16
 1006de4:	1402130e 	bge	r2,r16,1007634 <___vfprintf_internal_r+0x1534>
 1006de8:	dc400d17 	ldw	r17,52(sp)
 1006dec:	1027883a 	mov	r19,r2
 1006df0:	07004074 	movhi	fp,257
 1006df4:	e70ee984 	addi	fp,fp,15270
 1006df8:	050001c4 	movi	r20,7
 1006dfc:	00000306 	br	1006e0c <___vfprintf_internal_r+0xd0c>
 1006e00:	18c00204 	addi	r3,r3,8
 1006e04:	843ffc04 	addi	r16,r16,-16
 1006e08:	9c020d0e 	bge	r19,r16,1007640 <___vfprintf_internal_r+0x1540>
 1006e0c:	94800404 	addi	r18,r18,16
 1006e10:	8c400044 	addi	r17,r17,1
 1006e14:	1f000015 	stw	fp,0(r3)
 1006e18:	1cc00115 	stw	r19,4(r3)
 1006e1c:	dc800e15 	stw	r18,56(sp)
 1006e20:	dc400d15 	stw	r17,52(sp)
 1006e24:	a47ff60e 	bge	r20,r17,1006e00 <___vfprintf_internal_r+0xd00>
 1006e28:	d9014f17 	ldw	r4,1340(sp)
 1006e2c:	b00b883a 	mov	r5,r22
 1006e30:	d9800c04 	addi	r6,sp,48
 1006e34:	10060a80 	call	10060a8 <__sprint_r>
 1006e38:	103e691e 	bne	r2,zero,10067e0 <___vfprintf_internal_r+0x6e0>
 1006e3c:	dc800e17 	ldw	r18,56(sp)
 1006e40:	dc400d17 	ldw	r17,52(sp)
 1006e44:	d8c01904 	addi	r3,sp,100
 1006e48:	003fee06 	br	1006e04 <___vfprintf_internal_r+0xd04>
 1006e4c:	d8814717 	ldw	r2,1308(sp)
 1006e50:	143fffc4 	addi	r16,r2,-1
 1006e54:	043e970e 	bge	zero,r16,10068b4 <___vfprintf_internal_r+0x7b4>
 1006e58:	00800404 	movi	r2,16
 1006e5c:	1400180e 	bge	r2,r16,1006ec0 <___vfprintf_internal_r+0xdc0>
 1006e60:	1029883a 	mov	r20,r2
 1006e64:	07004074 	movhi	fp,257
 1006e68:	e70ee984 	addi	fp,fp,15270
 1006e6c:	054001c4 	movi	r21,7
 1006e70:	00000306 	br	1006e80 <___vfprintf_internal_r+0xd80>
 1006e74:	9cc00204 	addi	r19,r19,8
 1006e78:	843ffc04 	addi	r16,r16,-16
 1006e7c:	a400120e 	bge	r20,r16,1006ec8 <___vfprintf_internal_r+0xdc8>
 1006e80:	94800404 	addi	r18,r18,16
 1006e84:	8c400044 	addi	r17,r17,1
 1006e88:	9f000015 	stw	fp,0(r19)
 1006e8c:	9d000115 	stw	r20,4(r19)
 1006e90:	dc800e15 	stw	r18,56(sp)
 1006e94:	dc400d15 	stw	r17,52(sp)
 1006e98:	ac7ff60e 	bge	r21,r17,1006e74 <___vfprintf_internal_r+0xd74>
 1006e9c:	d9014f17 	ldw	r4,1340(sp)
 1006ea0:	b00b883a 	mov	r5,r22
 1006ea4:	d9800c04 	addi	r6,sp,48
 1006ea8:	10060a80 	call	10060a8 <__sprint_r>
 1006eac:	103e4c1e 	bne	r2,zero,10067e0 <___vfprintf_internal_r+0x6e0>
 1006eb0:	dc800e17 	ldw	r18,56(sp)
 1006eb4:	dc400d17 	ldw	r17,52(sp)
 1006eb8:	dcc01904 	addi	r19,sp,100
 1006ebc:	003fee06 	br	1006e78 <___vfprintf_internal_r+0xd78>
 1006ec0:	07004074 	movhi	fp,257
 1006ec4:	e70ee984 	addi	fp,fp,15270
 1006ec8:	9425883a 	add	r18,r18,r16
 1006ecc:	8c400044 	addi	r17,r17,1
 1006ed0:	008001c4 	movi	r2,7
 1006ed4:	9f000015 	stw	fp,0(r19)
 1006ed8:	9c000115 	stw	r16,4(r19)
 1006edc:	dc800e15 	stw	r18,56(sp)
 1006ee0:	dc400d15 	stw	r17,52(sp)
 1006ee4:	147e720e 	bge	r2,r17,10068b0 <___vfprintf_internal_r+0x7b0>
 1006ee8:	d9014f17 	ldw	r4,1340(sp)
 1006eec:	b00b883a 	mov	r5,r22
 1006ef0:	d9800c04 	addi	r6,sp,48
 1006ef4:	10060a80 	call	10060a8 <__sprint_r>
 1006ef8:	103e391e 	bne	r2,zero,10067e0 <___vfprintf_internal_r+0x6e0>
 1006efc:	dc800e17 	ldw	r18,56(sp)
 1006f00:	dc400d17 	ldw	r17,52(sp)
 1006f04:	dcc01904 	addi	r19,sp,100
 1006f08:	003e6a06 	br	10068b4 <___vfprintf_internal_r+0x7b4>
 1006f0c:	d9014f17 	ldw	r4,1340(sp)
 1006f10:	b00b883a 	mov	r5,r22
 1006f14:	d9800c04 	addi	r6,sp,48
 1006f18:	d9c15115 	stw	r7,1348(sp)
 1006f1c:	10060a80 	call	10060a8 <__sprint_r>
 1006f20:	d9c15117 	ldw	r7,1348(sp)
 1006f24:	103e2e1e 	bne	r2,zero,10067e0 <___vfprintf_internal_r+0x6e0>
 1006f28:	dc800e17 	ldw	r18,56(sp)
 1006f2c:	dc400d17 	ldw	r17,52(sp)
 1006f30:	dd401904 	addi	r21,sp,100
 1006f34:	003dba06 	br	1006620 <___vfprintf_internal_r+0x520>
 1006f38:	d9014f17 	ldw	r4,1340(sp)
 1006f3c:	b00b883a 	mov	r5,r22
 1006f40:	d9800c04 	addi	r6,sp,48
 1006f44:	10060a80 	call	10060a8 <__sprint_r>
 1006f48:	103e251e 	bne	r2,zero,10067e0 <___vfprintf_internal_r+0x6e0>
 1006f4c:	dc800e17 	ldw	r18,56(sp)
 1006f50:	dc400d17 	ldw	r17,52(sp)
 1006f54:	dcc01904 	addi	r19,sp,100
 1006f58:	003e4206 	br	1006864 <___vfprintf_internal_r+0x764>
 1006f5c:	d9014f17 	ldw	r4,1340(sp)
 1006f60:	b00b883a 	mov	r5,r22
 1006f64:	d9800c04 	addi	r6,sp,48
 1006f68:	10060a80 	call	10060a8 <__sprint_r>
 1006f6c:	103e1c1e 	bne	r2,zero,10067e0 <___vfprintf_internal_r+0x6e0>
 1006f70:	dc800e17 	ldw	r18,56(sp)
 1006f74:	dc400d17 	ldw	r17,52(sp)
 1006f78:	d8c01904 	addi	r3,sp,100
 1006f7c:	003e2e06 	br	1006838 <___vfprintf_internal_r+0x738>
 1006f80:	d9414c17 	ldw	r5,1328(sp)
 1006f84:	2880004c 	andi	r2,r5,1
 1006f88:	1005003a 	cmpeq	r2,r2,zero
 1006f8c:	103dda1e 	bne	r2,zero,10066f8 <___vfprintf_internal_r+0x5f8>
 1006f90:	003e9f06 	br	1006a10 <___vfprintf_internal_r+0x910>
 1006f94:	d8c14117 	ldw	r3,1284(sp)
 1006f98:	9125883a 	add	r18,r18,r4
 1006f9c:	8c400044 	addi	r17,r17,1
 1006fa0:	008001c4 	movi	r2,7
 1006fa4:	a8c00015 	stw	r3,0(r21)
 1006fa8:	a9000115 	stw	r4,4(r21)
 1006fac:	dc800e15 	stw	r18,56(sp)
 1006fb0:	dc400d15 	stw	r17,52(sp)
 1006fb4:	14426616 	blt	r2,r17,1007950 <___vfprintf_internal_r+0x1850>
 1006fb8:	a8c00204 	addi	r3,r21,8
 1006fbc:	d9414917 	ldw	r5,1316(sp)
 1006fc0:	00800044 	movi	r2,1
 1006fc4:	94800044 	addi	r18,r18,1
 1006fc8:	8c400044 	addi	r17,r17,1
 1006fcc:	18800115 	stw	r2,4(r3)
 1006fd0:	008001c4 	movi	r2,7
 1006fd4:	19400015 	stw	r5,0(r3)
 1006fd8:	dc800e15 	stw	r18,56(sp)
 1006fdc:	dc400d15 	stw	r17,52(sp)
 1006fe0:	2021883a 	mov	r16,r4
 1006fe4:	14425016 	blt	r2,r17,1007928 <___vfprintf_internal_r+0x1828>
 1006fe8:	19400204 	addi	r5,r3,8
 1006fec:	d9814717 	ldw	r6,1308(sp)
 1006ff0:	8c400044 	addi	r17,r17,1
 1006ff4:	dc400d15 	stw	r17,52(sp)
 1006ff8:	3107c83a 	sub	r3,r6,r4
 1006ffc:	d9014117 	ldw	r4,1284(sp)
 1007000:	90e5883a 	add	r18,r18,r3
 1007004:	28c00115 	stw	r3,4(r5)
 1007008:	8105883a 	add	r2,r16,r4
 100700c:	28800015 	stw	r2,0(r5)
 1007010:	008001c4 	movi	r2,7
 1007014:	dc800e15 	stw	r18,56(sp)
 1007018:	147f1d16 	blt	r2,r17,1006c90 <___vfprintf_internal_r+0xb90>
 100701c:	28c00204 	addi	r3,r5,8
 1007020:	003db506 	br	10066f8 <___vfprintf_internal_r+0x5f8>
 1007024:	3c000017 	ldw	r16,0(r7)
 1007028:	3c400117 	ldw	r17,4(r7)
 100702c:	39800204 	addi	r6,r7,8
 1007030:	01000044 	movi	r4,1
 1007034:	d9814015 	stw	r6,1280(sp)
 1007038:	d8000405 	stb	zero,16(sp)
 100703c:	003ebe06 	br	1006b38 <___vfprintf_internal_r+0xa38>
 1007040:	3c000017 	ldw	r16,0(r7)
 1007044:	3c400117 	ldw	r17,4(r7)
 1007048:	38800204 	addi	r2,r7,8
 100704c:	d8814015 	stw	r2,1280(sp)
 1007050:	003eb706 	br	1006b30 <___vfprintf_internal_r+0xa30>
 1007054:	3c000017 	ldw	r16,0(r7)
 1007058:	3c400117 	ldw	r17,4(r7)
 100705c:	39000204 	addi	r4,r7,8
 1007060:	d9014015 	stw	r4,1280(sp)
 1007064:	0009883a 	mov	r4,zero
 1007068:	d8000405 	stb	zero,16(sp)
 100706c:	003eb206 	br	1006b38 <___vfprintf_internal_r+0xa38>
 1007070:	38c00017 	ldw	r3,0(r7)
 1007074:	39c00104 	addi	r7,r7,4
 1007078:	d8c14a15 	stw	r3,1320(sp)
 100707c:	1800d10e 	bge	r3,zero,10073c4 <___vfprintf_internal_r+0x12c4>
 1007080:	00c7c83a 	sub	r3,zero,r3
 1007084:	d8c14a15 	stw	r3,1320(sp)
 1007088:	d9014c17 	ldw	r4,1328(sp)
 100708c:	b8c00007 	ldb	r3,0(r23)
 1007090:	21000114 	ori	r4,r4,4
 1007094:	d9014c15 	stw	r4,1328(sp)
 1007098:	003c9806 	br	10062fc <___vfprintf_internal_r+0x1fc>
 100709c:	d9814c17 	ldw	r6,1328(sp)
 10070a0:	3080080c 	andi	r2,r6,32
 10070a4:	1001f026 	beq	r2,zero,1007868 <___vfprintf_internal_r+0x1768>
 10070a8:	d9014b17 	ldw	r4,1324(sp)
 10070ac:	38800017 	ldw	r2,0(r7)
 10070b0:	39c00104 	addi	r7,r7,4
 10070b4:	d9c14015 	stw	r7,1280(sp)
 10070b8:	2007d7fa 	srai	r3,r4,31
 10070bc:	d9c14017 	ldw	r7,1280(sp)
 10070c0:	11000015 	stw	r4,0(r2)
 10070c4:	10c00115 	stw	r3,4(r2)
 10070c8:	003c6906 	br	1006270 <___vfprintf_internal_r+0x170>
 10070cc:	b8c00007 	ldb	r3,0(r23)
 10070d0:	00801b04 	movi	r2,108
 10070d4:	18824f26 	beq	r3,r2,1007a14 <___vfprintf_internal_r+0x1914>
 10070d8:	d9414c17 	ldw	r5,1328(sp)
 10070dc:	29400414 	ori	r5,r5,16
 10070e0:	d9414c15 	stw	r5,1328(sp)
 10070e4:	003c8506 	br	10062fc <___vfprintf_internal_r+0x1fc>
 10070e8:	d9814c17 	ldw	r6,1328(sp)
 10070ec:	b8c00007 	ldb	r3,0(r23)
 10070f0:	31800814 	ori	r6,r6,32
 10070f4:	d9814c15 	stw	r6,1328(sp)
 10070f8:	003c8006 	br	10062fc <___vfprintf_internal_r+0x1fc>
 10070fc:	d8814c17 	ldw	r2,1328(sp)
 1007100:	3c000017 	ldw	r16,0(r7)
 1007104:	00c01e04 	movi	r3,120
 1007108:	10800094 	ori	r2,r2,2
 100710c:	d8814c15 	stw	r2,1328(sp)
 1007110:	39c00104 	addi	r7,r7,4
 1007114:	01404074 	movhi	r5,257
 1007118:	294ed204 	addi	r5,r5,15176
 100711c:	00800c04 	movi	r2,48
 1007120:	0023883a 	mov	r17,zero
 1007124:	01000084 	movi	r4,2
 1007128:	d9c14015 	stw	r7,1280(sp)
 100712c:	d8c14d15 	stw	r3,1332(sp)
 1007130:	d9414415 	stw	r5,1296(sp)
 1007134:	d8800445 	stb	r2,17(sp)
 1007138:	d8c00485 	stb	r3,18(sp)
 100713c:	d8000405 	stb	zero,16(sp)
 1007140:	003e7d06 	br	1006b38 <___vfprintf_internal_r+0xa38>
 1007144:	d8814c17 	ldw	r2,1328(sp)
 1007148:	b8c00007 	ldb	r3,0(r23)
 100714c:	10801014 	ori	r2,r2,64
 1007150:	d8814c15 	stw	r2,1328(sp)
 1007154:	003c6906 	br	10062fc <___vfprintf_internal_r+0x1fc>
 1007158:	d9414c17 	ldw	r5,1328(sp)
 100715c:	2880020c 	andi	r2,r5,8
 1007160:	1001df26 	beq	r2,zero,10078e0 <___vfprintf_internal_r+0x17e0>
 1007164:	39800017 	ldw	r6,0(r7)
 1007168:	38800204 	addi	r2,r7,8
 100716c:	d8814015 	stw	r2,1280(sp)
 1007170:	d9814215 	stw	r6,1288(sp)
 1007174:	39c00117 	ldw	r7,4(r7)
 1007178:	d9c14315 	stw	r7,1292(sp)
 100717c:	d9014217 	ldw	r4,1288(sp)
 1007180:	d9414317 	ldw	r5,1292(sp)
 1007184:	100c5e00 	call	100c5e0 <__isinfd>
 1007188:	10021726 	beq	r2,zero,10079e8 <___vfprintf_internal_r+0x18e8>
 100718c:	d9014217 	ldw	r4,1288(sp)
 1007190:	d9414317 	ldw	r5,1292(sp)
 1007194:	000d883a 	mov	r6,zero
 1007198:	000f883a 	mov	r7,zero
 100719c:	100fac00 	call	100fac0 <__ltdf2>
 10071a0:	1002ca16 	blt	r2,zero,1007ccc <___vfprintf_internal_r+0x1bcc>
 10071a4:	d9414d17 	ldw	r5,1332(sp)
 10071a8:	008011c4 	movi	r2,71
 10071ac:	11420a16 	blt	r2,r5,10079d8 <___vfprintf_internal_r+0x18d8>
 10071b0:	01804074 	movhi	r6,257
 10071b4:	318ed704 	addi	r6,r6,15196
 10071b8:	d9814115 	stw	r6,1284(sp)
 10071bc:	d9014c17 	ldw	r4,1328(sp)
 10071c0:	00c000c4 	movi	r3,3
 10071c4:	00bfdfc4 	movi	r2,-129
 10071c8:	2088703a 	and	r4,r4,r2
 10071cc:	180f883a 	mov	r7,r3
 10071d0:	d8c14515 	stw	r3,1300(sp)
 10071d4:	d9014c15 	stw	r4,1328(sp)
 10071d8:	d8014615 	stw	zero,1304(sp)
 10071dc:	003e6a06 	br	1006b88 <___vfprintf_internal_r+0xa88>
 10071e0:	38800017 	ldw	r2,0(r7)
 10071e4:	00c00044 	movi	r3,1
 10071e8:	39c00104 	addi	r7,r7,4
 10071ec:	d9c14015 	stw	r7,1280(sp)
 10071f0:	d9000f04 	addi	r4,sp,60
 10071f4:	180f883a 	mov	r7,r3
 10071f8:	d8c14515 	stw	r3,1300(sp)
 10071fc:	d9014115 	stw	r4,1284(sp)
 1007200:	d8800f05 	stb	r2,60(sp)
 1007204:	d8000405 	stb	zero,16(sp)
 1007208:	003cac06 	br	10064bc <___vfprintf_internal_r+0x3bc>
 100720c:	01404074 	movhi	r5,257
 1007210:	294edd04 	addi	r5,r5,15220
 1007214:	d9414415 	stw	r5,1296(sp)
 1007218:	d9814c17 	ldw	r6,1328(sp)
 100721c:	3080080c 	andi	r2,r6,32
 1007220:	1000f926 	beq	r2,zero,1007608 <___vfprintf_internal_r+0x1508>
 1007224:	3c000017 	ldw	r16,0(r7)
 1007228:	3c400117 	ldw	r17,4(r7)
 100722c:	38800204 	addi	r2,r7,8
 1007230:	d8814015 	stw	r2,1280(sp)
 1007234:	d9414c17 	ldw	r5,1328(sp)
 1007238:	2880004c 	andi	r2,r5,1
 100723c:	1005003a 	cmpeq	r2,r2,zero
 1007240:	1000b31e 	bne	r2,zero,1007510 <___vfprintf_internal_r+0x1410>
 1007244:	8444b03a 	or	r2,r16,r17
 1007248:	1000b126 	beq	r2,zero,1007510 <___vfprintf_internal_r+0x1410>
 100724c:	d9814d17 	ldw	r6,1332(sp)
 1007250:	29400094 	ori	r5,r5,2
 1007254:	00800c04 	movi	r2,48
 1007258:	01000084 	movi	r4,2
 100725c:	d9414c15 	stw	r5,1328(sp)
 1007260:	d8800445 	stb	r2,17(sp)
 1007264:	d9800485 	stb	r6,18(sp)
 1007268:	d8000405 	stb	zero,16(sp)
 100726c:	003e3206 	br	1006b38 <___vfprintf_internal_r+0xa38>
 1007270:	01804074 	movhi	r6,257
 1007274:	318ed204 	addi	r6,r6,15176
 1007278:	d9814415 	stw	r6,1296(sp)
 100727c:	003fe606 	br	1007218 <___vfprintf_internal_r+0x1118>
 1007280:	00800ac4 	movi	r2,43
 1007284:	d8800405 	stb	r2,16(sp)
 1007288:	b8c00007 	ldb	r3,0(r23)
 100728c:	003c1b06 	br	10062fc <___vfprintf_internal_r+0x1fc>
 1007290:	d8814c17 	ldw	r2,1328(sp)
 1007294:	b8c00007 	ldb	r3,0(r23)
 1007298:	10800054 	ori	r2,r2,1
 100729c:	d8814c15 	stw	r2,1328(sp)
 10072a0:	003c1606 	br	10062fc <___vfprintf_internal_r+0x1fc>
 10072a4:	d8800407 	ldb	r2,16(sp)
 10072a8:	1000461e 	bne	r2,zero,10073c4 <___vfprintf_internal_r+0x12c4>
 10072ac:	00800804 	movi	r2,32
 10072b0:	d8800405 	stb	r2,16(sp)
 10072b4:	b8c00007 	ldb	r3,0(r23)
 10072b8:	003c1006 	br	10062fc <___vfprintf_internal_r+0x1fc>
 10072bc:	d9814c17 	ldw	r6,1328(sp)
 10072c0:	b8c00007 	ldb	r3,0(r23)
 10072c4:	31800214 	ori	r6,r6,8
 10072c8:	d9814c15 	stw	r6,1328(sp)
 10072cc:	003c0b06 	br	10062fc <___vfprintf_internal_r+0x1fc>
 10072d0:	0007883a 	mov	r3,zero
 10072d4:	01000244 	movi	r4,9
 10072d8:	188002a4 	muli	r2,r3,10
 10072dc:	b8c00007 	ldb	r3,0(r23)
 10072e0:	d9814d17 	ldw	r6,1332(sp)
 10072e4:	bdc00044 	addi	r23,r23,1
 10072e8:	d8c14d15 	stw	r3,1332(sp)
 10072ec:	d9414d17 	ldw	r5,1332(sp)
 10072f0:	3085883a 	add	r2,r6,r2
 10072f4:	10fff404 	addi	r3,r2,-48
 10072f8:	28bff404 	addi	r2,r5,-48
 10072fc:	20bff62e 	bgeu	r4,r2,10072d8 <___vfprintf_internal_r+0x11d8>
 1007300:	d8c14a15 	stw	r3,1320(sp)
 1007304:	003bff06 	br	1006304 <___vfprintf_internal_r+0x204>
 1007308:	d9414c17 	ldw	r5,1328(sp)
 100730c:	b8c00007 	ldb	r3,0(r23)
 1007310:	29402014 	ori	r5,r5,128
 1007314:	d9414c15 	stw	r5,1328(sp)
 1007318:	003bf806 	br	10062fc <___vfprintf_internal_r+0x1fc>
 100731c:	b8c00007 	ldb	r3,0(r23)
 1007320:	00800a84 	movi	r2,42
 1007324:	bdc00044 	addi	r23,r23,1
 1007328:	18831526 	beq	r3,r2,1007f80 <___vfprintf_internal_r+0x1e80>
 100732c:	d8c14d15 	stw	r3,1332(sp)
 1007330:	18bff404 	addi	r2,r3,-48
 1007334:	00c00244 	movi	r3,9
 1007338:	18827836 	bltu	r3,r2,1007d1c <___vfprintf_internal_r+0x1c1c>
 100733c:	000d883a 	mov	r6,zero
 1007340:	308002a4 	muli	r2,r6,10
 1007344:	b9800007 	ldb	r6,0(r23)
 1007348:	d9414d17 	ldw	r5,1332(sp)
 100734c:	bdc00044 	addi	r23,r23,1
 1007350:	d9814d15 	stw	r6,1332(sp)
 1007354:	d9014d17 	ldw	r4,1332(sp)
 1007358:	1145883a 	add	r2,r2,r5
 100735c:	11bff404 	addi	r6,r2,-48
 1007360:	20bff404 	addi	r2,r4,-48
 1007364:	18bff62e 	bgeu	r3,r2,1007340 <___vfprintf_internal_r+0x1240>
 1007368:	3027883a 	mov	r19,r6
 100736c:	303be50e 	bge	r6,zero,1006304 <___vfprintf_internal_r+0x204>
 1007370:	04ffffc4 	movi	r19,-1
 1007374:	003be306 	br	1006304 <___vfprintf_internal_r+0x204>
 1007378:	d8000405 	stb	zero,16(sp)
 100737c:	39800017 	ldw	r6,0(r7)
 1007380:	39c00104 	addi	r7,r7,4
 1007384:	d9c14015 	stw	r7,1280(sp)
 1007388:	d9814115 	stw	r6,1284(sp)
 100738c:	3001c926 	beq	r6,zero,1007ab4 <___vfprintf_internal_r+0x19b4>
 1007390:	98000e16 	blt	r19,zero,10073cc <___vfprintf_internal_r+0x12cc>
 1007394:	d9014117 	ldw	r4,1284(sp)
 1007398:	000b883a 	mov	r5,zero
 100739c:	980d883a 	mov	r6,r19
 10073a0:	100ac480 	call	100ac48 <memchr>
 10073a4:	10025926 	beq	r2,zero,1007d0c <___vfprintf_internal_r+0x1c0c>
 10073a8:	d8c14117 	ldw	r3,1284(sp)
 10073ac:	10cfc83a 	sub	r7,r2,r3
 10073b0:	99c19e16 	blt	r19,r7,1007a2c <___vfprintf_internal_r+0x192c>
 10073b4:	d9c14515 	stw	r7,1300(sp)
 10073b8:	38000916 	blt	r7,zero,10073e0 <___vfprintf_internal_r+0x12e0>
 10073bc:	d8014615 	stw	zero,1304(sp)
 10073c0:	003df106 	br	1006b88 <___vfprintf_internal_r+0xa88>
 10073c4:	b8c00007 	ldb	r3,0(r23)
 10073c8:	003bcc06 	br	10062fc <___vfprintf_internal_r+0x1fc>
 10073cc:	d9014117 	ldw	r4,1284(sp)
 10073d0:	10060180 	call	1006018 <strlen>
 10073d4:	d8814515 	stw	r2,1300(sp)
 10073d8:	100f883a 	mov	r7,r2
 10073dc:	103ff70e 	bge	r2,zero,10073bc <___vfprintf_internal_r+0x12bc>
 10073e0:	d8014515 	stw	zero,1300(sp)
 10073e4:	d8014615 	stw	zero,1304(sp)
 10073e8:	003de706 	br	1006b88 <___vfprintf_internal_r+0xa88>
 10073ec:	20c03fcc 	andi	r3,r4,255
 10073f0:	00800044 	movi	r2,1
 10073f4:	18802d26 	beq	r3,r2,10074ac <___vfprintf_internal_r+0x13ac>
 10073f8:	18800e36 	bltu	r3,r2,1007434 <___vfprintf_internal_r+0x1334>
 10073fc:	00800084 	movi	r2,2
 1007400:	1880fa26 	beq	r3,r2,10077ec <___vfprintf_internal_r+0x16ec>
 1007404:	01004074 	movhi	r4,257
 1007408:	210ee204 	addi	r4,r4,15240
 100740c:	10060180 	call	1006018 <strlen>
 1007410:	100f883a 	mov	r7,r2
 1007414:	dcc14515 	stw	r19,1300(sp)
 1007418:	9880010e 	bge	r19,r2,1007420 <___vfprintf_internal_r+0x1320>
 100741c:	d8814515 	stw	r2,1300(sp)
 1007420:	00804074 	movhi	r2,257
 1007424:	108ee204 	addi	r2,r2,15240
 1007428:	dcc14615 	stw	r19,1304(sp)
 100742c:	d8814115 	stw	r2,1284(sp)
 1007430:	003dd506 	br	1006b88 <___vfprintf_internal_r+0xa88>
 1007434:	d9401904 	addi	r5,sp,100
 1007438:	dd000f04 	addi	r20,sp,60
 100743c:	d9414115 	stw	r5,1284(sp)
 1007440:	880a977a 	slli	r5,r17,29
 1007444:	d9814117 	ldw	r6,1284(sp)
 1007448:	8004d0fa 	srli	r2,r16,3
 100744c:	8806d0fa 	srli	r3,r17,3
 1007450:	810001cc 	andi	r4,r16,7
 1007454:	2884b03a 	or	r2,r5,r2
 1007458:	31bfffc4 	addi	r6,r6,-1
 100745c:	21000c04 	addi	r4,r4,48
 1007460:	d9814115 	stw	r6,1284(sp)
 1007464:	10cab03a 	or	r5,r2,r3
 1007468:	31000005 	stb	r4,0(r6)
 100746c:	1021883a 	mov	r16,r2
 1007470:	1823883a 	mov	r17,r3
 1007474:	283ff21e 	bne	r5,zero,1007440 <___vfprintf_internal_r+0x1340>
 1007478:	d8c14c17 	ldw	r3,1328(sp)
 100747c:	1880004c 	andi	r2,r3,1
 1007480:	1005003a 	cmpeq	r2,r2,zero
 1007484:	103db91e 	bne	r2,zero,1006b6c <___vfprintf_internal_r+0xa6c>
 1007488:	20803fcc 	andi	r2,r4,255
 100748c:	1080201c 	xori	r2,r2,128
 1007490:	10bfe004 	addi	r2,r2,-128
 1007494:	00c00c04 	movi	r3,48
 1007498:	10fdb426 	beq	r2,r3,1006b6c <___vfprintf_internal_r+0xa6c>
 100749c:	31bfffc4 	addi	r6,r6,-1
 10074a0:	d9814115 	stw	r6,1284(sp)
 10074a4:	30c00005 	stb	r3,0(r6)
 10074a8:	003db006 	br	1006b6c <___vfprintf_internal_r+0xa6c>
 10074ac:	88800068 	cmpgeui	r2,r17,1
 10074b0:	10002c1e 	bne	r2,zero,1007564 <___vfprintf_internal_r+0x1464>
 10074b4:	8800021e 	bne	r17,zero,10074c0 <___vfprintf_internal_r+0x13c0>
 10074b8:	00800244 	movi	r2,9
 10074bc:	14002936 	bltu	r2,r16,1007564 <___vfprintf_internal_r+0x1464>
 10074c0:	d90018c4 	addi	r4,sp,99
 10074c4:	dd000f04 	addi	r20,sp,60
 10074c8:	d9014115 	stw	r4,1284(sp)
 10074cc:	d9014117 	ldw	r4,1284(sp)
 10074d0:	80800c04 	addi	r2,r16,48
 10074d4:	20800005 	stb	r2,0(r4)
 10074d8:	003da406 	br	1006b6c <___vfprintf_internal_r+0xa6c>
 10074dc:	dc400d17 	ldw	r17,52(sp)
 10074e0:	07004074 	movhi	fp,257
 10074e4:	e70ee984 	addi	fp,fp,15270
 10074e8:	9425883a 	add	r18,r18,r16
 10074ec:	8c400044 	addi	r17,r17,1
 10074f0:	008001c4 	movi	r2,7
 10074f4:	1f000015 	stw	fp,0(r3)
 10074f8:	1c000115 	stw	r16,4(r3)
 10074fc:	dc800e15 	stw	r18,56(sp)
 1007500:	dc400d15 	stw	r17,52(sp)
 1007504:	147de216 	blt	r2,r17,1006c90 <___vfprintf_internal_r+0xb90>
 1007508:	18c00204 	addi	r3,r3,8
 100750c:	003c7a06 	br	10066f8 <___vfprintf_internal_r+0x5f8>
 1007510:	01000084 	movi	r4,2
 1007514:	d8000405 	stb	zero,16(sp)
 1007518:	003d8706 	br	1006b38 <___vfprintf_internal_r+0xa38>
 100751c:	d9814c17 	ldw	r6,1328(sp)
 1007520:	30c4703a 	and	r2,r6,r3
 1007524:	1005003a 	cmpeq	r2,r2,zero
 1007528:	103cb926 	beq	r2,zero,1006810 <___vfprintf_internal_r+0x710>
 100752c:	d9014117 	ldw	r4,1284(sp)
 1007530:	94800044 	addi	r18,r18,1
 1007534:	8c400044 	addi	r17,r17,1
 1007538:	008001c4 	movi	r2,7
 100753c:	a9000015 	stw	r4,0(r21)
 1007540:	a8c00115 	stw	r3,4(r21)
 1007544:	dc800e15 	stw	r18,56(sp)
 1007548:	dc400d15 	stw	r17,52(sp)
 100754c:	147e6616 	blt	r2,r17,1006ee8 <___vfprintf_internal_r+0xde8>
 1007550:	acc00204 	addi	r19,r21,8
 1007554:	003cd706 	br	10068b4 <___vfprintf_internal_r+0x7b4>
 1007558:	07004074 	movhi	fp,257
 100755c:	e70ee984 	addi	fp,fp,15270
 1007560:	003c4f06 	br	10066a0 <___vfprintf_internal_r+0x5a0>
 1007564:	dd000f04 	addi	r20,sp,60
 1007568:	dc801904 	addi	r18,sp,100
 100756c:	8009883a 	mov	r4,r16
 1007570:	880b883a 	mov	r5,r17
 1007574:	01800284 	movi	r6,10
 1007578:	000f883a 	mov	r7,zero
 100757c:	100e7d00 	call	100e7d0 <__umoddi3>
 1007580:	12000c04 	addi	r8,r2,48
 1007584:	94bfffc4 	addi	r18,r18,-1
 1007588:	8009883a 	mov	r4,r16
 100758c:	880b883a 	mov	r5,r17
 1007590:	01800284 	movi	r6,10
 1007594:	000f883a 	mov	r7,zero
 1007598:	92000005 	stb	r8,0(r18)
 100759c:	100e1f40 	call	100e1f4 <__udivdi3>
 10075a0:	1009883a 	mov	r4,r2
 10075a4:	1021883a 	mov	r16,r2
 10075a8:	18800068 	cmpgeui	r2,r3,1
 10075ac:	1823883a 	mov	r17,r3
 10075b0:	103fee1e 	bne	r2,zero,100756c <___vfprintf_internal_r+0x146c>
 10075b4:	1800021e 	bne	r3,zero,10075c0 <___vfprintf_internal_r+0x14c0>
 10075b8:	00800244 	movi	r2,9
 10075bc:	113feb36 	bltu	r2,r4,100756c <___vfprintf_internal_r+0x146c>
 10075c0:	94bfffc4 	addi	r18,r18,-1
 10075c4:	dc814115 	stw	r18,1284(sp)
 10075c8:	003fc006 	br	10074cc <___vfprintf_internal_r+0x13cc>
 10075cc:	d9014c17 	ldw	r4,1328(sp)
 10075d0:	2080004c 	andi	r2,r4,1
 10075d4:	10009a1e 	bne	r2,zero,1007840 <___vfprintf_internal_r+0x1740>
 10075d8:	d9401904 	addi	r5,sp,100
 10075dc:	dd000f04 	addi	r20,sp,60
 10075e0:	d9414115 	stw	r5,1284(sp)
 10075e4:	003d6106 	br	1006b6c <___vfprintf_internal_r+0xa6c>
 10075e8:	d9014f17 	ldw	r4,1340(sp)
 10075ec:	b00b883a 	mov	r5,r22
 10075f0:	d9800c04 	addi	r6,sp,48
 10075f4:	10060a80 	call	10060a8 <__sprint_r>
 10075f8:	103c791e 	bne	r2,zero,10067e0 <___vfprintf_internal_r+0x6e0>
 10075fc:	dc800e17 	ldw	r18,56(sp)
 1007600:	d8c01904 	addi	r3,sp,100
 1007604:	003cff06 	br	1006a04 <___vfprintf_internal_r+0x904>
 1007608:	d8c14c17 	ldw	r3,1328(sp)
 100760c:	1880040c 	andi	r2,r3,16
 1007610:	1000711e 	bne	r2,zero,10077d8 <___vfprintf_internal_r+0x16d8>
 1007614:	d9014c17 	ldw	r4,1328(sp)
 1007618:	2080100c 	andi	r2,r4,64
 100761c:	10006e26 	beq	r2,zero,10077d8 <___vfprintf_internal_r+0x16d8>
 1007620:	3c00000b 	ldhu	r16,0(r7)
 1007624:	0023883a 	mov	r17,zero
 1007628:	39c00104 	addi	r7,r7,4
 100762c:	d9c14015 	stw	r7,1280(sp)
 1007630:	003f0006 	br	1007234 <___vfprintf_internal_r+0x1134>
 1007634:	dc400d17 	ldw	r17,52(sp)
 1007638:	07004074 	movhi	fp,257
 100763c:	e70ee984 	addi	fp,fp,15270
 1007640:	9425883a 	add	r18,r18,r16
 1007644:	8c400044 	addi	r17,r17,1
 1007648:	008001c4 	movi	r2,7
 100764c:	1f000015 	stw	fp,0(r3)
 1007650:	1c000115 	stw	r16,4(r3)
 1007654:	dc800e15 	stw	r18,56(sp)
 1007658:	dc400d15 	stw	r17,52(sp)
 100765c:	147d7616 	blt	r2,r17,1006c38 <___vfprintf_internal_r+0xb38>
 1007660:	18c00204 	addi	r3,r3,8
 1007664:	003d7b06 	br	1006c54 <___vfprintf_internal_r+0xb54>
 1007668:	dc800e17 	ldw	r18,56(sp)
 100766c:	dc400d17 	ldw	r17,52(sp)
 1007670:	07004074 	movhi	fp,257
 1007674:	e70eed84 	addi	fp,fp,15286
 1007678:	003bc006 	br	100657c <___vfprintf_internal_r+0x47c>
 100767c:	d9014f17 	ldw	r4,1340(sp)
 1007680:	b00b883a 	mov	r5,r22
 1007684:	d9800c04 	addi	r6,sp,48
 1007688:	10060a80 	call	10060a8 <__sprint_r>
 100768c:	103c541e 	bne	r2,zero,10067e0 <___vfprintf_internal_r+0x6e0>
 1007690:	dc800e17 	ldw	r18,56(sp)
 1007694:	d8c01904 	addi	r3,sp,100
 1007698:	003ce906 	br	1006a40 <___vfprintf_internal_r+0x940>
 100769c:	3c000017 	ldw	r16,0(r7)
 10076a0:	0009883a 	mov	r4,zero
 10076a4:	39c00104 	addi	r7,r7,4
 10076a8:	0023883a 	mov	r17,zero
 10076ac:	d9c14015 	stw	r7,1280(sp)
 10076b0:	d8000405 	stb	zero,16(sp)
 10076b4:	003d2006 	br	1006b38 <___vfprintf_internal_r+0xa38>
 10076b8:	38800017 	ldw	r2,0(r7)
 10076bc:	39c00104 	addi	r7,r7,4
 10076c0:	d9c14015 	stw	r7,1280(sp)
 10076c4:	1023d7fa 	srai	r17,r2,31
 10076c8:	1021883a 	mov	r16,r2
 10076cc:	003d1806 	br	1006b30 <___vfprintf_internal_r+0xa30>
 10076d0:	3c000017 	ldw	r16,0(r7)
 10076d4:	01000044 	movi	r4,1
 10076d8:	39c00104 	addi	r7,r7,4
 10076dc:	0023883a 	mov	r17,zero
 10076e0:	d9c14015 	stw	r7,1280(sp)
 10076e4:	d8000405 	stb	zero,16(sp)
 10076e8:	003d1306 	br	1006b38 <___vfprintf_internal_r+0xa38>
 10076ec:	00804074 	movhi	r2,257
 10076f0:	108ee904 	addi	r2,r2,15268
 10076f4:	94800044 	addi	r18,r18,1
 10076f8:	8c400044 	addi	r17,r17,1
 10076fc:	a8800015 	stw	r2,0(r21)
 1007700:	00c00044 	movi	r3,1
 1007704:	008001c4 	movi	r2,7
 1007708:	a8c00115 	stw	r3,4(r21)
 100770c:	dc800e15 	stw	r18,56(sp)
 1007710:	dc400d15 	stw	r17,52(sp)
 1007714:	1440ca16 	blt	r2,r17,1007a40 <___vfprintf_internal_r+0x1940>
 1007718:	a8c00204 	addi	r3,r21,8
 100771c:	2000061e 	bne	r4,zero,1007738 <___vfprintf_internal_r+0x1638>
 1007720:	d9414717 	ldw	r5,1308(sp)
 1007724:	2800041e 	bne	r5,zero,1007738 <___vfprintf_internal_r+0x1638>
 1007728:	d9814c17 	ldw	r6,1328(sp)
 100772c:	3080004c 	andi	r2,r6,1
 1007730:	1005003a 	cmpeq	r2,r2,zero
 1007734:	103bf01e 	bne	r2,zero,10066f8 <___vfprintf_internal_r+0x5f8>
 1007738:	00800044 	movi	r2,1
 100773c:	dc400d17 	ldw	r17,52(sp)
 1007740:	18800115 	stw	r2,4(r3)
 1007744:	d8814917 	ldw	r2,1316(sp)
 1007748:	94800044 	addi	r18,r18,1
 100774c:	8c400044 	addi	r17,r17,1
 1007750:	18800015 	stw	r2,0(r3)
 1007754:	008001c4 	movi	r2,7
 1007758:	dc800e15 	stw	r18,56(sp)
 100775c:	dc400d15 	stw	r17,52(sp)
 1007760:	1440ca16 	blt	r2,r17,1007a8c <___vfprintf_internal_r+0x198c>
 1007764:	18c00204 	addi	r3,r3,8
 1007768:	0121c83a 	sub	r16,zero,r4
 100776c:	0400500e 	bge	zero,r16,10078b0 <___vfprintf_internal_r+0x17b0>
 1007770:	00800404 	movi	r2,16
 1007774:	1400800e 	bge	r2,r16,1007978 <___vfprintf_internal_r+0x1878>
 1007778:	1027883a 	mov	r19,r2
 100777c:	07004074 	movhi	fp,257
 1007780:	e70ee984 	addi	fp,fp,15270
 1007784:	050001c4 	movi	r20,7
 1007788:	00000306 	br	1007798 <___vfprintf_internal_r+0x1698>
 100778c:	18c00204 	addi	r3,r3,8
 1007790:	843ffc04 	addi	r16,r16,-16
 1007794:	9c007a0e 	bge	r19,r16,1007980 <___vfprintf_internal_r+0x1880>
 1007798:	94800404 	addi	r18,r18,16
 100779c:	8c400044 	addi	r17,r17,1
 10077a0:	1f000015 	stw	fp,0(r3)
 10077a4:	1cc00115 	stw	r19,4(r3)
 10077a8:	dc800e15 	stw	r18,56(sp)
 10077ac:	dc400d15 	stw	r17,52(sp)
 10077b0:	a47ff60e 	bge	r20,r17,100778c <___vfprintf_internal_r+0x168c>
 10077b4:	d9014f17 	ldw	r4,1340(sp)
 10077b8:	b00b883a 	mov	r5,r22
 10077bc:	d9800c04 	addi	r6,sp,48
 10077c0:	10060a80 	call	10060a8 <__sprint_r>
 10077c4:	103c061e 	bne	r2,zero,10067e0 <___vfprintf_internal_r+0x6e0>
 10077c8:	dc800e17 	ldw	r18,56(sp)
 10077cc:	dc400d17 	ldw	r17,52(sp)
 10077d0:	d8c01904 	addi	r3,sp,100
 10077d4:	003fee06 	br	1007790 <___vfprintf_internal_r+0x1690>
 10077d8:	3c000017 	ldw	r16,0(r7)
 10077dc:	0023883a 	mov	r17,zero
 10077e0:	39c00104 	addi	r7,r7,4
 10077e4:	d9c14015 	stw	r7,1280(sp)
 10077e8:	003e9206 	br	1007234 <___vfprintf_internal_r+0x1134>
 10077ec:	d9401904 	addi	r5,sp,100
 10077f0:	dd000f04 	addi	r20,sp,60
 10077f4:	d9414115 	stw	r5,1284(sp)
 10077f8:	d9814417 	ldw	r6,1296(sp)
 10077fc:	880a973a 	slli	r5,r17,28
 1007800:	8004d13a 	srli	r2,r16,4
 1007804:	810003cc 	andi	r4,r16,15
 1007808:	3109883a 	add	r4,r6,r4
 100780c:	2884b03a 	or	r2,r5,r2
 1007810:	21400003 	ldbu	r5,0(r4)
 1007814:	d9014117 	ldw	r4,1284(sp)
 1007818:	8806d13a 	srli	r3,r17,4
 100781c:	1021883a 	mov	r16,r2
 1007820:	213fffc4 	addi	r4,r4,-1
 1007824:	d9014115 	stw	r4,1284(sp)
 1007828:	d9814117 	ldw	r6,1284(sp)
 100782c:	10c8b03a 	or	r4,r2,r3
 1007830:	1823883a 	mov	r17,r3
 1007834:	31400005 	stb	r5,0(r6)
 1007838:	203fef1e 	bne	r4,zero,10077f8 <___vfprintf_internal_r+0x16f8>
 100783c:	003ccb06 	br	1006b6c <___vfprintf_internal_r+0xa6c>
 1007840:	00800c04 	movi	r2,48
 1007844:	d98018c4 	addi	r6,sp,99
 1007848:	dd000f04 	addi	r20,sp,60
 100784c:	d88018c5 	stb	r2,99(sp)
 1007850:	d9814115 	stw	r6,1284(sp)
 1007854:	003cc506 	br	1006b6c <___vfprintf_internal_r+0xa6c>
 1007858:	dc400d17 	ldw	r17,52(sp)
 100785c:	07004074 	movhi	fp,257
 1007860:	e70eed84 	addi	fp,fp,15286
 1007864:	003bc706 	br	1006784 <___vfprintf_internal_r+0x684>
 1007868:	d9414c17 	ldw	r5,1328(sp)
 100786c:	2880040c 	andi	r2,r5,16
 1007870:	10007c26 	beq	r2,zero,1007a64 <___vfprintf_internal_r+0x1964>
 1007874:	38800017 	ldw	r2,0(r7)
 1007878:	39c00104 	addi	r7,r7,4
 100787c:	d9c14015 	stw	r7,1280(sp)
 1007880:	d9814b17 	ldw	r6,1324(sp)
 1007884:	d9c14017 	ldw	r7,1280(sp)
 1007888:	11800015 	stw	r6,0(r2)
 100788c:	003a7806 	br	1006270 <___vfprintf_internal_r+0x170>
 1007890:	d9014f17 	ldw	r4,1340(sp)
 1007894:	b00b883a 	mov	r5,r22
 1007898:	d9800c04 	addi	r6,sp,48
 100789c:	10060a80 	call	10060a8 <__sprint_r>
 10078a0:	103bcf1e 	bne	r2,zero,10067e0 <___vfprintf_internal_r+0x6e0>
 10078a4:	dc800e17 	ldw	r18,56(sp)
 10078a8:	dc400d17 	ldw	r17,52(sp)
 10078ac:	d8c01904 	addi	r3,sp,100
 10078b0:	d9014717 	ldw	r4,1308(sp)
 10078b4:	d9414117 	ldw	r5,1284(sp)
 10078b8:	8c400044 	addi	r17,r17,1
 10078bc:	9125883a 	add	r18,r18,r4
 10078c0:	008001c4 	movi	r2,7
 10078c4:	19400015 	stw	r5,0(r3)
 10078c8:	19000115 	stw	r4,4(r3)
 10078cc:	dc800e15 	stw	r18,56(sp)
 10078d0:	dc400d15 	stw	r17,52(sp)
 10078d4:	147cee16 	blt	r2,r17,1006c90 <___vfprintf_internal_r+0xb90>
 10078d8:	18c00204 	addi	r3,r3,8
 10078dc:	003b8606 	br	10066f8 <___vfprintf_internal_r+0x5f8>
 10078e0:	38c00017 	ldw	r3,0(r7)
 10078e4:	39000204 	addi	r4,r7,8
 10078e8:	d9014015 	stw	r4,1280(sp)
 10078ec:	d8c14215 	stw	r3,1288(sp)
 10078f0:	39c00117 	ldw	r7,4(r7)
 10078f4:	d9c14315 	stw	r7,1292(sp)
 10078f8:	003e2006 	br	100717c <___vfprintf_internal_r+0x107c>
 10078fc:	0005883a 	mov	r2,zero
 1007900:	1409c83a 	sub	r4,r2,r16
 1007904:	1105803a 	cmpltu	r2,r2,r4
 1007908:	044bc83a 	sub	r5,zero,r17
 100790c:	2885c83a 	sub	r2,r5,r2
 1007910:	2021883a 	mov	r16,r4
 1007914:	1023883a 	mov	r17,r2
 1007918:	01000044 	movi	r4,1
 100791c:	00800b44 	movi	r2,45
 1007920:	d8800405 	stb	r2,16(sp)
 1007924:	003c8406 	br	1006b38 <___vfprintf_internal_r+0xa38>
 1007928:	d9014f17 	ldw	r4,1340(sp)
 100792c:	b00b883a 	mov	r5,r22
 1007930:	d9800c04 	addi	r6,sp,48
 1007934:	10060a80 	call	10060a8 <__sprint_r>
 1007938:	103ba91e 	bne	r2,zero,10067e0 <___vfprintf_internal_r+0x6e0>
 100793c:	dc800e17 	ldw	r18,56(sp)
 1007940:	dc400d17 	ldw	r17,52(sp)
 1007944:	d9000517 	ldw	r4,20(sp)
 1007948:	d9401904 	addi	r5,sp,100
 100794c:	003da706 	br	1006fec <___vfprintf_internal_r+0xeec>
 1007950:	d9014f17 	ldw	r4,1340(sp)
 1007954:	b00b883a 	mov	r5,r22
 1007958:	d9800c04 	addi	r6,sp,48
 100795c:	10060a80 	call	10060a8 <__sprint_r>
 1007960:	103b9f1e 	bne	r2,zero,10067e0 <___vfprintf_internal_r+0x6e0>
 1007964:	dc800e17 	ldw	r18,56(sp)
 1007968:	dc400d17 	ldw	r17,52(sp)
 100796c:	d9000517 	ldw	r4,20(sp)
 1007970:	d8c01904 	addi	r3,sp,100
 1007974:	003d9106 	br	1006fbc <___vfprintf_internal_r+0xebc>
 1007978:	07004074 	movhi	fp,257
 100797c:	e70ee984 	addi	fp,fp,15270
 1007980:	9425883a 	add	r18,r18,r16
 1007984:	8c400044 	addi	r17,r17,1
 1007988:	008001c4 	movi	r2,7
 100798c:	1f000015 	stw	fp,0(r3)
 1007990:	1c000115 	stw	r16,4(r3)
 1007994:	dc800e15 	stw	r18,56(sp)
 1007998:	dc400d15 	stw	r17,52(sp)
 100799c:	147fbc16 	blt	r2,r17,1007890 <___vfprintf_internal_r+0x1790>
 10079a0:	18c00204 	addi	r3,r3,8
 10079a4:	003fc206 	br	10078b0 <___vfprintf_internal_r+0x17b0>
 10079a8:	d9014f17 	ldw	r4,1340(sp)
 10079ac:	b00b883a 	mov	r5,r22
 10079b0:	d9800c04 	addi	r6,sp,48
 10079b4:	10060a80 	call	10060a8 <__sprint_r>
 10079b8:	103b891e 	bne	r2,zero,10067e0 <___vfprintf_internal_r+0x6e0>
 10079bc:	dc800e17 	ldw	r18,56(sp)
 10079c0:	d9000517 	ldw	r4,20(sp)
 10079c4:	d8c01904 	addi	r3,sp,100
 10079c8:	003d0206 	br	1006dd4 <___vfprintf_internal_r+0xcd4>
 10079cc:	07004074 	movhi	fp,257
 10079d0:	e70ee984 	addi	fp,fp,15270
 10079d4:	003be406 	br	1006968 <___vfprintf_internal_r+0x868>
 10079d8:	00804074 	movhi	r2,257
 10079dc:	108ed804 	addi	r2,r2,15200
 10079e0:	d8814115 	stw	r2,1284(sp)
 10079e4:	003df506 	br	10071bc <___vfprintf_internal_r+0x10bc>
 10079e8:	d9014217 	ldw	r4,1288(sp)
 10079ec:	d9414317 	ldw	r5,1292(sp)
 10079f0:	100c6200 	call	100c620 <__isnand>
 10079f4:	10003926 	beq	r2,zero,1007adc <___vfprintf_internal_r+0x19dc>
 10079f8:	d9414d17 	ldw	r5,1332(sp)
 10079fc:	008011c4 	movi	r2,71
 1007a00:	1140ce16 	blt	r2,r5,1007d3c <___vfprintf_internal_r+0x1c3c>
 1007a04:	01804074 	movhi	r6,257
 1007a08:	318ed904 	addi	r6,r6,15204
 1007a0c:	d9814115 	stw	r6,1284(sp)
 1007a10:	003dea06 	br	10071bc <___vfprintf_internal_r+0x10bc>
 1007a14:	d9014c17 	ldw	r4,1328(sp)
 1007a18:	bdc00044 	addi	r23,r23,1
 1007a1c:	b8c00007 	ldb	r3,0(r23)
 1007a20:	21000814 	ori	r4,r4,32
 1007a24:	d9014c15 	stw	r4,1328(sp)
 1007a28:	003a3406 	br	10062fc <___vfprintf_internal_r+0x1fc>
 1007a2c:	dcc14515 	stw	r19,1300(sp)
 1007a30:	98011016 	blt	r19,zero,1007e74 <___vfprintf_internal_r+0x1d74>
 1007a34:	980f883a 	mov	r7,r19
 1007a38:	d8014615 	stw	zero,1304(sp)
 1007a3c:	003c5206 	br	1006b88 <___vfprintf_internal_r+0xa88>
 1007a40:	d9014f17 	ldw	r4,1340(sp)
 1007a44:	b00b883a 	mov	r5,r22
 1007a48:	d9800c04 	addi	r6,sp,48
 1007a4c:	10060a80 	call	10060a8 <__sprint_r>
 1007a50:	103b631e 	bne	r2,zero,10067e0 <___vfprintf_internal_r+0x6e0>
 1007a54:	dc800e17 	ldw	r18,56(sp)
 1007a58:	d9000517 	ldw	r4,20(sp)
 1007a5c:	d8c01904 	addi	r3,sp,100
 1007a60:	003f2e06 	br	100771c <___vfprintf_internal_r+0x161c>
 1007a64:	d8c14c17 	ldw	r3,1328(sp)
 1007a68:	1880100c 	andi	r2,r3,64
 1007a6c:	1000a026 	beq	r2,zero,1007cf0 <___vfprintf_internal_r+0x1bf0>
 1007a70:	38800017 	ldw	r2,0(r7)
 1007a74:	39c00104 	addi	r7,r7,4
 1007a78:	d9c14015 	stw	r7,1280(sp)
 1007a7c:	d9014b17 	ldw	r4,1324(sp)
 1007a80:	d9c14017 	ldw	r7,1280(sp)
 1007a84:	1100000d 	sth	r4,0(r2)
 1007a88:	0039f906 	br	1006270 <___vfprintf_internal_r+0x170>
 1007a8c:	d9014f17 	ldw	r4,1340(sp)
 1007a90:	b00b883a 	mov	r5,r22
 1007a94:	d9800c04 	addi	r6,sp,48
 1007a98:	10060a80 	call	10060a8 <__sprint_r>
 1007a9c:	103b501e 	bne	r2,zero,10067e0 <___vfprintf_internal_r+0x6e0>
 1007aa0:	dc800e17 	ldw	r18,56(sp)
 1007aa4:	dc400d17 	ldw	r17,52(sp)
 1007aa8:	d9000517 	ldw	r4,20(sp)
 1007aac:	d8c01904 	addi	r3,sp,100
 1007ab0:	003f2d06 	br	1007768 <___vfprintf_internal_r+0x1668>
 1007ab4:	00800184 	movi	r2,6
 1007ab8:	14c09a36 	bltu	r2,r19,1007d24 <___vfprintf_internal_r+0x1c24>
 1007abc:	dcc14515 	stw	r19,1300(sp)
 1007ac0:	9800010e 	bge	r19,zero,1007ac8 <___vfprintf_internal_r+0x19c8>
 1007ac4:	d8014515 	stw	zero,1300(sp)
 1007ac8:	00804074 	movhi	r2,257
 1007acc:	108edb04 	addi	r2,r2,15212
 1007ad0:	980f883a 	mov	r7,r19
 1007ad4:	d8814115 	stw	r2,1284(sp)
 1007ad8:	003a7806 	br	10064bc <___vfprintf_internal_r+0x3bc>
 1007adc:	00bfffc4 	movi	r2,-1
 1007ae0:	9880e226 	beq	r19,r2,1007e6c <___vfprintf_internal_r+0x1d6c>
 1007ae4:	d9414d17 	ldw	r5,1332(sp)
 1007ae8:	008019c4 	movi	r2,103
 1007aec:	2880dc26 	beq	r5,r2,1007e60 <___vfprintf_internal_r+0x1d60>
 1007af0:	008011c4 	movi	r2,71
 1007af4:	2880da26 	beq	r5,r2,1007e60 <___vfprintf_internal_r+0x1d60>
 1007af8:	d9414c17 	ldw	r5,1328(sp)
 1007afc:	d9014317 	ldw	r4,1292(sp)
 1007b00:	d9814217 	ldw	r6,1288(sp)
 1007b04:	29404014 	ori	r5,r5,256
 1007b08:	d9414c15 	stw	r5,1328(sp)
 1007b0c:	2000cc16 	blt	r4,zero,1007e40 <___vfprintf_internal_r+0x1d40>
 1007b10:	3021883a 	mov	r16,r6
 1007b14:	2023883a 	mov	r17,r4
 1007b18:	0039883a 	mov	fp,zero
 1007b1c:	d9414d17 	ldw	r5,1332(sp)
 1007b20:	00801984 	movi	r2,102
 1007b24:	2880b726 	beq	r5,r2,1007e04 <___vfprintf_internal_r+0x1d04>
 1007b28:	00801184 	movi	r2,70
 1007b2c:	2880b526 	beq	r5,r2,1007e04 <___vfprintf_internal_r+0x1d04>
 1007b30:	00801944 	movi	r2,101
 1007b34:	2880c826 	beq	r5,r2,1007e58 <___vfprintf_internal_r+0x1d58>
 1007b38:	00801144 	movi	r2,69
 1007b3c:	2880c626 	beq	r5,r2,1007e58 <___vfprintf_internal_r+0x1d58>
 1007b40:	9829883a 	mov	r20,r19
 1007b44:	d9014f17 	ldw	r4,1340(sp)
 1007b48:	d8800504 	addi	r2,sp,20
 1007b4c:	880d883a 	mov	r6,r17
 1007b50:	d8800115 	stw	r2,4(sp)
 1007b54:	d8c00604 	addi	r3,sp,24
 1007b58:	d8800704 	addi	r2,sp,28
 1007b5c:	800b883a 	mov	r5,r16
 1007b60:	01c00084 	movi	r7,2
 1007b64:	d8c00215 	stw	r3,8(sp)
 1007b68:	d8800315 	stw	r2,12(sp)
 1007b6c:	dd000015 	stw	r20,0(sp)
 1007b70:	10084f00 	call	10084f0 <_dtoa_r>
 1007b74:	d9814d17 	ldw	r6,1332(sp)
 1007b78:	d8814115 	stw	r2,1284(sp)
 1007b7c:	008019c4 	movi	r2,103
 1007b80:	30809526 	beq	r6,r2,1007dd8 <___vfprintf_internal_r+0x1cd8>
 1007b84:	d8c14d17 	ldw	r3,1332(sp)
 1007b88:	008011c4 	movi	r2,71
 1007b8c:	18809226 	beq	r3,r2,1007dd8 <___vfprintf_internal_r+0x1cd8>
 1007b90:	d9414117 	ldw	r5,1284(sp)
 1007b94:	d9814d17 	ldw	r6,1332(sp)
 1007b98:	00801984 	movi	r2,102
 1007b9c:	2d25883a 	add	r18,r5,r20
 1007ba0:	30808626 	beq	r6,r2,1007dbc <___vfprintf_internal_r+0x1cbc>
 1007ba4:	00801184 	movi	r2,70
 1007ba8:	30808426 	beq	r6,r2,1007dbc <___vfprintf_internal_r+0x1cbc>
 1007bac:	000d883a 	mov	r6,zero
 1007bb0:	000f883a 	mov	r7,zero
 1007bb4:	880b883a 	mov	r5,r17
 1007bb8:	8009883a 	mov	r4,r16
 1007bbc:	100f8a00 	call	100f8a0 <__eqdf2>
 1007bc0:	1000751e 	bne	r2,zero,1007d98 <___vfprintf_internal_r+0x1c98>
 1007bc4:	9005883a 	mov	r2,r18
 1007bc8:	dc800715 	stw	r18,28(sp)
 1007bcc:	d9014117 	ldw	r4,1284(sp)
 1007bd0:	d9414d17 	ldw	r5,1332(sp)
 1007bd4:	00c019c4 	movi	r3,103
 1007bd8:	1125c83a 	sub	r18,r2,r4
 1007bdc:	28c06826 	beq	r5,r3,1007d80 <___vfprintf_internal_r+0x1c80>
 1007be0:	008011c4 	movi	r2,71
 1007be4:	28806626 	beq	r5,r2,1007d80 <___vfprintf_internal_r+0x1c80>
 1007be8:	d9000517 	ldw	r4,20(sp)
 1007bec:	d8c14d17 	ldw	r3,1332(sp)
 1007bf0:	00801944 	movi	r2,101
 1007bf4:	10c05516 	blt	r2,r3,1007d4c <___vfprintf_internal_r+0x1c4c>
 1007bf8:	213fffc4 	addi	r4,r4,-1
 1007bfc:	d9000515 	stw	r4,20(sp)
 1007c00:	d8c00805 	stb	r3,32(sp)
 1007c04:	2021883a 	mov	r16,r4
 1007c08:	2000c116 	blt	r4,zero,1007f10 <___vfprintf_internal_r+0x1e10>
 1007c0c:	00800ac4 	movi	r2,43
 1007c10:	d8800845 	stb	r2,33(sp)
 1007c14:	00800244 	movi	r2,9
 1007c18:	1400af0e 	bge	r2,r16,1007ed8 <___vfprintf_internal_r+0x1dd8>
 1007c1c:	1027883a 	mov	r19,r2
 1007c20:	dc400b84 	addi	r17,sp,46
 1007c24:	8009883a 	mov	r4,r16
 1007c28:	01400284 	movi	r5,10
 1007c2c:	100ff880 	call	100ff88 <__modsi3>
 1007c30:	10800c04 	addi	r2,r2,48
 1007c34:	8c7fffc4 	addi	r17,r17,-1
 1007c38:	8009883a 	mov	r4,r16
 1007c3c:	01400284 	movi	r5,10
 1007c40:	88800005 	stb	r2,0(r17)
 1007c44:	100ff280 	call	100ff28 <__divsi3>
 1007c48:	1021883a 	mov	r16,r2
 1007c4c:	98bff516 	blt	r19,r2,1007c24 <___vfprintf_internal_r+0x1b24>
 1007c50:	10c00c04 	addi	r3,r2,48
 1007c54:	d88009c4 	addi	r2,sp,39
 1007c58:	108001c4 	addi	r2,r2,7
 1007c5c:	897fffc4 	addi	r5,r17,-1
 1007c60:	88ffffc5 	stb	r3,-1(r17)
 1007c64:	2880a72e 	bgeu	r5,r2,1007f04 <___vfprintf_internal_r+0x1e04>
 1007c68:	1009883a 	mov	r4,r2
 1007c6c:	d9800804 	addi	r6,sp,32
 1007c70:	d8c00884 	addi	r3,sp,34
 1007c74:	28800003 	ldbu	r2,0(r5)
 1007c78:	29400044 	addi	r5,r5,1
 1007c7c:	18800005 	stb	r2,0(r3)
 1007c80:	18c00044 	addi	r3,r3,1
 1007c84:	293ffb36 	bltu	r5,r4,1007c74 <___vfprintf_internal_r+0x1b74>
 1007c88:	1987c83a 	sub	r3,r3,r6
 1007c8c:	00800044 	movi	r2,1
 1007c90:	d8c14815 	stw	r3,1312(sp)
 1007c94:	90cf883a 	add	r7,r18,r3
 1007c98:	1480960e 	bge	r2,r18,1007ef4 <___vfprintf_internal_r+0x1df4>
 1007c9c:	39c00044 	addi	r7,r7,1
 1007ca0:	d9c14515 	stw	r7,1300(sp)
 1007ca4:	38003416 	blt	r7,zero,1007d78 <___vfprintf_internal_r+0x1c78>
 1007ca8:	e0803fcc 	andi	r2,fp,255
 1007cac:	1080201c 	xori	r2,r2,128
 1007cb0:	10bfe004 	addi	r2,r2,-128
 1007cb4:	10004e26 	beq	r2,zero,1007df0 <___vfprintf_internal_r+0x1cf0>
 1007cb8:	00800b44 	movi	r2,45
 1007cbc:	dc814715 	stw	r18,1308(sp)
 1007cc0:	d8014615 	stw	zero,1304(sp)
 1007cc4:	d8800405 	stb	r2,16(sp)
 1007cc8:	003bb106 	br	1006b90 <___vfprintf_internal_r+0xa90>
 1007ccc:	00800b44 	movi	r2,45
 1007cd0:	d8800405 	stb	r2,16(sp)
 1007cd4:	003d3306 	br	10071a4 <___vfprintf_internal_r+0x10a4>
 1007cd8:	d9014f17 	ldw	r4,1340(sp)
 1007cdc:	b00b883a 	mov	r5,r22
 1007ce0:	d9800c04 	addi	r6,sp,48
 1007ce4:	10060a80 	call	10060a8 <__sprint_r>
 1007ce8:	103abd1e 	bne	r2,zero,10067e0 <___vfprintf_internal_r+0x6e0>
 1007cec:	003abb06 	br	10067dc <___vfprintf_internal_r+0x6dc>
 1007cf0:	38800017 	ldw	r2,0(r7)
 1007cf4:	39c00104 	addi	r7,r7,4
 1007cf8:	d9c14015 	stw	r7,1280(sp)
 1007cfc:	d9414b17 	ldw	r5,1324(sp)
 1007d00:	d9c14017 	ldw	r7,1280(sp)
 1007d04:	11400015 	stw	r5,0(r2)
 1007d08:	00395906 	br	1006270 <___vfprintf_internal_r+0x170>
 1007d0c:	980f883a 	mov	r7,r19
 1007d10:	dcc14515 	stw	r19,1300(sp)
 1007d14:	d8014615 	stw	zero,1304(sp)
 1007d18:	003b9b06 	br	1006b88 <___vfprintf_internal_r+0xa88>
 1007d1c:	0027883a 	mov	r19,zero
 1007d20:	00397806 	br	1006304 <___vfprintf_internal_r+0x204>
 1007d24:	00c04074 	movhi	r3,257
 1007d28:	18cedb04 	addi	r3,r3,15212
 1007d2c:	100f883a 	mov	r7,r2
 1007d30:	d8814515 	stw	r2,1300(sp)
 1007d34:	d8c14115 	stw	r3,1284(sp)
 1007d38:	0039e006 	br	10064bc <___vfprintf_internal_r+0x3bc>
 1007d3c:	00804074 	movhi	r2,257
 1007d40:	108eda04 	addi	r2,r2,15208
 1007d44:	d8814115 	stw	r2,1284(sp)
 1007d48:	003d1c06 	br	10071bc <___vfprintf_internal_r+0x10bc>
 1007d4c:	d9414d17 	ldw	r5,1332(sp)
 1007d50:	00801984 	movi	r2,102
 1007d54:	28804926 	beq	r5,r2,1007e7c <___vfprintf_internal_r+0x1d7c>
 1007d58:	200f883a 	mov	r7,r4
 1007d5c:	24805716 	blt	r4,r18,1007ebc <___vfprintf_internal_r+0x1dbc>
 1007d60:	d9414c17 	ldw	r5,1328(sp)
 1007d64:	2880004c 	andi	r2,r5,1
 1007d68:	10000126 	beq	r2,zero,1007d70 <___vfprintf_internal_r+0x1c70>
 1007d6c:	21c00044 	addi	r7,r4,1
 1007d70:	d9c14515 	stw	r7,1300(sp)
 1007d74:	383fcc0e 	bge	r7,zero,1007ca8 <___vfprintf_internal_r+0x1ba8>
 1007d78:	d8014515 	stw	zero,1300(sp)
 1007d7c:	003fca06 	br	1007ca8 <___vfprintf_internal_r+0x1ba8>
 1007d80:	d9000517 	ldw	r4,20(sp)
 1007d84:	00bfff04 	movi	r2,-4
 1007d88:	1100480e 	bge	r2,r4,1007eac <___vfprintf_internal_r+0x1dac>
 1007d8c:	99004716 	blt	r19,r4,1007eac <___vfprintf_internal_r+0x1dac>
 1007d90:	d8c14d15 	stw	r3,1332(sp)
 1007d94:	003ff006 	br	1007d58 <___vfprintf_internal_r+0x1c58>
 1007d98:	d8800717 	ldw	r2,28(sp)
 1007d9c:	14bf8b2e 	bgeu	r2,r18,1007bcc <___vfprintf_internal_r+0x1acc>
 1007da0:	9007883a 	mov	r3,r18
 1007da4:	01000c04 	movi	r4,48
 1007da8:	11000005 	stb	r4,0(r2)
 1007dac:	10800044 	addi	r2,r2,1
 1007db0:	d8800715 	stw	r2,28(sp)
 1007db4:	18bffc1e 	bne	r3,r2,1007da8 <___vfprintf_internal_r+0x1ca8>
 1007db8:	003f8406 	br	1007bcc <___vfprintf_internal_r+0x1acc>
 1007dbc:	d8814117 	ldw	r2,1284(sp)
 1007dc0:	10c00007 	ldb	r3,0(r2)
 1007dc4:	00800c04 	movi	r2,48
 1007dc8:	18805b26 	beq	r3,r2,1007f38 <___vfprintf_internal_r+0x1e38>
 1007dcc:	d9000517 	ldw	r4,20(sp)
 1007dd0:	9125883a 	add	r18,r18,r4
 1007dd4:	003f7506 	br	1007bac <___vfprintf_internal_r+0x1aac>
 1007dd8:	d9014c17 	ldw	r4,1328(sp)
 1007ddc:	2080004c 	andi	r2,r4,1
 1007de0:	1005003a 	cmpeq	r2,r2,zero
 1007de4:	103f6a26 	beq	r2,zero,1007b90 <___vfprintf_internal_r+0x1a90>
 1007de8:	d8800717 	ldw	r2,28(sp)
 1007dec:	003f7706 	br	1007bcc <___vfprintf_internal_r+0x1acc>
 1007df0:	d9c14515 	stw	r7,1300(sp)
 1007df4:	38004d16 	blt	r7,zero,1007f2c <___vfprintf_internal_r+0x1e2c>
 1007df8:	dc814715 	stw	r18,1308(sp)
 1007dfc:	d8014615 	stw	zero,1304(sp)
 1007e00:	003b6106 	br	1006b88 <___vfprintf_internal_r+0xa88>
 1007e04:	d9014f17 	ldw	r4,1340(sp)
 1007e08:	d8800504 	addi	r2,sp,20
 1007e0c:	d8800115 	stw	r2,4(sp)
 1007e10:	d8c00604 	addi	r3,sp,24
 1007e14:	d8800704 	addi	r2,sp,28
 1007e18:	800b883a 	mov	r5,r16
 1007e1c:	880d883a 	mov	r6,r17
 1007e20:	01c000c4 	movi	r7,3
 1007e24:	d8c00215 	stw	r3,8(sp)
 1007e28:	d8800315 	stw	r2,12(sp)
 1007e2c:	dcc00015 	stw	r19,0(sp)
 1007e30:	9829883a 	mov	r20,r19
 1007e34:	10084f00 	call	10084f0 <_dtoa_r>
 1007e38:	d8814115 	stw	r2,1284(sp)
 1007e3c:	003f5106 	br	1007b84 <___vfprintf_internal_r+0x1a84>
 1007e40:	d8c14217 	ldw	r3,1288(sp)
 1007e44:	d9014317 	ldw	r4,1292(sp)
 1007e48:	07000b44 	movi	fp,45
 1007e4c:	1821883a 	mov	r16,r3
 1007e50:	2460003c 	xorhi	r17,r4,32768
 1007e54:	003f3106 	br	1007b1c <___vfprintf_internal_r+0x1a1c>
 1007e58:	9d000044 	addi	r20,r19,1
 1007e5c:	003f3906 	br	1007b44 <___vfprintf_internal_r+0x1a44>
 1007e60:	983f251e 	bne	r19,zero,1007af8 <___vfprintf_internal_r+0x19f8>
 1007e64:	04c00044 	movi	r19,1
 1007e68:	003f2306 	br	1007af8 <___vfprintf_internal_r+0x19f8>
 1007e6c:	04c00184 	movi	r19,6
 1007e70:	003f2106 	br	1007af8 <___vfprintf_internal_r+0x19f8>
 1007e74:	d8014515 	stw	zero,1300(sp)
 1007e78:	003eee06 	br	1007a34 <___vfprintf_internal_r+0x1934>
 1007e7c:	200f883a 	mov	r7,r4
 1007e80:	0100370e 	bge	zero,r4,1007f60 <___vfprintf_internal_r+0x1e60>
 1007e84:	9800031e 	bne	r19,zero,1007e94 <___vfprintf_internal_r+0x1d94>
 1007e88:	d9814c17 	ldw	r6,1328(sp)
 1007e8c:	3080004c 	andi	r2,r6,1
 1007e90:	103fb726 	beq	r2,zero,1007d70 <___vfprintf_internal_r+0x1c70>
 1007e94:	20800044 	addi	r2,r4,1
 1007e98:	98a7883a 	add	r19,r19,r2
 1007e9c:	dcc14515 	stw	r19,1300(sp)
 1007ea0:	980f883a 	mov	r7,r19
 1007ea4:	983f800e 	bge	r19,zero,1007ca8 <___vfprintf_internal_r+0x1ba8>
 1007ea8:	003fb306 	br	1007d78 <___vfprintf_internal_r+0x1c78>
 1007eac:	d9814d17 	ldw	r6,1332(sp)
 1007eb0:	31bfff84 	addi	r6,r6,-2
 1007eb4:	d9814d15 	stw	r6,1332(sp)
 1007eb8:	003f4c06 	br	1007bec <___vfprintf_internal_r+0x1aec>
 1007ebc:	0100180e 	bge	zero,r4,1007f20 <___vfprintf_internal_r+0x1e20>
 1007ec0:	00800044 	movi	r2,1
 1007ec4:	1485883a 	add	r2,r2,r18
 1007ec8:	d8814515 	stw	r2,1300(sp)
 1007ecc:	100f883a 	mov	r7,r2
 1007ed0:	103f750e 	bge	r2,zero,1007ca8 <___vfprintf_internal_r+0x1ba8>
 1007ed4:	003fa806 	br	1007d78 <___vfprintf_internal_r+0x1c78>
 1007ed8:	80c00c04 	addi	r3,r16,48
 1007edc:	00800c04 	movi	r2,48
 1007ee0:	d8c008c5 	stb	r3,35(sp)
 1007ee4:	d9800804 	addi	r6,sp,32
 1007ee8:	d8c00904 	addi	r3,sp,36
 1007eec:	d8800885 	stb	r2,34(sp)
 1007ef0:	003f6506 	br	1007c88 <___vfprintf_internal_r+0x1b88>
 1007ef4:	d9014c17 	ldw	r4,1328(sp)
 1007ef8:	2084703a 	and	r2,r4,r2
 1007efc:	103f9c26 	beq	r2,zero,1007d70 <___vfprintf_internal_r+0x1c70>
 1007f00:	003f6606 	br	1007c9c <___vfprintf_internal_r+0x1b9c>
 1007f04:	d9800804 	addi	r6,sp,32
 1007f08:	d8c00884 	addi	r3,sp,34
 1007f0c:	003f5e06 	br	1007c88 <___vfprintf_internal_r+0x1b88>
 1007f10:	00800b44 	movi	r2,45
 1007f14:	0121c83a 	sub	r16,zero,r4
 1007f18:	d8800845 	stb	r2,33(sp)
 1007f1c:	003f3d06 	br	1007c14 <___vfprintf_internal_r+0x1b14>
 1007f20:	00800084 	movi	r2,2
 1007f24:	1105c83a 	sub	r2,r2,r4
 1007f28:	003fe606 	br	1007ec4 <___vfprintf_internal_r+0x1dc4>
 1007f2c:	d8014515 	stw	zero,1300(sp)
 1007f30:	dc814715 	stw	r18,1308(sp)
 1007f34:	003fb106 	br	1007dfc <___vfprintf_internal_r+0x1cfc>
 1007f38:	000d883a 	mov	r6,zero
 1007f3c:	000f883a 	mov	r7,zero
 1007f40:	8009883a 	mov	r4,r16
 1007f44:	880b883a 	mov	r5,r17
 1007f48:	100f9280 	call	100f928 <__nedf2>
 1007f4c:	103f9f26 	beq	r2,zero,1007dcc <___vfprintf_internal_r+0x1ccc>
 1007f50:	00800044 	movi	r2,1
 1007f54:	1509c83a 	sub	r4,r2,r20
 1007f58:	d9000515 	stw	r4,20(sp)
 1007f5c:	003f9b06 	br	1007dcc <___vfprintf_internal_r+0x1ccc>
 1007f60:	98000d1e 	bne	r19,zero,1007f98 <___vfprintf_internal_r+0x1e98>
 1007f64:	d8c14c17 	ldw	r3,1328(sp)
 1007f68:	1880004c 	andi	r2,r3,1
 1007f6c:	10000a1e 	bne	r2,zero,1007f98 <___vfprintf_internal_r+0x1e98>
 1007f70:	01000044 	movi	r4,1
 1007f74:	200f883a 	mov	r7,r4
 1007f78:	d9014515 	stw	r4,1300(sp)
 1007f7c:	003f4a06 	br	1007ca8 <___vfprintf_internal_r+0x1ba8>
 1007f80:	3cc00017 	ldw	r19,0(r7)
 1007f84:	39c00104 	addi	r7,r7,4
 1007f88:	983d0e0e 	bge	r19,zero,10073c4 <___vfprintf_internal_r+0x12c4>
 1007f8c:	b8c00007 	ldb	r3,0(r23)
 1007f90:	04ffffc4 	movi	r19,-1
 1007f94:	0038d906 	br	10062fc <___vfprintf_internal_r+0x1fc>
 1007f98:	9cc00084 	addi	r19,r19,2
 1007f9c:	dcc14515 	stw	r19,1300(sp)
 1007fa0:	980f883a 	mov	r7,r19
 1007fa4:	983f400e 	bge	r19,zero,1007ca8 <___vfprintf_internal_r+0x1ba8>
 1007fa8:	003f7306 	br	1007d78 <___vfprintf_internal_r+0x1c78>

01007fac <__vfprintf_internal>:
 1007fac:	00804074 	movhi	r2,257
 1007fb0:	10974504 	addi	r2,r2,23828
 1007fb4:	2013883a 	mov	r9,r4
 1007fb8:	11000017 	ldw	r4,0(r2)
 1007fbc:	2805883a 	mov	r2,r5
 1007fc0:	300f883a 	mov	r7,r6
 1007fc4:	480b883a 	mov	r5,r9
 1007fc8:	100d883a 	mov	r6,r2
 1007fcc:	10061001 	jmpi	1006100 <___vfprintf_internal_r>

01007fd0 <__swsetup_r>:
 1007fd0:	00804074 	movhi	r2,257
 1007fd4:	10974504 	addi	r2,r2,23828
 1007fd8:	10c00017 	ldw	r3,0(r2)
 1007fdc:	defffd04 	addi	sp,sp,-12
 1007fe0:	dc400115 	stw	r17,4(sp)
 1007fe4:	dc000015 	stw	r16,0(sp)
 1007fe8:	dfc00215 	stw	ra,8(sp)
 1007fec:	2023883a 	mov	r17,r4
 1007ff0:	2821883a 	mov	r16,r5
 1007ff4:	18000226 	beq	r3,zero,1008000 <__swsetup_r+0x30>
 1007ff8:	18800e17 	ldw	r2,56(r3)
 1007ffc:	10001f26 	beq	r2,zero,100807c <__swsetup_r+0xac>
 1008000:	8100030b 	ldhu	r4,12(r16)
 1008004:	2080020c 	andi	r2,r4,8
 1008008:	10002826 	beq	r2,zero,10080ac <__swsetup_r+0xdc>
 100800c:	81400417 	ldw	r5,16(r16)
 1008010:	28001d26 	beq	r5,zero,1008088 <__swsetup_r+0xb8>
 1008014:	2080004c 	andi	r2,r4,1
 1008018:	1005003a 	cmpeq	r2,r2,zero
 100801c:	10000b26 	beq	r2,zero,100804c <__swsetup_r+0x7c>
 1008020:	2080008c 	andi	r2,r4,2
 1008024:	10001226 	beq	r2,zero,1008070 <__swsetup_r+0xa0>
 1008028:	0005883a 	mov	r2,zero
 100802c:	80800215 	stw	r2,8(r16)
 1008030:	28000b26 	beq	r5,zero,1008060 <__swsetup_r+0x90>
 1008034:	0005883a 	mov	r2,zero
 1008038:	dfc00217 	ldw	ra,8(sp)
 100803c:	dc400117 	ldw	r17,4(sp)
 1008040:	dc000017 	ldw	r16,0(sp)
 1008044:	dec00304 	addi	sp,sp,12
 1008048:	f800283a 	ret
 100804c:	80800517 	ldw	r2,20(r16)
 1008050:	80000215 	stw	zero,8(r16)
 1008054:	0085c83a 	sub	r2,zero,r2
 1008058:	80800615 	stw	r2,24(r16)
 100805c:	283ff51e 	bne	r5,zero,1008034 <__swsetup_r+0x64>
 1008060:	2080200c 	andi	r2,r4,128
 1008064:	103ff326 	beq	r2,zero,1008034 <__swsetup_r+0x64>
 1008068:	00bfffc4 	movi	r2,-1
 100806c:	003ff206 	br	1008038 <__swsetup_r+0x68>
 1008070:	80800517 	ldw	r2,20(r16)
 1008074:	80800215 	stw	r2,8(r16)
 1008078:	003fed06 	br	1008030 <__swsetup_r+0x60>
 100807c:	1809883a 	mov	r4,r3
 1008080:	1009d3c0 	call	1009d3c <__sinit>
 1008084:	003fde06 	br	1008000 <__swsetup_r+0x30>
 1008088:	20c0a00c 	andi	r3,r4,640
 100808c:	00808004 	movi	r2,512
 1008090:	18bfe026 	beq	r3,r2,1008014 <__swsetup_r+0x44>
 1008094:	8809883a 	mov	r4,r17
 1008098:	800b883a 	mov	r5,r16
 100809c:	100aab40 	call	100aab4 <__smakebuf_r>
 10080a0:	8100030b 	ldhu	r4,12(r16)
 10080a4:	81400417 	ldw	r5,16(r16)
 10080a8:	003fda06 	br	1008014 <__swsetup_r+0x44>
 10080ac:	2080040c 	andi	r2,r4,16
 10080b0:	103fed26 	beq	r2,zero,1008068 <__swsetup_r+0x98>
 10080b4:	2080010c 	andi	r2,r4,4
 10080b8:	10001226 	beq	r2,zero,1008104 <__swsetup_r+0x134>
 10080bc:	81400c17 	ldw	r5,48(r16)
 10080c0:	28000526 	beq	r5,zero,10080d8 <__swsetup_r+0x108>
 10080c4:	80801004 	addi	r2,r16,64
 10080c8:	28800226 	beq	r5,r2,10080d4 <__swsetup_r+0x104>
 10080cc:	8809883a 	mov	r4,r17
 10080d0:	100a0c00 	call	100a0c0 <_free_r>
 10080d4:	80000c15 	stw	zero,48(r16)
 10080d8:	8080030b 	ldhu	r2,12(r16)
 10080dc:	81400417 	ldw	r5,16(r16)
 10080e0:	80000115 	stw	zero,4(r16)
 10080e4:	10bff6cc 	andi	r2,r2,65499
 10080e8:	8080030d 	sth	r2,12(r16)
 10080ec:	81400015 	stw	r5,0(r16)
 10080f0:	8080030b 	ldhu	r2,12(r16)
 10080f4:	10800214 	ori	r2,r2,8
 10080f8:	113fffcc 	andi	r4,r2,65535
 10080fc:	8080030d 	sth	r2,12(r16)
 1008100:	003fc306 	br	1008010 <__swsetup_r+0x40>
 1008104:	81400417 	ldw	r5,16(r16)
 1008108:	003ff906 	br	10080f0 <__swsetup_r+0x120>

0100810c <register_fini>:
 100810c:	f800283a 	ret

01008110 <__call_exitprocs>:
 1008110:	00804074 	movhi	r2,257
 1008114:	10974604 	addi	r2,r2,23832
 1008118:	10800017 	ldw	r2,0(r2)
 100811c:	defff304 	addi	sp,sp,-52
 1008120:	df000b15 	stw	fp,44(sp)
 1008124:	d8800115 	stw	r2,4(sp)
 1008128:	00804034 	movhi	r2,256
 100812c:	10956e04 	addi	r2,r2,21944
 1008130:	1005003a 	cmpeq	r2,r2,zero
 1008134:	d8800215 	stw	r2,8(sp)
 1008138:	d8800117 	ldw	r2,4(sp)
 100813c:	dd400815 	stw	r21,32(sp)
 1008140:	dd000715 	stw	r20,28(sp)
 1008144:	10805204 	addi	r2,r2,328
 1008148:	dfc00c15 	stw	ra,48(sp)
 100814c:	ddc00a15 	stw	r23,40(sp)
 1008150:	dd800915 	stw	r22,36(sp)
 1008154:	dcc00615 	stw	r19,24(sp)
 1008158:	dc800515 	stw	r18,20(sp)
 100815c:	dc400415 	stw	r17,16(sp)
 1008160:	dc000315 	stw	r16,12(sp)
 1008164:	282b883a 	mov	r21,r5
 1008168:	2039883a 	mov	fp,r4
 100816c:	d8800015 	stw	r2,0(sp)
 1008170:	2829003a 	cmpeq	r20,r5,zero
 1008174:	d8800117 	ldw	r2,4(sp)
 1008178:	14405217 	ldw	r17,328(r2)
 100817c:	88001026 	beq	r17,zero,10081c0 <__call_exitprocs+0xb0>
 1008180:	ddc00017 	ldw	r23,0(sp)
 1008184:	88800117 	ldw	r2,4(r17)
 1008188:	8c802204 	addi	r18,r17,136
 100818c:	143fffc4 	addi	r16,r2,-1
 1008190:	80000916 	blt	r16,zero,10081b8 <__call_exitprocs+0xa8>
 1008194:	05bfffc4 	movi	r22,-1
 1008198:	a000151e 	bne	r20,zero,10081f0 <__call_exitprocs+0xe0>
 100819c:	8409883a 	add	r4,r16,r16
 10081a0:	2105883a 	add	r2,r4,r4
 10081a4:	1485883a 	add	r2,r2,r18
 10081a8:	10c02017 	ldw	r3,128(r2)
 10081ac:	a8c01126 	beq	r21,r3,10081f4 <__call_exitprocs+0xe4>
 10081b0:	843fffc4 	addi	r16,r16,-1
 10081b4:	85bff81e 	bne	r16,r22,1008198 <__call_exitprocs+0x88>
 10081b8:	d8800217 	ldw	r2,8(sp)
 10081bc:	10003126 	beq	r2,zero,1008284 <__call_exitprocs+0x174>
 10081c0:	dfc00c17 	ldw	ra,48(sp)
 10081c4:	df000b17 	ldw	fp,44(sp)
 10081c8:	ddc00a17 	ldw	r23,40(sp)
 10081cc:	dd800917 	ldw	r22,36(sp)
 10081d0:	dd400817 	ldw	r21,32(sp)
 10081d4:	dd000717 	ldw	r20,28(sp)
 10081d8:	dcc00617 	ldw	r19,24(sp)
 10081dc:	dc800517 	ldw	r18,20(sp)
 10081e0:	dc400417 	ldw	r17,16(sp)
 10081e4:	dc000317 	ldw	r16,12(sp)
 10081e8:	dec00d04 	addi	sp,sp,52
 10081ec:	f800283a 	ret
 10081f0:	8409883a 	add	r4,r16,r16
 10081f4:	88c00117 	ldw	r3,4(r17)
 10081f8:	2105883a 	add	r2,r4,r4
 10081fc:	1445883a 	add	r2,r2,r17
 1008200:	18ffffc4 	addi	r3,r3,-1
 1008204:	11800217 	ldw	r6,8(r2)
 1008208:	1c001526 	beq	r3,r16,1008260 <__call_exitprocs+0x150>
 100820c:	10000215 	stw	zero,8(r2)
 1008210:	303fe726 	beq	r6,zero,10081b0 <__call_exitprocs+0xa0>
 1008214:	00c00044 	movi	r3,1
 1008218:	1c06983a 	sll	r3,r3,r16
 100821c:	90804017 	ldw	r2,256(r18)
 1008220:	8cc00117 	ldw	r19,4(r17)
 1008224:	1884703a 	and	r2,r3,r2
 1008228:	10001426 	beq	r2,zero,100827c <__call_exitprocs+0x16c>
 100822c:	90804117 	ldw	r2,260(r18)
 1008230:	1884703a 	and	r2,r3,r2
 1008234:	10000c1e 	bne	r2,zero,1008268 <__call_exitprocs+0x158>
 1008238:	2105883a 	add	r2,r4,r4
 100823c:	1485883a 	add	r2,r2,r18
 1008240:	11400017 	ldw	r5,0(r2)
 1008244:	e009883a 	mov	r4,fp
 1008248:	303ee83a 	callr	r6
 100824c:	88800117 	ldw	r2,4(r17)
 1008250:	98bfc81e 	bne	r19,r2,1008174 <__call_exitprocs+0x64>
 1008254:	b8800017 	ldw	r2,0(r23)
 1008258:	147fd526 	beq	r2,r17,10081b0 <__call_exitprocs+0xa0>
 100825c:	003fc506 	br	1008174 <__call_exitprocs+0x64>
 1008260:	8c000115 	stw	r16,4(r17)
 1008264:	003fea06 	br	1008210 <__call_exitprocs+0x100>
 1008268:	2105883a 	add	r2,r4,r4
 100826c:	1485883a 	add	r2,r2,r18
 1008270:	11000017 	ldw	r4,0(r2)
 1008274:	303ee83a 	callr	r6
 1008278:	003ff406 	br	100824c <__call_exitprocs+0x13c>
 100827c:	303ee83a 	callr	r6
 1008280:	003ff206 	br	100824c <__call_exitprocs+0x13c>
 1008284:	88800117 	ldw	r2,4(r17)
 1008288:	1000081e 	bne	r2,zero,10082ac <__call_exitprocs+0x19c>
 100828c:	89000017 	ldw	r4,0(r17)
 1008290:	20000726 	beq	r4,zero,10082b0 <__call_exitprocs+0x1a0>
 1008294:	b9000015 	stw	r4,0(r23)
 1008298:	8809883a 	mov	r4,r17
 100829c:	10055b80 	call	10055b8 <free>
 10082a0:	bc400017 	ldw	r17,0(r23)
 10082a4:	883fb71e 	bne	r17,zero,1008184 <__call_exitprocs+0x74>
 10082a8:	003fc506 	br	10081c0 <__call_exitprocs+0xb0>
 10082ac:	89000017 	ldw	r4,0(r17)
 10082b0:	882f883a 	mov	r23,r17
 10082b4:	2023883a 	mov	r17,r4
 10082b8:	883fb21e 	bne	r17,zero,1008184 <__call_exitprocs+0x74>
 10082bc:	003fc006 	br	10081c0 <__call_exitprocs+0xb0>

010082c0 <abort>:
 10082c0:	deffff04 	addi	sp,sp,-4
 10082c4:	01000184 	movi	r4,6
 10082c8:	dfc00015 	stw	ra,0(sp)
 10082cc:	100c71c0 	call	100c71c <raise>
 10082d0:	01000044 	movi	r4,1
 10082d4:	10107ec0 	call	10107ec <_exit>

010082d8 <quorem>:
 10082d8:	28c00417 	ldw	r3,16(r5)
 10082dc:	20800417 	ldw	r2,16(r4)
 10082e0:	defff604 	addi	sp,sp,-40
 10082e4:	ddc00715 	stw	r23,28(sp)
 10082e8:	dd400515 	stw	r21,20(sp)
 10082ec:	dfc00915 	stw	ra,36(sp)
 10082f0:	df000815 	stw	fp,32(sp)
 10082f4:	dd800615 	stw	r22,24(sp)
 10082f8:	dd000415 	stw	r20,16(sp)
 10082fc:	dcc00315 	stw	r19,12(sp)
 1008300:	dc800215 	stw	r18,8(sp)
 1008304:	dc400115 	stw	r17,4(sp)
 1008308:	dc000015 	stw	r16,0(sp)
 100830c:	202f883a 	mov	r23,r4
 1008310:	282b883a 	mov	r21,r5
 1008314:	10c07416 	blt	r2,r3,10084e8 <quorem+0x210>
 1008318:	1c7fffc4 	addi	r17,r3,-1
 100831c:	8c45883a 	add	r2,r17,r17
 1008320:	1085883a 	add	r2,r2,r2
 1008324:	2c000504 	addi	r16,r5,20
 1008328:	24c00504 	addi	r19,r4,20
 100832c:	14ed883a 	add	r22,r2,r19
 1008330:	80a5883a 	add	r18,r16,r2
 1008334:	b7000017 	ldw	fp,0(r22)
 1008338:	91400017 	ldw	r5,0(r18)
 100833c:	e009883a 	mov	r4,fp
 1008340:	29400044 	addi	r5,r5,1
 1008344:	100ffe80 	call	100ffe8 <__udivsi3>
 1008348:	1029883a 	mov	r20,r2
 100834c:	10003c1e 	bne	r2,zero,1008440 <quorem+0x168>
 1008350:	a80b883a 	mov	r5,r21
 1008354:	b809883a 	mov	r4,r23
 1008358:	100af680 	call	100af68 <__mcmp>
 100835c:	10002b16 	blt	r2,zero,100840c <quorem+0x134>
 1008360:	a5000044 	addi	r20,r20,1
 1008364:	980f883a 	mov	r7,r19
 1008368:	0011883a 	mov	r8,zero
 100836c:	0009883a 	mov	r4,zero
 1008370:	81400017 	ldw	r5,0(r16)
 1008374:	38c00017 	ldw	r3,0(r7)
 1008378:	84000104 	addi	r16,r16,4
 100837c:	28bfffcc 	andi	r2,r5,65535
 1008380:	2085883a 	add	r2,r4,r2
 1008384:	11bfffcc 	andi	r6,r2,65535
 1008388:	193fffcc 	andi	r4,r3,65535
 100838c:	1004d43a 	srli	r2,r2,16
 1008390:	280ad43a 	srli	r5,r5,16
 1008394:	2189c83a 	sub	r4,r4,r6
 1008398:	2209883a 	add	r4,r4,r8
 100839c:	1806d43a 	srli	r3,r3,16
 10083a0:	288b883a 	add	r5,r5,r2
 10083a4:	200dd43a 	srai	r6,r4,16
 10083a8:	28bfffcc 	andi	r2,r5,65535
 10083ac:	1887c83a 	sub	r3,r3,r2
 10083b0:	1987883a 	add	r3,r3,r6
 10083b4:	3900000d 	sth	r4,0(r7)
 10083b8:	38c0008d 	sth	r3,2(r7)
 10083bc:	2808d43a 	srli	r4,r5,16
 10083c0:	39c00104 	addi	r7,r7,4
 10083c4:	1811d43a 	srai	r8,r3,16
 10083c8:	943fe92e 	bgeu	r18,r16,1008370 <quorem+0x98>
 10083cc:	8c45883a 	add	r2,r17,r17
 10083d0:	1085883a 	add	r2,r2,r2
 10083d4:	9885883a 	add	r2,r19,r2
 10083d8:	10c00017 	ldw	r3,0(r2)
 10083dc:	18000b1e 	bne	r3,zero,100840c <quorem+0x134>
 10083e0:	113fff04 	addi	r4,r2,-4
 10083e4:	9900082e 	bgeu	r19,r4,1008408 <quorem+0x130>
 10083e8:	10bfff17 	ldw	r2,-4(r2)
 10083ec:	10000326 	beq	r2,zero,10083fc <quorem+0x124>
 10083f0:	00000506 	br	1008408 <quorem+0x130>
 10083f4:	20800017 	ldw	r2,0(r4)
 10083f8:	1000031e 	bne	r2,zero,1008408 <quorem+0x130>
 10083fc:	213fff04 	addi	r4,r4,-4
 1008400:	8c7fffc4 	addi	r17,r17,-1
 1008404:	993ffb36 	bltu	r19,r4,10083f4 <quorem+0x11c>
 1008408:	bc400415 	stw	r17,16(r23)
 100840c:	a005883a 	mov	r2,r20
 1008410:	dfc00917 	ldw	ra,36(sp)
 1008414:	df000817 	ldw	fp,32(sp)
 1008418:	ddc00717 	ldw	r23,28(sp)
 100841c:	dd800617 	ldw	r22,24(sp)
 1008420:	dd400517 	ldw	r21,20(sp)
 1008424:	dd000417 	ldw	r20,16(sp)
 1008428:	dcc00317 	ldw	r19,12(sp)
 100842c:	dc800217 	ldw	r18,8(sp)
 1008430:	dc400117 	ldw	r17,4(sp)
 1008434:	dc000017 	ldw	r16,0(sp)
 1008438:	dec00a04 	addi	sp,sp,40
 100843c:	f800283a 	ret
 1008440:	980f883a 	mov	r7,r19
 1008444:	8011883a 	mov	r8,r16
 1008448:	0013883a 	mov	r9,zero
 100844c:	000d883a 	mov	r6,zero
 1008450:	40c00017 	ldw	r3,0(r8)
 1008454:	39000017 	ldw	r4,0(r7)
 1008458:	42000104 	addi	r8,r8,4
 100845c:	18bfffcc 	andi	r2,r3,65535
 1008460:	a085383a 	mul	r2,r20,r2
 1008464:	1806d43a 	srli	r3,r3,16
 1008468:	217fffcc 	andi	r5,r4,65535
 100846c:	3085883a 	add	r2,r6,r2
 1008470:	11bfffcc 	andi	r6,r2,65535
 1008474:	a0c7383a 	mul	r3,r20,r3
 1008478:	1004d43a 	srli	r2,r2,16
 100847c:	298bc83a 	sub	r5,r5,r6
 1008480:	2a4b883a 	add	r5,r5,r9
 1008484:	2008d43a 	srli	r4,r4,16
 1008488:	1887883a 	add	r3,r3,r2
 100848c:	280dd43a 	srai	r6,r5,16
 1008490:	18bfffcc 	andi	r2,r3,65535
 1008494:	2089c83a 	sub	r4,r4,r2
 1008498:	2189883a 	add	r4,r4,r6
 100849c:	3900008d 	sth	r4,2(r7)
 10084a0:	3940000d 	sth	r5,0(r7)
 10084a4:	180cd43a 	srli	r6,r3,16
 10084a8:	39c00104 	addi	r7,r7,4
 10084ac:	2013d43a 	srai	r9,r4,16
 10084b0:	923fe72e 	bgeu	r18,r8,1008450 <quorem+0x178>
 10084b4:	e03fa61e 	bne	fp,zero,1008350 <quorem+0x78>
 10084b8:	b0ffff04 	addi	r3,r22,-4
 10084bc:	98c0082e 	bgeu	r19,r3,10084e0 <quorem+0x208>
 10084c0:	b0bfff17 	ldw	r2,-4(r22)
 10084c4:	10000326 	beq	r2,zero,10084d4 <quorem+0x1fc>
 10084c8:	00000506 	br	10084e0 <quorem+0x208>
 10084cc:	18800017 	ldw	r2,0(r3)
 10084d0:	1000031e 	bne	r2,zero,10084e0 <quorem+0x208>
 10084d4:	18ffff04 	addi	r3,r3,-4
 10084d8:	8c7fffc4 	addi	r17,r17,-1
 10084dc:	98fffb36 	bltu	r19,r3,10084cc <quorem+0x1f4>
 10084e0:	bc400415 	stw	r17,16(r23)
 10084e4:	003f9a06 	br	1008350 <quorem+0x78>
 10084e8:	0005883a 	mov	r2,zero
 10084ec:	003fc806 	br	1008410 <quorem+0x138>

010084f0 <_dtoa_r>:
 10084f0:	22001017 	ldw	r8,64(r4)
 10084f4:	deffda04 	addi	sp,sp,-152
 10084f8:	dd402115 	stw	r21,132(sp)
 10084fc:	dd002015 	stw	r20,128(sp)
 1008500:	dc801e15 	stw	r18,120(sp)
 1008504:	dc401d15 	stw	r17,116(sp)
 1008508:	dfc02515 	stw	ra,148(sp)
 100850c:	df002415 	stw	fp,144(sp)
 1008510:	ddc02315 	stw	r23,140(sp)
 1008514:	dd802215 	stw	r22,136(sp)
 1008518:	dcc01f15 	stw	r19,124(sp)
 100851c:	dc001c15 	stw	r16,112(sp)
 1008520:	d9001615 	stw	r4,88(sp)
 1008524:	3023883a 	mov	r17,r6
 1008528:	2829883a 	mov	r20,r5
 100852c:	d9c01715 	stw	r7,92(sp)
 1008530:	dc802817 	ldw	r18,160(sp)
 1008534:	302b883a 	mov	r21,r6
 1008538:	40000a26 	beq	r8,zero,1008564 <_dtoa_r+0x74>
 100853c:	20801117 	ldw	r2,68(r4)
 1008540:	400b883a 	mov	r5,r8
 1008544:	40800115 	stw	r2,4(r8)
 1008548:	20c01117 	ldw	r3,68(r4)
 100854c:	00800044 	movi	r2,1
 1008550:	10c4983a 	sll	r2,r2,r3
 1008554:	40800215 	stw	r2,8(r8)
 1008558:	100ae0c0 	call	100ae0c <_Bfree>
 100855c:	d8c01617 	ldw	r3,88(sp)
 1008560:	18001015 	stw	zero,64(r3)
 1008564:	8800a316 	blt	r17,zero,10087f4 <_dtoa_r+0x304>
 1008568:	90000015 	stw	zero,0(r18)
 100856c:	a8dffc2c 	andhi	r3,r21,32752
 1008570:	009ffc34 	movhi	r2,32752
 1008574:	18809126 	beq	r3,r2,10087bc <_dtoa_r+0x2cc>
 1008578:	000d883a 	mov	r6,zero
 100857c:	000f883a 	mov	r7,zero
 1008580:	a009883a 	mov	r4,r20
 1008584:	a80b883a 	mov	r5,r21
 1008588:	dd001215 	stw	r20,72(sp)
 100858c:	dd401315 	stw	r21,76(sp)
 1008590:	100f9280 	call	100f928 <__nedf2>
 1008594:	1000171e 	bne	r2,zero,10085f4 <_dtoa_r+0x104>
 1008598:	d9802717 	ldw	r6,156(sp)
 100859c:	00800044 	movi	r2,1
 10085a0:	30800015 	stw	r2,0(r6)
 10085a4:	d8802917 	ldw	r2,164(sp)
 10085a8:	10029b26 	beq	r2,zero,1009018 <_dtoa_r+0xb28>
 10085ac:	d9002917 	ldw	r4,164(sp)
 10085b0:	00804074 	movhi	r2,257
 10085b4:	108ee944 	addi	r2,r2,15269
 10085b8:	10ffffc4 	addi	r3,r2,-1
 10085bc:	20800015 	stw	r2,0(r4)
 10085c0:	1805883a 	mov	r2,r3
 10085c4:	dfc02517 	ldw	ra,148(sp)
 10085c8:	df002417 	ldw	fp,144(sp)
 10085cc:	ddc02317 	ldw	r23,140(sp)
 10085d0:	dd802217 	ldw	r22,136(sp)
 10085d4:	dd402117 	ldw	r21,132(sp)
 10085d8:	dd002017 	ldw	r20,128(sp)
 10085dc:	dcc01f17 	ldw	r19,124(sp)
 10085e0:	dc801e17 	ldw	r18,120(sp)
 10085e4:	dc401d17 	ldw	r17,116(sp)
 10085e8:	dc001c17 	ldw	r16,112(sp)
 10085ec:	dec02604 	addi	sp,sp,152
 10085f0:	f800283a 	ret
 10085f4:	d9001617 	ldw	r4,88(sp)
 10085f8:	d9401217 	ldw	r5,72(sp)
 10085fc:	d8800104 	addi	r2,sp,4
 1008600:	a80d883a 	mov	r6,r21
 1008604:	d9c00204 	addi	r7,sp,8
 1008608:	d8800015 	stw	r2,0(sp)
 100860c:	100b4480 	call	100b448 <__d2b>
 1008610:	d8800715 	stw	r2,28(sp)
 1008614:	a804d53a 	srli	r2,r21,20
 1008618:	1101ffcc 	andi	r4,r2,2047
 100861c:	20008626 	beq	r4,zero,1008838 <_dtoa_r+0x348>
 1008620:	d8c01217 	ldw	r3,72(sp)
 1008624:	00800434 	movhi	r2,16
 1008628:	10bfffc4 	addi	r2,r2,-1
 100862c:	ddc00117 	ldw	r23,4(sp)
 1008630:	a884703a 	and	r2,r21,r2
 1008634:	1811883a 	mov	r8,r3
 1008638:	124ffc34 	orhi	r9,r2,16368
 100863c:	25bf0044 	addi	r22,r4,-1023
 1008640:	d8000815 	stw	zero,32(sp)
 1008644:	0005883a 	mov	r2,zero
 1008648:	00cffe34 	movhi	r3,16376
 100864c:	480b883a 	mov	r5,r9
 1008650:	4009883a 	mov	r4,r8
 1008654:	180f883a 	mov	r7,r3
 1008658:	100d883a 	mov	r6,r2
 100865c:	100f1900 	call	100f190 <__subdf3>
 1008660:	0218dbf4 	movhi	r8,25455
 1008664:	4210d844 	addi	r8,r8,17249
 1008668:	024ff4f4 	movhi	r9,16339
 100866c:	4a61e9c4 	addi	r9,r9,-30809
 1008670:	480f883a 	mov	r7,r9
 1008674:	400d883a 	mov	r6,r8
 1008678:	180b883a 	mov	r5,r3
 100867c:	1009883a 	mov	r4,r2
 1008680:	100f2840 	call	100f284 <__muldf3>
 1008684:	0222d874 	movhi	r8,35681
 1008688:	42322cc4 	addi	r8,r8,-14157
 100868c:	024ff1f4 	movhi	r9,16327
 1008690:	4a628a04 	addi	r9,r9,-30168
 1008694:	480f883a 	mov	r7,r9
 1008698:	400d883a 	mov	r6,r8
 100869c:	180b883a 	mov	r5,r3
 10086a0:	1009883a 	mov	r4,r2
 10086a4:	100f2100 	call	100f210 <__adddf3>
 10086a8:	b009883a 	mov	r4,r22
 10086ac:	1021883a 	mov	r16,r2
 10086b0:	1823883a 	mov	r17,r3
 10086b4:	100fb480 	call	100fb48 <__floatsidf>
 10086b8:	021427f4 	movhi	r8,20639
 10086bc:	421e7ec4 	addi	r8,r8,31227
 10086c0:	024ff4f4 	movhi	r9,16339
 10086c4:	4a5104c4 	addi	r9,r9,17427
 10086c8:	480f883a 	mov	r7,r9
 10086cc:	400d883a 	mov	r6,r8
 10086d0:	180b883a 	mov	r5,r3
 10086d4:	1009883a 	mov	r4,r2
 10086d8:	100f2840 	call	100f284 <__muldf3>
 10086dc:	180f883a 	mov	r7,r3
 10086e0:	880b883a 	mov	r5,r17
 10086e4:	100d883a 	mov	r6,r2
 10086e8:	8009883a 	mov	r4,r16
 10086ec:	100f2100 	call	100f210 <__adddf3>
 10086f0:	1009883a 	mov	r4,r2
 10086f4:	180b883a 	mov	r5,r3
 10086f8:	1021883a 	mov	r16,r2
 10086fc:	1823883a 	mov	r17,r3
 1008700:	100fc400 	call	100fc40 <__fixdfsi>
 1008704:	000d883a 	mov	r6,zero
 1008708:	000f883a 	mov	r7,zero
 100870c:	8009883a 	mov	r4,r16
 1008710:	880b883a 	mov	r5,r17
 1008714:	d8800d15 	stw	r2,52(sp)
 1008718:	100fac00 	call	100fac0 <__ltdf2>
 100871c:	10031716 	blt	r2,zero,100937c <_dtoa_r+0xe8c>
 1008720:	d8c00d17 	ldw	r3,52(sp)
 1008724:	00800584 	movi	r2,22
 1008728:	10c1482e 	bgeu	r2,r3,1008c4c <_dtoa_r+0x75c>
 100872c:	01000044 	movi	r4,1
 1008730:	d9000c15 	stw	r4,48(sp)
 1008734:	bd85c83a 	sub	r2,r23,r22
 1008738:	11bfffc4 	addi	r6,r2,-1
 100873c:	30030b16 	blt	r6,zero,100936c <_dtoa_r+0xe7c>
 1008740:	d9800a15 	stw	r6,40(sp)
 1008744:	d8001115 	stw	zero,68(sp)
 1008748:	d8c00d17 	ldw	r3,52(sp)
 100874c:	1802ff16 	blt	r3,zero,100934c <_dtoa_r+0xe5c>
 1008750:	d9000a17 	ldw	r4,40(sp)
 1008754:	d8c00915 	stw	r3,36(sp)
 1008758:	d8001015 	stw	zero,64(sp)
 100875c:	20c9883a 	add	r4,r4,r3
 1008760:	d9000a15 	stw	r4,40(sp)
 1008764:	d9001717 	ldw	r4,92(sp)
 1008768:	00800244 	movi	r2,9
 100876c:	11004636 	bltu	r2,r4,1008888 <_dtoa_r+0x398>
 1008770:	00800144 	movi	r2,5
 1008774:	11020416 	blt	r2,r4,1008f88 <_dtoa_r+0xa98>
 1008778:	04400044 	movi	r17,1
 100877c:	d8c01717 	ldw	r3,92(sp)
 1008780:	00800144 	movi	r2,5
 1008784:	10c1ed36 	bltu	r2,r3,1008f3c <_dtoa_r+0xa4c>
 1008788:	18c5883a 	add	r2,r3,r3
 100878c:	1085883a 	add	r2,r2,r2
 1008790:	00c04074 	movhi	r3,257
 1008794:	18e1e904 	addi	r3,r3,-30812
 1008798:	10c5883a 	add	r2,r2,r3
 100879c:	11000017 	ldw	r4,0(r2)
 10087a0:	2000683a 	jmp	r4
 10087a4:	01008890 	cmplti	r4,zero,546
 10087a8:	01008890 	cmplti	r4,zero,546
 10087ac:	01009290 	cmplti	r4,zero,586
 10087b0:	01009268 	cmpgeui	r4,zero,585
 10087b4:	010092ac 	andhi	r4,zero,586
 10087b8:	010092b8 	rdprs	r4,zero,586
 10087bc:	d9002717 	ldw	r4,156(sp)
 10087c0:	0089c3c4 	movi	r2,9999
 10087c4:	20800015 	stw	r2,0(r4)
 10087c8:	a0001026 	beq	r20,zero,100880c <_dtoa_r+0x31c>
 10087cc:	00c04074 	movhi	r3,257
 10087d0:	18cef504 	addi	r3,r3,15316
 10087d4:	d9802917 	ldw	r6,164(sp)
 10087d8:	303f7926 	beq	r6,zero,10085c0 <_dtoa_r+0xd0>
 10087dc:	188000c7 	ldb	r2,3(r3)
 10087e0:	190000c4 	addi	r4,r3,3
 10087e4:	1000101e 	bne	r2,zero,1008828 <_dtoa_r+0x338>
 10087e8:	d8802917 	ldw	r2,164(sp)
 10087ec:	11000015 	stw	r4,0(r2)
 10087f0:	003f7306 	br	10085c0 <_dtoa_r+0xd0>
 10087f4:	00a00034 	movhi	r2,32768
 10087f8:	10bfffc4 	addi	r2,r2,-1
 10087fc:	00c00044 	movi	r3,1
 1008800:	88aa703a 	and	r21,r17,r2
 1008804:	90c00015 	stw	r3,0(r18)
 1008808:	003f5806 	br	100856c <_dtoa_r+0x7c>
 100880c:	00800434 	movhi	r2,16
 1008810:	10bfffc4 	addi	r2,r2,-1
 1008814:	a884703a 	and	r2,r21,r2
 1008818:	103fec1e 	bne	r2,zero,10087cc <_dtoa_r+0x2dc>
 100881c:	00c04074 	movhi	r3,257
 1008820:	18cef204 	addi	r3,r3,15304
 1008824:	003feb06 	br	10087d4 <_dtoa_r+0x2e4>
 1008828:	d8802917 	ldw	r2,164(sp)
 100882c:	19000204 	addi	r4,r3,8
 1008830:	11000015 	stw	r4,0(r2)
 1008834:	003f6206 	br	10085c0 <_dtoa_r+0xd0>
 1008838:	ddc00117 	ldw	r23,4(sp)
 100883c:	d8800217 	ldw	r2,8(sp)
 1008840:	01000804 	movi	r4,32
 1008844:	b8c10c84 	addi	r3,r23,1074
 1008848:	18a3883a 	add	r17,r3,r2
 100884c:	2441b80e 	bge	r4,r17,1008f30 <_dtoa_r+0xa40>
 1008850:	00c01004 	movi	r3,64
 1008854:	1c47c83a 	sub	r3,r3,r17
 1008858:	88bff804 	addi	r2,r17,-32
 100885c:	a8c6983a 	sll	r3,r21,r3
 1008860:	a084d83a 	srl	r2,r20,r2
 1008864:	1888b03a 	or	r4,r3,r2
 1008868:	100fd180 	call	100fd18 <__floatunsidf>
 100886c:	1011883a 	mov	r8,r2
 1008870:	00bf8434 	movhi	r2,65040
 1008874:	01000044 	movi	r4,1
 1008878:	10d3883a 	add	r9,r2,r3
 100887c:	8dbef344 	addi	r22,r17,-1075
 1008880:	d9000815 	stw	r4,32(sp)
 1008884:	003f6f06 	br	1008644 <_dtoa_r+0x154>
 1008888:	d8001715 	stw	zero,92(sp)
 100888c:	04400044 	movi	r17,1
 1008890:	00bfffc4 	movi	r2,-1
 1008894:	00c00044 	movi	r3,1
 1008898:	d8800e15 	stw	r2,56(sp)
 100889c:	d8002615 	stw	zero,152(sp)
 10088a0:	d8800f15 	stw	r2,60(sp)
 10088a4:	d8c00b15 	stw	r3,44(sp)
 10088a8:	1021883a 	mov	r16,r2
 10088ac:	d8801617 	ldw	r2,88(sp)
 10088b0:	10001115 	stw	zero,68(r2)
 10088b4:	d8801617 	ldw	r2,88(sp)
 10088b8:	11401117 	ldw	r5,68(r2)
 10088bc:	1009883a 	mov	r4,r2
 10088c0:	100b38c0 	call	100b38c <_Balloc>
 10088c4:	d8c01617 	ldw	r3,88(sp)
 10088c8:	d8800515 	stw	r2,20(sp)
 10088cc:	18801015 	stw	r2,64(r3)
 10088d0:	00800384 	movi	r2,14
 10088d4:	14006836 	bltu	r2,r16,1008a78 <_dtoa_r+0x588>
 10088d8:	8805003a 	cmpeq	r2,r17,zero
 10088dc:	1000661e 	bne	r2,zero,1008a78 <_dtoa_r+0x588>
 10088e0:	d9000d17 	ldw	r4,52(sp)
 10088e4:	0102300e 	bge	zero,r4,10091a8 <_dtoa_r+0xcb8>
 10088e8:	208003cc 	andi	r2,r4,15
 10088ec:	100490fa 	slli	r2,r2,3
 10088f0:	2025d13a 	srai	r18,r4,4
 10088f4:	00c04074 	movhi	r3,257
 10088f8:	18cf0604 	addi	r3,r3,15384
 10088fc:	10c5883a 	add	r2,r2,r3
 1008900:	90c0040c 	andi	r3,r18,16
 1008904:	14000017 	ldw	r16,0(r2)
 1008908:	14400117 	ldw	r17,4(r2)
 100890c:	18036a1e 	bne	r3,zero,10096b8 <_dtoa_r+0x11c8>
 1008910:	05800084 	movi	r22,2
 1008914:	90001026 	beq	r18,zero,1008958 <_dtoa_r+0x468>
 1008918:	04c04074 	movhi	r19,257
 100891c:	9ccf3804 	addi	r19,r19,15584
 1008920:	9080004c 	andi	r2,r18,1
 1008924:	1005003a 	cmpeq	r2,r2,zero
 1008928:	1000081e 	bne	r2,zero,100894c <_dtoa_r+0x45c>
 100892c:	99800017 	ldw	r6,0(r19)
 1008930:	99c00117 	ldw	r7,4(r19)
 1008934:	880b883a 	mov	r5,r17
 1008938:	8009883a 	mov	r4,r16
 100893c:	100f2840 	call	100f284 <__muldf3>
 1008940:	1021883a 	mov	r16,r2
 1008944:	b5800044 	addi	r22,r22,1
 1008948:	1823883a 	mov	r17,r3
 100894c:	9025d07a 	srai	r18,r18,1
 1008950:	9cc00204 	addi	r19,r19,8
 1008954:	903ff21e 	bne	r18,zero,1008920 <_dtoa_r+0x430>
 1008958:	a80b883a 	mov	r5,r21
 100895c:	a009883a 	mov	r4,r20
 1008960:	880f883a 	mov	r7,r17
 1008964:	800d883a 	mov	r6,r16
 1008968:	100f6480 	call	100f648 <__divdf3>
 100896c:	1029883a 	mov	r20,r2
 1008970:	182b883a 	mov	r21,r3
 1008974:	d8c00c17 	ldw	r3,48(sp)
 1008978:	1805003a 	cmpeq	r2,r3,zero
 100897c:	1000081e 	bne	r2,zero,10089a0 <_dtoa_r+0x4b0>
 1008980:	0005883a 	mov	r2,zero
 1008984:	00cffc34 	movhi	r3,16368
 1008988:	180f883a 	mov	r7,r3
 100898c:	a009883a 	mov	r4,r20
 1008990:	a80b883a 	mov	r5,r21
 1008994:	100d883a 	mov	r6,r2
 1008998:	100fac00 	call	100fac0 <__ltdf2>
 100899c:	1003fe16 	blt	r2,zero,1009998 <_dtoa_r+0x14a8>
 10089a0:	b009883a 	mov	r4,r22
 10089a4:	100fb480 	call	100fb48 <__floatsidf>
 10089a8:	180b883a 	mov	r5,r3
 10089ac:	1009883a 	mov	r4,r2
 10089b0:	a00d883a 	mov	r6,r20
 10089b4:	a80f883a 	mov	r7,r21
 10089b8:	100f2840 	call	100f284 <__muldf3>
 10089bc:	0011883a 	mov	r8,zero
 10089c0:	02500734 	movhi	r9,16412
 10089c4:	1009883a 	mov	r4,r2
 10089c8:	180b883a 	mov	r5,r3
 10089cc:	480f883a 	mov	r7,r9
 10089d0:	400d883a 	mov	r6,r8
 10089d4:	100f2100 	call	100f210 <__adddf3>
 10089d8:	d9000f17 	ldw	r4,60(sp)
 10089dc:	102d883a 	mov	r22,r2
 10089e0:	00bf3034 	movhi	r2,64704
 10089e4:	18b9883a 	add	fp,r3,r2
 10089e8:	e02f883a 	mov	r23,fp
 10089ec:	20028f1e 	bne	r4,zero,100942c <_dtoa_r+0xf3c>
 10089f0:	0005883a 	mov	r2,zero
 10089f4:	00d00534 	movhi	r3,16404
 10089f8:	a009883a 	mov	r4,r20
 10089fc:	a80b883a 	mov	r5,r21
 1008a00:	180f883a 	mov	r7,r3
 1008a04:	100d883a 	mov	r6,r2
 1008a08:	100f1900 	call	100f190 <__subdf3>
 1008a0c:	1009883a 	mov	r4,r2
 1008a10:	e00f883a 	mov	r7,fp
 1008a14:	180b883a 	mov	r5,r3
 1008a18:	b00d883a 	mov	r6,r22
 1008a1c:	1025883a 	mov	r18,r2
 1008a20:	1827883a 	mov	r19,r3
 1008a24:	100f9b00 	call	100f9b0 <__gtdf2>
 1008a28:	00834f16 	blt	zero,r2,1009768 <_dtoa_r+0x1278>
 1008a2c:	e0e0003c 	xorhi	r3,fp,32768
 1008a30:	9009883a 	mov	r4,r18
 1008a34:	980b883a 	mov	r5,r19
 1008a38:	180f883a 	mov	r7,r3
 1008a3c:	b00d883a 	mov	r6,r22
 1008a40:	100fac00 	call	100fac0 <__ltdf2>
 1008a44:	1000080e 	bge	r2,zero,1008a68 <_dtoa_r+0x578>
 1008a48:	0027883a 	mov	r19,zero
 1008a4c:	0025883a 	mov	r18,zero
 1008a50:	d8802617 	ldw	r2,152(sp)
 1008a54:	df000517 	ldw	fp,20(sp)
 1008a58:	d8000615 	stw	zero,24(sp)
 1008a5c:	0084303a 	nor	r2,zero,r2
 1008a60:	d8800d15 	stw	r2,52(sp)
 1008a64:	00019b06 	br	10090d4 <_dtoa_r+0xbe4>
 1008a68:	d9801217 	ldw	r6,72(sp)
 1008a6c:	d8801317 	ldw	r2,76(sp)
 1008a70:	3029883a 	mov	r20,r6
 1008a74:	102b883a 	mov	r21,r2
 1008a78:	d8c00217 	ldw	r3,8(sp)
 1008a7c:	18008516 	blt	r3,zero,1008c94 <_dtoa_r+0x7a4>
 1008a80:	d9000d17 	ldw	r4,52(sp)
 1008a84:	00800384 	movi	r2,14
 1008a88:	11008216 	blt	r2,r4,1008c94 <_dtoa_r+0x7a4>
 1008a8c:	200490fa 	slli	r2,r4,3
 1008a90:	d9802617 	ldw	r6,152(sp)
 1008a94:	00c04074 	movhi	r3,257
 1008a98:	18cf0604 	addi	r3,r3,15384
 1008a9c:	10c5883a 	add	r2,r2,r3
 1008aa0:	14800017 	ldw	r18,0(r2)
 1008aa4:	14c00117 	ldw	r19,4(r2)
 1008aa8:	30031e16 	blt	r6,zero,1009724 <_dtoa_r+0x1234>
 1008aac:	d9000517 	ldw	r4,20(sp)
 1008ab0:	d8c00f17 	ldw	r3,60(sp)
 1008ab4:	a823883a 	mov	r17,r21
 1008ab8:	a021883a 	mov	r16,r20
 1008abc:	192b883a 	add	r21,r3,r4
 1008ac0:	2039883a 	mov	fp,r4
 1008ac4:	00000f06 	br	1008b04 <_dtoa_r+0x614>
 1008ac8:	0005883a 	mov	r2,zero
 1008acc:	00d00934 	movhi	r3,16420
 1008ad0:	5009883a 	mov	r4,r10
 1008ad4:	580b883a 	mov	r5,r11
 1008ad8:	180f883a 	mov	r7,r3
 1008adc:	100d883a 	mov	r6,r2
 1008ae0:	100f2840 	call	100f284 <__muldf3>
 1008ae4:	180b883a 	mov	r5,r3
 1008ae8:	000d883a 	mov	r6,zero
 1008aec:	000f883a 	mov	r7,zero
 1008af0:	1009883a 	mov	r4,r2
 1008af4:	1021883a 	mov	r16,r2
 1008af8:	1823883a 	mov	r17,r3
 1008afc:	100f9280 	call	100f928 <__nedf2>
 1008b00:	10004526 	beq	r2,zero,1008c18 <_dtoa_r+0x728>
 1008b04:	900d883a 	mov	r6,r18
 1008b08:	980f883a 	mov	r7,r19
 1008b0c:	8009883a 	mov	r4,r16
 1008b10:	880b883a 	mov	r5,r17
 1008b14:	100f6480 	call	100f648 <__divdf3>
 1008b18:	180b883a 	mov	r5,r3
 1008b1c:	1009883a 	mov	r4,r2
 1008b20:	100fc400 	call	100fc40 <__fixdfsi>
 1008b24:	1009883a 	mov	r4,r2
 1008b28:	1029883a 	mov	r20,r2
 1008b2c:	100fb480 	call	100fb48 <__floatsidf>
 1008b30:	180f883a 	mov	r7,r3
 1008b34:	9009883a 	mov	r4,r18
 1008b38:	980b883a 	mov	r5,r19
 1008b3c:	100d883a 	mov	r6,r2
 1008b40:	100f2840 	call	100f284 <__muldf3>
 1008b44:	180f883a 	mov	r7,r3
 1008b48:	880b883a 	mov	r5,r17
 1008b4c:	8009883a 	mov	r4,r16
 1008b50:	100d883a 	mov	r6,r2
 1008b54:	100f1900 	call	100f190 <__subdf3>
 1008b58:	1015883a 	mov	r10,r2
 1008b5c:	a0800c04 	addi	r2,r20,48
 1008b60:	e0800005 	stb	r2,0(fp)
 1008b64:	e7000044 	addi	fp,fp,1
 1008b68:	1817883a 	mov	r11,r3
 1008b6c:	e57fd61e 	bne	fp,r21,1008ac8 <_dtoa_r+0x5d8>
 1008b70:	500d883a 	mov	r6,r10
 1008b74:	180f883a 	mov	r7,r3
 1008b78:	5009883a 	mov	r4,r10
 1008b7c:	180b883a 	mov	r5,r3
 1008b80:	100f2100 	call	100f210 <__adddf3>
 1008b84:	100d883a 	mov	r6,r2
 1008b88:	9009883a 	mov	r4,r18
 1008b8c:	980b883a 	mov	r5,r19
 1008b90:	180f883a 	mov	r7,r3
 1008b94:	1021883a 	mov	r16,r2
 1008b98:	1823883a 	mov	r17,r3
 1008b9c:	100fac00 	call	100fac0 <__ltdf2>
 1008ba0:	10000816 	blt	r2,zero,1008bc4 <_dtoa_r+0x6d4>
 1008ba4:	980b883a 	mov	r5,r19
 1008ba8:	800d883a 	mov	r6,r16
 1008bac:	880f883a 	mov	r7,r17
 1008bb0:	9009883a 	mov	r4,r18
 1008bb4:	100f8a00 	call	100f8a0 <__eqdf2>
 1008bb8:	1000171e 	bne	r2,zero,1008c18 <_dtoa_r+0x728>
 1008bbc:	a080004c 	andi	r2,r20,1
 1008bc0:	10001526 	beq	r2,zero,1008c18 <_dtoa_r+0x728>
 1008bc4:	d8800d17 	ldw	r2,52(sp)
 1008bc8:	d8800415 	stw	r2,16(sp)
 1008bcc:	e009883a 	mov	r4,fp
 1008bd0:	213fffc4 	addi	r4,r4,-1
 1008bd4:	20c00007 	ldb	r3,0(r4)
 1008bd8:	00800e44 	movi	r2,57
 1008bdc:	1880081e 	bne	r3,r2,1008c00 <_dtoa_r+0x710>
 1008be0:	d8800517 	ldw	r2,20(sp)
 1008be4:	113ffa1e 	bne	r2,r4,1008bd0 <_dtoa_r+0x6e0>
 1008be8:	d8c00417 	ldw	r3,16(sp)
 1008bec:	d9800517 	ldw	r6,20(sp)
 1008bf0:	00800c04 	movi	r2,48
 1008bf4:	18c00044 	addi	r3,r3,1
 1008bf8:	d8c00415 	stw	r3,16(sp)
 1008bfc:	30800005 	stb	r2,0(r6)
 1008c00:	20800003 	ldbu	r2,0(r4)
 1008c04:	d8c00417 	ldw	r3,16(sp)
 1008c08:	27000044 	addi	fp,r4,1
 1008c0c:	10800044 	addi	r2,r2,1
 1008c10:	d8c00d15 	stw	r3,52(sp)
 1008c14:	20800005 	stb	r2,0(r4)
 1008c18:	d9001617 	ldw	r4,88(sp)
 1008c1c:	d9400717 	ldw	r5,28(sp)
 1008c20:	100ae0c0 	call	100ae0c <_Bfree>
 1008c24:	e0000005 	stb	zero,0(fp)
 1008c28:	d9800d17 	ldw	r6,52(sp)
 1008c2c:	d8c02717 	ldw	r3,156(sp)
 1008c30:	d9002917 	ldw	r4,164(sp)
 1008c34:	30800044 	addi	r2,r6,1
 1008c38:	18800015 	stw	r2,0(r3)
 1008c3c:	20029c26 	beq	r4,zero,10096b0 <_dtoa_r+0x11c0>
 1008c40:	d8c00517 	ldw	r3,20(sp)
 1008c44:	27000015 	stw	fp,0(r4)
 1008c48:	003e5d06 	br	10085c0 <_dtoa_r+0xd0>
 1008c4c:	d9800d17 	ldw	r6,52(sp)
 1008c50:	00c04074 	movhi	r3,257
 1008c54:	18cf0604 	addi	r3,r3,15384
 1008c58:	d9001217 	ldw	r4,72(sp)
 1008c5c:	300490fa 	slli	r2,r6,3
 1008c60:	d9401317 	ldw	r5,76(sp)
 1008c64:	10c5883a 	add	r2,r2,r3
 1008c68:	12000017 	ldw	r8,0(r2)
 1008c6c:	12400117 	ldw	r9,4(r2)
 1008c70:	400d883a 	mov	r6,r8
 1008c74:	480f883a 	mov	r7,r9
 1008c78:	100fac00 	call	100fac0 <__ltdf2>
 1008c7c:	1000030e 	bge	r2,zero,1008c8c <_dtoa_r+0x79c>
 1008c80:	d8800d17 	ldw	r2,52(sp)
 1008c84:	10bfffc4 	addi	r2,r2,-1
 1008c88:	d8800d15 	stw	r2,52(sp)
 1008c8c:	d8000c15 	stw	zero,48(sp)
 1008c90:	003ea806 	br	1008734 <_dtoa_r+0x244>
 1008c94:	d9000b17 	ldw	r4,44(sp)
 1008c98:	202cc03a 	cmpne	r22,r4,zero
 1008c9c:	b000c71e 	bne	r22,zero,1008fbc <_dtoa_r+0xacc>
 1008ca0:	dc001117 	ldw	r16,68(sp)
 1008ca4:	dc801017 	ldw	r18,64(sp)
 1008ca8:	0027883a 	mov	r19,zero
 1008cac:	04000b0e 	bge	zero,r16,1008cdc <_dtoa_r+0x7ec>
 1008cb0:	d8c00a17 	ldw	r3,40(sp)
 1008cb4:	00c0090e 	bge	zero,r3,1008cdc <_dtoa_r+0x7ec>
 1008cb8:	8005883a 	mov	r2,r16
 1008cbc:	1c011316 	blt	r3,r16,100910c <_dtoa_r+0xc1c>
 1008cc0:	d9000a17 	ldw	r4,40(sp)
 1008cc4:	d9801117 	ldw	r6,68(sp)
 1008cc8:	80a1c83a 	sub	r16,r16,r2
 1008ccc:	2089c83a 	sub	r4,r4,r2
 1008cd0:	308dc83a 	sub	r6,r6,r2
 1008cd4:	d9000a15 	stw	r4,40(sp)
 1008cd8:	d9801115 	stw	r6,68(sp)
 1008cdc:	d8801017 	ldw	r2,64(sp)
 1008ce0:	0080150e 	bge	zero,r2,1008d38 <_dtoa_r+0x848>
 1008ce4:	d8c00b17 	ldw	r3,44(sp)
 1008ce8:	1805003a 	cmpeq	r2,r3,zero
 1008cec:	1001c91e 	bne	r2,zero,1009414 <_dtoa_r+0xf24>
 1008cf0:	04800e0e 	bge	zero,r18,1008d2c <_dtoa_r+0x83c>
 1008cf4:	d9001617 	ldw	r4,88(sp)
 1008cf8:	980b883a 	mov	r5,r19
 1008cfc:	900d883a 	mov	r6,r18
 1008d00:	100bbc00 	call	100bbc0 <__pow5mult>
 1008d04:	d9001617 	ldw	r4,88(sp)
 1008d08:	d9800717 	ldw	r6,28(sp)
 1008d0c:	100b883a 	mov	r5,r2
 1008d10:	1027883a 	mov	r19,r2
 1008d14:	100b89c0 	call	100b89c <__multiply>
 1008d18:	d9001617 	ldw	r4,88(sp)
 1008d1c:	d9400717 	ldw	r5,28(sp)
 1008d20:	1023883a 	mov	r17,r2
 1008d24:	100ae0c0 	call	100ae0c <_Bfree>
 1008d28:	dc400715 	stw	r17,28(sp)
 1008d2c:	d9001017 	ldw	r4,64(sp)
 1008d30:	248dc83a 	sub	r6,r4,r18
 1008d34:	30010e1e 	bne	r6,zero,1009170 <_dtoa_r+0xc80>
 1008d38:	d9001617 	ldw	r4,88(sp)
 1008d3c:	04400044 	movi	r17,1
 1008d40:	880b883a 	mov	r5,r17
 1008d44:	100ba840 	call	100ba84 <__i2b>
 1008d48:	d9800917 	ldw	r6,36(sp)
 1008d4c:	1025883a 	mov	r18,r2
 1008d50:	0180040e 	bge	zero,r6,1008d64 <_dtoa_r+0x874>
 1008d54:	d9001617 	ldw	r4,88(sp)
 1008d58:	100b883a 	mov	r5,r2
 1008d5c:	100bbc00 	call	100bbc0 <__pow5mult>
 1008d60:	1025883a 	mov	r18,r2
 1008d64:	d8801717 	ldw	r2,92(sp)
 1008d68:	8880f30e 	bge	r17,r2,1009138 <_dtoa_r+0xc48>
 1008d6c:	0023883a 	mov	r17,zero
 1008d70:	d9800917 	ldw	r6,36(sp)
 1008d74:	30019e1e 	bne	r6,zero,10093f0 <_dtoa_r+0xf00>
 1008d78:	00c00044 	movi	r3,1
 1008d7c:	d9000a17 	ldw	r4,40(sp)
 1008d80:	20c5883a 	add	r2,r4,r3
 1008d84:	10c007cc 	andi	r3,r2,31
 1008d88:	1800841e 	bne	r3,zero,1008f9c <_dtoa_r+0xaac>
 1008d8c:	00800704 	movi	r2,28
 1008d90:	d9000a17 	ldw	r4,40(sp)
 1008d94:	d9801117 	ldw	r6,68(sp)
 1008d98:	80a1883a 	add	r16,r16,r2
 1008d9c:	2089883a 	add	r4,r4,r2
 1008da0:	308d883a 	add	r6,r6,r2
 1008da4:	d9000a15 	stw	r4,40(sp)
 1008da8:	d9801115 	stw	r6,68(sp)
 1008dac:	d8801117 	ldw	r2,68(sp)
 1008db0:	0080050e 	bge	zero,r2,1008dc8 <_dtoa_r+0x8d8>
 1008db4:	d9400717 	ldw	r5,28(sp)
 1008db8:	d9001617 	ldw	r4,88(sp)
 1008dbc:	100d883a 	mov	r6,r2
 1008dc0:	100b7500 	call	100b750 <__lshift>
 1008dc4:	d8800715 	stw	r2,28(sp)
 1008dc8:	d8c00a17 	ldw	r3,40(sp)
 1008dcc:	00c0050e 	bge	zero,r3,1008de4 <_dtoa_r+0x8f4>
 1008dd0:	d9001617 	ldw	r4,88(sp)
 1008dd4:	900b883a 	mov	r5,r18
 1008dd8:	180d883a 	mov	r6,r3
 1008ddc:	100b7500 	call	100b750 <__lshift>
 1008de0:	1025883a 	mov	r18,r2
 1008de4:	d9000c17 	ldw	r4,48(sp)
 1008de8:	2005003a 	cmpeq	r2,r4,zero
 1008dec:	10016f26 	beq	r2,zero,10093ac <_dtoa_r+0xebc>
 1008df0:	d9000f17 	ldw	r4,60(sp)
 1008df4:	0102170e 	bge	zero,r4,1009654 <_dtoa_r+0x1164>
 1008df8:	d9800b17 	ldw	r6,44(sp)
 1008dfc:	3005003a 	cmpeq	r2,r6,zero
 1008e00:	1000881e 	bne	r2,zero,1009024 <_dtoa_r+0xb34>
 1008e04:	0400050e 	bge	zero,r16,1008e1c <_dtoa_r+0x92c>
 1008e08:	d9001617 	ldw	r4,88(sp)
 1008e0c:	980b883a 	mov	r5,r19
 1008e10:	800d883a 	mov	r6,r16
 1008e14:	100b7500 	call	100b750 <__lshift>
 1008e18:	1027883a 	mov	r19,r2
 1008e1c:	8804c03a 	cmpne	r2,r17,zero
 1008e20:	1002541e 	bne	r2,zero,1009774 <_dtoa_r+0x1284>
 1008e24:	980b883a 	mov	r5,r19
 1008e28:	dd800517 	ldw	r22,20(sp)
 1008e2c:	dcc00615 	stw	r19,24(sp)
 1008e30:	a700004c 	andi	fp,r20,1
 1008e34:	2827883a 	mov	r19,r5
 1008e38:	d9000717 	ldw	r4,28(sp)
 1008e3c:	900b883a 	mov	r5,r18
 1008e40:	10082d80 	call	10082d8 <quorem>
 1008e44:	d9000717 	ldw	r4,28(sp)
 1008e48:	d9400617 	ldw	r5,24(sp)
 1008e4c:	1023883a 	mov	r17,r2
 1008e50:	8dc00c04 	addi	r23,r17,48
 1008e54:	100af680 	call	100af68 <__mcmp>
 1008e58:	d9001617 	ldw	r4,88(sp)
 1008e5c:	900b883a 	mov	r5,r18
 1008e60:	980d883a 	mov	r6,r19
 1008e64:	1029883a 	mov	r20,r2
 1008e68:	100b5c40 	call	100b5c4 <__mdiff>
 1008e6c:	102b883a 	mov	r21,r2
 1008e70:	10800317 	ldw	r2,12(r2)
 1008e74:	1001281e 	bne	r2,zero,1009318 <_dtoa_r+0xe28>
 1008e78:	d9000717 	ldw	r4,28(sp)
 1008e7c:	a80b883a 	mov	r5,r21
 1008e80:	100af680 	call	100af68 <__mcmp>
 1008e84:	d9001617 	ldw	r4,88(sp)
 1008e88:	1021883a 	mov	r16,r2
 1008e8c:	a80b883a 	mov	r5,r21
 1008e90:	100ae0c0 	call	100ae0c <_Bfree>
 1008e94:	8000041e 	bne	r16,zero,1008ea8 <_dtoa_r+0x9b8>
 1008e98:	d8801717 	ldw	r2,92(sp)
 1008e9c:	1000021e 	bne	r2,zero,1008ea8 <_dtoa_r+0x9b8>
 1008ea0:	e004c03a 	cmpne	r2,fp,zero
 1008ea4:	10011726 	beq	r2,zero,1009304 <_dtoa_r+0xe14>
 1008ea8:	a0010616 	blt	r20,zero,10092c4 <_dtoa_r+0xdd4>
 1008eac:	a000041e 	bne	r20,zero,1008ec0 <_dtoa_r+0x9d0>
 1008eb0:	d8c01717 	ldw	r3,92(sp)
 1008eb4:	1800021e 	bne	r3,zero,1008ec0 <_dtoa_r+0x9d0>
 1008eb8:	e004c03a 	cmpne	r2,fp,zero
 1008ebc:	10010126 	beq	r2,zero,10092c4 <_dtoa_r+0xdd4>
 1008ec0:	04023d16 	blt	zero,r16,10097b8 <_dtoa_r+0x12c8>
 1008ec4:	b5c00005 	stb	r23,0(r22)
 1008ec8:	d9800517 	ldw	r6,20(sp)
 1008ecc:	d9000f17 	ldw	r4,60(sp)
 1008ed0:	b5800044 	addi	r22,r22,1
 1008ed4:	3105883a 	add	r2,r6,r4
 1008ed8:	b0806526 	beq	r22,r2,1009070 <_dtoa_r+0xb80>
 1008edc:	d9400717 	ldw	r5,28(sp)
 1008ee0:	d9001617 	ldw	r4,88(sp)
 1008ee4:	01800284 	movi	r6,10
 1008ee8:	000f883a 	mov	r7,zero
 1008eec:	100bac00 	call	100bac0 <__multadd>
 1008ef0:	d8800715 	stw	r2,28(sp)
 1008ef4:	d8800617 	ldw	r2,24(sp)
 1008ef8:	14c10c26 	beq	r2,r19,100932c <_dtoa_r+0xe3c>
 1008efc:	d9400617 	ldw	r5,24(sp)
 1008f00:	d9001617 	ldw	r4,88(sp)
 1008f04:	01800284 	movi	r6,10
 1008f08:	000f883a 	mov	r7,zero
 1008f0c:	100bac00 	call	100bac0 <__multadd>
 1008f10:	d9001617 	ldw	r4,88(sp)
 1008f14:	980b883a 	mov	r5,r19
 1008f18:	01800284 	movi	r6,10
 1008f1c:	000f883a 	mov	r7,zero
 1008f20:	d8800615 	stw	r2,24(sp)
 1008f24:	100bac00 	call	100bac0 <__multadd>
 1008f28:	1027883a 	mov	r19,r2
 1008f2c:	003fc206 	br	1008e38 <_dtoa_r+0x948>
 1008f30:	2445c83a 	sub	r2,r4,r17
 1008f34:	a088983a 	sll	r4,r20,r2
 1008f38:	003e4b06 	br	1008868 <_dtoa_r+0x378>
 1008f3c:	01bfffc4 	movi	r6,-1
 1008f40:	00800044 	movi	r2,1
 1008f44:	d9800e15 	stw	r6,56(sp)
 1008f48:	d9800f15 	stw	r6,60(sp)
 1008f4c:	d8800b15 	stw	r2,44(sp)
 1008f50:	d8c01617 	ldw	r3,88(sp)
 1008f54:	008005c4 	movi	r2,23
 1008f58:	18001115 	stw	zero,68(r3)
 1008f5c:	1580082e 	bgeu	r2,r22,1008f80 <_dtoa_r+0xa90>
 1008f60:	00c00104 	movi	r3,4
 1008f64:	0009883a 	mov	r4,zero
 1008f68:	18c7883a 	add	r3,r3,r3
 1008f6c:	18800504 	addi	r2,r3,20
 1008f70:	21000044 	addi	r4,r4,1
 1008f74:	b0bffc2e 	bgeu	r22,r2,1008f68 <_dtoa_r+0xa78>
 1008f78:	d9801617 	ldw	r6,88(sp)
 1008f7c:	31001115 	stw	r4,68(r6)
 1008f80:	dc000f17 	ldw	r16,60(sp)
 1008f84:	003e4b06 	br	10088b4 <_dtoa_r+0x3c4>
 1008f88:	d9801717 	ldw	r6,92(sp)
 1008f8c:	0023883a 	mov	r17,zero
 1008f90:	31bfff04 	addi	r6,r6,-4
 1008f94:	d9801715 	stw	r6,92(sp)
 1008f98:	003df806 	br	100877c <_dtoa_r+0x28c>
 1008f9c:	00800804 	movi	r2,32
 1008fa0:	10c9c83a 	sub	r4,r2,r3
 1008fa4:	00c00104 	movi	r3,4
 1008fa8:	19005a16 	blt	r3,r4,1009114 <_dtoa_r+0xc24>
 1008fac:	008000c4 	movi	r2,3
 1008fb0:	113f7e16 	blt	r2,r4,1008dac <_dtoa_r+0x8bc>
 1008fb4:	20800704 	addi	r2,r4,28
 1008fb8:	003f7506 	br	1008d90 <_dtoa_r+0x8a0>
 1008fbc:	d9801717 	ldw	r6,92(sp)
 1008fc0:	00800044 	movi	r2,1
 1008fc4:	1180a10e 	bge	r2,r6,100924c <_dtoa_r+0xd5c>
 1008fc8:	d9800f17 	ldw	r6,60(sp)
 1008fcc:	d8c01017 	ldw	r3,64(sp)
 1008fd0:	30bfffc4 	addi	r2,r6,-1
 1008fd4:	1881c616 	blt	r3,r2,10096f0 <_dtoa_r+0x1200>
 1008fd8:	18a5c83a 	sub	r18,r3,r2
 1008fdc:	d8800f17 	ldw	r2,60(sp)
 1008fe0:	10026216 	blt	r2,zero,100996c <_dtoa_r+0x147c>
 1008fe4:	dc001117 	ldw	r16,68(sp)
 1008fe8:	1007883a 	mov	r3,r2
 1008fec:	d9800a17 	ldw	r6,40(sp)
 1008ff0:	d8801117 	ldw	r2,68(sp)
 1008ff4:	d9001617 	ldw	r4,88(sp)
 1008ff8:	30cd883a 	add	r6,r6,r3
 1008ffc:	10c5883a 	add	r2,r2,r3
 1009000:	01400044 	movi	r5,1
 1009004:	d9800a15 	stw	r6,40(sp)
 1009008:	d8801115 	stw	r2,68(sp)
 100900c:	100ba840 	call	100ba84 <__i2b>
 1009010:	1027883a 	mov	r19,r2
 1009014:	003f2506 	br	1008cac <_dtoa_r+0x7bc>
 1009018:	00c04074 	movhi	r3,257
 100901c:	18cee904 	addi	r3,r3,15268
 1009020:	003d6706 	br	10085c0 <_dtoa_r+0xd0>
 1009024:	dd800517 	ldw	r22,20(sp)
 1009028:	04000044 	movi	r16,1
 100902c:	00000706 	br	100904c <_dtoa_r+0xb5c>
 1009030:	d9400717 	ldw	r5,28(sp)
 1009034:	d9001617 	ldw	r4,88(sp)
 1009038:	01800284 	movi	r6,10
 100903c:	000f883a 	mov	r7,zero
 1009040:	100bac00 	call	100bac0 <__multadd>
 1009044:	d8800715 	stw	r2,28(sp)
 1009048:	84000044 	addi	r16,r16,1
 100904c:	d9000717 	ldw	r4,28(sp)
 1009050:	900b883a 	mov	r5,r18
 1009054:	10082d80 	call	10082d8 <quorem>
 1009058:	15c00c04 	addi	r23,r2,48
 100905c:	b5c00005 	stb	r23,0(r22)
 1009060:	d8c00f17 	ldw	r3,60(sp)
 1009064:	b5800044 	addi	r22,r22,1
 1009068:	80fff116 	blt	r16,r3,1009030 <_dtoa_r+0xb40>
 100906c:	d8000615 	stw	zero,24(sp)
 1009070:	d9400717 	ldw	r5,28(sp)
 1009074:	d9001617 	ldw	r4,88(sp)
 1009078:	01800044 	movi	r6,1
 100907c:	100b7500 	call	100b750 <__lshift>
 1009080:	1009883a 	mov	r4,r2
 1009084:	900b883a 	mov	r5,r18
 1009088:	d8800715 	stw	r2,28(sp)
 100908c:	100af680 	call	100af68 <__mcmp>
 1009090:	00803c0e 	bge	zero,r2,1009184 <_dtoa_r+0xc94>
 1009094:	b009883a 	mov	r4,r22
 1009098:	213fffc4 	addi	r4,r4,-1
 100909c:	21400003 	ldbu	r5,0(r4)
 10090a0:	00800e44 	movi	r2,57
 10090a4:	28c03fcc 	andi	r3,r5,255
 10090a8:	18c0201c 	xori	r3,r3,128
 10090ac:	18ffe004 	addi	r3,r3,-128
 10090b0:	1881981e 	bne	r3,r2,1009714 <_dtoa_r+0x1224>
 10090b4:	d9800517 	ldw	r6,20(sp)
 10090b8:	21bff71e 	bne	r4,r6,1009098 <_dtoa_r+0xba8>
 10090bc:	d8800d17 	ldw	r2,52(sp)
 10090c0:	37000044 	addi	fp,r6,1
 10090c4:	10800044 	addi	r2,r2,1
 10090c8:	d8800d15 	stw	r2,52(sp)
 10090cc:	00800c44 	movi	r2,49
 10090d0:	30800005 	stb	r2,0(r6)
 10090d4:	d9001617 	ldw	r4,88(sp)
 10090d8:	900b883a 	mov	r5,r18
 10090dc:	100ae0c0 	call	100ae0c <_Bfree>
 10090e0:	983ecd26 	beq	r19,zero,1008c18 <_dtoa_r+0x728>
 10090e4:	d8c00617 	ldw	r3,24(sp)
 10090e8:	18000426 	beq	r3,zero,10090fc <_dtoa_r+0xc0c>
 10090ec:	1cc00326 	beq	r3,r19,10090fc <_dtoa_r+0xc0c>
 10090f0:	d9001617 	ldw	r4,88(sp)
 10090f4:	180b883a 	mov	r5,r3
 10090f8:	100ae0c0 	call	100ae0c <_Bfree>
 10090fc:	d9001617 	ldw	r4,88(sp)
 1009100:	980b883a 	mov	r5,r19
 1009104:	100ae0c0 	call	100ae0c <_Bfree>
 1009108:	003ec306 	br	1008c18 <_dtoa_r+0x728>
 100910c:	1805883a 	mov	r2,r3
 1009110:	003eeb06 	br	1008cc0 <_dtoa_r+0x7d0>
 1009114:	d9800a17 	ldw	r6,40(sp)
 1009118:	d8c01117 	ldw	r3,68(sp)
 100911c:	20bfff04 	addi	r2,r4,-4
 1009120:	308d883a 	add	r6,r6,r2
 1009124:	1887883a 	add	r3,r3,r2
 1009128:	80a1883a 	add	r16,r16,r2
 100912c:	d9800a15 	stw	r6,40(sp)
 1009130:	d8c01115 	stw	r3,68(sp)
 1009134:	003f1d06 	br	1008dac <_dtoa_r+0x8bc>
 1009138:	a03f0c1e 	bne	r20,zero,1008d6c <_dtoa_r+0x87c>
 100913c:	00800434 	movhi	r2,16
 1009140:	10bfffc4 	addi	r2,r2,-1
 1009144:	a884703a 	and	r2,r21,r2
 1009148:	103f081e 	bne	r2,zero,1008d6c <_dtoa_r+0x87c>
 100914c:	a89ffc2c 	andhi	r2,r21,32752
 1009150:	103f0626 	beq	r2,zero,1008d6c <_dtoa_r+0x87c>
 1009154:	d8c01117 	ldw	r3,68(sp)
 1009158:	d9000a17 	ldw	r4,40(sp)
 100915c:	18c00044 	addi	r3,r3,1
 1009160:	21000044 	addi	r4,r4,1
 1009164:	d8c01115 	stw	r3,68(sp)
 1009168:	d9000a15 	stw	r4,40(sp)
 100916c:	003f0006 	br	1008d70 <_dtoa_r+0x880>
 1009170:	d9400717 	ldw	r5,28(sp)
 1009174:	d9001617 	ldw	r4,88(sp)
 1009178:	100bbc00 	call	100bbc0 <__pow5mult>
 100917c:	d8800715 	stw	r2,28(sp)
 1009180:	003eed06 	br	1008d38 <_dtoa_r+0x848>
 1009184:	1000021e 	bne	r2,zero,1009190 <_dtoa_r+0xca0>
 1009188:	b880004c 	andi	r2,r23,1
 100918c:	103fc11e 	bne	r2,zero,1009094 <_dtoa_r+0xba4>
 1009190:	b5bfffc4 	addi	r22,r22,-1
 1009194:	b0c00007 	ldb	r3,0(r22)
 1009198:	00800c04 	movi	r2,48
 100919c:	18bffc26 	beq	r3,r2,1009190 <_dtoa_r+0xca0>
 10091a0:	b7000044 	addi	fp,r22,1
 10091a4:	003fcb06 	br	10090d4 <_dtoa_r+0xbe4>
 10091a8:	d9800d17 	ldw	r6,52(sp)
 10091ac:	018fc83a 	sub	r7,zero,r6
 10091b0:	3801f726 	beq	r7,zero,1009990 <_dtoa_r+0x14a0>
 10091b4:	398003cc 	andi	r6,r7,15
 10091b8:	300c90fa 	slli	r6,r6,3
 10091bc:	01404074 	movhi	r5,257
 10091c0:	294f0604 	addi	r5,r5,15384
 10091c4:	d9001217 	ldw	r4,72(sp)
 10091c8:	314d883a 	add	r6,r6,r5
 10091cc:	30c00117 	ldw	r3,4(r6)
 10091d0:	30800017 	ldw	r2,0(r6)
 10091d4:	d9401317 	ldw	r5,76(sp)
 10091d8:	3821d13a 	srai	r16,r7,4
 10091dc:	100d883a 	mov	r6,r2
 10091e0:	180f883a 	mov	r7,r3
 10091e4:	100f2840 	call	100f284 <__muldf3>
 10091e8:	1011883a 	mov	r8,r2
 10091ec:	1813883a 	mov	r9,r3
 10091f0:	1029883a 	mov	r20,r2
 10091f4:	182b883a 	mov	r21,r3
 10091f8:	8001e526 	beq	r16,zero,1009990 <_dtoa_r+0x14a0>
 10091fc:	05800084 	movi	r22,2
 1009200:	04404074 	movhi	r17,257
 1009204:	8c4f3804 	addi	r17,r17,15584
 1009208:	8080004c 	andi	r2,r16,1
 100920c:	1005003a 	cmpeq	r2,r2,zero
 1009210:	1000081e 	bne	r2,zero,1009234 <_dtoa_r+0xd44>
 1009214:	89800017 	ldw	r6,0(r17)
 1009218:	89c00117 	ldw	r7,4(r17)
 100921c:	480b883a 	mov	r5,r9
 1009220:	4009883a 	mov	r4,r8
 1009224:	100f2840 	call	100f284 <__muldf3>
 1009228:	1011883a 	mov	r8,r2
 100922c:	b5800044 	addi	r22,r22,1
 1009230:	1813883a 	mov	r9,r3
 1009234:	8021d07a 	srai	r16,r16,1
 1009238:	8c400204 	addi	r17,r17,8
 100923c:	803ff21e 	bne	r16,zero,1009208 <_dtoa_r+0xd18>
 1009240:	4029883a 	mov	r20,r8
 1009244:	482b883a 	mov	r21,r9
 1009248:	003dca06 	br	1008974 <_dtoa_r+0x484>
 100924c:	d9000817 	ldw	r4,32(sp)
 1009250:	2005003a 	cmpeq	r2,r4,zero
 1009254:	1001f61e 	bne	r2,zero,1009a30 <_dtoa_r+0x1540>
 1009258:	dc001117 	ldw	r16,68(sp)
 100925c:	dc801017 	ldw	r18,64(sp)
 1009260:	18c10cc4 	addi	r3,r3,1075
 1009264:	003f6106 	br	1008fec <_dtoa_r+0xafc>
 1009268:	d8000b15 	stw	zero,44(sp)
 100926c:	d9802617 	ldw	r6,152(sp)
 1009270:	d8c00d17 	ldw	r3,52(sp)
 1009274:	30800044 	addi	r2,r6,1
 1009278:	18ad883a 	add	r22,r3,r2
 100927c:	b13fffc4 	addi	r4,r22,-1
 1009280:	d9000e15 	stw	r4,56(sp)
 1009284:	0581f60e 	bge	zero,r22,1009a60 <_dtoa_r+0x1570>
 1009288:	dd800f15 	stw	r22,60(sp)
 100928c:	003f3006 	br	1008f50 <_dtoa_r+0xa60>
 1009290:	d8000b15 	stw	zero,44(sp)
 1009294:	d9002617 	ldw	r4,152(sp)
 1009298:	0101eb0e 	bge	zero,r4,1009a48 <_dtoa_r+0x1558>
 100929c:	202d883a 	mov	r22,r4
 10092a0:	d9000e15 	stw	r4,56(sp)
 10092a4:	d9000f15 	stw	r4,60(sp)
 10092a8:	003f2906 	br	1008f50 <_dtoa_r+0xa60>
 10092ac:	01800044 	movi	r6,1
 10092b0:	d9800b15 	stw	r6,44(sp)
 10092b4:	003ff706 	br	1009294 <_dtoa_r+0xda4>
 10092b8:	01000044 	movi	r4,1
 10092bc:	d9000b15 	stw	r4,44(sp)
 10092c0:	003fea06 	br	100926c <_dtoa_r+0xd7c>
 10092c4:	04000c0e 	bge	zero,r16,10092f8 <_dtoa_r+0xe08>
 10092c8:	d9400717 	ldw	r5,28(sp)
 10092cc:	d9001617 	ldw	r4,88(sp)
 10092d0:	01800044 	movi	r6,1
 10092d4:	100b7500 	call	100b750 <__lshift>
 10092d8:	1009883a 	mov	r4,r2
 10092dc:	900b883a 	mov	r5,r18
 10092e0:	d8800715 	stw	r2,28(sp)
 10092e4:	100af680 	call	100af68 <__mcmp>
 10092e8:	0081e00e 	bge	zero,r2,1009a6c <_dtoa_r+0x157c>
 10092ec:	bdc00044 	addi	r23,r23,1
 10092f0:	00800e84 	movi	r2,58
 10092f4:	b881a226 	beq	r23,r2,1009980 <_dtoa_r+0x1490>
 10092f8:	b7000044 	addi	fp,r22,1
 10092fc:	b5c00005 	stb	r23,0(r22)
 1009300:	003f7406 	br	10090d4 <_dtoa_r+0xbe4>
 1009304:	00800e44 	movi	r2,57
 1009308:	b8819d26 	beq	r23,r2,1009980 <_dtoa_r+0x1490>
 100930c:	053ffa0e 	bge	zero,r20,10092f8 <_dtoa_r+0xe08>
 1009310:	8dc00c44 	addi	r23,r17,49
 1009314:	003ff806 	br	10092f8 <_dtoa_r+0xe08>
 1009318:	d9001617 	ldw	r4,88(sp)
 100931c:	a80b883a 	mov	r5,r21
 1009320:	04000044 	movi	r16,1
 1009324:	100ae0c0 	call	100ae0c <_Bfree>
 1009328:	003edf06 	br	1008ea8 <_dtoa_r+0x9b8>
 100932c:	d9001617 	ldw	r4,88(sp)
 1009330:	980b883a 	mov	r5,r19
 1009334:	01800284 	movi	r6,10
 1009338:	000f883a 	mov	r7,zero
 100933c:	100bac00 	call	100bac0 <__multadd>
 1009340:	1027883a 	mov	r19,r2
 1009344:	d8800615 	stw	r2,24(sp)
 1009348:	003ebb06 	br	1008e38 <_dtoa_r+0x948>
 100934c:	d9801117 	ldw	r6,68(sp)
 1009350:	d8800d17 	ldw	r2,52(sp)
 1009354:	d8000915 	stw	zero,36(sp)
 1009358:	308dc83a 	sub	r6,r6,r2
 100935c:	0087c83a 	sub	r3,zero,r2
 1009360:	d9801115 	stw	r6,68(sp)
 1009364:	d8c01015 	stw	r3,64(sp)
 1009368:	003cfe06 	br	1008764 <_dtoa_r+0x274>
 100936c:	018dc83a 	sub	r6,zero,r6
 1009370:	d9801115 	stw	r6,68(sp)
 1009374:	d8000a15 	stw	zero,40(sp)
 1009378:	003cf306 	br	1008748 <_dtoa_r+0x258>
 100937c:	d9000d17 	ldw	r4,52(sp)
 1009380:	100fb480 	call	100fb48 <__floatsidf>
 1009384:	880b883a 	mov	r5,r17
 1009388:	8009883a 	mov	r4,r16
 100938c:	180f883a 	mov	r7,r3
 1009390:	100d883a 	mov	r6,r2
 1009394:	100f9280 	call	100f928 <__nedf2>
 1009398:	103ce126 	beq	r2,zero,1008720 <_dtoa_r+0x230>
 100939c:	d9800d17 	ldw	r6,52(sp)
 10093a0:	31bfffc4 	addi	r6,r6,-1
 10093a4:	d9800d15 	stw	r6,52(sp)
 10093a8:	003cdd06 	br	1008720 <_dtoa_r+0x230>
 10093ac:	d9000717 	ldw	r4,28(sp)
 10093b0:	900b883a 	mov	r5,r18
 10093b4:	100af680 	call	100af68 <__mcmp>
 10093b8:	103e8d0e 	bge	r2,zero,1008df0 <_dtoa_r+0x900>
 10093bc:	d9400717 	ldw	r5,28(sp)
 10093c0:	d9001617 	ldw	r4,88(sp)
 10093c4:	01800284 	movi	r6,10
 10093c8:	000f883a 	mov	r7,zero
 10093cc:	100bac00 	call	100bac0 <__multadd>
 10093d0:	d9800d17 	ldw	r6,52(sp)
 10093d4:	d8800715 	stw	r2,28(sp)
 10093d8:	31bfffc4 	addi	r6,r6,-1
 10093dc:	d9800d15 	stw	r6,52(sp)
 10093e0:	b001a71e 	bne	r22,zero,1009a80 <_dtoa_r+0x1590>
 10093e4:	d8800e17 	ldw	r2,56(sp)
 10093e8:	d8800f15 	stw	r2,60(sp)
 10093ec:	003e8006 	br	1008df0 <_dtoa_r+0x900>
 10093f0:	90800417 	ldw	r2,16(r18)
 10093f4:	1085883a 	add	r2,r2,r2
 10093f8:	1085883a 	add	r2,r2,r2
 10093fc:	1485883a 	add	r2,r2,r18
 1009400:	11000417 	ldw	r4,16(r2)
 1009404:	100ae340 	call	100ae34 <__hi0bits>
 1009408:	00c00804 	movi	r3,32
 100940c:	1887c83a 	sub	r3,r3,r2
 1009410:	003e5a06 	br	1008d7c <_dtoa_r+0x88c>
 1009414:	d9400717 	ldw	r5,28(sp)
 1009418:	d9801017 	ldw	r6,64(sp)
 100941c:	d9001617 	ldw	r4,88(sp)
 1009420:	100bbc00 	call	100bbc0 <__pow5mult>
 1009424:	d8800715 	stw	r2,28(sp)
 1009428:	003e4306 	br	1008d38 <_dtoa_r+0x848>
 100942c:	d9800f17 	ldw	r6,60(sp)
 1009430:	d8800d17 	ldw	r2,52(sp)
 1009434:	d9800315 	stw	r6,12(sp)
 1009438:	d8800415 	stw	r2,16(sp)
 100943c:	d8c00b17 	ldw	r3,44(sp)
 1009440:	1805003a 	cmpeq	r2,r3,zero
 1009444:	1000e21e 	bne	r2,zero,10097d0 <_dtoa_r+0x12e0>
 1009448:	d9000317 	ldw	r4,12(sp)
 100944c:	0005883a 	mov	r2,zero
 1009450:	00cff834 	movhi	r3,16352
 1009454:	200c90fa 	slli	r6,r4,3
 1009458:	01004074 	movhi	r4,257
 100945c:	210f0604 	addi	r4,r4,15384
 1009460:	180b883a 	mov	r5,r3
 1009464:	310d883a 	add	r6,r6,r4
 1009468:	327fff17 	ldw	r9,-4(r6)
 100946c:	323ffe17 	ldw	r8,-8(r6)
 1009470:	1009883a 	mov	r4,r2
 1009474:	480f883a 	mov	r7,r9
 1009478:	400d883a 	mov	r6,r8
 100947c:	100f6480 	call	100f648 <__divdf3>
 1009480:	180b883a 	mov	r5,r3
 1009484:	b00d883a 	mov	r6,r22
 1009488:	b80f883a 	mov	r7,r23
 100948c:	1009883a 	mov	r4,r2
 1009490:	100f1900 	call	100f190 <__subdf3>
 1009494:	a80b883a 	mov	r5,r21
 1009498:	a009883a 	mov	r4,r20
 100949c:	d8c01915 	stw	r3,100(sp)
 10094a0:	d8801815 	stw	r2,96(sp)
 10094a4:	100fc400 	call	100fc40 <__fixdfsi>
 10094a8:	1009883a 	mov	r4,r2
 10094ac:	1027883a 	mov	r19,r2
 10094b0:	100fb480 	call	100fb48 <__floatsidf>
 10094b4:	a80b883a 	mov	r5,r21
 10094b8:	a009883a 	mov	r4,r20
 10094bc:	180f883a 	mov	r7,r3
 10094c0:	100d883a 	mov	r6,r2
 10094c4:	100f1900 	call	100f190 <__subdf3>
 10094c8:	d9801817 	ldw	r6,96(sp)
 10094cc:	1823883a 	mov	r17,r3
 10094d0:	d8801415 	stw	r2,80(sp)
 10094d4:	302d883a 	mov	r22,r6
 10094d8:	d9800517 	ldw	r6,20(sp)
 10094dc:	9cc00c04 	addi	r19,r19,48
 10094e0:	dc401515 	stw	r17,84(sp)
 10094e4:	d8c01917 	ldw	r3,100(sp)
 10094e8:	34c00005 	stb	r19,0(r6)
 10094ec:	d8800517 	ldw	r2,20(sp)
 10094f0:	d9401917 	ldw	r5,100(sp)
 10094f4:	d9801417 	ldw	r6,80(sp)
 10094f8:	b009883a 	mov	r4,r22
 10094fc:	880f883a 	mov	r7,r17
 1009500:	182f883a 	mov	r23,r3
 1009504:	17000044 	addi	fp,r2,1
 1009508:	100f9b00 	call	100f9b0 <__gtdf2>
 100950c:	00804e16 	blt	zero,r2,1009648 <_dtoa_r+0x1158>
 1009510:	d9801417 	ldw	r6,80(sp)
 1009514:	0005883a 	mov	r2,zero
 1009518:	00cffc34 	movhi	r3,16368
 100951c:	180b883a 	mov	r5,r3
 1009520:	880f883a 	mov	r7,r17
 1009524:	1009883a 	mov	r4,r2
 1009528:	100f1900 	call	100f190 <__subdf3>
 100952c:	d9401917 	ldw	r5,100(sp)
 1009530:	180f883a 	mov	r7,r3
 1009534:	b009883a 	mov	r4,r22
 1009538:	100d883a 	mov	r6,r2
 100953c:	100f9b00 	call	100f9b0 <__gtdf2>
 1009540:	00bda216 	blt	zero,r2,1008bcc <_dtoa_r+0x6dc>
 1009544:	d8c00317 	ldw	r3,12(sp)
 1009548:	00800044 	movi	r2,1
 100954c:	10c01216 	blt	r2,r3,1009598 <_dtoa_r+0x10a8>
 1009550:	003d4506 	br	1008a68 <_dtoa_r+0x578>
 1009554:	d9801417 	ldw	r6,80(sp)
 1009558:	0005883a 	mov	r2,zero
 100955c:	00cffc34 	movhi	r3,16368
 1009560:	180b883a 	mov	r5,r3
 1009564:	880f883a 	mov	r7,r17
 1009568:	1009883a 	mov	r4,r2
 100956c:	100f1900 	call	100f190 <__subdf3>
 1009570:	d9c01b17 	ldw	r7,108(sp)
 1009574:	180b883a 	mov	r5,r3
 1009578:	1009883a 	mov	r4,r2
 100957c:	b00d883a 	mov	r6,r22
 1009580:	100fac00 	call	100fac0 <__ltdf2>
 1009584:	103d9116 	blt	r2,zero,1008bcc <_dtoa_r+0x6dc>
 1009588:	d9800517 	ldw	r6,20(sp)
 100958c:	d9000317 	ldw	r4,12(sp)
 1009590:	3105883a 	add	r2,r6,r4
 1009594:	e0bd3426 	beq	fp,r2,1008a68 <_dtoa_r+0x578>
 1009598:	04500934 	movhi	r17,16420
 100959c:	0021883a 	mov	r16,zero
 10095a0:	b80b883a 	mov	r5,r23
 10095a4:	b009883a 	mov	r4,r22
 10095a8:	800d883a 	mov	r6,r16
 10095ac:	880f883a 	mov	r7,r17
 10095b0:	100f2840 	call	100f284 <__muldf3>
 10095b4:	d9401517 	ldw	r5,84(sp)
 10095b8:	d9001417 	ldw	r4,80(sp)
 10095bc:	880f883a 	mov	r7,r17
 10095c0:	000d883a 	mov	r6,zero
 10095c4:	d8801a15 	stw	r2,104(sp)
 10095c8:	d8c01b15 	stw	r3,108(sp)
 10095cc:	100f2840 	call	100f284 <__muldf3>
 10095d0:	180b883a 	mov	r5,r3
 10095d4:	1009883a 	mov	r4,r2
 10095d8:	1823883a 	mov	r17,r3
 10095dc:	1021883a 	mov	r16,r2
 10095e0:	100fc400 	call	100fc40 <__fixdfsi>
 10095e4:	1009883a 	mov	r4,r2
 10095e8:	102b883a 	mov	r21,r2
 10095ec:	100fb480 	call	100fb48 <__floatsidf>
 10095f0:	880b883a 	mov	r5,r17
 10095f4:	8009883a 	mov	r4,r16
 10095f8:	180f883a 	mov	r7,r3
 10095fc:	100d883a 	mov	r6,r2
 1009600:	100f1900 	call	100f190 <__subdf3>
 1009604:	1021883a 	mov	r16,r2
 1009608:	d9001b17 	ldw	r4,108(sp)
 100960c:	1823883a 	mov	r17,r3
 1009610:	dc001415 	stw	r16,80(sp)
 1009614:	ad400c04 	addi	r21,r21,48
 1009618:	dc401515 	stw	r17,84(sp)
 100961c:	d8801a17 	ldw	r2,104(sp)
 1009620:	e5400005 	stb	r21,0(fp)
 1009624:	202f883a 	mov	r23,r4
 1009628:	d9c01b17 	ldw	r7,108(sp)
 100962c:	d9001417 	ldw	r4,80(sp)
 1009630:	880b883a 	mov	r5,r17
 1009634:	100d883a 	mov	r6,r2
 1009638:	102d883a 	mov	r22,r2
 100963c:	e7000044 	addi	fp,fp,1
 1009640:	100fac00 	call	100fac0 <__ltdf2>
 1009644:	103fc30e 	bge	r2,zero,1009554 <_dtoa_r+0x1064>
 1009648:	d9000417 	ldw	r4,16(sp)
 100964c:	d9000d15 	stw	r4,52(sp)
 1009650:	003d7106 	br	1008c18 <_dtoa_r+0x728>
 1009654:	d9801717 	ldw	r6,92(sp)
 1009658:	00800084 	movi	r2,2
 100965c:	11bde60e 	bge	r2,r6,1008df8 <_dtoa_r+0x908>
 1009660:	203cfb1e 	bne	r4,zero,1008a50 <_dtoa_r+0x560>
 1009664:	d9001617 	ldw	r4,88(sp)
 1009668:	900b883a 	mov	r5,r18
 100966c:	01800144 	movi	r6,5
 1009670:	000f883a 	mov	r7,zero
 1009674:	100bac00 	call	100bac0 <__multadd>
 1009678:	d9000717 	ldw	r4,28(sp)
 100967c:	100b883a 	mov	r5,r2
 1009680:	1025883a 	mov	r18,r2
 1009684:	100af680 	call	100af68 <__mcmp>
 1009688:	00bcf10e 	bge	zero,r2,1008a50 <_dtoa_r+0x560>
 100968c:	d8c00d17 	ldw	r3,52(sp)
 1009690:	d9000517 	ldw	r4,20(sp)
 1009694:	d8000615 	stw	zero,24(sp)
 1009698:	18c00044 	addi	r3,r3,1
 100969c:	d8c00d15 	stw	r3,52(sp)
 10096a0:	00800c44 	movi	r2,49
 10096a4:	27000044 	addi	fp,r4,1
 10096a8:	20800005 	stb	r2,0(r4)
 10096ac:	003e8906 	br	10090d4 <_dtoa_r+0xbe4>
 10096b0:	d8c00517 	ldw	r3,20(sp)
 10096b4:	003bc206 	br	10085c0 <_dtoa_r+0xd0>
 10096b8:	01804074 	movhi	r6,257
 10096bc:	318f3804 	addi	r6,r6,15584
 10096c0:	30c00917 	ldw	r3,36(r6)
 10096c4:	30800817 	ldw	r2,32(r6)
 10096c8:	d9001217 	ldw	r4,72(sp)
 10096cc:	d9401317 	ldw	r5,76(sp)
 10096d0:	180f883a 	mov	r7,r3
 10096d4:	100d883a 	mov	r6,r2
 10096d8:	100f6480 	call	100f648 <__divdf3>
 10096dc:	948003cc 	andi	r18,r18,15
 10096e0:	058000c4 	movi	r22,3
 10096e4:	1029883a 	mov	r20,r2
 10096e8:	182b883a 	mov	r21,r3
 10096ec:	003c8906 	br	1008914 <_dtoa_r+0x424>
 10096f0:	d9001017 	ldw	r4,64(sp)
 10096f4:	d9800917 	ldw	r6,36(sp)
 10096f8:	0025883a 	mov	r18,zero
 10096fc:	1105c83a 	sub	r2,r2,r4
 1009700:	2089883a 	add	r4,r4,r2
 1009704:	308d883a 	add	r6,r6,r2
 1009708:	d9001015 	stw	r4,64(sp)
 100970c:	d9800915 	stw	r6,36(sp)
 1009710:	003e3206 	br	1008fdc <_dtoa_r+0xaec>
 1009714:	28800044 	addi	r2,r5,1
 1009718:	27000044 	addi	fp,r4,1
 100971c:	20800005 	stb	r2,0(r4)
 1009720:	003e6c06 	br	10090d4 <_dtoa_r+0xbe4>
 1009724:	d8800f17 	ldw	r2,60(sp)
 1009728:	00bce016 	blt	zero,r2,1008aac <_dtoa_r+0x5bc>
 100972c:	d9800f17 	ldw	r6,60(sp)
 1009730:	303cc51e 	bne	r6,zero,1008a48 <_dtoa_r+0x558>
 1009734:	0005883a 	mov	r2,zero
 1009738:	00d00534 	movhi	r3,16404
 100973c:	980b883a 	mov	r5,r19
 1009740:	180f883a 	mov	r7,r3
 1009744:	9009883a 	mov	r4,r18
 1009748:	100d883a 	mov	r6,r2
 100974c:	100f2840 	call	100f284 <__muldf3>
 1009750:	180b883a 	mov	r5,r3
 1009754:	a80f883a 	mov	r7,r21
 1009758:	1009883a 	mov	r4,r2
 100975c:	a00d883a 	mov	r6,r20
 1009760:	100fa380 	call	100fa38 <__gedf2>
 1009764:	103cb80e 	bge	r2,zero,1008a48 <_dtoa_r+0x558>
 1009768:	0027883a 	mov	r19,zero
 100976c:	0025883a 	mov	r18,zero
 1009770:	003fc606 	br	100968c <_dtoa_r+0x119c>
 1009774:	99400117 	ldw	r5,4(r19)
 1009778:	d9001617 	ldw	r4,88(sp)
 100977c:	100b38c0 	call	100b38c <_Balloc>
 1009780:	99800417 	ldw	r6,16(r19)
 1009784:	11000304 	addi	r4,r2,12
 1009788:	99400304 	addi	r5,r19,12
 100978c:	318d883a 	add	r6,r6,r6
 1009790:	318d883a 	add	r6,r6,r6
 1009794:	31800204 	addi	r6,r6,8
 1009798:	1023883a 	mov	r17,r2
 100979c:	1005d200 	call	1005d20 <memcpy>
 10097a0:	d9001617 	ldw	r4,88(sp)
 10097a4:	880b883a 	mov	r5,r17
 10097a8:	01800044 	movi	r6,1
 10097ac:	100b7500 	call	100b750 <__lshift>
 10097b0:	100b883a 	mov	r5,r2
 10097b4:	003d9c06 	br	1008e28 <_dtoa_r+0x938>
 10097b8:	00800e44 	movi	r2,57
 10097bc:	b8807026 	beq	r23,r2,1009980 <_dtoa_r+0x1490>
 10097c0:	b8800044 	addi	r2,r23,1
 10097c4:	b7000044 	addi	fp,r22,1
 10097c8:	b0800005 	stb	r2,0(r22)
 10097cc:	003e4106 	br	10090d4 <_dtoa_r+0xbe4>
 10097d0:	d8800317 	ldw	r2,12(sp)
 10097d4:	01804074 	movhi	r6,257
 10097d8:	318f0604 	addi	r6,r6,15384
 10097dc:	b009883a 	mov	r4,r22
 10097e0:	100e90fa 	slli	r7,r2,3
 10097e4:	b80b883a 	mov	r5,r23
 10097e8:	398f883a 	add	r7,r7,r6
 10097ec:	38bffe17 	ldw	r2,-8(r7)
 10097f0:	d9800517 	ldw	r6,20(sp)
 10097f4:	38ffff17 	ldw	r3,-4(r7)
 10097f8:	37000044 	addi	fp,r6,1
 10097fc:	180f883a 	mov	r7,r3
 1009800:	100d883a 	mov	r6,r2
 1009804:	100f2840 	call	100f284 <__muldf3>
 1009808:	a80b883a 	mov	r5,r21
 100980c:	a009883a 	mov	r4,r20
 1009810:	182f883a 	mov	r23,r3
 1009814:	102d883a 	mov	r22,r2
 1009818:	100fc400 	call	100fc40 <__fixdfsi>
 100981c:	1009883a 	mov	r4,r2
 1009820:	1027883a 	mov	r19,r2
 1009824:	100fb480 	call	100fb48 <__floatsidf>
 1009828:	a80b883a 	mov	r5,r21
 100982c:	a009883a 	mov	r4,r20
 1009830:	180f883a 	mov	r7,r3
 1009834:	100d883a 	mov	r6,r2
 1009838:	100f1900 	call	100f190 <__subdf3>
 100983c:	180b883a 	mov	r5,r3
 1009840:	d8c00517 	ldw	r3,20(sp)
 1009844:	9cc00c04 	addi	r19,r19,48
 1009848:	1009883a 	mov	r4,r2
 100984c:	1cc00005 	stb	r19,0(r3)
 1009850:	2021883a 	mov	r16,r4
 1009854:	d9000317 	ldw	r4,12(sp)
 1009858:	00800044 	movi	r2,1
 100985c:	2823883a 	mov	r17,r5
 1009860:	20802226 	beq	r4,r2,10098ec <_dtoa_r+0x13fc>
 1009864:	1029883a 	mov	r20,r2
 1009868:	0005883a 	mov	r2,zero
 100986c:	00d00934 	movhi	r3,16420
 1009870:	180f883a 	mov	r7,r3
 1009874:	100d883a 	mov	r6,r2
 1009878:	880b883a 	mov	r5,r17
 100987c:	8009883a 	mov	r4,r16
 1009880:	100f2840 	call	100f284 <__muldf3>
 1009884:	180b883a 	mov	r5,r3
 1009888:	1009883a 	mov	r4,r2
 100988c:	1823883a 	mov	r17,r3
 1009890:	1021883a 	mov	r16,r2
 1009894:	100fc400 	call	100fc40 <__fixdfsi>
 1009898:	1009883a 	mov	r4,r2
 100989c:	102b883a 	mov	r21,r2
 10098a0:	100fb480 	call	100fb48 <__floatsidf>
 10098a4:	880b883a 	mov	r5,r17
 10098a8:	8009883a 	mov	r4,r16
 10098ac:	180f883a 	mov	r7,r3
 10098b0:	100d883a 	mov	r6,r2
 10098b4:	100f1900 	call	100f190 <__subdf3>
 10098b8:	180b883a 	mov	r5,r3
 10098bc:	d8c00517 	ldw	r3,20(sp)
 10098c0:	1009883a 	mov	r4,r2
 10098c4:	ad400c04 	addi	r21,r21,48
 10098c8:	1d05883a 	add	r2,r3,r20
 10098cc:	15400005 	stb	r21,0(r2)
 10098d0:	2021883a 	mov	r16,r4
 10098d4:	d9000317 	ldw	r4,12(sp)
 10098d8:	a5000044 	addi	r20,r20,1
 10098dc:	2823883a 	mov	r17,r5
 10098e0:	a13fe11e 	bne	r20,r4,1009868 <_dtoa_r+0x1378>
 10098e4:	e505883a 	add	r2,fp,r20
 10098e8:	173fffc4 	addi	fp,r2,-1
 10098ec:	0025883a 	mov	r18,zero
 10098f0:	04cff834 	movhi	r19,16352
 10098f4:	b009883a 	mov	r4,r22
 10098f8:	b80b883a 	mov	r5,r23
 10098fc:	900d883a 	mov	r6,r18
 1009900:	980f883a 	mov	r7,r19
 1009904:	100f2100 	call	100f210 <__adddf3>
 1009908:	180b883a 	mov	r5,r3
 100990c:	1009883a 	mov	r4,r2
 1009910:	800d883a 	mov	r6,r16
 1009914:	880f883a 	mov	r7,r17
 1009918:	100fac00 	call	100fac0 <__ltdf2>
 100991c:	103cab16 	blt	r2,zero,1008bcc <_dtoa_r+0x6dc>
 1009920:	0009883a 	mov	r4,zero
 1009924:	980b883a 	mov	r5,r19
 1009928:	b80f883a 	mov	r7,r23
 100992c:	b00d883a 	mov	r6,r22
 1009930:	100f1900 	call	100f190 <__subdf3>
 1009934:	180b883a 	mov	r5,r3
 1009938:	880f883a 	mov	r7,r17
 100993c:	1009883a 	mov	r4,r2
 1009940:	800d883a 	mov	r6,r16
 1009944:	100f9b00 	call	100f9b0 <__gtdf2>
 1009948:	00bc470e 	bge	zero,r2,1008a68 <_dtoa_r+0x578>
 100994c:	00c00c04 	movi	r3,48
 1009950:	e73fffc4 	addi	fp,fp,-1
 1009954:	e0800007 	ldb	r2,0(fp)
 1009958:	10fffd26 	beq	r2,r3,1009950 <_dtoa_r+0x1460>
 100995c:	d9800417 	ldw	r6,16(sp)
 1009960:	e7000044 	addi	fp,fp,1
 1009964:	d9800d15 	stw	r6,52(sp)
 1009968:	003cab06 	br	1008c18 <_dtoa_r+0x728>
 100996c:	d8c00f17 	ldw	r3,60(sp)
 1009970:	d9001117 	ldw	r4,68(sp)
 1009974:	20e1c83a 	sub	r16,r4,r3
 1009978:	0007883a 	mov	r3,zero
 100997c:	003d9b06 	br	1008fec <_dtoa_r+0xafc>
 1009980:	00800e44 	movi	r2,57
 1009984:	b0800005 	stb	r2,0(r22)
 1009988:	b5800044 	addi	r22,r22,1
 100998c:	003dc106 	br	1009094 <_dtoa_r+0xba4>
 1009990:	05800084 	movi	r22,2
 1009994:	003bf706 	br	1008974 <_dtoa_r+0x484>
 1009998:	d9000f17 	ldw	r4,60(sp)
 100999c:	013c000e 	bge	zero,r4,10089a0 <_dtoa_r+0x4b0>
 10099a0:	d9800e17 	ldw	r6,56(sp)
 10099a4:	01bc300e 	bge	zero,r6,1008a68 <_dtoa_r+0x578>
 10099a8:	0005883a 	mov	r2,zero
 10099ac:	00d00934 	movhi	r3,16420
 10099b0:	a80b883a 	mov	r5,r21
 10099b4:	180f883a 	mov	r7,r3
 10099b8:	a009883a 	mov	r4,r20
 10099bc:	100d883a 	mov	r6,r2
 10099c0:	100f2840 	call	100f284 <__muldf3>
 10099c4:	b1000044 	addi	r4,r22,1
 10099c8:	1021883a 	mov	r16,r2
 10099cc:	1823883a 	mov	r17,r3
 10099d0:	100fb480 	call	100fb48 <__floatsidf>
 10099d4:	880b883a 	mov	r5,r17
 10099d8:	8009883a 	mov	r4,r16
 10099dc:	180f883a 	mov	r7,r3
 10099e0:	100d883a 	mov	r6,r2
 10099e4:	100f2840 	call	100f284 <__muldf3>
 10099e8:	0011883a 	mov	r8,zero
 10099ec:	02500734 	movhi	r9,16412
 10099f0:	180b883a 	mov	r5,r3
 10099f4:	480f883a 	mov	r7,r9
 10099f8:	1009883a 	mov	r4,r2
 10099fc:	400d883a 	mov	r6,r8
 1009a00:	100f2100 	call	100f210 <__adddf3>
 1009a04:	102d883a 	mov	r22,r2
 1009a08:	00bf3034 	movhi	r2,64704
 1009a0c:	10ef883a 	add	r23,r2,r3
 1009a10:	d8800d17 	ldw	r2,52(sp)
 1009a14:	d8c00e17 	ldw	r3,56(sp)
 1009a18:	8029883a 	mov	r20,r16
 1009a1c:	10bfffc4 	addi	r2,r2,-1
 1009a20:	882b883a 	mov	r21,r17
 1009a24:	d8800415 	stw	r2,16(sp)
 1009a28:	d8c00315 	stw	r3,12(sp)
 1009a2c:	003e8306 	br	100943c <_dtoa_r+0xf4c>
 1009a30:	d8800117 	ldw	r2,4(sp)
 1009a34:	dc001117 	ldw	r16,68(sp)
 1009a38:	dc801017 	ldw	r18,64(sp)
 1009a3c:	00c00d84 	movi	r3,54
 1009a40:	1887c83a 	sub	r3,r3,r2
 1009a44:	003d6906 	br	1008fec <_dtoa_r+0xafc>
 1009a48:	01800044 	movi	r6,1
 1009a4c:	3021883a 	mov	r16,r6
 1009a50:	d9800f15 	stw	r6,60(sp)
 1009a54:	d9802615 	stw	r6,152(sp)
 1009a58:	d9800e15 	stw	r6,56(sp)
 1009a5c:	003b9306 	br	10088ac <_dtoa_r+0x3bc>
 1009a60:	b021883a 	mov	r16,r22
 1009a64:	dd800f15 	stw	r22,60(sp)
 1009a68:	003b9006 	br	10088ac <_dtoa_r+0x3bc>
 1009a6c:	103e221e 	bne	r2,zero,10092f8 <_dtoa_r+0xe08>
 1009a70:	b880004c 	andi	r2,r23,1
 1009a74:	1005003a 	cmpeq	r2,r2,zero
 1009a78:	103e1f1e 	bne	r2,zero,10092f8 <_dtoa_r+0xe08>
 1009a7c:	003e1b06 	br	10092ec <_dtoa_r+0xdfc>
 1009a80:	d9001617 	ldw	r4,88(sp)
 1009a84:	980b883a 	mov	r5,r19
 1009a88:	01800284 	movi	r6,10
 1009a8c:	000f883a 	mov	r7,zero
 1009a90:	100bac00 	call	100bac0 <__multadd>
 1009a94:	d8c00e17 	ldw	r3,56(sp)
 1009a98:	1027883a 	mov	r19,r2
 1009a9c:	d8c00f15 	stw	r3,60(sp)
 1009aa0:	003cd306 	br	1008df0 <_dtoa_r+0x900>

01009aa4 <_fflush_r>:
 1009aa4:	defffb04 	addi	sp,sp,-20
 1009aa8:	dcc00315 	stw	r19,12(sp)
 1009aac:	dc800215 	stw	r18,8(sp)
 1009ab0:	dfc00415 	stw	ra,16(sp)
 1009ab4:	dc400115 	stw	r17,4(sp)
 1009ab8:	dc000015 	stw	r16,0(sp)
 1009abc:	2027883a 	mov	r19,r4
 1009ac0:	2825883a 	mov	r18,r5
 1009ac4:	20000226 	beq	r4,zero,1009ad0 <_fflush_r+0x2c>
 1009ac8:	20800e17 	ldw	r2,56(r4)
 1009acc:	10005626 	beq	r2,zero,1009c28 <_fflush_r+0x184>
 1009ad0:	9100030b 	ldhu	r4,12(r18)
 1009ad4:	20ffffcc 	andi	r3,r4,65535
 1009ad8:	18e0001c 	xori	r3,r3,32768
 1009adc:	18e00004 	addi	r3,r3,-32768
 1009ae0:	1880020c 	andi	r2,r3,8
 1009ae4:	1000261e 	bne	r2,zero,1009b80 <_fflush_r+0xdc>
 1009ae8:	90c00117 	ldw	r3,4(r18)
 1009aec:	20820014 	ori	r2,r4,2048
 1009af0:	9080030d 	sth	r2,12(r18)
 1009af4:	1009883a 	mov	r4,r2
 1009af8:	00c0400e 	bge	zero,r3,1009bfc <_fflush_r+0x158>
 1009afc:	92000a17 	ldw	r8,40(r18)
 1009b00:	40004026 	beq	r8,zero,1009c04 <_fflush_r+0x160>
 1009b04:	2084000c 	andi	r2,r4,4096
 1009b08:	10005326 	beq	r2,zero,1009c58 <_fflush_r+0x1b4>
 1009b0c:	94001417 	ldw	r16,80(r18)
 1009b10:	9080030b 	ldhu	r2,12(r18)
 1009b14:	1080010c 	andi	r2,r2,4
 1009b18:	1000481e 	bne	r2,zero,1009c3c <_fflush_r+0x198>
 1009b1c:	91400717 	ldw	r5,28(r18)
 1009b20:	9809883a 	mov	r4,r19
 1009b24:	800d883a 	mov	r6,r16
 1009b28:	000f883a 	mov	r7,zero
 1009b2c:	403ee83a 	callr	r8
 1009b30:	8080261e 	bne	r16,r2,1009bcc <_fflush_r+0x128>
 1009b34:	9080030b 	ldhu	r2,12(r18)
 1009b38:	91000417 	ldw	r4,16(r18)
 1009b3c:	90000115 	stw	zero,4(r18)
 1009b40:	10bdffcc 	andi	r2,r2,63487
 1009b44:	10ffffcc 	andi	r3,r2,65535
 1009b48:	18c4000c 	andi	r3,r3,4096
 1009b4c:	9080030d 	sth	r2,12(r18)
 1009b50:	91000015 	stw	r4,0(r18)
 1009b54:	18002b26 	beq	r3,zero,1009c04 <_fflush_r+0x160>
 1009b58:	0007883a 	mov	r3,zero
 1009b5c:	1805883a 	mov	r2,r3
 1009b60:	94001415 	stw	r16,80(r18)
 1009b64:	dfc00417 	ldw	ra,16(sp)
 1009b68:	dcc00317 	ldw	r19,12(sp)
 1009b6c:	dc800217 	ldw	r18,8(sp)
 1009b70:	dc400117 	ldw	r17,4(sp)
 1009b74:	dc000017 	ldw	r16,0(sp)
 1009b78:	dec00504 	addi	sp,sp,20
 1009b7c:	f800283a 	ret
 1009b80:	94400417 	ldw	r17,16(r18)
 1009b84:	88001f26 	beq	r17,zero,1009c04 <_fflush_r+0x160>
 1009b88:	90800017 	ldw	r2,0(r18)
 1009b8c:	18c000cc 	andi	r3,r3,3
 1009b90:	94400015 	stw	r17,0(r18)
 1009b94:	1461c83a 	sub	r16,r2,r17
 1009b98:	18002526 	beq	r3,zero,1009c30 <_fflush_r+0x18c>
 1009b9c:	0005883a 	mov	r2,zero
 1009ba0:	90800215 	stw	r2,8(r18)
 1009ba4:	0400170e 	bge	zero,r16,1009c04 <_fflush_r+0x160>
 1009ba8:	90c00917 	ldw	r3,36(r18)
 1009bac:	91400717 	ldw	r5,28(r18)
 1009bb0:	880d883a 	mov	r6,r17
 1009bb4:	800f883a 	mov	r7,r16
 1009bb8:	9809883a 	mov	r4,r19
 1009bbc:	183ee83a 	callr	r3
 1009bc0:	88a3883a 	add	r17,r17,r2
 1009bc4:	80a1c83a 	sub	r16,r16,r2
 1009bc8:	00bff616 	blt	zero,r2,1009ba4 <_fflush_r+0x100>
 1009bcc:	9080030b 	ldhu	r2,12(r18)
 1009bd0:	00ffffc4 	movi	r3,-1
 1009bd4:	10801014 	ori	r2,r2,64
 1009bd8:	9080030d 	sth	r2,12(r18)
 1009bdc:	1805883a 	mov	r2,r3
 1009be0:	dfc00417 	ldw	ra,16(sp)
 1009be4:	dcc00317 	ldw	r19,12(sp)
 1009be8:	dc800217 	ldw	r18,8(sp)
 1009bec:	dc400117 	ldw	r17,4(sp)
 1009bf0:	dc000017 	ldw	r16,0(sp)
 1009bf4:	dec00504 	addi	sp,sp,20
 1009bf8:	f800283a 	ret
 1009bfc:	90800f17 	ldw	r2,60(r18)
 1009c00:	00bfbe16 	blt	zero,r2,1009afc <_fflush_r+0x58>
 1009c04:	0007883a 	mov	r3,zero
 1009c08:	1805883a 	mov	r2,r3
 1009c0c:	dfc00417 	ldw	ra,16(sp)
 1009c10:	dcc00317 	ldw	r19,12(sp)
 1009c14:	dc800217 	ldw	r18,8(sp)
 1009c18:	dc400117 	ldw	r17,4(sp)
 1009c1c:	dc000017 	ldw	r16,0(sp)
 1009c20:	dec00504 	addi	sp,sp,20
 1009c24:	f800283a 	ret
 1009c28:	1009d3c0 	call	1009d3c <__sinit>
 1009c2c:	003fa806 	br	1009ad0 <_fflush_r+0x2c>
 1009c30:	90800517 	ldw	r2,20(r18)
 1009c34:	90800215 	stw	r2,8(r18)
 1009c38:	003fda06 	br	1009ba4 <_fflush_r+0x100>
 1009c3c:	90800117 	ldw	r2,4(r18)
 1009c40:	90c00c17 	ldw	r3,48(r18)
 1009c44:	80a1c83a 	sub	r16,r16,r2
 1009c48:	183fb426 	beq	r3,zero,1009b1c <_fflush_r+0x78>
 1009c4c:	90800f17 	ldw	r2,60(r18)
 1009c50:	80a1c83a 	sub	r16,r16,r2
 1009c54:	003fb106 	br	1009b1c <_fflush_r+0x78>
 1009c58:	91400717 	ldw	r5,28(r18)
 1009c5c:	9809883a 	mov	r4,r19
 1009c60:	000d883a 	mov	r6,zero
 1009c64:	01c00044 	movi	r7,1
 1009c68:	403ee83a 	callr	r8
 1009c6c:	1021883a 	mov	r16,r2
 1009c70:	00bfffc4 	movi	r2,-1
 1009c74:	80800226 	beq	r16,r2,1009c80 <_fflush_r+0x1dc>
 1009c78:	92000a17 	ldw	r8,40(r18)
 1009c7c:	003fa406 	br	1009b10 <_fflush_r+0x6c>
 1009c80:	98c00017 	ldw	r3,0(r19)
 1009c84:	00800744 	movi	r2,29
 1009c88:	18bfde26 	beq	r3,r2,1009c04 <_fflush_r+0x160>
 1009c8c:	9080030b 	ldhu	r2,12(r18)
 1009c90:	8007883a 	mov	r3,r16
 1009c94:	10801014 	ori	r2,r2,64
 1009c98:	9080030d 	sth	r2,12(r18)
 1009c9c:	003fcf06 	br	1009bdc <_fflush_r+0x138>

01009ca0 <fflush>:
 1009ca0:	01404074 	movhi	r5,257
 1009ca4:	2966a904 	addi	r5,r5,-25948
 1009ca8:	2007883a 	mov	r3,r4
 1009cac:	20000526 	beq	r4,zero,1009cc4 <fflush+0x24>
 1009cb0:	00804074 	movhi	r2,257
 1009cb4:	10974504 	addi	r2,r2,23828
 1009cb8:	11000017 	ldw	r4,0(r2)
 1009cbc:	180b883a 	mov	r5,r3
 1009cc0:	1009aa41 	jmpi	1009aa4 <_fflush_r>
 1009cc4:	00804074 	movhi	r2,257
 1009cc8:	10974604 	addi	r2,r2,23832
 1009ccc:	11000017 	ldw	r4,0(r2)
 1009cd0:	100a8701 	jmpi	100a870 <_fwalk_reent>

01009cd4 <std>:
 1009cd4:	00804074 	movhi	r2,257
 1009cd8:	10b26804 	addi	r2,r2,-13920
 1009cdc:	20800b15 	stw	r2,44(r4)
 1009ce0:	00804074 	movhi	r2,257
 1009ce4:	10b2a304 	addi	r2,r2,-13684
 1009ce8:	20800815 	stw	r2,32(r4)
 1009cec:	00c04074 	movhi	r3,257
 1009cf0:	18f28404 	addi	r3,r3,-13808
 1009cf4:	00804074 	movhi	r2,257
 1009cf8:	10b26a04 	addi	r2,r2,-13912
 1009cfc:	2140030d 	sth	r5,12(r4)
 1009d00:	2180038d 	sth	r6,14(r4)
 1009d04:	20c00915 	stw	r3,36(r4)
 1009d08:	20800a15 	stw	r2,40(r4)
 1009d0c:	20000015 	stw	zero,0(r4)
 1009d10:	20000115 	stw	zero,4(r4)
 1009d14:	20000215 	stw	zero,8(r4)
 1009d18:	20000415 	stw	zero,16(r4)
 1009d1c:	20000515 	stw	zero,20(r4)
 1009d20:	20000615 	stw	zero,24(r4)
 1009d24:	21000715 	stw	r4,28(r4)
 1009d28:	f800283a 	ret

01009d2c <__sfp_lock_acquire>:
 1009d2c:	f800283a 	ret

01009d30 <__sfp_lock_release>:
 1009d30:	f800283a 	ret

01009d34 <__sinit_lock_acquire>:
 1009d34:	f800283a 	ret

01009d38 <__sinit_lock_release>:
 1009d38:	f800283a 	ret

01009d3c <__sinit>:
 1009d3c:	20800e17 	ldw	r2,56(r4)
 1009d40:	defffd04 	addi	sp,sp,-12
 1009d44:	dc400115 	stw	r17,4(sp)
 1009d48:	dc000015 	stw	r16,0(sp)
 1009d4c:	dfc00215 	stw	ra,8(sp)
 1009d50:	04400044 	movi	r17,1
 1009d54:	01400104 	movi	r5,4
 1009d58:	000d883a 	mov	r6,zero
 1009d5c:	2021883a 	mov	r16,r4
 1009d60:	2200bb04 	addi	r8,r4,748
 1009d64:	200f883a 	mov	r7,r4
 1009d68:	10000526 	beq	r2,zero,1009d80 <__sinit+0x44>
 1009d6c:	dfc00217 	ldw	ra,8(sp)
 1009d70:	dc400117 	ldw	r17,4(sp)
 1009d74:	dc000017 	ldw	r16,0(sp)
 1009d78:	dec00304 	addi	sp,sp,12
 1009d7c:	f800283a 	ret
 1009d80:	21000117 	ldw	r4,4(r4)
 1009d84:	00804074 	movhi	r2,257
 1009d88:	10a78804 	addi	r2,r2,-25056
 1009d8c:	00c000c4 	movi	r3,3
 1009d90:	80800f15 	stw	r2,60(r16)
 1009d94:	80c0b915 	stw	r3,740(r16)
 1009d98:	8200ba15 	stw	r8,744(r16)
 1009d9c:	84400e15 	stw	r17,56(r16)
 1009da0:	8000b815 	stw	zero,736(r16)
 1009da4:	1009cd40 	call	1009cd4 <std>
 1009da8:	81000217 	ldw	r4,8(r16)
 1009dac:	880d883a 	mov	r6,r17
 1009db0:	800f883a 	mov	r7,r16
 1009db4:	01400284 	movi	r5,10
 1009db8:	1009cd40 	call	1009cd4 <std>
 1009dbc:	81000317 	ldw	r4,12(r16)
 1009dc0:	800f883a 	mov	r7,r16
 1009dc4:	01400484 	movi	r5,18
 1009dc8:	01800084 	movi	r6,2
 1009dcc:	dfc00217 	ldw	ra,8(sp)
 1009dd0:	dc400117 	ldw	r17,4(sp)
 1009dd4:	dc000017 	ldw	r16,0(sp)
 1009dd8:	dec00304 	addi	sp,sp,12
 1009ddc:	1009cd41 	jmpi	1009cd4 <std>

01009de0 <__fp_lock>:
 1009de0:	0005883a 	mov	r2,zero
 1009de4:	f800283a 	ret

01009de8 <__fp_unlock>:
 1009de8:	0005883a 	mov	r2,zero
 1009dec:	f800283a 	ret

01009df0 <__fp_unlock_all>:
 1009df0:	00804074 	movhi	r2,257
 1009df4:	10974504 	addi	r2,r2,23828
 1009df8:	11000017 	ldw	r4,0(r2)
 1009dfc:	01404074 	movhi	r5,257
 1009e00:	29677a04 	addi	r5,r5,-25112
 1009e04:	100a9381 	jmpi	100a938 <_fwalk>

01009e08 <__fp_lock_all>:
 1009e08:	00804074 	movhi	r2,257
 1009e0c:	10974504 	addi	r2,r2,23828
 1009e10:	11000017 	ldw	r4,0(r2)
 1009e14:	01404074 	movhi	r5,257
 1009e18:	29677804 	addi	r5,r5,-25120
 1009e1c:	100a9381 	jmpi	100a938 <_fwalk>

01009e20 <_cleanup_r>:
 1009e20:	01404074 	movhi	r5,257
 1009e24:	29780304 	addi	r5,r5,-8180
 1009e28:	100a9381 	jmpi	100a938 <_fwalk>

01009e2c <_cleanup>:
 1009e2c:	00804074 	movhi	r2,257
 1009e30:	10974604 	addi	r2,r2,23832
 1009e34:	11000017 	ldw	r4,0(r2)
 1009e38:	1009e201 	jmpi	1009e20 <_cleanup_r>

01009e3c <__sfmoreglue>:
 1009e3c:	defffc04 	addi	sp,sp,-16
 1009e40:	dc400115 	stw	r17,4(sp)
 1009e44:	2c401724 	muli	r17,r5,92
 1009e48:	dc800215 	stw	r18,8(sp)
 1009e4c:	2825883a 	mov	r18,r5
 1009e50:	89400304 	addi	r5,r17,12
 1009e54:	dc000015 	stw	r16,0(sp)
 1009e58:	dfc00315 	stw	ra,12(sp)
 1009e5c:	10055e00 	call	10055e0 <_malloc_r>
 1009e60:	0021883a 	mov	r16,zero
 1009e64:	880d883a 	mov	r6,r17
 1009e68:	000b883a 	mov	r5,zero
 1009e6c:	10000626 	beq	r2,zero,1009e88 <__sfmoreglue+0x4c>
 1009e70:	11000304 	addi	r4,r2,12
 1009e74:	14800115 	stw	r18,4(r2)
 1009e78:	10000015 	stw	zero,0(r2)
 1009e7c:	11000215 	stw	r4,8(r2)
 1009e80:	1021883a 	mov	r16,r2
 1009e84:	1005dc00 	call	1005dc0 <memset>
 1009e88:	8005883a 	mov	r2,r16
 1009e8c:	dfc00317 	ldw	ra,12(sp)
 1009e90:	dc800217 	ldw	r18,8(sp)
 1009e94:	dc400117 	ldw	r17,4(sp)
 1009e98:	dc000017 	ldw	r16,0(sp)
 1009e9c:	dec00404 	addi	sp,sp,16
 1009ea0:	f800283a 	ret

01009ea4 <__sfp>:
 1009ea4:	defffd04 	addi	sp,sp,-12
 1009ea8:	00804074 	movhi	r2,257
 1009eac:	10974604 	addi	r2,r2,23832
 1009eb0:	dc000015 	stw	r16,0(sp)
 1009eb4:	14000017 	ldw	r16,0(r2)
 1009eb8:	dc400115 	stw	r17,4(sp)
 1009ebc:	dfc00215 	stw	ra,8(sp)
 1009ec0:	80800e17 	ldw	r2,56(r16)
 1009ec4:	2023883a 	mov	r17,r4
 1009ec8:	10002626 	beq	r2,zero,1009f64 <__sfp+0xc0>
 1009ecc:	8400b804 	addi	r16,r16,736
 1009ed0:	80800117 	ldw	r2,4(r16)
 1009ed4:	81000217 	ldw	r4,8(r16)
 1009ed8:	10ffffc4 	addi	r3,r2,-1
 1009edc:	18000916 	blt	r3,zero,1009f04 <__sfp+0x60>
 1009ee0:	2080030f 	ldh	r2,12(r4)
 1009ee4:	10000b26 	beq	r2,zero,1009f14 <__sfp+0x70>
 1009ee8:	017fffc4 	movi	r5,-1
 1009eec:	00000206 	br	1009ef8 <__sfp+0x54>
 1009ef0:	2080030f 	ldh	r2,12(r4)
 1009ef4:	10000726 	beq	r2,zero,1009f14 <__sfp+0x70>
 1009ef8:	18ffffc4 	addi	r3,r3,-1
 1009efc:	21001704 	addi	r4,r4,92
 1009f00:	197ffb1e 	bne	r3,r5,1009ef0 <__sfp+0x4c>
 1009f04:	80800017 	ldw	r2,0(r16)
 1009f08:	10001926 	beq	r2,zero,1009f70 <__sfp+0xcc>
 1009f0c:	1021883a 	mov	r16,r2
 1009f10:	003fef06 	br	1009ed0 <__sfp+0x2c>
 1009f14:	00bfffc4 	movi	r2,-1
 1009f18:	00c00044 	movi	r3,1
 1009f1c:	2080038d 	sth	r2,14(r4)
 1009f20:	20c0030d 	sth	r3,12(r4)
 1009f24:	20000015 	stw	zero,0(r4)
 1009f28:	20000215 	stw	zero,8(r4)
 1009f2c:	20000115 	stw	zero,4(r4)
 1009f30:	20000415 	stw	zero,16(r4)
 1009f34:	20000515 	stw	zero,20(r4)
 1009f38:	20000615 	stw	zero,24(r4)
 1009f3c:	20000c15 	stw	zero,48(r4)
 1009f40:	20000d15 	stw	zero,52(r4)
 1009f44:	20001115 	stw	zero,68(r4)
 1009f48:	20001215 	stw	zero,72(r4)
 1009f4c:	2005883a 	mov	r2,r4
 1009f50:	dfc00217 	ldw	ra,8(sp)
 1009f54:	dc400117 	ldw	r17,4(sp)
 1009f58:	dc000017 	ldw	r16,0(sp)
 1009f5c:	dec00304 	addi	sp,sp,12
 1009f60:	f800283a 	ret
 1009f64:	8009883a 	mov	r4,r16
 1009f68:	1009d3c0 	call	1009d3c <__sinit>
 1009f6c:	003fd706 	br	1009ecc <__sfp+0x28>
 1009f70:	8809883a 	mov	r4,r17
 1009f74:	01400104 	movi	r5,4
 1009f78:	1009e3c0 	call	1009e3c <__sfmoreglue>
 1009f7c:	80800015 	stw	r2,0(r16)
 1009f80:	103fe21e 	bne	r2,zero,1009f0c <__sfp+0x68>
 1009f84:	00800304 	movi	r2,12
 1009f88:	0009883a 	mov	r4,zero
 1009f8c:	88800015 	stw	r2,0(r17)
 1009f90:	003fee06 	br	1009f4c <__sfp+0xa8>

01009f94 <_malloc_trim_r>:
 1009f94:	defffb04 	addi	sp,sp,-20
 1009f98:	dcc00315 	stw	r19,12(sp)
 1009f9c:	04c04074 	movhi	r19,257
 1009fa0:	9cd17604 	addi	r19,r19,17880
 1009fa4:	dc800215 	stw	r18,8(sp)
 1009fa8:	dc400115 	stw	r17,4(sp)
 1009fac:	dc000015 	stw	r16,0(sp)
 1009fb0:	2823883a 	mov	r17,r5
 1009fb4:	2025883a 	mov	r18,r4
 1009fb8:	dfc00415 	stw	ra,16(sp)
 1009fbc:	10110880 	call	1011088 <__malloc_lock>
 1009fc0:	98800217 	ldw	r2,8(r19)
 1009fc4:	9009883a 	mov	r4,r18
 1009fc8:	000b883a 	mov	r5,zero
 1009fcc:	10c00117 	ldw	r3,4(r2)
 1009fd0:	00bfff04 	movi	r2,-4
 1009fd4:	18a0703a 	and	r16,r3,r2
 1009fd8:	8463c83a 	sub	r17,r16,r17
 1009fdc:	8c43fbc4 	addi	r17,r17,4079
 1009fe0:	8822d33a 	srli	r17,r17,12
 1009fe4:	0083ffc4 	movi	r2,4095
 1009fe8:	8c7fffc4 	addi	r17,r17,-1
 1009fec:	8822933a 	slli	r17,r17,12
 1009ff0:	1440060e 	bge	r2,r17,100a00c <_malloc_trim_r+0x78>
 1009ff4:	1005fa80 	call	1005fa8 <_sbrk_r>
 1009ff8:	98c00217 	ldw	r3,8(r19)
 1009ffc:	9009883a 	mov	r4,r18
 100a000:	044bc83a 	sub	r5,zero,r17
 100a004:	80c7883a 	add	r3,r16,r3
 100a008:	10c00926 	beq	r2,r3,100a030 <_malloc_trim_r+0x9c>
 100a00c:	10110a80 	call	10110a8 <__malloc_unlock>
 100a010:	0005883a 	mov	r2,zero
 100a014:	dfc00417 	ldw	ra,16(sp)
 100a018:	dcc00317 	ldw	r19,12(sp)
 100a01c:	dc800217 	ldw	r18,8(sp)
 100a020:	dc400117 	ldw	r17,4(sp)
 100a024:	dc000017 	ldw	r16,0(sp)
 100a028:	dec00504 	addi	sp,sp,20
 100a02c:	f800283a 	ret
 100a030:	9009883a 	mov	r4,r18
 100a034:	1005fa80 	call	1005fa8 <_sbrk_r>
 100a038:	844dc83a 	sub	r6,r16,r17
 100a03c:	00ffffc4 	movi	r3,-1
 100a040:	9009883a 	mov	r4,r18
 100a044:	000b883a 	mov	r5,zero
 100a048:	01c04074 	movhi	r7,257
 100a04c:	39df0204 	addi	r7,r7,31752
 100a050:	31800054 	ori	r6,r6,1
 100a054:	10c00926 	beq	r2,r3,100a07c <_malloc_trim_r+0xe8>
 100a058:	38800017 	ldw	r2,0(r7)
 100a05c:	98c00217 	ldw	r3,8(r19)
 100a060:	9009883a 	mov	r4,r18
 100a064:	1445c83a 	sub	r2,r2,r17
 100a068:	38800015 	stw	r2,0(r7)
 100a06c:	19800115 	stw	r6,4(r3)
 100a070:	10110a80 	call	10110a8 <__malloc_unlock>
 100a074:	00800044 	movi	r2,1
 100a078:	003fe606 	br	100a014 <_malloc_trim_r+0x80>
 100a07c:	1005fa80 	call	1005fa8 <_sbrk_r>
 100a080:	99800217 	ldw	r6,8(r19)
 100a084:	100f883a 	mov	r7,r2
 100a088:	9009883a 	mov	r4,r18
 100a08c:	1187c83a 	sub	r3,r2,r6
 100a090:	008003c4 	movi	r2,15
 100a094:	19400054 	ori	r5,r3,1
 100a098:	10ffdc0e 	bge	r2,r3,100a00c <_malloc_trim_r+0x78>
 100a09c:	00804074 	movhi	r2,257
 100a0a0:	10974804 	addi	r2,r2,23840
 100a0a4:	10c00017 	ldw	r3,0(r2)
 100a0a8:	00804074 	movhi	r2,257
 100a0ac:	109f0204 	addi	r2,r2,31752
 100a0b0:	31400115 	stw	r5,4(r6)
 100a0b4:	38c7c83a 	sub	r3,r7,r3
 100a0b8:	10c00015 	stw	r3,0(r2)
 100a0bc:	003fd306 	br	100a00c <_malloc_trim_r+0x78>

0100a0c0 <_free_r>:
 100a0c0:	defffd04 	addi	sp,sp,-12
 100a0c4:	dc400115 	stw	r17,4(sp)
 100a0c8:	dc000015 	stw	r16,0(sp)
 100a0cc:	dfc00215 	stw	ra,8(sp)
 100a0d0:	2821883a 	mov	r16,r5
 100a0d4:	2023883a 	mov	r17,r4
 100a0d8:	28005a26 	beq	r5,zero,100a244 <_free_r+0x184>
 100a0dc:	10110880 	call	1011088 <__malloc_lock>
 100a0e0:	823ffe04 	addi	r8,r16,-8
 100a0e4:	41400117 	ldw	r5,4(r8)
 100a0e8:	00bfff84 	movi	r2,-2
 100a0ec:	02804074 	movhi	r10,257
 100a0f0:	52917604 	addi	r10,r10,17880
 100a0f4:	288e703a 	and	r7,r5,r2
 100a0f8:	41cd883a 	add	r6,r8,r7
 100a0fc:	30c00117 	ldw	r3,4(r6)
 100a100:	51000217 	ldw	r4,8(r10)
 100a104:	00bfff04 	movi	r2,-4
 100a108:	1892703a 	and	r9,r3,r2
 100a10c:	5017883a 	mov	r11,r10
 100a110:	31006726 	beq	r6,r4,100a2b0 <_free_r+0x1f0>
 100a114:	2880004c 	andi	r2,r5,1
 100a118:	1005003a 	cmpeq	r2,r2,zero
 100a11c:	32400115 	stw	r9,4(r6)
 100a120:	10001a1e 	bne	r2,zero,100a18c <_free_r+0xcc>
 100a124:	000b883a 	mov	r5,zero
 100a128:	3247883a 	add	r3,r6,r9
 100a12c:	18800117 	ldw	r2,4(r3)
 100a130:	1080004c 	andi	r2,r2,1
 100a134:	1000231e 	bne	r2,zero,100a1c4 <_free_r+0x104>
 100a138:	280ac03a 	cmpne	r5,r5,zero
 100a13c:	3a4f883a 	add	r7,r7,r9
 100a140:	2800451e 	bne	r5,zero,100a258 <_free_r+0x198>
 100a144:	31000217 	ldw	r4,8(r6)
 100a148:	00804074 	movhi	r2,257
 100a14c:	10917804 	addi	r2,r2,17888
 100a150:	20807b26 	beq	r4,r2,100a340 <_free_r+0x280>
 100a154:	30800317 	ldw	r2,12(r6)
 100a158:	3a07883a 	add	r3,r7,r8
 100a15c:	19c00015 	stw	r7,0(r3)
 100a160:	11000215 	stw	r4,8(r2)
 100a164:	20800315 	stw	r2,12(r4)
 100a168:	38800054 	ori	r2,r7,1
 100a16c:	40800115 	stw	r2,4(r8)
 100a170:	28001a26 	beq	r5,zero,100a1dc <_free_r+0x11c>
 100a174:	8809883a 	mov	r4,r17
 100a178:	dfc00217 	ldw	ra,8(sp)
 100a17c:	dc400117 	ldw	r17,4(sp)
 100a180:	dc000017 	ldw	r16,0(sp)
 100a184:	dec00304 	addi	sp,sp,12
 100a188:	10110a81 	jmpi	10110a8 <__malloc_unlock>
 100a18c:	80bffe17 	ldw	r2,-8(r16)
 100a190:	50c00204 	addi	r3,r10,8
 100a194:	4091c83a 	sub	r8,r8,r2
 100a198:	41000217 	ldw	r4,8(r8)
 100a19c:	388f883a 	add	r7,r7,r2
 100a1a0:	20c06126 	beq	r4,r3,100a328 <_free_r+0x268>
 100a1a4:	40800317 	ldw	r2,12(r8)
 100a1a8:	3247883a 	add	r3,r6,r9
 100a1ac:	000b883a 	mov	r5,zero
 100a1b0:	11000215 	stw	r4,8(r2)
 100a1b4:	20800315 	stw	r2,12(r4)
 100a1b8:	18800117 	ldw	r2,4(r3)
 100a1bc:	1080004c 	andi	r2,r2,1
 100a1c0:	103fdd26 	beq	r2,zero,100a138 <_free_r+0x78>
 100a1c4:	38800054 	ori	r2,r7,1
 100a1c8:	3a07883a 	add	r3,r7,r8
 100a1cc:	280ac03a 	cmpne	r5,r5,zero
 100a1d0:	40800115 	stw	r2,4(r8)
 100a1d4:	19c00015 	stw	r7,0(r3)
 100a1d8:	283fe61e 	bne	r5,zero,100a174 <_free_r+0xb4>
 100a1dc:	00807fc4 	movi	r2,511
 100a1e0:	11c01f2e 	bgeu	r2,r7,100a260 <_free_r+0x1a0>
 100a1e4:	3806d27a 	srli	r3,r7,9
 100a1e8:	1800481e 	bne	r3,zero,100a30c <_free_r+0x24c>
 100a1ec:	3804d0fa 	srli	r2,r7,3
 100a1f0:	100690fa 	slli	r3,r2,3
 100a1f4:	1acd883a 	add	r6,r3,r11
 100a1f8:	31400217 	ldw	r5,8(r6)
 100a1fc:	31405926 	beq	r6,r5,100a364 <_free_r+0x2a4>
 100a200:	28800117 	ldw	r2,4(r5)
 100a204:	00ffff04 	movi	r3,-4
 100a208:	10c4703a 	and	r2,r2,r3
 100a20c:	3880022e 	bgeu	r7,r2,100a218 <_free_r+0x158>
 100a210:	29400217 	ldw	r5,8(r5)
 100a214:	317ffa1e 	bne	r6,r5,100a200 <_free_r+0x140>
 100a218:	29800317 	ldw	r6,12(r5)
 100a21c:	41800315 	stw	r6,12(r8)
 100a220:	41400215 	stw	r5,8(r8)
 100a224:	8809883a 	mov	r4,r17
 100a228:	2a000315 	stw	r8,12(r5)
 100a22c:	32000215 	stw	r8,8(r6)
 100a230:	dfc00217 	ldw	ra,8(sp)
 100a234:	dc400117 	ldw	r17,4(sp)
 100a238:	dc000017 	ldw	r16,0(sp)
 100a23c:	dec00304 	addi	sp,sp,12
 100a240:	10110a81 	jmpi	10110a8 <__malloc_unlock>
 100a244:	dfc00217 	ldw	ra,8(sp)
 100a248:	dc400117 	ldw	r17,4(sp)
 100a24c:	dc000017 	ldw	r16,0(sp)
 100a250:	dec00304 	addi	sp,sp,12
 100a254:	f800283a 	ret
 100a258:	31000217 	ldw	r4,8(r6)
 100a25c:	003fbd06 	br	100a154 <_free_r+0x94>
 100a260:	3806d0fa 	srli	r3,r7,3
 100a264:	00800044 	movi	r2,1
 100a268:	51400117 	ldw	r5,4(r10)
 100a26c:	180890fa 	slli	r4,r3,3
 100a270:	1807d0ba 	srai	r3,r3,2
 100a274:	22c9883a 	add	r4,r4,r11
 100a278:	21800217 	ldw	r6,8(r4)
 100a27c:	10c4983a 	sll	r2,r2,r3
 100a280:	41000315 	stw	r4,12(r8)
 100a284:	41800215 	stw	r6,8(r8)
 100a288:	288ab03a 	or	r5,r5,r2
 100a28c:	22000215 	stw	r8,8(r4)
 100a290:	8809883a 	mov	r4,r17
 100a294:	51400115 	stw	r5,4(r10)
 100a298:	32000315 	stw	r8,12(r6)
 100a29c:	dfc00217 	ldw	ra,8(sp)
 100a2a0:	dc400117 	ldw	r17,4(sp)
 100a2a4:	dc000017 	ldw	r16,0(sp)
 100a2a8:	dec00304 	addi	sp,sp,12
 100a2ac:	10110a81 	jmpi	10110a8 <__malloc_unlock>
 100a2b0:	2880004c 	andi	r2,r5,1
 100a2b4:	3a4d883a 	add	r6,r7,r9
 100a2b8:	1000071e 	bne	r2,zero,100a2d8 <_free_r+0x218>
 100a2bc:	80bffe17 	ldw	r2,-8(r16)
 100a2c0:	4091c83a 	sub	r8,r8,r2
 100a2c4:	41000317 	ldw	r4,12(r8)
 100a2c8:	40c00217 	ldw	r3,8(r8)
 100a2cc:	308d883a 	add	r6,r6,r2
 100a2d0:	20c00215 	stw	r3,8(r4)
 100a2d4:	19000315 	stw	r4,12(r3)
 100a2d8:	00804074 	movhi	r2,257
 100a2dc:	10974704 	addi	r2,r2,23836
 100a2e0:	11000017 	ldw	r4,0(r2)
 100a2e4:	30c00054 	ori	r3,r6,1
 100a2e8:	52000215 	stw	r8,8(r10)
 100a2ec:	40c00115 	stw	r3,4(r8)
 100a2f0:	313fa036 	bltu	r6,r4,100a174 <_free_r+0xb4>
 100a2f4:	00804074 	movhi	r2,257
 100a2f8:	109ef304 	addi	r2,r2,31692
 100a2fc:	11400017 	ldw	r5,0(r2)
 100a300:	8809883a 	mov	r4,r17
 100a304:	1009f940 	call	1009f94 <_malloc_trim_r>
 100a308:	003f9a06 	br	100a174 <_free_r+0xb4>
 100a30c:	00800104 	movi	r2,4
 100a310:	10c0072e 	bgeu	r2,r3,100a330 <_free_r+0x270>
 100a314:	00800504 	movi	r2,20
 100a318:	10c01936 	bltu	r2,r3,100a380 <_free_r+0x2c0>
 100a31c:	188016c4 	addi	r2,r3,91
 100a320:	100690fa 	slli	r3,r2,3
 100a324:	003fb306 	br	100a1f4 <_free_r+0x134>
 100a328:	01400044 	movi	r5,1
 100a32c:	003f7e06 	br	100a128 <_free_r+0x68>
 100a330:	3804d1ba 	srli	r2,r7,6
 100a334:	10800e04 	addi	r2,r2,56
 100a338:	100690fa 	slli	r3,r2,3
 100a33c:	003fad06 	br	100a1f4 <_free_r+0x134>
 100a340:	22000315 	stw	r8,12(r4)
 100a344:	22000215 	stw	r8,8(r4)
 100a348:	3a05883a 	add	r2,r7,r8
 100a34c:	38c00054 	ori	r3,r7,1
 100a350:	11c00015 	stw	r7,0(r2)
 100a354:	41000215 	stw	r4,8(r8)
 100a358:	40c00115 	stw	r3,4(r8)
 100a35c:	41000315 	stw	r4,12(r8)
 100a360:	003f8406 	br	100a174 <_free_r+0xb4>
 100a364:	1005d0ba 	srai	r2,r2,2
 100a368:	00c00044 	movi	r3,1
 100a36c:	51000117 	ldw	r4,4(r10)
 100a370:	1886983a 	sll	r3,r3,r2
 100a374:	20c8b03a 	or	r4,r4,r3
 100a378:	51000115 	stw	r4,4(r10)
 100a37c:	003fa706 	br	100a21c <_free_r+0x15c>
 100a380:	00801504 	movi	r2,84
 100a384:	10c00436 	bltu	r2,r3,100a398 <_free_r+0x2d8>
 100a388:	3804d33a 	srli	r2,r7,12
 100a38c:	10801b84 	addi	r2,r2,110
 100a390:	100690fa 	slli	r3,r2,3
 100a394:	003f9706 	br	100a1f4 <_free_r+0x134>
 100a398:	00805504 	movi	r2,340
 100a39c:	10c00436 	bltu	r2,r3,100a3b0 <_free_r+0x2f0>
 100a3a0:	3804d3fa 	srli	r2,r7,15
 100a3a4:	10801dc4 	addi	r2,r2,119
 100a3a8:	100690fa 	slli	r3,r2,3
 100a3ac:	003f9106 	br	100a1f4 <_free_r+0x134>
 100a3b0:	00815504 	movi	r2,1364
 100a3b4:	10c0032e 	bgeu	r2,r3,100a3c4 <_free_r+0x304>
 100a3b8:	00801f84 	movi	r2,126
 100a3bc:	00c0fc04 	movi	r3,1008
 100a3c0:	003f8c06 	br	100a1f4 <_free_r+0x134>
 100a3c4:	3804d4ba 	srli	r2,r7,18
 100a3c8:	10801f04 	addi	r2,r2,124
 100a3cc:	100690fa 	slli	r3,r2,3
 100a3d0:	003f8806 	br	100a1f4 <_free_r+0x134>

0100a3d4 <__sfvwrite_r>:
 100a3d4:	30800217 	ldw	r2,8(r6)
 100a3d8:	defff504 	addi	sp,sp,-44
 100a3dc:	df000915 	stw	fp,36(sp)
 100a3e0:	dd800715 	stw	r22,28(sp)
 100a3e4:	dc800315 	stw	r18,12(sp)
 100a3e8:	dfc00a15 	stw	ra,40(sp)
 100a3ec:	ddc00815 	stw	r23,32(sp)
 100a3f0:	dd400615 	stw	r21,24(sp)
 100a3f4:	dd000515 	stw	r20,20(sp)
 100a3f8:	dcc00415 	stw	r19,16(sp)
 100a3fc:	dc400215 	stw	r17,8(sp)
 100a400:	dc000115 	stw	r16,4(sp)
 100a404:	302d883a 	mov	r22,r6
 100a408:	2039883a 	mov	fp,r4
 100a40c:	2825883a 	mov	r18,r5
 100a410:	10001c26 	beq	r2,zero,100a484 <__sfvwrite_r+0xb0>
 100a414:	29c0030b 	ldhu	r7,12(r5)
 100a418:	3880020c 	andi	r2,r7,8
 100a41c:	10002726 	beq	r2,zero,100a4bc <__sfvwrite_r+0xe8>
 100a420:	28800417 	ldw	r2,16(r5)
 100a424:	10002526 	beq	r2,zero,100a4bc <__sfvwrite_r+0xe8>
 100a428:	3880008c 	andi	r2,r7,2
 100a42c:	b5400017 	ldw	r21,0(r22)
 100a430:	10002826 	beq	r2,zero,100a4d4 <__sfvwrite_r+0x100>
 100a434:	0021883a 	mov	r16,zero
 100a438:	0023883a 	mov	r17,zero
 100a43c:	880d883a 	mov	r6,r17
 100a440:	e009883a 	mov	r4,fp
 100a444:	00810004 	movi	r2,1024
 100a448:	80006e26 	beq	r16,zero,100a604 <__sfvwrite_r+0x230>
 100a44c:	800f883a 	mov	r7,r16
 100a450:	91400717 	ldw	r5,28(r18)
 100a454:	1400012e 	bgeu	r2,r16,100a45c <__sfvwrite_r+0x88>
 100a458:	100f883a 	mov	r7,r2
 100a45c:	90c00917 	ldw	r3,36(r18)
 100a460:	183ee83a 	callr	r3
 100a464:	1007883a 	mov	r3,r2
 100a468:	80a1c83a 	sub	r16,r16,r2
 100a46c:	88a3883a 	add	r17,r17,r2
 100a470:	00806d0e 	bge	zero,r2,100a628 <__sfvwrite_r+0x254>
 100a474:	b0800217 	ldw	r2,8(r22)
 100a478:	10c5c83a 	sub	r2,r2,r3
 100a47c:	b0800215 	stw	r2,8(r22)
 100a480:	103fee1e 	bne	r2,zero,100a43c <__sfvwrite_r+0x68>
 100a484:	0009883a 	mov	r4,zero
 100a488:	2005883a 	mov	r2,r4
 100a48c:	dfc00a17 	ldw	ra,40(sp)
 100a490:	df000917 	ldw	fp,36(sp)
 100a494:	ddc00817 	ldw	r23,32(sp)
 100a498:	dd800717 	ldw	r22,28(sp)
 100a49c:	dd400617 	ldw	r21,24(sp)
 100a4a0:	dd000517 	ldw	r20,20(sp)
 100a4a4:	dcc00417 	ldw	r19,16(sp)
 100a4a8:	dc800317 	ldw	r18,12(sp)
 100a4ac:	dc400217 	ldw	r17,8(sp)
 100a4b0:	dc000117 	ldw	r16,4(sp)
 100a4b4:	dec00b04 	addi	sp,sp,44
 100a4b8:	f800283a 	ret
 100a4bc:	1007fd00 	call	1007fd0 <__swsetup_r>
 100a4c0:	1000e41e 	bne	r2,zero,100a854 <__sfvwrite_r+0x480>
 100a4c4:	91c0030b 	ldhu	r7,12(r18)
 100a4c8:	b5400017 	ldw	r21,0(r22)
 100a4cc:	3880008c 	andi	r2,r7,2
 100a4d0:	103fd81e 	bne	r2,zero,100a434 <__sfvwrite_r+0x60>
 100a4d4:	3880004c 	andi	r2,r7,1
 100a4d8:	1005003a 	cmpeq	r2,r2,zero
 100a4dc:	10005726 	beq	r2,zero,100a63c <__sfvwrite_r+0x268>
 100a4e0:	0029883a 	mov	r20,zero
 100a4e4:	002f883a 	mov	r23,zero
 100a4e8:	a0004226 	beq	r20,zero,100a5f4 <__sfvwrite_r+0x220>
 100a4ec:	3880800c 	andi	r2,r7,512
 100a4f0:	94000217 	ldw	r16,8(r18)
 100a4f4:	10008b26 	beq	r2,zero,100a724 <__sfvwrite_r+0x350>
 100a4f8:	800d883a 	mov	r6,r16
 100a4fc:	a400a536 	bltu	r20,r16,100a794 <__sfvwrite_r+0x3c0>
 100a500:	3881200c 	andi	r2,r7,1152
 100a504:	10002726 	beq	r2,zero,100a5a4 <__sfvwrite_r+0x1d0>
 100a508:	90800517 	ldw	r2,20(r18)
 100a50c:	92000417 	ldw	r8,16(r18)
 100a510:	91400017 	ldw	r5,0(r18)
 100a514:	1087883a 	add	r3,r2,r2
 100a518:	1887883a 	add	r3,r3,r2
 100a51c:	1808d7fa 	srli	r4,r3,31
 100a520:	2a21c83a 	sub	r16,r5,r8
 100a524:	80800044 	addi	r2,r16,1
 100a528:	20c9883a 	add	r4,r4,r3
 100a52c:	2027d07a 	srai	r19,r4,1
 100a530:	a085883a 	add	r2,r20,r2
 100a534:	980d883a 	mov	r6,r19
 100a538:	9880022e 	bgeu	r19,r2,100a544 <__sfvwrite_r+0x170>
 100a53c:	1027883a 	mov	r19,r2
 100a540:	100d883a 	mov	r6,r2
 100a544:	3881000c 	andi	r2,r7,1024
 100a548:	1000b826 	beq	r2,zero,100a82c <__sfvwrite_r+0x458>
 100a54c:	300b883a 	mov	r5,r6
 100a550:	e009883a 	mov	r4,fp
 100a554:	10055e00 	call	10055e0 <_malloc_r>
 100a558:	10003126 	beq	r2,zero,100a620 <__sfvwrite_r+0x24c>
 100a55c:	91400417 	ldw	r5,16(r18)
 100a560:	1009883a 	mov	r4,r2
 100a564:	800d883a 	mov	r6,r16
 100a568:	1023883a 	mov	r17,r2
 100a56c:	1005d200 	call	1005d20 <memcpy>
 100a570:	90c0030b 	ldhu	r3,12(r18)
 100a574:	00beffc4 	movi	r2,-1025
 100a578:	1886703a 	and	r3,r3,r2
 100a57c:	18c02014 	ori	r3,r3,128
 100a580:	90c0030d 	sth	r3,12(r18)
 100a584:	9c07c83a 	sub	r3,r19,r16
 100a588:	8c05883a 	add	r2,r17,r16
 100a58c:	a00d883a 	mov	r6,r20
 100a590:	a021883a 	mov	r16,r20
 100a594:	90800015 	stw	r2,0(r18)
 100a598:	90c00215 	stw	r3,8(r18)
 100a59c:	94400415 	stw	r17,16(r18)
 100a5a0:	94c00515 	stw	r19,20(r18)
 100a5a4:	91000017 	ldw	r4,0(r18)
 100a5a8:	b80b883a 	mov	r5,r23
 100a5ac:	a023883a 	mov	r17,r20
 100a5b0:	100ad2c0 	call	100ad2c <memmove>
 100a5b4:	90c00217 	ldw	r3,8(r18)
 100a5b8:	90800017 	ldw	r2,0(r18)
 100a5bc:	a027883a 	mov	r19,r20
 100a5c0:	1c07c83a 	sub	r3,r3,r16
 100a5c4:	1405883a 	add	r2,r2,r16
 100a5c8:	90c00215 	stw	r3,8(r18)
 100a5cc:	a021883a 	mov	r16,r20
 100a5d0:	90800015 	stw	r2,0(r18)
 100a5d4:	b0800217 	ldw	r2,8(r22)
 100a5d8:	1405c83a 	sub	r2,r2,r16
 100a5dc:	b0800215 	stw	r2,8(r22)
 100a5e0:	103fa826 	beq	r2,zero,100a484 <__sfvwrite_r+0xb0>
 100a5e4:	a469c83a 	sub	r20,r20,r17
 100a5e8:	91c0030b 	ldhu	r7,12(r18)
 100a5ec:	bcef883a 	add	r23,r23,r19
 100a5f0:	a03fbe1e 	bne	r20,zero,100a4ec <__sfvwrite_r+0x118>
 100a5f4:	adc00017 	ldw	r23,0(r21)
 100a5f8:	ad000117 	ldw	r20,4(r21)
 100a5fc:	ad400204 	addi	r21,r21,8
 100a600:	003fb906 	br	100a4e8 <__sfvwrite_r+0x114>
 100a604:	ac400017 	ldw	r17,0(r21)
 100a608:	ac000117 	ldw	r16,4(r21)
 100a60c:	ad400204 	addi	r21,r21,8
 100a610:	003f8a06 	br	100a43c <__sfvwrite_r+0x68>
 100a614:	91400417 	ldw	r5,16(r18)
 100a618:	e009883a 	mov	r4,fp
 100a61c:	100a0c00 	call	100a0c0 <_free_r>
 100a620:	00800304 	movi	r2,12
 100a624:	e0800015 	stw	r2,0(fp)
 100a628:	9080030b 	ldhu	r2,12(r18)
 100a62c:	013fffc4 	movi	r4,-1
 100a630:	10801014 	ori	r2,r2,64
 100a634:	9080030d 	sth	r2,12(r18)
 100a638:	003f9306 	br	100a488 <__sfvwrite_r+0xb4>
 100a63c:	0027883a 	mov	r19,zero
 100a640:	002f883a 	mov	r23,zero
 100a644:	d8000015 	stw	zero,0(sp)
 100a648:	0029883a 	mov	r20,zero
 100a64c:	98001e26 	beq	r19,zero,100a6c8 <__sfvwrite_r+0x2f4>
 100a650:	d8c00017 	ldw	r3,0(sp)
 100a654:	1804c03a 	cmpne	r2,r3,zero
 100a658:	10005e26 	beq	r2,zero,100a7d4 <__sfvwrite_r+0x400>
 100a65c:	9821883a 	mov	r16,r19
 100a660:	a4c0012e 	bgeu	r20,r19,100a668 <__sfvwrite_r+0x294>
 100a664:	a021883a 	mov	r16,r20
 100a668:	91000017 	ldw	r4,0(r18)
 100a66c:	90800417 	ldw	r2,16(r18)
 100a670:	91800217 	ldw	r6,8(r18)
 100a674:	91c00517 	ldw	r7,20(r18)
 100a678:	1100022e 	bgeu	r2,r4,100a684 <__sfvwrite_r+0x2b0>
 100a67c:	31e3883a 	add	r17,r6,r7
 100a680:	8c001616 	blt	r17,r16,100a6dc <__sfvwrite_r+0x308>
 100a684:	81c03816 	blt	r16,r7,100a768 <__sfvwrite_r+0x394>
 100a688:	90c00917 	ldw	r3,36(r18)
 100a68c:	91400717 	ldw	r5,28(r18)
 100a690:	e009883a 	mov	r4,fp
 100a694:	b80d883a 	mov	r6,r23
 100a698:	183ee83a 	callr	r3
 100a69c:	1023883a 	mov	r17,r2
 100a6a0:	00bfe10e 	bge	zero,r2,100a628 <__sfvwrite_r+0x254>
 100a6a4:	a469c83a 	sub	r20,r20,r17
 100a6a8:	a0001826 	beq	r20,zero,100a70c <__sfvwrite_r+0x338>
 100a6ac:	b0800217 	ldw	r2,8(r22)
 100a6b0:	1445c83a 	sub	r2,r2,r17
 100a6b4:	b0800215 	stw	r2,8(r22)
 100a6b8:	103f7226 	beq	r2,zero,100a484 <__sfvwrite_r+0xb0>
 100a6bc:	9c67c83a 	sub	r19,r19,r17
 100a6c0:	bc6f883a 	add	r23,r23,r17
 100a6c4:	983fe21e 	bne	r19,zero,100a650 <__sfvwrite_r+0x27c>
 100a6c8:	adc00017 	ldw	r23,0(r21)
 100a6cc:	acc00117 	ldw	r19,4(r21)
 100a6d0:	ad400204 	addi	r21,r21,8
 100a6d4:	d8000015 	stw	zero,0(sp)
 100a6d8:	003fdc06 	br	100a64c <__sfvwrite_r+0x278>
 100a6dc:	b80b883a 	mov	r5,r23
 100a6e0:	880d883a 	mov	r6,r17
 100a6e4:	100ad2c0 	call	100ad2c <memmove>
 100a6e8:	90c00017 	ldw	r3,0(r18)
 100a6ec:	e009883a 	mov	r4,fp
 100a6f0:	900b883a 	mov	r5,r18
 100a6f4:	1c47883a 	add	r3,r3,r17
 100a6f8:	90c00015 	stw	r3,0(r18)
 100a6fc:	1009aa40 	call	1009aa4 <_fflush_r>
 100a700:	103fc91e 	bne	r2,zero,100a628 <__sfvwrite_r+0x254>
 100a704:	a469c83a 	sub	r20,r20,r17
 100a708:	a03fe81e 	bne	r20,zero,100a6ac <__sfvwrite_r+0x2d8>
 100a70c:	e009883a 	mov	r4,fp
 100a710:	900b883a 	mov	r5,r18
 100a714:	1009aa40 	call	1009aa4 <_fflush_r>
 100a718:	103fc31e 	bne	r2,zero,100a628 <__sfvwrite_r+0x254>
 100a71c:	d8000015 	stw	zero,0(sp)
 100a720:	003fe206 	br	100a6ac <__sfvwrite_r+0x2d8>
 100a724:	91000017 	ldw	r4,0(r18)
 100a728:	90800417 	ldw	r2,16(r18)
 100a72c:	1100022e 	bgeu	r2,r4,100a738 <__sfvwrite_r+0x364>
 100a730:	8023883a 	mov	r17,r16
 100a734:	85003136 	bltu	r16,r20,100a7fc <__sfvwrite_r+0x428>
 100a738:	91c00517 	ldw	r7,20(r18)
 100a73c:	a1c01836 	bltu	r20,r7,100a7a0 <__sfvwrite_r+0x3cc>
 100a740:	90c00917 	ldw	r3,36(r18)
 100a744:	91400717 	ldw	r5,28(r18)
 100a748:	e009883a 	mov	r4,fp
 100a74c:	b80d883a 	mov	r6,r23
 100a750:	183ee83a 	callr	r3
 100a754:	1021883a 	mov	r16,r2
 100a758:	00bfb30e 	bge	zero,r2,100a628 <__sfvwrite_r+0x254>
 100a75c:	1023883a 	mov	r17,r2
 100a760:	1027883a 	mov	r19,r2
 100a764:	003f9b06 	br	100a5d4 <__sfvwrite_r+0x200>
 100a768:	b80b883a 	mov	r5,r23
 100a76c:	800d883a 	mov	r6,r16
 100a770:	100ad2c0 	call	100ad2c <memmove>
 100a774:	90c00217 	ldw	r3,8(r18)
 100a778:	90800017 	ldw	r2,0(r18)
 100a77c:	8023883a 	mov	r17,r16
 100a780:	1c07c83a 	sub	r3,r3,r16
 100a784:	1405883a 	add	r2,r2,r16
 100a788:	90c00215 	stw	r3,8(r18)
 100a78c:	90800015 	stw	r2,0(r18)
 100a790:	003fc406 	br	100a6a4 <__sfvwrite_r+0x2d0>
 100a794:	a00d883a 	mov	r6,r20
 100a798:	a021883a 	mov	r16,r20
 100a79c:	003f8106 	br	100a5a4 <__sfvwrite_r+0x1d0>
 100a7a0:	b80b883a 	mov	r5,r23
 100a7a4:	a00d883a 	mov	r6,r20
 100a7a8:	100ad2c0 	call	100ad2c <memmove>
 100a7ac:	90c00217 	ldw	r3,8(r18)
 100a7b0:	90800017 	ldw	r2,0(r18)
 100a7b4:	a021883a 	mov	r16,r20
 100a7b8:	1d07c83a 	sub	r3,r3,r20
 100a7bc:	1505883a 	add	r2,r2,r20
 100a7c0:	a023883a 	mov	r17,r20
 100a7c4:	a027883a 	mov	r19,r20
 100a7c8:	90c00215 	stw	r3,8(r18)
 100a7cc:	90800015 	stw	r2,0(r18)
 100a7d0:	003f8006 	br	100a5d4 <__sfvwrite_r+0x200>
 100a7d4:	b809883a 	mov	r4,r23
 100a7d8:	01400284 	movi	r5,10
 100a7dc:	980d883a 	mov	r6,r19
 100a7e0:	100ac480 	call	100ac48 <memchr>
 100a7e4:	10001726 	beq	r2,zero,100a844 <__sfvwrite_r+0x470>
 100a7e8:	15c5c83a 	sub	r2,r2,r23
 100a7ec:	15000044 	addi	r20,r2,1
 100a7f0:	00800044 	movi	r2,1
 100a7f4:	d8800015 	stw	r2,0(sp)
 100a7f8:	003f9806 	br	100a65c <__sfvwrite_r+0x288>
 100a7fc:	b80b883a 	mov	r5,r23
 100a800:	800d883a 	mov	r6,r16
 100a804:	100ad2c0 	call	100ad2c <memmove>
 100a808:	90c00017 	ldw	r3,0(r18)
 100a80c:	e009883a 	mov	r4,fp
 100a810:	900b883a 	mov	r5,r18
 100a814:	1c07883a 	add	r3,r3,r16
 100a818:	90c00015 	stw	r3,0(r18)
 100a81c:	8027883a 	mov	r19,r16
 100a820:	1009aa40 	call	1009aa4 <_fflush_r>
 100a824:	103f6b26 	beq	r2,zero,100a5d4 <__sfvwrite_r+0x200>
 100a828:	003f7f06 	br	100a628 <__sfvwrite_r+0x254>
 100a82c:	400b883a 	mov	r5,r8
 100a830:	e009883a 	mov	r4,fp
 100a834:	100bfec0 	call	100bfec <_realloc_r>
 100a838:	103f7626 	beq	r2,zero,100a614 <__sfvwrite_r+0x240>
 100a83c:	1023883a 	mov	r17,r2
 100a840:	003f5006 	br	100a584 <__sfvwrite_r+0x1b0>
 100a844:	00c00044 	movi	r3,1
 100a848:	9d000044 	addi	r20,r19,1
 100a84c:	d8c00015 	stw	r3,0(sp)
 100a850:	003f8206 	br	100a65c <__sfvwrite_r+0x288>
 100a854:	9080030b 	ldhu	r2,12(r18)
 100a858:	00c00244 	movi	r3,9
 100a85c:	013fffc4 	movi	r4,-1
 100a860:	10801014 	ori	r2,r2,64
 100a864:	9080030d 	sth	r2,12(r18)
 100a868:	e0c00015 	stw	r3,0(fp)
 100a86c:	003f0606 	br	100a488 <__sfvwrite_r+0xb4>

0100a870 <_fwalk_reent>:
 100a870:	defff704 	addi	sp,sp,-36
 100a874:	dcc00315 	stw	r19,12(sp)
 100a878:	24c0b804 	addi	r19,r4,736
 100a87c:	dd800615 	stw	r22,24(sp)
 100a880:	dd400515 	stw	r21,20(sp)
 100a884:	dfc00815 	stw	ra,32(sp)
 100a888:	ddc00715 	stw	r23,28(sp)
 100a88c:	dd000415 	stw	r20,16(sp)
 100a890:	dc800215 	stw	r18,8(sp)
 100a894:	dc400115 	stw	r17,4(sp)
 100a898:	dc000015 	stw	r16,0(sp)
 100a89c:	202b883a 	mov	r21,r4
 100a8a0:	282d883a 	mov	r22,r5
 100a8a4:	1009d2c0 	call	1009d2c <__sfp_lock_acquire>
 100a8a8:	98002126 	beq	r19,zero,100a930 <_fwalk_reent+0xc0>
 100a8ac:	002f883a 	mov	r23,zero
 100a8b0:	9c800117 	ldw	r18,4(r19)
 100a8b4:	9c000217 	ldw	r16,8(r19)
 100a8b8:	90bfffc4 	addi	r2,r18,-1
 100a8bc:	10000d16 	blt	r2,zero,100a8f4 <_fwalk_reent+0x84>
 100a8c0:	0023883a 	mov	r17,zero
 100a8c4:	053fffc4 	movi	r20,-1
 100a8c8:	8080030f 	ldh	r2,12(r16)
 100a8cc:	8c400044 	addi	r17,r17,1
 100a8d0:	10000626 	beq	r2,zero,100a8ec <_fwalk_reent+0x7c>
 100a8d4:	8080038f 	ldh	r2,14(r16)
 100a8d8:	800b883a 	mov	r5,r16
 100a8dc:	a809883a 	mov	r4,r21
 100a8e0:	15000226 	beq	r2,r20,100a8ec <_fwalk_reent+0x7c>
 100a8e4:	b03ee83a 	callr	r22
 100a8e8:	b8aeb03a 	or	r23,r23,r2
 100a8ec:	84001704 	addi	r16,r16,92
 100a8f0:	947ff51e 	bne	r18,r17,100a8c8 <_fwalk_reent+0x58>
 100a8f4:	9cc00017 	ldw	r19,0(r19)
 100a8f8:	983fed1e 	bne	r19,zero,100a8b0 <_fwalk_reent+0x40>
 100a8fc:	1009d300 	call	1009d30 <__sfp_lock_release>
 100a900:	b805883a 	mov	r2,r23
 100a904:	dfc00817 	ldw	ra,32(sp)
 100a908:	ddc00717 	ldw	r23,28(sp)
 100a90c:	dd800617 	ldw	r22,24(sp)
 100a910:	dd400517 	ldw	r21,20(sp)
 100a914:	dd000417 	ldw	r20,16(sp)
 100a918:	dcc00317 	ldw	r19,12(sp)
 100a91c:	dc800217 	ldw	r18,8(sp)
 100a920:	dc400117 	ldw	r17,4(sp)
 100a924:	dc000017 	ldw	r16,0(sp)
 100a928:	dec00904 	addi	sp,sp,36
 100a92c:	f800283a 	ret
 100a930:	002f883a 	mov	r23,zero
 100a934:	003ff106 	br	100a8fc <_fwalk_reent+0x8c>

0100a938 <_fwalk>:
 100a938:	defff804 	addi	sp,sp,-32
 100a93c:	dcc00315 	stw	r19,12(sp)
 100a940:	24c0b804 	addi	r19,r4,736
 100a944:	dd400515 	stw	r21,20(sp)
 100a948:	dfc00715 	stw	ra,28(sp)
 100a94c:	dd800615 	stw	r22,24(sp)
 100a950:	dd000415 	stw	r20,16(sp)
 100a954:	dc800215 	stw	r18,8(sp)
 100a958:	dc400115 	stw	r17,4(sp)
 100a95c:	dc000015 	stw	r16,0(sp)
 100a960:	282b883a 	mov	r21,r5
 100a964:	1009d2c0 	call	1009d2c <__sfp_lock_acquire>
 100a968:	98001f26 	beq	r19,zero,100a9e8 <_fwalk+0xb0>
 100a96c:	002d883a 	mov	r22,zero
 100a970:	9c800117 	ldw	r18,4(r19)
 100a974:	9c000217 	ldw	r16,8(r19)
 100a978:	90bfffc4 	addi	r2,r18,-1
 100a97c:	10000c16 	blt	r2,zero,100a9b0 <_fwalk+0x78>
 100a980:	0023883a 	mov	r17,zero
 100a984:	053fffc4 	movi	r20,-1
 100a988:	8080030f 	ldh	r2,12(r16)
 100a98c:	8c400044 	addi	r17,r17,1
 100a990:	10000526 	beq	r2,zero,100a9a8 <_fwalk+0x70>
 100a994:	8080038f 	ldh	r2,14(r16)
 100a998:	8009883a 	mov	r4,r16
 100a99c:	15000226 	beq	r2,r20,100a9a8 <_fwalk+0x70>
 100a9a0:	a83ee83a 	callr	r21
 100a9a4:	b0acb03a 	or	r22,r22,r2
 100a9a8:	84001704 	addi	r16,r16,92
 100a9ac:	947ff61e 	bne	r18,r17,100a988 <_fwalk+0x50>
 100a9b0:	9cc00017 	ldw	r19,0(r19)
 100a9b4:	983fee1e 	bne	r19,zero,100a970 <_fwalk+0x38>
 100a9b8:	1009d300 	call	1009d30 <__sfp_lock_release>
 100a9bc:	b005883a 	mov	r2,r22
 100a9c0:	dfc00717 	ldw	ra,28(sp)
 100a9c4:	dd800617 	ldw	r22,24(sp)
 100a9c8:	dd400517 	ldw	r21,20(sp)
 100a9cc:	dd000417 	ldw	r20,16(sp)
 100a9d0:	dcc00317 	ldw	r19,12(sp)
 100a9d4:	dc800217 	ldw	r18,8(sp)
 100a9d8:	dc400117 	ldw	r17,4(sp)
 100a9dc:	dc000017 	ldw	r16,0(sp)
 100a9e0:	dec00804 	addi	sp,sp,32
 100a9e4:	f800283a 	ret
 100a9e8:	002d883a 	mov	r22,zero
 100a9ec:	003ff206 	br	100a9b8 <_fwalk+0x80>

0100a9f0 <__locale_charset>:
 100a9f0:	d0a01217 	ldw	r2,-32696(gp)
 100a9f4:	f800283a 	ret

0100a9f8 <_localeconv_r>:
 100a9f8:	00804074 	movhi	r2,257
 100a9fc:	108efa04 	addi	r2,r2,15336
 100aa00:	f800283a 	ret

0100aa04 <localeconv>:
 100aa04:	00804074 	movhi	r2,257
 100aa08:	10974504 	addi	r2,r2,23828
 100aa0c:	11000017 	ldw	r4,0(r2)
 100aa10:	100a9f81 	jmpi	100a9f8 <_localeconv_r>

0100aa14 <_setlocale_r>:
 100aa14:	defffc04 	addi	sp,sp,-16
 100aa18:	00c04074 	movhi	r3,257
 100aa1c:	18ced004 	addi	r3,r3,15168
 100aa20:	dc800215 	stw	r18,8(sp)
 100aa24:	dc400115 	stw	r17,4(sp)
 100aa28:	dc000015 	stw	r16,0(sp)
 100aa2c:	2023883a 	mov	r17,r4
 100aa30:	2825883a 	mov	r18,r5
 100aa34:	dfc00315 	stw	ra,12(sp)
 100aa38:	3021883a 	mov	r16,r6
 100aa3c:	3009883a 	mov	r4,r6
 100aa40:	180b883a 	mov	r5,r3
 100aa44:	30000926 	beq	r6,zero,100aa6c <_setlocale_r+0x58>
 100aa48:	100caec0 	call	100caec <strcmp>
 100aa4c:	8009883a 	mov	r4,r16
 100aa50:	01404074 	movhi	r5,257
 100aa54:	294ecf04 	addi	r5,r5,15164
 100aa58:	10000b1e 	bne	r2,zero,100aa88 <_setlocale_r+0x74>
 100aa5c:	8c000d15 	stw	r16,52(r17)
 100aa60:	8c800c15 	stw	r18,48(r17)
 100aa64:	00c04074 	movhi	r3,257
 100aa68:	18ced004 	addi	r3,r3,15168
 100aa6c:	1805883a 	mov	r2,r3
 100aa70:	dfc00317 	ldw	ra,12(sp)
 100aa74:	dc800217 	ldw	r18,8(sp)
 100aa78:	dc400117 	ldw	r17,4(sp)
 100aa7c:	dc000017 	ldw	r16,0(sp)
 100aa80:	dec00404 	addi	sp,sp,16
 100aa84:	f800283a 	ret
 100aa88:	100caec0 	call	100caec <strcmp>
 100aa8c:	0007883a 	mov	r3,zero
 100aa90:	103ff226 	beq	r2,zero,100aa5c <_setlocale_r+0x48>
 100aa94:	003ff506 	br	100aa6c <_setlocale_r+0x58>

0100aa98 <setlocale>:
 100aa98:	01804074 	movhi	r6,257
 100aa9c:	31974504 	addi	r6,r6,23828
 100aaa0:	2007883a 	mov	r3,r4
 100aaa4:	31000017 	ldw	r4,0(r6)
 100aaa8:	280d883a 	mov	r6,r5
 100aaac:	180b883a 	mov	r5,r3
 100aab0:	100aa141 	jmpi	100aa14 <_setlocale_r>

0100aab4 <__smakebuf_r>:
 100aab4:	2880030b 	ldhu	r2,12(r5)
 100aab8:	deffed04 	addi	sp,sp,-76
 100aabc:	dc401015 	stw	r17,64(sp)
 100aac0:	1080008c 	andi	r2,r2,2
 100aac4:	dc000f15 	stw	r16,60(sp)
 100aac8:	dfc01215 	stw	ra,72(sp)
 100aacc:	dc801115 	stw	r18,68(sp)
 100aad0:	2821883a 	mov	r16,r5
 100aad4:	2023883a 	mov	r17,r4
 100aad8:	10000b26 	beq	r2,zero,100ab08 <__smakebuf_r+0x54>
 100aadc:	28c010c4 	addi	r3,r5,67
 100aae0:	00800044 	movi	r2,1
 100aae4:	28800515 	stw	r2,20(r5)
 100aae8:	28c00415 	stw	r3,16(r5)
 100aaec:	28c00015 	stw	r3,0(r5)
 100aaf0:	dfc01217 	ldw	ra,72(sp)
 100aaf4:	dc801117 	ldw	r18,68(sp)
 100aaf8:	dc401017 	ldw	r17,64(sp)
 100aafc:	dc000f17 	ldw	r16,60(sp)
 100ab00:	dec01304 	addi	sp,sp,76
 100ab04:	f800283a 	ret
 100ab08:	2940038f 	ldh	r5,14(r5)
 100ab0c:	28002116 	blt	r5,zero,100ab94 <__smakebuf_r+0xe0>
 100ab10:	d80d883a 	mov	r6,sp
 100ab14:	100e0200 	call	100e020 <_fstat_r>
 100ab18:	10001e16 	blt	r2,zero,100ab94 <__smakebuf_r+0xe0>
 100ab1c:	d8800117 	ldw	r2,4(sp)
 100ab20:	00e00014 	movui	r3,32768
 100ab24:	113c000c 	andi	r4,r2,61440
 100ab28:	20c03126 	beq	r4,r3,100abf0 <__smakebuf_r+0x13c>
 100ab2c:	8080030b 	ldhu	r2,12(r16)
 100ab30:	00c80004 	movi	r3,8192
 100ab34:	10820014 	ori	r2,r2,2048
 100ab38:	8080030d 	sth	r2,12(r16)
 100ab3c:	20c01e26 	beq	r4,r3,100abb8 <__smakebuf_r+0x104>
 100ab40:	04810004 	movi	r18,1024
 100ab44:	8809883a 	mov	r4,r17
 100ab48:	900b883a 	mov	r5,r18
 100ab4c:	10055e00 	call	10055e0 <_malloc_r>
 100ab50:	1009883a 	mov	r4,r2
 100ab54:	10003126 	beq	r2,zero,100ac1c <__smakebuf_r+0x168>
 100ab58:	80c0030b 	ldhu	r3,12(r16)
 100ab5c:	00804074 	movhi	r2,257
 100ab60:	10a78804 	addi	r2,r2,-25056
 100ab64:	88800f15 	stw	r2,60(r17)
 100ab68:	18c02014 	ori	r3,r3,128
 100ab6c:	84800515 	stw	r18,20(r16)
 100ab70:	80c0030d 	sth	r3,12(r16)
 100ab74:	81000415 	stw	r4,16(r16)
 100ab78:	81000015 	stw	r4,0(r16)
 100ab7c:	dfc01217 	ldw	ra,72(sp)
 100ab80:	dc801117 	ldw	r18,68(sp)
 100ab84:	dc401017 	ldw	r17,64(sp)
 100ab88:	dc000f17 	ldw	r16,60(sp)
 100ab8c:	dec01304 	addi	sp,sp,76
 100ab90:	f800283a 	ret
 100ab94:	80c0030b 	ldhu	r3,12(r16)
 100ab98:	1880200c 	andi	r2,r3,128
 100ab9c:	10000426 	beq	r2,zero,100abb0 <__smakebuf_r+0xfc>
 100aba0:	04801004 	movi	r18,64
 100aba4:	18820014 	ori	r2,r3,2048
 100aba8:	8080030d 	sth	r2,12(r16)
 100abac:	003fe506 	br	100ab44 <__smakebuf_r+0x90>
 100abb0:	04810004 	movi	r18,1024
 100abb4:	003ffb06 	br	100aba4 <__smakebuf_r+0xf0>
 100abb8:	8140038f 	ldh	r5,14(r16)
 100abbc:	8809883a 	mov	r4,r17
 100abc0:	100e0940 	call	100e094 <_isatty_r>
 100abc4:	103fde26 	beq	r2,zero,100ab40 <__smakebuf_r+0x8c>
 100abc8:	8080030b 	ldhu	r2,12(r16)
 100abcc:	80c010c4 	addi	r3,r16,67
 100abd0:	04810004 	movi	r18,1024
 100abd4:	10800054 	ori	r2,r2,1
 100abd8:	8080030d 	sth	r2,12(r16)
 100abdc:	00800044 	movi	r2,1
 100abe0:	80c00415 	stw	r3,16(r16)
 100abe4:	80800515 	stw	r2,20(r16)
 100abe8:	80c00015 	stw	r3,0(r16)
 100abec:	003fd506 	br	100ab44 <__smakebuf_r+0x90>
 100abf0:	80c00a17 	ldw	r3,40(r16)
 100abf4:	00804074 	movhi	r2,257
 100abf8:	10b26a04 	addi	r2,r2,-13912
 100abfc:	18bfcb1e 	bne	r3,r2,100ab2c <__smakebuf_r+0x78>
 100ac00:	8080030b 	ldhu	r2,12(r16)
 100ac04:	00c10004 	movi	r3,1024
 100ac08:	1825883a 	mov	r18,r3
 100ac0c:	10c4b03a 	or	r2,r2,r3
 100ac10:	8080030d 	sth	r2,12(r16)
 100ac14:	80c01315 	stw	r3,76(r16)
 100ac18:	003fca06 	br	100ab44 <__smakebuf_r+0x90>
 100ac1c:	8100030b 	ldhu	r4,12(r16)
 100ac20:	2080800c 	andi	r2,r4,512
 100ac24:	103fb21e 	bne	r2,zero,100aaf0 <__smakebuf_r+0x3c>
 100ac28:	80c010c4 	addi	r3,r16,67
 100ac2c:	21000094 	ori	r4,r4,2
 100ac30:	00800044 	movi	r2,1
 100ac34:	80800515 	stw	r2,20(r16)
 100ac38:	8100030d 	sth	r4,12(r16)
 100ac3c:	80c00415 	stw	r3,16(r16)
 100ac40:	80c00015 	stw	r3,0(r16)
 100ac44:	003faa06 	br	100aaf0 <__smakebuf_r+0x3c>

0100ac48 <memchr>:
 100ac48:	008000c4 	movi	r2,3
 100ac4c:	29403fcc 	andi	r5,r5,255
 100ac50:	2007883a 	mov	r3,r4
 100ac54:	1180022e 	bgeu	r2,r6,100ac60 <memchr+0x18>
 100ac58:	2084703a 	and	r2,r4,r2
 100ac5c:	10000b26 	beq	r2,zero,100ac8c <memchr+0x44>
 100ac60:	313fffc4 	addi	r4,r6,-1
 100ac64:	3000051e 	bne	r6,zero,100ac7c <memchr+0x34>
 100ac68:	00002c06 	br	100ad1c <memchr+0xd4>
 100ac6c:	213fffc4 	addi	r4,r4,-1
 100ac70:	00bfffc4 	movi	r2,-1
 100ac74:	18c00044 	addi	r3,r3,1
 100ac78:	20802826 	beq	r4,r2,100ad1c <memchr+0xd4>
 100ac7c:	18800003 	ldbu	r2,0(r3)
 100ac80:	28bffa1e 	bne	r5,r2,100ac6c <memchr+0x24>
 100ac84:	1805883a 	mov	r2,r3
 100ac88:	f800283a 	ret
 100ac8c:	0011883a 	mov	r8,zero
 100ac90:	0007883a 	mov	r3,zero
 100ac94:	01c00104 	movi	r7,4
 100ac98:	4004923a 	slli	r2,r8,8
 100ac9c:	18c00044 	addi	r3,r3,1
 100aca0:	1151883a 	add	r8,r2,r5
 100aca4:	19fffc1e 	bne	r3,r7,100ac98 <memchr+0x50>
 100aca8:	02bfbff4 	movhi	r10,65279
 100acac:	52bfbfc4 	addi	r10,r10,-257
 100acb0:	02602074 	movhi	r9,32897
 100acb4:	4a602004 	addi	r9,r9,-32640
 100acb8:	02c000c4 	movi	r11,3
 100acbc:	20800017 	ldw	r2,0(r4)
 100acc0:	31bfff04 	addi	r6,r6,-4
 100acc4:	200f883a 	mov	r7,r4
 100acc8:	1204f03a 	xor	r2,r2,r8
 100accc:	1287883a 	add	r3,r2,r10
 100acd0:	1a46703a 	and	r3,r3,r9
 100acd4:	0084303a 	nor	r2,zero,r2
 100acd8:	10c4703a 	and	r2,r2,r3
 100acdc:	10000b26 	beq	r2,zero,100ad0c <memchr+0xc4>
 100ace0:	20800003 	ldbu	r2,0(r4)
 100ace4:	28800f26 	beq	r5,r2,100ad24 <memchr+0xdc>
 100ace8:	20800043 	ldbu	r2,1(r4)
 100acec:	21c00044 	addi	r7,r4,1
 100acf0:	28800c26 	beq	r5,r2,100ad24 <memchr+0xdc>
 100acf4:	20800083 	ldbu	r2,2(r4)
 100acf8:	21c00084 	addi	r7,r4,2
 100acfc:	28800926 	beq	r5,r2,100ad24 <memchr+0xdc>
 100ad00:	208000c3 	ldbu	r2,3(r4)
 100ad04:	21c000c4 	addi	r7,r4,3
 100ad08:	28800626 	beq	r5,r2,100ad24 <memchr+0xdc>
 100ad0c:	21000104 	addi	r4,r4,4
 100ad10:	59bfea36 	bltu	r11,r6,100acbc <memchr+0x74>
 100ad14:	2007883a 	mov	r3,r4
 100ad18:	003fd106 	br	100ac60 <memchr+0x18>
 100ad1c:	0005883a 	mov	r2,zero
 100ad20:	f800283a 	ret
 100ad24:	3805883a 	mov	r2,r7
 100ad28:	f800283a 	ret

0100ad2c <memmove>:
 100ad2c:	2807883a 	mov	r3,r5
 100ad30:	2011883a 	mov	r8,r4
 100ad34:	29000c2e 	bgeu	r5,r4,100ad68 <memmove+0x3c>
 100ad38:	298f883a 	add	r7,r5,r6
 100ad3c:	21c00a2e 	bgeu	r4,r7,100ad68 <memmove+0x3c>
 100ad40:	30000726 	beq	r6,zero,100ad60 <memmove+0x34>
 100ad44:	2187883a 	add	r3,r4,r6
 100ad48:	198dc83a 	sub	r6,r3,r6
 100ad4c:	39ffffc4 	addi	r7,r7,-1
 100ad50:	38800003 	ldbu	r2,0(r7)
 100ad54:	18ffffc4 	addi	r3,r3,-1
 100ad58:	18800005 	stb	r2,0(r3)
 100ad5c:	19bffb1e 	bne	r3,r6,100ad4c <memmove+0x20>
 100ad60:	2005883a 	mov	r2,r4
 100ad64:	f800283a 	ret
 100ad68:	01c003c4 	movi	r7,15
 100ad6c:	39800a36 	bltu	r7,r6,100ad98 <memmove+0x6c>
 100ad70:	303ffb26 	beq	r6,zero,100ad60 <memmove+0x34>
 100ad74:	400f883a 	mov	r7,r8
 100ad78:	320d883a 	add	r6,r6,r8
 100ad7c:	28800003 	ldbu	r2,0(r5)
 100ad80:	29400044 	addi	r5,r5,1
 100ad84:	38800005 	stb	r2,0(r7)
 100ad88:	39c00044 	addi	r7,r7,1
 100ad8c:	39bffb1e 	bne	r7,r6,100ad7c <memmove+0x50>
 100ad90:	2005883a 	mov	r2,r4
 100ad94:	f800283a 	ret
 100ad98:	1904b03a 	or	r2,r3,r4
 100ad9c:	108000cc 	andi	r2,r2,3
 100ada0:	103ff31e 	bne	r2,zero,100ad70 <memmove+0x44>
 100ada4:	3811883a 	mov	r8,r7
 100ada8:	180b883a 	mov	r5,r3
 100adac:	200f883a 	mov	r7,r4
 100adb0:	28c00017 	ldw	r3,0(r5)
 100adb4:	31bffc04 	addi	r6,r6,-16
 100adb8:	38c00015 	stw	r3,0(r7)
 100adbc:	28800117 	ldw	r2,4(r5)
 100adc0:	38800115 	stw	r2,4(r7)
 100adc4:	28c00217 	ldw	r3,8(r5)
 100adc8:	38c00215 	stw	r3,8(r7)
 100adcc:	28800317 	ldw	r2,12(r5)
 100add0:	29400404 	addi	r5,r5,16
 100add4:	38800315 	stw	r2,12(r7)
 100add8:	39c00404 	addi	r7,r7,16
 100addc:	41bff436 	bltu	r8,r6,100adb0 <memmove+0x84>
 100ade0:	008000c4 	movi	r2,3
 100ade4:	1180072e 	bgeu	r2,r6,100ae04 <memmove+0xd8>
 100ade8:	1007883a 	mov	r3,r2
 100adec:	28800017 	ldw	r2,0(r5)
 100adf0:	31bfff04 	addi	r6,r6,-4
 100adf4:	29400104 	addi	r5,r5,4
 100adf8:	38800015 	stw	r2,0(r7)
 100adfc:	39c00104 	addi	r7,r7,4
 100ae00:	19bffa36 	bltu	r3,r6,100adec <memmove+0xc0>
 100ae04:	3811883a 	mov	r8,r7
 100ae08:	003fd906 	br	100ad70 <memmove+0x44>

0100ae0c <_Bfree>:
 100ae0c:	28000826 	beq	r5,zero,100ae30 <_Bfree+0x24>
 100ae10:	28800117 	ldw	r2,4(r5)
 100ae14:	21001317 	ldw	r4,76(r4)
 100ae18:	1085883a 	add	r2,r2,r2
 100ae1c:	1085883a 	add	r2,r2,r2
 100ae20:	1105883a 	add	r2,r2,r4
 100ae24:	10c00017 	ldw	r3,0(r2)
 100ae28:	28c00015 	stw	r3,0(r5)
 100ae2c:	11400015 	stw	r5,0(r2)
 100ae30:	f800283a 	ret

0100ae34 <__hi0bits>:
 100ae34:	20bfffec 	andhi	r2,r4,65535
 100ae38:	10001426 	beq	r2,zero,100ae8c <__hi0bits+0x58>
 100ae3c:	0007883a 	mov	r3,zero
 100ae40:	20bfc02c 	andhi	r2,r4,65280
 100ae44:	1000021e 	bne	r2,zero,100ae50 <__hi0bits+0x1c>
 100ae48:	2008923a 	slli	r4,r4,8
 100ae4c:	18c00204 	addi	r3,r3,8
 100ae50:	20bc002c 	andhi	r2,r4,61440
 100ae54:	1000021e 	bne	r2,zero,100ae60 <__hi0bits+0x2c>
 100ae58:	2008913a 	slli	r4,r4,4
 100ae5c:	18c00104 	addi	r3,r3,4
 100ae60:	20b0002c 	andhi	r2,r4,49152
 100ae64:	1000031e 	bne	r2,zero,100ae74 <__hi0bits+0x40>
 100ae68:	2105883a 	add	r2,r4,r4
 100ae6c:	18c00084 	addi	r3,r3,2
 100ae70:	1089883a 	add	r4,r2,r2
 100ae74:	20000316 	blt	r4,zero,100ae84 <__hi0bits+0x50>
 100ae78:	2090002c 	andhi	r2,r4,16384
 100ae7c:	10000626 	beq	r2,zero,100ae98 <__hi0bits+0x64>
 100ae80:	18c00044 	addi	r3,r3,1
 100ae84:	1805883a 	mov	r2,r3
 100ae88:	f800283a 	ret
 100ae8c:	2008943a 	slli	r4,r4,16
 100ae90:	00c00404 	movi	r3,16
 100ae94:	003fea06 	br	100ae40 <__hi0bits+0xc>
 100ae98:	00c00804 	movi	r3,32
 100ae9c:	1805883a 	mov	r2,r3
 100aea0:	f800283a 	ret

0100aea4 <__lo0bits>:
 100aea4:	20c00017 	ldw	r3,0(r4)
 100aea8:	188001cc 	andi	r2,r3,7
 100aeac:	10000a26 	beq	r2,zero,100aed8 <__lo0bits+0x34>
 100aeb0:	1880004c 	andi	r2,r3,1
 100aeb4:	1005003a 	cmpeq	r2,r2,zero
 100aeb8:	10002126 	beq	r2,zero,100af40 <__lo0bits+0x9c>
 100aebc:	1880008c 	andi	r2,r3,2
 100aec0:	1000251e 	bne	r2,zero,100af58 <__lo0bits+0xb4>
 100aec4:	1804d0ba 	srli	r2,r3,2
 100aec8:	01400084 	movi	r5,2
 100aecc:	20800015 	stw	r2,0(r4)
 100aed0:	2805883a 	mov	r2,r5
 100aed4:	f800283a 	ret
 100aed8:	18bfffcc 	andi	r2,r3,65535
 100aedc:	10001526 	beq	r2,zero,100af34 <__lo0bits+0x90>
 100aee0:	000b883a 	mov	r5,zero
 100aee4:	18803fcc 	andi	r2,r3,255
 100aee8:	1000021e 	bne	r2,zero,100aef4 <__lo0bits+0x50>
 100aeec:	1806d23a 	srli	r3,r3,8
 100aef0:	29400204 	addi	r5,r5,8
 100aef4:	188003cc 	andi	r2,r3,15
 100aef8:	1000021e 	bne	r2,zero,100af04 <__lo0bits+0x60>
 100aefc:	1806d13a 	srli	r3,r3,4
 100af00:	29400104 	addi	r5,r5,4
 100af04:	188000cc 	andi	r2,r3,3
 100af08:	1000021e 	bne	r2,zero,100af14 <__lo0bits+0x70>
 100af0c:	1806d0ba 	srli	r3,r3,2
 100af10:	29400084 	addi	r5,r5,2
 100af14:	1880004c 	andi	r2,r3,1
 100af18:	1000031e 	bne	r2,zero,100af28 <__lo0bits+0x84>
 100af1c:	1806d07a 	srli	r3,r3,1
 100af20:	18000a26 	beq	r3,zero,100af4c <__lo0bits+0xa8>
 100af24:	29400044 	addi	r5,r5,1
 100af28:	2805883a 	mov	r2,r5
 100af2c:	20c00015 	stw	r3,0(r4)
 100af30:	f800283a 	ret
 100af34:	1806d43a 	srli	r3,r3,16
 100af38:	01400404 	movi	r5,16
 100af3c:	003fe906 	br	100aee4 <__lo0bits+0x40>
 100af40:	000b883a 	mov	r5,zero
 100af44:	2805883a 	mov	r2,r5
 100af48:	f800283a 	ret
 100af4c:	01400804 	movi	r5,32
 100af50:	2805883a 	mov	r2,r5
 100af54:	f800283a 	ret
 100af58:	1804d07a 	srli	r2,r3,1
 100af5c:	01400044 	movi	r5,1
 100af60:	20800015 	stw	r2,0(r4)
 100af64:	003fda06 	br	100aed0 <__lo0bits+0x2c>

0100af68 <__mcmp>:
 100af68:	20800417 	ldw	r2,16(r4)
 100af6c:	28c00417 	ldw	r3,16(r5)
 100af70:	10cfc83a 	sub	r7,r2,r3
 100af74:	38000c1e 	bne	r7,zero,100afa8 <__mcmp+0x40>
 100af78:	18c5883a 	add	r2,r3,r3
 100af7c:	1085883a 	add	r2,r2,r2
 100af80:	10c00504 	addi	r3,r2,20
 100af84:	21000504 	addi	r4,r4,20
 100af88:	28cb883a 	add	r5,r5,r3
 100af8c:	2085883a 	add	r2,r4,r2
 100af90:	10bfff04 	addi	r2,r2,-4
 100af94:	297fff04 	addi	r5,r5,-4
 100af98:	11800017 	ldw	r6,0(r2)
 100af9c:	28c00017 	ldw	r3,0(r5)
 100afa0:	30c0031e 	bne	r6,r3,100afb0 <__mcmp+0x48>
 100afa4:	20bffa36 	bltu	r4,r2,100af90 <__mcmp+0x28>
 100afa8:	3805883a 	mov	r2,r7
 100afac:	f800283a 	ret
 100afb0:	30c00336 	bltu	r6,r3,100afc0 <__mcmp+0x58>
 100afb4:	01c00044 	movi	r7,1
 100afb8:	3805883a 	mov	r2,r7
 100afbc:	f800283a 	ret
 100afc0:	01ffffc4 	movi	r7,-1
 100afc4:	003ff806 	br	100afa8 <__mcmp+0x40>

0100afc8 <__ulp>:
 100afc8:	295ffc2c 	andhi	r5,r5,32752
 100afcc:	013f3034 	movhi	r4,64704
 100afd0:	290b883a 	add	r5,r5,r4
 100afd4:	0145c83a 	sub	r2,zero,r5
 100afd8:	1007d53a 	srai	r3,r2,20
 100afdc:	000d883a 	mov	r6,zero
 100afe0:	0140040e 	bge	zero,r5,100aff4 <__ulp+0x2c>
 100afe4:	280f883a 	mov	r7,r5
 100afe8:	3807883a 	mov	r3,r7
 100afec:	3005883a 	mov	r2,r6
 100aff0:	f800283a 	ret
 100aff4:	008004c4 	movi	r2,19
 100aff8:	193ffb04 	addi	r4,r3,-20
 100affc:	10c00c0e 	bge	r2,r3,100b030 <__ulp+0x68>
 100b000:	008007c4 	movi	r2,31
 100b004:	1107c83a 	sub	r3,r2,r4
 100b008:	00800784 	movi	r2,30
 100b00c:	01400044 	movi	r5,1
 100b010:	11000216 	blt	r2,r4,100b01c <__ulp+0x54>
 100b014:	00800044 	movi	r2,1
 100b018:	10ca983a 	sll	r5,r2,r3
 100b01c:	000f883a 	mov	r7,zero
 100b020:	280d883a 	mov	r6,r5
 100b024:	3807883a 	mov	r3,r7
 100b028:	3005883a 	mov	r2,r6
 100b02c:	f800283a 	ret
 100b030:	00800234 	movhi	r2,8
 100b034:	10cfd83a 	sra	r7,r2,r3
 100b038:	000d883a 	mov	r6,zero
 100b03c:	3005883a 	mov	r2,r6
 100b040:	3807883a 	mov	r3,r7
 100b044:	f800283a 	ret

0100b048 <__b2d>:
 100b048:	20800417 	ldw	r2,16(r4)
 100b04c:	defff904 	addi	sp,sp,-28
 100b050:	dd000415 	stw	r20,16(sp)
 100b054:	1085883a 	add	r2,r2,r2
 100b058:	25000504 	addi	r20,r4,20
 100b05c:	1085883a 	add	r2,r2,r2
 100b060:	dc000015 	stw	r16,0(sp)
 100b064:	a0a1883a 	add	r16,r20,r2
 100b068:	dd400515 	stw	r21,20(sp)
 100b06c:	857fff17 	ldw	r21,-4(r16)
 100b070:	dc400115 	stw	r17,4(sp)
 100b074:	dfc00615 	stw	ra,24(sp)
 100b078:	a809883a 	mov	r4,r21
 100b07c:	2823883a 	mov	r17,r5
 100b080:	dcc00315 	stw	r19,12(sp)
 100b084:	dc800215 	stw	r18,8(sp)
 100b088:	100ae340 	call	100ae34 <__hi0bits>
 100b08c:	100b883a 	mov	r5,r2
 100b090:	00800804 	movi	r2,32
 100b094:	1145c83a 	sub	r2,r2,r5
 100b098:	88800015 	stw	r2,0(r17)
 100b09c:	00800284 	movi	r2,10
 100b0a0:	80ffff04 	addi	r3,r16,-4
 100b0a4:	11401416 	blt	r2,r5,100b0f8 <__b2d+0xb0>
 100b0a8:	008002c4 	movi	r2,11
 100b0ac:	1149c83a 	sub	r4,r2,r5
 100b0b0:	a0c02736 	bltu	r20,r3,100b150 <__b2d+0x108>
 100b0b4:	000d883a 	mov	r6,zero
 100b0b8:	28800544 	addi	r2,r5,21
 100b0bc:	a906d83a 	srl	r3,r21,r4
 100b0c0:	a884983a 	sll	r2,r21,r2
 100b0c4:	1ccffc34 	orhi	r19,r3,16368
 100b0c8:	11a4b03a 	or	r18,r2,r6
 100b0cc:	9005883a 	mov	r2,r18
 100b0d0:	9807883a 	mov	r3,r19
 100b0d4:	dfc00617 	ldw	ra,24(sp)
 100b0d8:	dd400517 	ldw	r21,20(sp)
 100b0dc:	dd000417 	ldw	r20,16(sp)
 100b0e0:	dcc00317 	ldw	r19,12(sp)
 100b0e4:	dc800217 	ldw	r18,8(sp)
 100b0e8:	dc400117 	ldw	r17,4(sp)
 100b0ec:	dc000017 	ldw	r16,0(sp)
 100b0f0:	dec00704 	addi	sp,sp,28
 100b0f4:	f800283a 	ret
 100b0f8:	a0c00e36 	bltu	r20,r3,100b134 <__b2d+0xec>
 100b0fc:	293ffd44 	addi	r4,r5,-11
 100b100:	000d883a 	mov	r6,zero
 100b104:	20000f26 	beq	r4,zero,100b144 <__b2d+0xfc>
 100b108:	00800804 	movi	r2,32
 100b10c:	110bc83a 	sub	r5,r2,r4
 100b110:	a0c01236 	bltu	r20,r3,100b15c <__b2d+0x114>
 100b114:	000f883a 	mov	r7,zero
 100b118:	a904983a 	sll	r2,r21,r4
 100b11c:	3146d83a 	srl	r3,r6,r5
 100b120:	3108983a 	sll	r4,r6,r4
 100b124:	108ffc34 	orhi	r2,r2,16368
 100b128:	18a6b03a 	or	r19,r3,r2
 100b12c:	3924b03a 	or	r18,r7,r4
 100b130:	003fe606 	br	100b0cc <__b2d+0x84>
 100b134:	293ffd44 	addi	r4,r5,-11
 100b138:	81bffe17 	ldw	r6,-8(r16)
 100b13c:	80fffe04 	addi	r3,r16,-8
 100b140:	203ff11e 	bne	r4,zero,100b108 <__b2d+0xc0>
 100b144:	accffc34 	orhi	r19,r21,16368
 100b148:	3025883a 	mov	r18,r6
 100b14c:	003fdf06 	br	100b0cc <__b2d+0x84>
 100b150:	18bfff17 	ldw	r2,-4(r3)
 100b154:	110cd83a 	srl	r6,r2,r4
 100b158:	003fd706 	br	100b0b8 <__b2d+0x70>
 100b15c:	18bfff17 	ldw	r2,-4(r3)
 100b160:	114ed83a 	srl	r7,r2,r5
 100b164:	003fec06 	br	100b118 <__b2d+0xd0>

0100b168 <__ratio>:
 100b168:	defff904 	addi	sp,sp,-28
 100b16c:	dc400215 	stw	r17,8(sp)
 100b170:	2823883a 	mov	r17,r5
 100b174:	d80b883a 	mov	r5,sp
 100b178:	dfc00615 	stw	ra,24(sp)
 100b17c:	dd000515 	stw	r20,20(sp)
 100b180:	dcc00415 	stw	r19,16(sp)
 100b184:	dc800315 	stw	r18,12(sp)
 100b188:	2025883a 	mov	r18,r4
 100b18c:	100b0480 	call	100b048 <__b2d>
 100b190:	8809883a 	mov	r4,r17
 100b194:	d9400104 	addi	r5,sp,4
 100b198:	1027883a 	mov	r19,r2
 100b19c:	1829883a 	mov	r20,r3
 100b1a0:	100b0480 	call	100b048 <__b2d>
 100b1a4:	89000417 	ldw	r4,16(r17)
 100b1a8:	91c00417 	ldw	r7,16(r18)
 100b1ac:	d9800117 	ldw	r6,4(sp)
 100b1b0:	180b883a 	mov	r5,r3
 100b1b4:	390fc83a 	sub	r7,r7,r4
 100b1b8:	1009883a 	mov	r4,r2
 100b1bc:	d8800017 	ldw	r2,0(sp)
 100b1c0:	380e917a 	slli	r7,r7,5
 100b1c4:	2011883a 	mov	r8,r4
 100b1c8:	1185c83a 	sub	r2,r2,r6
 100b1cc:	11c5883a 	add	r2,r2,r7
 100b1d0:	1006953a 	slli	r3,r2,20
 100b1d4:	2813883a 	mov	r9,r5
 100b1d8:	00800d0e 	bge	zero,r2,100b210 <__ratio+0xa8>
 100b1dc:	1d29883a 	add	r20,r3,r20
 100b1e0:	a00b883a 	mov	r5,r20
 100b1e4:	480f883a 	mov	r7,r9
 100b1e8:	9809883a 	mov	r4,r19
 100b1ec:	400d883a 	mov	r6,r8
 100b1f0:	100f6480 	call	100f648 <__divdf3>
 100b1f4:	dfc00617 	ldw	ra,24(sp)
 100b1f8:	dd000517 	ldw	r20,20(sp)
 100b1fc:	dcc00417 	ldw	r19,16(sp)
 100b200:	dc800317 	ldw	r18,12(sp)
 100b204:	dc400217 	ldw	r17,8(sp)
 100b208:	dec00704 	addi	sp,sp,28
 100b20c:	f800283a 	ret
 100b210:	28d3c83a 	sub	r9,r5,r3
 100b214:	003ff206 	br	100b1e0 <__ratio+0x78>

0100b218 <_mprec_log10>:
 100b218:	defffe04 	addi	sp,sp,-8
 100b21c:	008005c4 	movi	r2,23
 100b220:	dc000015 	stw	r16,0(sp)
 100b224:	dfc00115 	stw	ra,4(sp)
 100b228:	2021883a 	mov	r16,r4
 100b22c:	11000c16 	blt	r2,r4,100b260 <_mprec_log10+0x48>
 100b230:	200490fa 	slli	r2,r4,3
 100b234:	00c04074 	movhi	r3,257
 100b238:	18cf0604 	addi	r3,r3,15384
 100b23c:	10c5883a 	add	r2,r2,r3
 100b240:	12400117 	ldw	r9,4(r2)
 100b244:	12000017 	ldw	r8,0(r2)
 100b248:	4807883a 	mov	r3,r9
 100b24c:	4005883a 	mov	r2,r8
 100b250:	dfc00117 	ldw	ra,4(sp)
 100b254:	dc000017 	ldw	r16,0(sp)
 100b258:	dec00204 	addi	sp,sp,8
 100b25c:	f800283a 	ret
 100b260:	0011883a 	mov	r8,zero
 100b264:	024ffc34 	movhi	r9,16368
 100b268:	0005883a 	mov	r2,zero
 100b26c:	00d00934 	movhi	r3,16420
 100b270:	480b883a 	mov	r5,r9
 100b274:	4009883a 	mov	r4,r8
 100b278:	180f883a 	mov	r7,r3
 100b27c:	100d883a 	mov	r6,r2
 100b280:	100f2840 	call	100f284 <__muldf3>
 100b284:	843fffc4 	addi	r16,r16,-1
 100b288:	1011883a 	mov	r8,r2
 100b28c:	1813883a 	mov	r9,r3
 100b290:	803ff51e 	bne	r16,zero,100b268 <_mprec_log10+0x50>
 100b294:	4005883a 	mov	r2,r8
 100b298:	4807883a 	mov	r3,r9
 100b29c:	dfc00117 	ldw	ra,4(sp)
 100b2a0:	dc000017 	ldw	r16,0(sp)
 100b2a4:	dec00204 	addi	sp,sp,8
 100b2a8:	f800283a 	ret

0100b2ac <__copybits>:
 100b2ac:	297fffc4 	addi	r5,r5,-1
 100b2b0:	30800417 	ldw	r2,16(r6)
 100b2b4:	280bd17a 	srai	r5,r5,5
 100b2b8:	31800504 	addi	r6,r6,20
 100b2bc:	1085883a 	add	r2,r2,r2
 100b2c0:	294b883a 	add	r5,r5,r5
 100b2c4:	294b883a 	add	r5,r5,r5
 100b2c8:	1085883a 	add	r2,r2,r2
 100b2cc:	290b883a 	add	r5,r5,r4
 100b2d0:	3087883a 	add	r3,r6,r2
 100b2d4:	29400104 	addi	r5,r5,4
 100b2d8:	30c0052e 	bgeu	r6,r3,100b2f0 <__copybits+0x44>
 100b2dc:	30800017 	ldw	r2,0(r6)
 100b2e0:	31800104 	addi	r6,r6,4
 100b2e4:	20800015 	stw	r2,0(r4)
 100b2e8:	21000104 	addi	r4,r4,4
 100b2ec:	30fffb36 	bltu	r6,r3,100b2dc <__copybits+0x30>
 100b2f0:	2140032e 	bgeu	r4,r5,100b300 <__copybits+0x54>
 100b2f4:	20000015 	stw	zero,0(r4)
 100b2f8:	21000104 	addi	r4,r4,4
 100b2fc:	217ffd36 	bltu	r4,r5,100b2f4 <__copybits+0x48>
 100b300:	f800283a 	ret

0100b304 <__any_on>:
 100b304:	20800417 	ldw	r2,16(r4)
 100b308:	2807d17a 	srai	r3,r5,5
 100b30c:	21000504 	addi	r4,r4,20
 100b310:	10c00d0e 	bge	r2,r3,100b348 <__any_on+0x44>
 100b314:	1085883a 	add	r2,r2,r2
 100b318:	1085883a 	add	r2,r2,r2
 100b31c:	208d883a 	add	r6,r4,r2
 100b320:	2180182e 	bgeu	r4,r6,100b384 <__any_on+0x80>
 100b324:	30bfff17 	ldw	r2,-4(r6)
 100b328:	30ffff04 	addi	r3,r6,-4
 100b32c:	1000041e 	bne	r2,zero,100b340 <__any_on+0x3c>
 100b330:	20c0142e 	bgeu	r4,r3,100b384 <__any_on+0x80>
 100b334:	18ffff04 	addi	r3,r3,-4
 100b338:	18800017 	ldw	r2,0(r3)
 100b33c:	103ffc26 	beq	r2,zero,100b330 <__any_on+0x2c>
 100b340:	00800044 	movi	r2,1
 100b344:	f800283a 	ret
 100b348:	18800a0e 	bge	r3,r2,100b374 <__any_on+0x70>
 100b34c:	294007cc 	andi	r5,r5,31
 100b350:	28000826 	beq	r5,zero,100b374 <__any_on+0x70>
 100b354:	18c5883a 	add	r2,r3,r3
 100b358:	1085883a 	add	r2,r2,r2
 100b35c:	208d883a 	add	r6,r4,r2
 100b360:	30c00017 	ldw	r3,0(r6)
 100b364:	1944d83a 	srl	r2,r3,r5
 100b368:	1144983a 	sll	r2,r2,r5
 100b36c:	18bff41e 	bne	r3,r2,100b340 <__any_on+0x3c>
 100b370:	003feb06 	br	100b320 <__any_on+0x1c>
 100b374:	18c5883a 	add	r2,r3,r3
 100b378:	1085883a 	add	r2,r2,r2
 100b37c:	208d883a 	add	r6,r4,r2
 100b380:	003fe706 	br	100b320 <__any_on+0x1c>
 100b384:	0005883a 	mov	r2,zero
 100b388:	f800283a 	ret

0100b38c <_Balloc>:
 100b38c:	20c01317 	ldw	r3,76(r4)
 100b390:	defffb04 	addi	sp,sp,-20
 100b394:	dcc00315 	stw	r19,12(sp)
 100b398:	dc800215 	stw	r18,8(sp)
 100b39c:	dfc00415 	stw	ra,16(sp)
 100b3a0:	2825883a 	mov	r18,r5
 100b3a4:	dc400115 	stw	r17,4(sp)
 100b3a8:	dc000015 	stw	r16,0(sp)
 100b3ac:	2027883a 	mov	r19,r4
 100b3b0:	01800404 	movi	r6,16
 100b3b4:	01400104 	movi	r5,4
 100b3b8:	18001726 	beq	r3,zero,100b418 <_Balloc+0x8c>
 100b3bc:	01400044 	movi	r5,1
 100b3c0:	9485883a 	add	r2,r18,r18
 100b3c4:	2ca2983a 	sll	r17,r5,r18
 100b3c8:	1085883a 	add	r2,r2,r2
 100b3cc:	10c7883a 	add	r3,r2,r3
 100b3d0:	1c000017 	ldw	r16,0(r3)
 100b3d4:	8c4d883a 	add	r6,r17,r17
 100b3d8:	318d883a 	add	r6,r6,r6
 100b3dc:	9809883a 	mov	r4,r19
 100b3e0:	31800504 	addi	r6,r6,20
 100b3e4:	80001226 	beq	r16,zero,100b430 <_Balloc+0xa4>
 100b3e8:	80800017 	ldw	r2,0(r16)
 100b3ec:	18800015 	stw	r2,0(r3)
 100b3f0:	80000415 	stw	zero,16(r16)
 100b3f4:	80000315 	stw	zero,12(r16)
 100b3f8:	8005883a 	mov	r2,r16
 100b3fc:	dfc00417 	ldw	ra,16(sp)
 100b400:	dcc00317 	ldw	r19,12(sp)
 100b404:	dc800217 	ldw	r18,8(sp)
 100b408:	dc400117 	ldw	r17,4(sp)
 100b40c:	dc000017 	ldw	r16,0(sp)
 100b410:	dec00504 	addi	sp,sp,20
 100b414:	f800283a 	ret
 100b418:	10054600 	call	1005460 <_calloc_r>
 100b41c:	1007883a 	mov	r3,r2
 100b420:	0021883a 	mov	r16,zero
 100b424:	98801315 	stw	r2,76(r19)
 100b428:	103fe41e 	bne	r2,zero,100b3bc <_Balloc+0x30>
 100b42c:	003ff206 	br	100b3f8 <_Balloc+0x6c>
 100b430:	10054600 	call	1005460 <_calloc_r>
 100b434:	103ff026 	beq	r2,zero,100b3f8 <_Balloc+0x6c>
 100b438:	1021883a 	mov	r16,r2
 100b43c:	14800115 	stw	r18,4(r2)
 100b440:	14400215 	stw	r17,8(r2)
 100b444:	003fea06 	br	100b3f0 <_Balloc+0x64>

0100b448 <__d2b>:
 100b448:	defff504 	addi	sp,sp,-44
 100b44c:	dcc00515 	stw	r19,20(sp)
 100b450:	04c00044 	movi	r19,1
 100b454:	dc000215 	stw	r16,8(sp)
 100b458:	2821883a 	mov	r16,r5
 100b45c:	980b883a 	mov	r5,r19
 100b460:	ddc00915 	stw	r23,36(sp)
 100b464:	dd800815 	stw	r22,32(sp)
 100b468:	dd400715 	stw	r21,28(sp)
 100b46c:	dd000615 	stw	r20,24(sp)
 100b470:	dc800415 	stw	r18,16(sp)
 100b474:	dc400315 	stw	r17,12(sp)
 100b478:	dfc00a15 	stw	ra,40(sp)
 100b47c:	3023883a 	mov	r17,r6
 100b480:	382d883a 	mov	r22,r7
 100b484:	ddc00b17 	ldw	r23,44(sp)
 100b488:	100b38c0 	call	100b38c <_Balloc>
 100b48c:	1025883a 	mov	r18,r2
 100b490:	00a00034 	movhi	r2,32768
 100b494:	10bfffc4 	addi	r2,r2,-1
 100b498:	8888703a 	and	r4,r17,r2
 100b49c:	202ad53a 	srli	r21,r4,20
 100b4a0:	00800434 	movhi	r2,16
 100b4a4:	10bfffc4 	addi	r2,r2,-1
 100b4a8:	8886703a 	and	r3,r17,r2
 100b4ac:	a829003a 	cmpeq	r20,r21,zero
 100b4b0:	800b883a 	mov	r5,r16
 100b4b4:	d8c00115 	stw	r3,4(sp)
 100b4b8:	94000504 	addi	r16,r18,20
 100b4bc:	a000021e 	bne	r20,zero,100b4c8 <__d2b+0x80>
 100b4c0:	18c00434 	orhi	r3,r3,16
 100b4c4:	d8c00115 	stw	r3,4(sp)
 100b4c8:	28002726 	beq	r5,zero,100b568 <__d2b+0x120>
 100b4cc:	d809883a 	mov	r4,sp
 100b4d0:	d9400015 	stw	r5,0(sp)
 100b4d4:	100aea40 	call	100aea4 <__lo0bits>
 100b4d8:	100d883a 	mov	r6,r2
 100b4dc:	10003526 	beq	r2,zero,100b5b4 <__d2b+0x16c>
 100b4e0:	d8c00117 	ldw	r3,4(sp)
 100b4e4:	00800804 	movi	r2,32
 100b4e8:	1185c83a 	sub	r2,r2,r6
 100b4ec:	d9000017 	ldw	r4,0(sp)
 100b4f0:	1886983a 	sll	r3,r3,r2
 100b4f4:	1906b03a 	or	r3,r3,r4
 100b4f8:	90c00515 	stw	r3,20(r18)
 100b4fc:	d8c00117 	ldw	r3,4(sp)
 100b500:	1986d83a 	srl	r3,r3,r6
 100b504:	d8c00115 	stw	r3,4(sp)
 100b508:	180b003a 	cmpeq	r5,r3,zero
 100b50c:	00800084 	movi	r2,2
 100b510:	114bc83a 	sub	r5,r2,r5
 100b514:	80c00115 	stw	r3,4(r16)
 100b518:	91400415 	stw	r5,16(r18)
 100b51c:	a0001a1e 	bne	r20,zero,100b588 <__d2b+0x140>
 100b520:	3545883a 	add	r2,r6,r21
 100b524:	10bef344 	addi	r2,r2,-1075
 100b528:	00c00d44 	movi	r3,53
 100b52c:	b0800015 	stw	r2,0(r22)
 100b530:	1987c83a 	sub	r3,r3,r6
 100b534:	b8c00015 	stw	r3,0(r23)
 100b538:	9005883a 	mov	r2,r18
 100b53c:	dfc00a17 	ldw	ra,40(sp)
 100b540:	ddc00917 	ldw	r23,36(sp)
 100b544:	dd800817 	ldw	r22,32(sp)
 100b548:	dd400717 	ldw	r21,28(sp)
 100b54c:	dd000617 	ldw	r20,24(sp)
 100b550:	dcc00517 	ldw	r19,20(sp)
 100b554:	dc800417 	ldw	r18,16(sp)
 100b558:	dc400317 	ldw	r17,12(sp)
 100b55c:	dc000217 	ldw	r16,8(sp)
 100b560:	dec00b04 	addi	sp,sp,44
 100b564:	f800283a 	ret
 100b568:	d9000104 	addi	r4,sp,4
 100b56c:	100aea40 	call	100aea4 <__lo0bits>
 100b570:	11800804 	addi	r6,r2,32
 100b574:	d8800117 	ldw	r2,4(sp)
 100b578:	94c00415 	stw	r19,16(r18)
 100b57c:	980b883a 	mov	r5,r19
 100b580:	90800515 	stw	r2,20(r18)
 100b584:	a03fe626 	beq	r20,zero,100b520 <__d2b+0xd8>
 100b588:	2945883a 	add	r2,r5,r5
 100b58c:	1085883a 	add	r2,r2,r2
 100b590:	1405883a 	add	r2,r2,r16
 100b594:	113fff17 	ldw	r4,-4(r2)
 100b598:	30fef384 	addi	r3,r6,-1074
 100b59c:	2820917a 	slli	r16,r5,5
 100b5a0:	b0c00015 	stw	r3,0(r22)
 100b5a4:	100ae340 	call	100ae34 <__hi0bits>
 100b5a8:	80a1c83a 	sub	r16,r16,r2
 100b5ac:	bc000015 	stw	r16,0(r23)
 100b5b0:	003fe106 	br	100b538 <__d2b+0xf0>
 100b5b4:	d8800017 	ldw	r2,0(sp)
 100b5b8:	90800515 	stw	r2,20(r18)
 100b5bc:	d8c00117 	ldw	r3,4(sp)
 100b5c0:	003fd106 	br	100b508 <__d2b+0xc0>

0100b5c4 <__mdiff>:
 100b5c4:	defffb04 	addi	sp,sp,-20
 100b5c8:	dc000015 	stw	r16,0(sp)
 100b5cc:	2821883a 	mov	r16,r5
 100b5d0:	dc800215 	stw	r18,8(sp)
 100b5d4:	300b883a 	mov	r5,r6
 100b5d8:	2025883a 	mov	r18,r4
 100b5dc:	8009883a 	mov	r4,r16
 100b5e0:	dc400115 	stw	r17,4(sp)
 100b5e4:	dfc00415 	stw	ra,16(sp)
 100b5e8:	dcc00315 	stw	r19,12(sp)
 100b5ec:	3023883a 	mov	r17,r6
 100b5f0:	100af680 	call	100af68 <__mcmp>
 100b5f4:	10004226 	beq	r2,zero,100b700 <__mdiff+0x13c>
 100b5f8:	10005016 	blt	r2,zero,100b73c <__mdiff+0x178>
 100b5fc:	0027883a 	mov	r19,zero
 100b600:	81400117 	ldw	r5,4(r16)
 100b604:	9009883a 	mov	r4,r18
 100b608:	100b38c0 	call	100b38c <_Balloc>
 100b60c:	1019883a 	mov	r12,r2
 100b610:	82800417 	ldw	r10,16(r16)
 100b614:	88800417 	ldw	r2,16(r17)
 100b618:	81800504 	addi	r6,r16,20
 100b61c:	5287883a 	add	r3,r10,r10
 100b620:	1085883a 	add	r2,r2,r2
 100b624:	18c7883a 	add	r3,r3,r3
 100b628:	1085883a 	add	r2,r2,r2
 100b62c:	8a000504 	addi	r8,r17,20
 100b630:	64c00315 	stw	r19,12(r12)
 100b634:	30db883a 	add	r13,r6,r3
 100b638:	4097883a 	add	r11,r8,r2
 100b63c:	61c00504 	addi	r7,r12,20
 100b640:	0013883a 	mov	r9,zero
 100b644:	31000017 	ldw	r4,0(r6)
 100b648:	41400017 	ldw	r5,0(r8)
 100b64c:	42000104 	addi	r8,r8,4
 100b650:	20bfffcc 	andi	r2,r4,65535
 100b654:	28ffffcc 	andi	r3,r5,65535
 100b658:	10c5c83a 	sub	r2,r2,r3
 100b65c:	1245883a 	add	r2,r2,r9
 100b660:	2008d43a 	srli	r4,r4,16
 100b664:	280ad43a 	srli	r5,r5,16
 100b668:	1007d43a 	srai	r3,r2,16
 100b66c:	3880000d 	sth	r2,0(r7)
 100b670:	2149c83a 	sub	r4,r4,r5
 100b674:	20c9883a 	add	r4,r4,r3
 100b678:	3900008d 	sth	r4,2(r7)
 100b67c:	31800104 	addi	r6,r6,4
 100b680:	39c00104 	addi	r7,r7,4
 100b684:	2013d43a 	srai	r9,r4,16
 100b688:	42ffee36 	bltu	r8,r11,100b644 <__mdiff+0x80>
 100b68c:	33400c2e 	bgeu	r6,r13,100b6c0 <__mdiff+0xfc>
 100b690:	30800017 	ldw	r2,0(r6)
 100b694:	31800104 	addi	r6,r6,4
 100b698:	10ffffcc 	andi	r3,r2,65535
 100b69c:	1a47883a 	add	r3,r3,r9
 100b6a0:	1004d43a 	srli	r2,r2,16
 100b6a4:	1809d43a 	srai	r4,r3,16
 100b6a8:	38c0000d 	sth	r3,0(r7)
 100b6ac:	1105883a 	add	r2,r2,r4
 100b6b0:	3880008d 	sth	r2,2(r7)
 100b6b4:	1013d43a 	srai	r9,r2,16
 100b6b8:	39c00104 	addi	r7,r7,4
 100b6bc:	337ff436 	bltu	r6,r13,100b690 <__mdiff+0xcc>
 100b6c0:	38bfff17 	ldw	r2,-4(r7)
 100b6c4:	38ffff04 	addi	r3,r7,-4
 100b6c8:	1000041e 	bne	r2,zero,100b6dc <__mdiff+0x118>
 100b6cc:	18ffff04 	addi	r3,r3,-4
 100b6d0:	18800017 	ldw	r2,0(r3)
 100b6d4:	52bfffc4 	addi	r10,r10,-1
 100b6d8:	103ffc26 	beq	r2,zero,100b6cc <__mdiff+0x108>
 100b6dc:	6005883a 	mov	r2,r12
 100b6e0:	62800415 	stw	r10,16(r12)
 100b6e4:	dfc00417 	ldw	ra,16(sp)
 100b6e8:	dcc00317 	ldw	r19,12(sp)
 100b6ec:	dc800217 	ldw	r18,8(sp)
 100b6f0:	dc400117 	ldw	r17,4(sp)
 100b6f4:	dc000017 	ldw	r16,0(sp)
 100b6f8:	dec00504 	addi	sp,sp,20
 100b6fc:	f800283a 	ret
 100b700:	9009883a 	mov	r4,r18
 100b704:	000b883a 	mov	r5,zero
 100b708:	100b38c0 	call	100b38c <_Balloc>
 100b70c:	1019883a 	mov	r12,r2
 100b710:	00800044 	movi	r2,1
 100b714:	60800415 	stw	r2,16(r12)
 100b718:	6005883a 	mov	r2,r12
 100b71c:	60000515 	stw	zero,20(r12)
 100b720:	dfc00417 	ldw	ra,16(sp)
 100b724:	dcc00317 	ldw	r19,12(sp)
 100b728:	dc800217 	ldw	r18,8(sp)
 100b72c:	dc400117 	ldw	r17,4(sp)
 100b730:	dc000017 	ldw	r16,0(sp)
 100b734:	dec00504 	addi	sp,sp,20
 100b738:	f800283a 	ret
 100b73c:	880d883a 	mov	r6,r17
 100b740:	04c00044 	movi	r19,1
 100b744:	8023883a 	mov	r17,r16
 100b748:	3021883a 	mov	r16,r6
 100b74c:	003fac06 	br	100b600 <__mdiff+0x3c>

0100b750 <__lshift>:
 100b750:	defff904 	addi	sp,sp,-28
 100b754:	28800417 	ldw	r2,16(r5)
 100b758:	dc000015 	stw	r16,0(sp)
 100b75c:	3021d17a 	srai	r16,r6,5
 100b760:	28c00217 	ldw	r3,8(r5)
 100b764:	10800044 	addi	r2,r2,1
 100b768:	dc400115 	stw	r17,4(sp)
 100b76c:	80a3883a 	add	r17,r16,r2
 100b770:	dd400515 	stw	r21,20(sp)
 100b774:	dd000415 	stw	r20,16(sp)
 100b778:	dc800215 	stw	r18,8(sp)
 100b77c:	dfc00615 	stw	ra,24(sp)
 100b780:	2825883a 	mov	r18,r5
 100b784:	dcc00315 	stw	r19,12(sp)
 100b788:	3029883a 	mov	r20,r6
 100b78c:	202b883a 	mov	r21,r4
 100b790:	29400117 	ldw	r5,4(r5)
 100b794:	1c40030e 	bge	r3,r17,100b7a4 <__lshift+0x54>
 100b798:	18c7883a 	add	r3,r3,r3
 100b79c:	29400044 	addi	r5,r5,1
 100b7a0:	1c7ffd16 	blt	r3,r17,100b798 <__lshift+0x48>
 100b7a4:	a809883a 	mov	r4,r21
 100b7a8:	100b38c0 	call	100b38c <_Balloc>
 100b7ac:	1027883a 	mov	r19,r2
 100b7b0:	11400504 	addi	r5,r2,20
 100b7b4:	0400090e 	bge	zero,r16,100b7dc <__lshift+0x8c>
 100b7b8:	2805883a 	mov	r2,r5
 100b7bc:	0007883a 	mov	r3,zero
 100b7c0:	18c00044 	addi	r3,r3,1
 100b7c4:	10000015 	stw	zero,0(r2)
 100b7c8:	10800104 	addi	r2,r2,4
 100b7cc:	80fffc1e 	bne	r16,r3,100b7c0 <__lshift+0x70>
 100b7d0:	8405883a 	add	r2,r16,r16
 100b7d4:	1085883a 	add	r2,r2,r2
 100b7d8:	288b883a 	add	r5,r5,r2
 100b7dc:	90800417 	ldw	r2,16(r18)
 100b7e0:	91000504 	addi	r4,r18,20
 100b7e4:	a18007cc 	andi	r6,r20,31
 100b7e8:	1085883a 	add	r2,r2,r2
 100b7ec:	1085883a 	add	r2,r2,r2
 100b7f0:	208f883a 	add	r7,r4,r2
 100b7f4:	30001e26 	beq	r6,zero,100b870 <__lshift+0x120>
 100b7f8:	00800804 	movi	r2,32
 100b7fc:	1191c83a 	sub	r8,r2,r6
 100b800:	0007883a 	mov	r3,zero
 100b804:	20800017 	ldw	r2,0(r4)
 100b808:	1184983a 	sll	r2,r2,r6
 100b80c:	1884b03a 	or	r2,r3,r2
 100b810:	28800015 	stw	r2,0(r5)
 100b814:	20c00017 	ldw	r3,0(r4)
 100b818:	21000104 	addi	r4,r4,4
 100b81c:	29400104 	addi	r5,r5,4
 100b820:	1a06d83a 	srl	r3,r3,r8
 100b824:	21fff736 	bltu	r4,r7,100b804 <__lshift+0xb4>
 100b828:	28c00015 	stw	r3,0(r5)
 100b82c:	18000126 	beq	r3,zero,100b834 <__lshift+0xe4>
 100b830:	8c400044 	addi	r17,r17,1
 100b834:	88bfffc4 	addi	r2,r17,-1
 100b838:	98800415 	stw	r2,16(r19)
 100b83c:	a809883a 	mov	r4,r21
 100b840:	900b883a 	mov	r5,r18
 100b844:	100ae0c0 	call	100ae0c <_Bfree>
 100b848:	9805883a 	mov	r2,r19
 100b84c:	dfc00617 	ldw	ra,24(sp)
 100b850:	dd400517 	ldw	r21,20(sp)
 100b854:	dd000417 	ldw	r20,16(sp)
 100b858:	dcc00317 	ldw	r19,12(sp)
 100b85c:	dc800217 	ldw	r18,8(sp)
 100b860:	dc400117 	ldw	r17,4(sp)
 100b864:	dc000017 	ldw	r16,0(sp)
 100b868:	dec00704 	addi	sp,sp,28
 100b86c:	f800283a 	ret
 100b870:	20800017 	ldw	r2,0(r4)
 100b874:	21000104 	addi	r4,r4,4
 100b878:	28800015 	stw	r2,0(r5)
 100b87c:	29400104 	addi	r5,r5,4
 100b880:	21ffec2e 	bgeu	r4,r7,100b834 <__lshift+0xe4>
 100b884:	20800017 	ldw	r2,0(r4)
 100b888:	21000104 	addi	r4,r4,4
 100b88c:	28800015 	stw	r2,0(r5)
 100b890:	29400104 	addi	r5,r5,4
 100b894:	21fff636 	bltu	r4,r7,100b870 <__lshift+0x120>
 100b898:	003fe606 	br	100b834 <__lshift+0xe4>

0100b89c <__multiply>:
 100b89c:	defff904 	addi	sp,sp,-28
 100b8a0:	dcc00315 	stw	r19,12(sp)
 100b8a4:	dc800215 	stw	r18,8(sp)
 100b8a8:	2cc00417 	ldw	r19,16(r5)
 100b8ac:	34800417 	ldw	r18,16(r6)
 100b8b0:	dd000415 	stw	r20,16(sp)
 100b8b4:	dc400115 	stw	r17,4(sp)
 100b8b8:	dfc00615 	stw	ra,24(sp)
 100b8bc:	dd400515 	stw	r21,20(sp)
 100b8c0:	dc000015 	stw	r16,0(sp)
 100b8c4:	2823883a 	mov	r17,r5
 100b8c8:	3029883a 	mov	r20,r6
 100b8cc:	9c80040e 	bge	r19,r18,100b8e0 <__multiply+0x44>
 100b8d0:	9027883a 	mov	r19,r18
 100b8d4:	2c800417 	ldw	r18,16(r5)
 100b8d8:	2829883a 	mov	r20,r5
 100b8dc:	3023883a 	mov	r17,r6
 100b8e0:	88800217 	ldw	r2,8(r17)
 100b8e4:	9ca1883a 	add	r16,r19,r18
 100b8e8:	89400117 	ldw	r5,4(r17)
 100b8ec:	1400010e 	bge	r2,r16,100b8f4 <__multiply+0x58>
 100b8f0:	29400044 	addi	r5,r5,1
 100b8f4:	100b38c0 	call	100b38c <_Balloc>
 100b8f8:	102b883a 	mov	r21,r2
 100b8fc:	8405883a 	add	r2,r16,r16
 100b900:	1085883a 	add	r2,r2,r2
 100b904:	a9000504 	addi	r4,r21,20
 100b908:	209d883a 	add	r14,r4,r2
 100b90c:	2380042e 	bgeu	r4,r14,100b920 <__multiply+0x84>
 100b910:	2005883a 	mov	r2,r4
 100b914:	10000015 	stw	zero,0(r2)
 100b918:	10800104 	addi	r2,r2,4
 100b91c:	13bffd36 	bltu	r2,r14,100b914 <__multiply+0x78>
 100b920:	9485883a 	add	r2,r18,r18
 100b924:	9cc7883a 	add	r3,r19,r19
 100b928:	a1800504 	addi	r6,r20,20
 100b92c:	1085883a 	add	r2,r2,r2
 100b930:	8b400504 	addi	r13,r17,20
 100b934:	18c7883a 	add	r3,r3,r3
 100b938:	309f883a 	add	r15,r6,r2
 100b93c:	68d7883a 	add	r11,r13,r3
 100b940:	33c03b2e 	bgeu	r6,r15,100ba30 <__multiply+0x194>
 100b944:	2019883a 	mov	r12,r4
 100b948:	30800017 	ldw	r2,0(r6)
 100b94c:	127fffcc 	andi	r9,r2,65535
 100b950:	48001826 	beq	r9,zero,100b9b4 <__multiply+0x118>
 100b954:	6811883a 	mov	r8,r13
 100b958:	600f883a 	mov	r7,r12
 100b95c:	0015883a 	mov	r10,zero
 100b960:	40c00017 	ldw	r3,0(r8)
 100b964:	39400017 	ldw	r5,0(r7)
 100b968:	42000104 	addi	r8,r8,4
 100b96c:	193fffcc 	andi	r4,r3,65535
 100b970:	4909383a 	mul	r4,r9,r4
 100b974:	1806d43a 	srli	r3,r3,16
 100b978:	28bfffcc 	andi	r2,r5,65535
 100b97c:	5085883a 	add	r2,r10,r2
 100b980:	2089883a 	add	r4,r4,r2
 100b984:	48c7383a 	mul	r3,r9,r3
 100b988:	280ad43a 	srli	r5,r5,16
 100b98c:	2004d43a 	srli	r2,r4,16
 100b990:	3900000d 	sth	r4,0(r7)
 100b994:	1947883a 	add	r3,r3,r5
 100b998:	10c5883a 	add	r2,r2,r3
 100b99c:	3880008d 	sth	r2,2(r7)
 100b9a0:	1014d43a 	srli	r10,r2,16
 100b9a4:	39c00104 	addi	r7,r7,4
 100b9a8:	42ffed36 	bltu	r8,r11,100b960 <__multiply+0xc4>
 100b9ac:	3a800015 	stw	r10,0(r7)
 100b9b0:	30800017 	ldw	r2,0(r6)
 100b9b4:	1012d43a 	srli	r9,r2,16
 100b9b8:	48001926 	beq	r9,zero,100ba20 <__multiply+0x184>
 100b9bc:	60800017 	ldw	r2,0(r12)
 100b9c0:	6811883a 	mov	r8,r13
 100b9c4:	600f883a 	mov	r7,r12
 100b9c8:	0015883a 	mov	r10,zero
 100b9cc:	100b883a 	mov	r5,r2
 100b9d0:	41000017 	ldw	r4,0(r8)
 100b9d4:	2806d43a 	srli	r3,r5,16
 100b9d8:	3880000d 	sth	r2,0(r7)
 100b9dc:	20bfffcc 	andi	r2,r4,65535
 100b9e0:	4885383a 	mul	r2,r9,r2
 100b9e4:	50c7883a 	add	r3,r10,r3
 100b9e8:	2008d43a 	srli	r4,r4,16
 100b9ec:	10c5883a 	add	r2,r2,r3
 100b9f0:	3880008d 	sth	r2,2(r7)
 100b9f4:	39c00104 	addi	r7,r7,4
 100b9f8:	39400017 	ldw	r5,0(r7)
 100b9fc:	4909383a 	mul	r4,r9,r4
 100ba00:	1004d43a 	srli	r2,r2,16
 100ba04:	28ffffcc 	andi	r3,r5,65535
 100ba08:	20c9883a 	add	r4,r4,r3
 100ba0c:	1105883a 	add	r2,r2,r4
 100ba10:	42000104 	addi	r8,r8,4
 100ba14:	1014d43a 	srli	r10,r2,16
 100ba18:	42ffed36 	bltu	r8,r11,100b9d0 <__multiply+0x134>
 100ba1c:	38800015 	stw	r2,0(r7)
 100ba20:	31800104 	addi	r6,r6,4
 100ba24:	33c0022e 	bgeu	r6,r15,100ba30 <__multiply+0x194>
 100ba28:	63000104 	addi	r12,r12,4
 100ba2c:	003fc606 	br	100b948 <__multiply+0xac>
 100ba30:	0400090e 	bge	zero,r16,100ba58 <__multiply+0x1bc>
 100ba34:	70bfff17 	ldw	r2,-4(r14)
 100ba38:	70ffff04 	addi	r3,r14,-4
 100ba3c:	10000326 	beq	r2,zero,100ba4c <__multiply+0x1b0>
 100ba40:	00000506 	br	100ba58 <__multiply+0x1bc>
 100ba44:	18800017 	ldw	r2,0(r3)
 100ba48:	1000031e 	bne	r2,zero,100ba58 <__multiply+0x1bc>
 100ba4c:	843fffc4 	addi	r16,r16,-1
 100ba50:	18ffff04 	addi	r3,r3,-4
 100ba54:	803ffb1e 	bne	r16,zero,100ba44 <__multiply+0x1a8>
 100ba58:	a805883a 	mov	r2,r21
 100ba5c:	ac000415 	stw	r16,16(r21)
 100ba60:	dfc00617 	ldw	ra,24(sp)
 100ba64:	dd400517 	ldw	r21,20(sp)
 100ba68:	dd000417 	ldw	r20,16(sp)
 100ba6c:	dcc00317 	ldw	r19,12(sp)
 100ba70:	dc800217 	ldw	r18,8(sp)
 100ba74:	dc400117 	ldw	r17,4(sp)
 100ba78:	dc000017 	ldw	r16,0(sp)
 100ba7c:	dec00704 	addi	sp,sp,28
 100ba80:	f800283a 	ret

0100ba84 <__i2b>:
 100ba84:	defffd04 	addi	sp,sp,-12
 100ba88:	dc000015 	stw	r16,0(sp)
 100ba8c:	04000044 	movi	r16,1
 100ba90:	dc800115 	stw	r18,4(sp)
 100ba94:	2825883a 	mov	r18,r5
 100ba98:	800b883a 	mov	r5,r16
 100ba9c:	dfc00215 	stw	ra,8(sp)
 100baa0:	100b38c0 	call	100b38c <_Balloc>
 100baa4:	14000415 	stw	r16,16(r2)
 100baa8:	14800515 	stw	r18,20(r2)
 100baac:	dfc00217 	ldw	ra,8(sp)
 100bab0:	dc800117 	ldw	r18,4(sp)
 100bab4:	dc000017 	ldw	r16,0(sp)
 100bab8:	dec00304 	addi	sp,sp,12
 100babc:	f800283a 	ret

0100bac0 <__multadd>:
 100bac0:	defffa04 	addi	sp,sp,-24
 100bac4:	dc800215 	stw	r18,8(sp)
 100bac8:	2c800417 	ldw	r18,16(r5)
 100bacc:	dd000415 	stw	r20,16(sp)
 100bad0:	dcc00315 	stw	r19,12(sp)
 100bad4:	dc000015 	stw	r16,0(sp)
 100bad8:	dfc00515 	stw	ra,20(sp)
 100badc:	3821883a 	mov	r16,r7
 100bae0:	dc400115 	stw	r17,4(sp)
 100bae4:	2827883a 	mov	r19,r5
 100bae8:	2029883a 	mov	r20,r4
 100baec:	2a000504 	addi	r8,r5,20
 100baf0:	000f883a 	mov	r7,zero
 100baf4:	40800017 	ldw	r2,0(r8)
 100baf8:	39c00044 	addi	r7,r7,1
 100bafc:	10ffffcc 	andi	r3,r2,65535
 100bb00:	1987383a 	mul	r3,r3,r6
 100bb04:	1004d43a 	srli	r2,r2,16
 100bb08:	1c07883a 	add	r3,r3,r16
 100bb0c:	180ad43a 	srli	r5,r3,16
 100bb10:	1185383a 	mul	r2,r2,r6
 100bb14:	18ffffcc 	andi	r3,r3,65535
 100bb18:	1145883a 	add	r2,r2,r5
 100bb1c:	1008943a 	slli	r4,r2,16
 100bb20:	1020d43a 	srli	r16,r2,16
 100bb24:	20c9883a 	add	r4,r4,r3
 100bb28:	41000015 	stw	r4,0(r8)
 100bb2c:	42000104 	addi	r8,r8,4
 100bb30:	3cbff016 	blt	r7,r18,100baf4 <__multadd+0x34>
 100bb34:	80000826 	beq	r16,zero,100bb58 <__multadd+0x98>
 100bb38:	98800217 	ldw	r2,8(r19)
 100bb3c:	90800f0e 	bge	r18,r2,100bb7c <__multadd+0xbc>
 100bb40:	9485883a 	add	r2,r18,r18
 100bb44:	1085883a 	add	r2,r2,r2
 100bb48:	14c5883a 	add	r2,r2,r19
 100bb4c:	90c00044 	addi	r3,r18,1
 100bb50:	14000515 	stw	r16,20(r2)
 100bb54:	98c00415 	stw	r3,16(r19)
 100bb58:	9805883a 	mov	r2,r19
 100bb5c:	dfc00517 	ldw	ra,20(sp)
 100bb60:	dd000417 	ldw	r20,16(sp)
 100bb64:	dcc00317 	ldw	r19,12(sp)
 100bb68:	dc800217 	ldw	r18,8(sp)
 100bb6c:	dc400117 	ldw	r17,4(sp)
 100bb70:	dc000017 	ldw	r16,0(sp)
 100bb74:	dec00604 	addi	sp,sp,24
 100bb78:	f800283a 	ret
 100bb7c:	99400117 	ldw	r5,4(r19)
 100bb80:	a009883a 	mov	r4,r20
 100bb84:	29400044 	addi	r5,r5,1
 100bb88:	100b38c0 	call	100b38c <_Balloc>
 100bb8c:	99800417 	ldw	r6,16(r19)
 100bb90:	99400304 	addi	r5,r19,12
 100bb94:	11000304 	addi	r4,r2,12
 100bb98:	318d883a 	add	r6,r6,r6
 100bb9c:	318d883a 	add	r6,r6,r6
 100bba0:	31800204 	addi	r6,r6,8
 100bba4:	1023883a 	mov	r17,r2
 100bba8:	1005d200 	call	1005d20 <memcpy>
 100bbac:	980b883a 	mov	r5,r19
 100bbb0:	a009883a 	mov	r4,r20
 100bbb4:	100ae0c0 	call	100ae0c <_Bfree>
 100bbb8:	8827883a 	mov	r19,r17
 100bbbc:	003fe006 	br	100bb40 <__multadd+0x80>

0100bbc0 <__pow5mult>:
 100bbc0:	defffa04 	addi	sp,sp,-24
 100bbc4:	308000cc 	andi	r2,r6,3
 100bbc8:	dd000415 	stw	r20,16(sp)
 100bbcc:	dcc00315 	stw	r19,12(sp)
 100bbd0:	dc000015 	stw	r16,0(sp)
 100bbd4:	dfc00515 	stw	ra,20(sp)
 100bbd8:	dc800215 	stw	r18,8(sp)
 100bbdc:	dc400115 	stw	r17,4(sp)
 100bbe0:	3021883a 	mov	r16,r6
 100bbe4:	2027883a 	mov	r19,r4
 100bbe8:	2829883a 	mov	r20,r5
 100bbec:	10002b1e 	bne	r2,zero,100bc9c <__pow5mult+0xdc>
 100bbf0:	8025d0ba 	srai	r18,r16,2
 100bbf4:	90001b26 	beq	r18,zero,100bc64 <__pow5mult+0xa4>
 100bbf8:	9c001217 	ldw	r16,72(r19)
 100bbfc:	8000081e 	bne	r16,zero,100bc20 <__pow5mult+0x60>
 100bc00:	00003006 	br	100bcc4 <__pow5mult+0x104>
 100bc04:	800b883a 	mov	r5,r16
 100bc08:	800d883a 	mov	r6,r16
 100bc0c:	9809883a 	mov	r4,r19
 100bc10:	90001426 	beq	r18,zero,100bc64 <__pow5mult+0xa4>
 100bc14:	80800017 	ldw	r2,0(r16)
 100bc18:	10001b26 	beq	r2,zero,100bc88 <__pow5mult+0xc8>
 100bc1c:	1021883a 	mov	r16,r2
 100bc20:	9080004c 	andi	r2,r18,1
 100bc24:	1005003a 	cmpeq	r2,r2,zero
 100bc28:	9025d07a 	srai	r18,r18,1
 100bc2c:	800d883a 	mov	r6,r16
 100bc30:	9809883a 	mov	r4,r19
 100bc34:	a00b883a 	mov	r5,r20
 100bc38:	103ff21e 	bne	r2,zero,100bc04 <__pow5mult+0x44>
 100bc3c:	100b89c0 	call	100b89c <__multiply>
 100bc40:	a00b883a 	mov	r5,r20
 100bc44:	9809883a 	mov	r4,r19
 100bc48:	1023883a 	mov	r17,r2
 100bc4c:	100ae0c0 	call	100ae0c <_Bfree>
 100bc50:	8829883a 	mov	r20,r17
 100bc54:	800b883a 	mov	r5,r16
 100bc58:	800d883a 	mov	r6,r16
 100bc5c:	9809883a 	mov	r4,r19
 100bc60:	903fec1e 	bne	r18,zero,100bc14 <__pow5mult+0x54>
 100bc64:	a005883a 	mov	r2,r20
 100bc68:	dfc00517 	ldw	ra,20(sp)
 100bc6c:	dd000417 	ldw	r20,16(sp)
 100bc70:	dcc00317 	ldw	r19,12(sp)
 100bc74:	dc800217 	ldw	r18,8(sp)
 100bc78:	dc400117 	ldw	r17,4(sp)
 100bc7c:	dc000017 	ldw	r16,0(sp)
 100bc80:	dec00604 	addi	sp,sp,24
 100bc84:	f800283a 	ret
 100bc88:	100b89c0 	call	100b89c <__multiply>
 100bc8c:	80800015 	stw	r2,0(r16)
 100bc90:	1021883a 	mov	r16,r2
 100bc94:	10000015 	stw	zero,0(r2)
 100bc98:	003fe106 	br	100bc20 <__pow5mult+0x60>
 100bc9c:	1085883a 	add	r2,r2,r2
 100bca0:	00c04074 	movhi	r3,257
 100bca4:	18cf4c04 	addi	r3,r3,15664
 100bca8:	1085883a 	add	r2,r2,r2
 100bcac:	10c5883a 	add	r2,r2,r3
 100bcb0:	11bfff17 	ldw	r6,-4(r2)
 100bcb4:	000f883a 	mov	r7,zero
 100bcb8:	100bac00 	call	100bac0 <__multadd>
 100bcbc:	1029883a 	mov	r20,r2
 100bcc0:	003fcb06 	br	100bbf0 <__pow5mult+0x30>
 100bcc4:	9809883a 	mov	r4,r19
 100bcc8:	01409c44 	movi	r5,625
 100bccc:	100ba840 	call	100ba84 <__i2b>
 100bcd0:	98801215 	stw	r2,72(r19)
 100bcd4:	1021883a 	mov	r16,r2
 100bcd8:	10000015 	stw	zero,0(r2)
 100bcdc:	003fd006 	br	100bc20 <__pow5mult+0x60>

0100bce0 <__s2b>:
 100bce0:	defff904 	addi	sp,sp,-28
 100bce4:	dcc00315 	stw	r19,12(sp)
 100bce8:	dc800215 	stw	r18,8(sp)
 100bcec:	2827883a 	mov	r19,r5
 100bcf0:	2025883a 	mov	r18,r4
 100bcf4:	01400244 	movi	r5,9
 100bcf8:	39000204 	addi	r4,r7,8
 100bcfc:	dd000415 	stw	r20,16(sp)
 100bd00:	dc400115 	stw	r17,4(sp)
 100bd04:	dfc00615 	stw	ra,24(sp)
 100bd08:	dd400515 	stw	r21,20(sp)
 100bd0c:	dc000015 	stw	r16,0(sp)
 100bd10:	3829883a 	mov	r20,r7
 100bd14:	3023883a 	mov	r17,r6
 100bd18:	100ff280 	call	100ff28 <__divsi3>
 100bd1c:	00c00044 	movi	r3,1
 100bd20:	1880350e 	bge	r3,r2,100bdf8 <__s2b+0x118>
 100bd24:	000b883a 	mov	r5,zero
 100bd28:	18c7883a 	add	r3,r3,r3
 100bd2c:	29400044 	addi	r5,r5,1
 100bd30:	18bffd16 	blt	r3,r2,100bd28 <__s2b+0x48>
 100bd34:	9009883a 	mov	r4,r18
 100bd38:	100b38c0 	call	100b38c <_Balloc>
 100bd3c:	1011883a 	mov	r8,r2
 100bd40:	d8800717 	ldw	r2,28(sp)
 100bd44:	00c00044 	movi	r3,1
 100bd48:	01800244 	movi	r6,9
 100bd4c:	40800515 	stw	r2,20(r8)
 100bd50:	40c00415 	stw	r3,16(r8)
 100bd54:	3440260e 	bge	r6,r17,100bdf0 <__s2b+0x110>
 100bd58:	3021883a 	mov	r16,r6
 100bd5c:	99ab883a 	add	r21,r19,r6
 100bd60:	9c05883a 	add	r2,r19,r16
 100bd64:	11c00007 	ldb	r7,0(r2)
 100bd68:	400b883a 	mov	r5,r8
 100bd6c:	9009883a 	mov	r4,r18
 100bd70:	39fff404 	addi	r7,r7,-48
 100bd74:	01800284 	movi	r6,10
 100bd78:	100bac00 	call	100bac0 <__multadd>
 100bd7c:	84000044 	addi	r16,r16,1
 100bd80:	1011883a 	mov	r8,r2
 100bd84:	8c3ff61e 	bne	r17,r16,100bd60 <__s2b+0x80>
 100bd88:	ac45883a 	add	r2,r21,r17
 100bd8c:	117ffe04 	addi	r5,r2,-8
 100bd90:	880d883a 	mov	r6,r17
 100bd94:	35000c0e 	bge	r6,r20,100bdc8 <__s2b+0xe8>
 100bd98:	a185c83a 	sub	r2,r20,r6
 100bd9c:	2821883a 	mov	r16,r5
 100bda0:	28a3883a 	add	r17,r5,r2
 100bda4:	81c00007 	ldb	r7,0(r16)
 100bda8:	400b883a 	mov	r5,r8
 100bdac:	9009883a 	mov	r4,r18
 100bdb0:	39fff404 	addi	r7,r7,-48
 100bdb4:	01800284 	movi	r6,10
 100bdb8:	100bac00 	call	100bac0 <__multadd>
 100bdbc:	84000044 	addi	r16,r16,1
 100bdc0:	1011883a 	mov	r8,r2
 100bdc4:	847ff71e 	bne	r16,r17,100bda4 <__s2b+0xc4>
 100bdc8:	4005883a 	mov	r2,r8
 100bdcc:	dfc00617 	ldw	ra,24(sp)
 100bdd0:	dd400517 	ldw	r21,20(sp)
 100bdd4:	dd000417 	ldw	r20,16(sp)
 100bdd8:	dcc00317 	ldw	r19,12(sp)
 100bddc:	dc800217 	ldw	r18,8(sp)
 100bde0:	dc400117 	ldw	r17,4(sp)
 100bde4:	dc000017 	ldw	r16,0(sp)
 100bde8:	dec00704 	addi	sp,sp,28
 100bdec:	f800283a 	ret
 100bdf0:	99400284 	addi	r5,r19,10
 100bdf4:	003fe706 	br	100bd94 <__s2b+0xb4>
 100bdf8:	000b883a 	mov	r5,zero
 100bdfc:	003fcd06 	br	100bd34 <__s2b+0x54>

0100be00 <putc>:
 100be00:	defffc04 	addi	sp,sp,-16
 100be04:	dc800215 	stw	r18,8(sp)
 100be08:	04804074 	movhi	r18,257
 100be0c:	94974504 	addi	r18,r18,23828
 100be10:	90c00017 	ldw	r3,0(r18)
 100be14:	dc400115 	stw	r17,4(sp)
 100be18:	dc000015 	stw	r16,0(sp)
 100be1c:	dfc00315 	stw	ra,12(sp)
 100be20:	2023883a 	mov	r17,r4
 100be24:	2821883a 	mov	r16,r5
 100be28:	18000226 	beq	r3,zero,100be34 <putc+0x34>
 100be2c:	18800e17 	ldw	r2,56(r3)
 100be30:	10001126 	beq	r2,zero,100be78 <putc+0x78>
 100be34:	80800217 	ldw	r2,8(r16)
 100be38:	10ffffc4 	addi	r3,r2,-1
 100be3c:	80c00215 	stw	r3,8(r16)
 100be40:	18001316 	blt	r3,zero,100be90 <putc+0x90>
 100be44:	80800017 	ldw	r2,0(r16)
 100be48:	14400005 	stb	r17,0(r2)
 100be4c:	80c00017 	ldw	r3,0(r16)
 100be50:	18800044 	addi	r2,r3,1
 100be54:	18c00003 	ldbu	r3,0(r3)
 100be58:	80800015 	stw	r2,0(r16)
 100be5c:	1805883a 	mov	r2,r3
 100be60:	dfc00317 	ldw	ra,12(sp)
 100be64:	dc800217 	ldw	r18,8(sp)
 100be68:	dc400117 	ldw	r17,4(sp)
 100be6c:	dc000017 	ldw	r16,0(sp)
 100be70:	dec00404 	addi	sp,sp,16
 100be74:	f800283a 	ret
 100be78:	1809883a 	mov	r4,r3
 100be7c:	1009d3c0 	call	1009d3c <__sinit>
 100be80:	80800217 	ldw	r2,8(r16)
 100be84:	10ffffc4 	addi	r3,r2,-1
 100be88:	80c00215 	stw	r3,8(r16)
 100be8c:	183fed0e 	bge	r3,zero,100be44 <putc+0x44>
 100be90:	80800617 	ldw	r2,24(r16)
 100be94:	18800f16 	blt	r3,r2,100bed4 <putc+0xd4>
 100be98:	80800017 	ldw	r2,0(r16)
 100be9c:	14400005 	stb	r17,0(r2)
 100bea0:	81000017 	ldw	r4,0(r16)
 100bea4:	00800284 	movi	r2,10
 100bea8:	20c00003 	ldbu	r3,0(r4)
 100beac:	18801226 	beq	r3,r2,100bef8 <putc+0xf8>
 100beb0:	20800044 	addi	r2,r4,1
 100beb4:	80800015 	stw	r2,0(r16)
 100beb8:	1805883a 	mov	r2,r3
 100bebc:	dfc00317 	ldw	ra,12(sp)
 100bec0:	dc800217 	ldw	r18,8(sp)
 100bec4:	dc400117 	ldw	r17,4(sp)
 100bec8:	dc000017 	ldw	r16,0(sp)
 100becc:	dec00404 	addi	sp,sp,16
 100bed0:	f800283a 	ret
 100bed4:	91000017 	ldw	r4,0(r18)
 100bed8:	880b883a 	mov	r5,r17
 100bedc:	800d883a 	mov	r6,r16
 100bee0:	dfc00317 	ldw	ra,12(sp)
 100bee4:	dc800217 	ldw	r18,8(sp)
 100bee8:	dc400117 	ldw	r17,4(sp)
 100beec:	dc000017 	ldw	r16,0(sp)
 100bef0:	dec00404 	addi	sp,sp,16
 100bef4:	100dcc81 	jmpi	100dcc8 <__swbuf_r>
 100bef8:	91000017 	ldw	r4,0(r18)
 100befc:	180b883a 	mov	r5,r3
 100bf00:	003ff606 	br	100bedc <putc+0xdc>

0100bf04 <_putc_r>:
 100bf04:	defffc04 	addi	sp,sp,-16
 100bf08:	dc400215 	stw	r17,8(sp)
 100bf0c:	dc000115 	stw	r16,4(sp)
 100bf10:	dfc00315 	stw	ra,12(sp)
 100bf14:	2021883a 	mov	r16,r4
 100bf18:	2823883a 	mov	r17,r5
 100bf1c:	20000226 	beq	r4,zero,100bf28 <_putc_r+0x24>
 100bf20:	20800e17 	ldw	r2,56(r4)
 100bf24:	10001026 	beq	r2,zero,100bf68 <_putc_r+0x64>
 100bf28:	30800217 	ldw	r2,8(r6)
 100bf2c:	10ffffc4 	addi	r3,r2,-1
 100bf30:	30c00215 	stw	r3,8(r6)
 100bf34:	18001316 	blt	r3,zero,100bf84 <_putc_r+0x80>
 100bf38:	30800017 	ldw	r2,0(r6)
 100bf3c:	14400005 	stb	r17,0(r2)
 100bf40:	30c00017 	ldw	r3,0(r6)
 100bf44:	18800044 	addi	r2,r3,1
 100bf48:	18c00003 	ldbu	r3,0(r3)
 100bf4c:	30800015 	stw	r2,0(r6)
 100bf50:	1805883a 	mov	r2,r3
 100bf54:	dfc00317 	ldw	ra,12(sp)
 100bf58:	dc400217 	ldw	r17,8(sp)
 100bf5c:	dc000117 	ldw	r16,4(sp)
 100bf60:	dec00404 	addi	sp,sp,16
 100bf64:	f800283a 	ret
 100bf68:	d9800015 	stw	r6,0(sp)
 100bf6c:	1009d3c0 	call	1009d3c <__sinit>
 100bf70:	d9800017 	ldw	r6,0(sp)
 100bf74:	30800217 	ldw	r2,8(r6)
 100bf78:	10ffffc4 	addi	r3,r2,-1
 100bf7c:	30c00215 	stw	r3,8(r6)
 100bf80:	183fed0e 	bge	r3,zero,100bf38 <_putc_r+0x34>
 100bf84:	30800617 	ldw	r2,24(r6)
 100bf88:	18800e16 	blt	r3,r2,100bfc4 <_putc_r+0xc0>
 100bf8c:	30800017 	ldw	r2,0(r6)
 100bf90:	14400005 	stb	r17,0(r2)
 100bf94:	31000017 	ldw	r4,0(r6)
 100bf98:	00800284 	movi	r2,10
 100bf9c:	20c00003 	ldbu	r3,0(r4)
 100bfa0:	18800f26 	beq	r3,r2,100bfe0 <_putc_r+0xdc>
 100bfa4:	20800044 	addi	r2,r4,1
 100bfa8:	30800015 	stw	r2,0(r6)
 100bfac:	1805883a 	mov	r2,r3
 100bfb0:	dfc00317 	ldw	ra,12(sp)
 100bfb4:	dc400217 	ldw	r17,8(sp)
 100bfb8:	dc000117 	ldw	r16,4(sp)
 100bfbc:	dec00404 	addi	sp,sp,16
 100bfc0:	f800283a 	ret
 100bfc4:	8009883a 	mov	r4,r16
 100bfc8:	880b883a 	mov	r5,r17
 100bfcc:	dfc00317 	ldw	ra,12(sp)
 100bfd0:	dc400217 	ldw	r17,8(sp)
 100bfd4:	dc000117 	ldw	r16,4(sp)
 100bfd8:	dec00404 	addi	sp,sp,16
 100bfdc:	100dcc81 	jmpi	100dcc8 <__swbuf_r>
 100bfe0:	8009883a 	mov	r4,r16
 100bfe4:	180b883a 	mov	r5,r3
 100bfe8:	003ff806 	br	100bfcc <_putc_r+0xc8>

0100bfec <_realloc_r>:
 100bfec:	defff404 	addi	sp,sp,-48
 100bff0:	dd800815 	stw	r22,32(sp)
 100bff4:	dc800415 	stw	r18,16(sp)
 100bff8:	dc400315 	stw	r17,12(sp)
 100bffc:	dfc00b15 	stw	ra,44(sp)
 100c000:	df000a15 	stw	fp,40(sp)
 100c004:	ddc00915 	stw	r23,36(sp)
 100c008:	dd400715 	stw	r21,28(sp)
 100c00c:	dd000615 	stw	r20,24(sp)
 100c010:	dcc00515 	stw	r19,20(sp)
 100c014:	dc000215 	stw	r16,8(sp)
 100c018:	2825883a 	mov	r18,r5
 100c01c:	3023883a 	mov	r17,r6
 100c020:	202d883a 	mov	r22,r4
 100c024:	2800c926 	beq	r5,zero,100c34c <_realloc_r+0x360>
 100c028:	10110880 	call	1011088 <__malloc_lock>
 100c02c:	943ffe04 	addi	r16,r18,-8
 100c030:	88c002c4 	addi	r3,r17,11
 100c034:	00800584 	movi	r2,22
 100c038:	82000117 	ldw	r8,4(r16)
 100c03c:	10c01b2e 	bgeu	r2,r3,100c0ac <_realloc_r+0xc0>
 100c040:	00bffe04 	movi	r2,-8
 100c044:	188e703a 	and	r7,r3,r2
 100c048:	3839883a 	mov	fp,r7
 100c04c:	38001a16 	blt	r7,zero,100c0b8 <_realloc_r+0xcc>
 100c050:	e4401936 	bltu	fp,r17,100c0b8 <_realloc_r+0xcc>
 100c054:	013fff04 	movi	r4,-4
 100c058:	4126703a 	and	r19,r8,r4
 100c05c:	99c02616 	blt	r19,r7,100c0f8 <_realloc_r+0x10c>
 100c060:	802b883a 	mov	r21,r16
 100c064:	9829883a 	mov	r20,r19
 100c068:	84000204 	addi	r16,r16,8
 100c06c:	a80f883a 	mov	r7,r21
 100c070:	a70dc83a 	sub	r6,r20,fp
 100c074:	008003c4 	movi	r2,15
 100c078:	1180c136 	bltu	r2,r6,100c380 <_realloc_r+0x394>
 100c07c:	38800117 	ldw	r2,4(r7)
 100c080:	a549883a 	add	r4,r20,r21
 100c084:	1080004c 	andi	r2,r2,1
 100c088:	a084b03a 	or	r2,r20,r2
 100c08c:	38800115 	stw	r2,4(r7)
 100c090:	20c00117 	ldw	r3,4(r4)
 100c094:	18c00054 	ori	r3,r3,1
 100c098:	20c00115 	stw	r3,4(r4)
 100c09c:	b009883a 	mov	r4,r22
 100c0a0:	10110a80 	call	10110a8 <__malloc_unlock>
 100c0a4:	8023883a 	mov	r17,r16
 100c0a8:	00000606 	br	100c0c4 <_realloc_r+0xd8>
 100c0ac:	01c00404 	movi	r7,16
 100c0b0:	3839883a 	mov	fp,r7
 100c0b4:	e47fe72e 	bgeu	fp,r17,100c054 <_realloc_r+0x68>
 100c0b8:	00800304 	movi	r2,12
 100c0bc:	0023883a 	mov	r17,zero
 100c0c0:	b0800015 	stw	r2,0(r22)
 100c0c4:	8805883a 	mov	r2,r17
 100c0c8:	dfc00b17 	ldw	ra,44(sp)
 100c0cc:	df000a17 	ldw	fp,40(sp)
 100c0d0:	ddc00917 	ldw	r23,36(sp)
 100c0d4:	dd800817 	ldw	r22,32(sp)
 100c0d8:	dd400717 	ldw	r21,28(sp)
 100c0dc:	dd000617 	ldw	r20,24(sp)
 100c0e0:	dcc00517 	ldw	r19,20(sp)
 100c0e4:	dc800417 	ldw	r18,16(sp)
 100c0e8:	dc400317 	ldw	r17,12(sp)
 100c0ec:	dc000217 	ldw	r16,8(sp)
 100c0f0:	dec00c04 	addi	sp,sp,48
 100c0f4:	f800283a 	ret
 100c0f8:	00804074 	movhi	r2,257
 100c0fc:	10917604 	addi	r2,r2,17880
 100c100:	12400217 	ldw	r9,8(r2)
 100c104:	84cd883a 	add	r6,r16,r19
 100c108:	802b883a 	mov	r21,r16
 100c10c:	3240b926 	beq	r6,r9,100c3f4 <_realloc_r+0x408>
 100c110:	31400117 	ldw	r5,4(r6)
 100c114:	00bfff84 	movi	r2,-2
 100c118:	2884703a 	and	r2,r5,r2
 100c11c:	1185883a 	add	r2,r2,r6
 100c120:	10c00117 	ldw	r3,4(r2)
 100c124:	18c0004c 	andi	r3,r3,1
 100c128:	1807003a 	cmpeq	r3,r3,zero
 100c12c:	1800a326 	beq	r3,zero,100c3bc <_realloc_r+0x3d0>
 100c130:	2908703a 	and	r4,r5,r4
 100c134:	9929883a 	add	r20,r19,r4
 100c138:	a1c0a30e 	bge	r20,r7,100c3c8 <_realloc_r+0x3dc>
 100c13c:	4080004c 	andi	r2,r8,1
 100c140:	1000551e 	bne	r2,zero,100c298 <_realloc_r+0x2ac>
 100c144:	80800017 	ldw	r2,0(r16)
 100c148:	80afc83a 	sub	r23,r16,r2
 100c14c:	b8c00117 	ldw	r3,4(r23)
 100c150:	00bfff04 	movi	r2,-4
 100c154:	1884703a 	and	r2,r3,r2
 100c158:	30002e26 	beq	r6,zero,100c214 <_realloc_r+0x228>
 100c15c:	3240b926 	beq	r6,r9,100c444 <_realloc_r+0x458>
 100c160:	98a9883a 	add	r20,r19,r2
 100c164:	2509883a 	add	r4,r4,r20
 100c168:	d9000015 	stw	r4,0(sp)
 100c16c:	21c02a16 	blt	r4,r7,100c218 <_realloc_r+0x22c>
 100c170:	30800317 	ldw	r2,12(r6)
 100c174:	30c00217 	ldw	r3,8(r6)
 100c178:	01400904 	movi	r5,36
 100c17c:	99bfff04 	addi	r6,r19,-4
 100c180:	18800315 	stw	r2,12(r3)
 100c184:	10c00215 	stw	r3,8(r2)
 100c188:	b9000317 	ldw	r4,12(r23)
 100c18c:	b8800217 	ldw	r2,8(r23)
 100c190:	b82b883a 	mov	r21,r23
 100c194:	bc000204 	addi	r16,r23,8
 100c198:	20800215 	stw	r2,8(r4)
 100c19c:	11000315 	stw	r4,12(r2)
 100c1a0:	2980e436 	bltu	r5,r6,100c534 <_realloc_r+0x548>
 100c1a4:	008004c4 	movi	r2,19
 100c1a8:	9009883a 	mov	r4,r18
 100c1ac:	8011883a 	mov	r8,r16
 100c1b0:	11800f2e 	bgeu	r2,r6,100c1f0 <_realloc_r+0x204>
 100c1b4:	90800017 	ldw	r2,0(r18)
 100c1b8:	ba000404 	addi	r8,r23,16
 100c1bc:	91000204 	addi	r4,r18,8
 100c1c0:	b8800215 	stw	r2,8(r23)
 100c1c4:	90c00117 	ldw	r3,4(r18)
 100c1c8:	008006c4 	movi	r2,27
 100c1cc:	b8c00315 	stw	r3,12(r23)
 100c1d0:	1180072e 	bgeu	r2,r6,100c1f0 <_realloc_r+0x204>
 100c1d4:	90c00217 	ldw	r3,8(r18)
 100c1d8:	ba000604 	addi	r8,r23,24
 100c1dc:	91000404 	addi	r4,r18,16
 100c1e0:	b8c00415 	stw	r3,16(r23)
 100c1e4:	90800317 	ldw	r2,12(r18)
 100c1e8:	b8800515 	stw	r2,20(r23)
 100c1ec:	3140e726 	beq	r6,r5,100c58c <_realloc_r+0x5a0>
 100c1f0:	20800017 	ldw	r2,0(r4)
 100c1f4:	dd000017 	ldw	r20,0(sp)
 100c1f8:	b80f883a 	mov	r7,r23
 100c1fc:	40800015 	stw	r2,0(r8)
 100c200:	20c00117 	ldw	r3,4(r4)
 100c204:	40c00115 	stw	r3,4(r8)
 100c208:	20800217 	ldw	r2,8(r4)
 100c20c:	40800215 	stw	r2,8(r8)
 100c210:	003f9706 	br	100c070 <_realloc_r+0x84>
 100c214:	98a9883a 	add	r20,r19,r2
 100c218:	a1c01f16 	blt	r20,r7,100c298 <_realloc_r+0x2ac>
 100c21c:	b8c00317 	ldw	r3,12(r23)
 100c220:	b8800217 	ldw	r2,8(r23)
 100c224:	99bfff04 	addi	r6,r19,-4
 100c228:	01400904 	movi	r5,36
 100c22c:	b82b883a 	mov	r21,r23
 100c230:	18800215 	stw	r2,8(r3)
 100c234:	10c00315 	stw	r3,12(r2)
 100c238:	bc000204 	addi	r16,r23,8
 100c23c:	2980c336 	bltu	r5,r6,100c54c <_realloc_r+0x560>
 100c240:	008004c4 	movi	r2,19
 100c244:	9009883a 	mov	r4,r18
 100c248:	8011883a 	mov	r8,r16
 100c24c:	11800f2e 	bgeu	r2,r6,100c28c <_realloc_r+0x2a0>
 100c250:	90800017 	ldw	r2,0(r18)
 100c254:	ba000404 	addi	r8,r23,16
 100c258:	91000204 	addi	r4,r18,8
 100c25c:	b8800215 	stw	r2,8(r23)
 100c260:	90c00117 	ldw	r3,4(r18)
 100c264:	008006c4 	movi	r2,27
 100c268:	b8c00315 	stw	r3,12(r23)
 100c26c:	1180072e 	bgeu	r2,r6,100c28c <_realloc_r+0x2a0>
 100c270:	90c00217 	ldw	r3,8(r18)
 100c274:	ba000604 	addi	r8,r23,24
 100c278:	91000404 	addi	r4,r18,16
 100c27c:	b8c00415 	stw	r3,16(r23)
 100c280:	90800317 	ldw	r2,12(r18)
 100c284:	b8800515 	stw	r2,20(r23)
 100c288:	3140c726 	beq	r6,r5,100c5a8 <_realloc_r+0x5bc>
 100c28c:	20800017 	ldw	r2,0(r4)
 100c290:	b80f883a 	mov	r7,r23
 100c294:	003fd906 	br	100c1fc <_realloc_r+0x210>
 100c298:	880b883a 	mov	r5,r17
 100c29c:	b009883a 	mov	r4,r22
 100c2a0:	10055e00 	call	10055e0 <_malloc_r>
 100c2a4:	1023883a 	mov	r17,r2
 100c2a8:	10002526 	beq	r2,zero,100c340 <_realloc_r+0x354>
 100c2ac:	80800117 	ldw	r2,4(r16)
 100c2b0:	00ffff84 	movi	r3,-2
 100c2b4:	893ffe04 	addi	r4,r17,-8
 100c2b8:	10c4703a 	and	r2,r2,r3
 100c2bc:	8085883a 	add	r2,r16,r2
 100c2c0:	20809526 	beq	r4,r2,100c518 <_realloc_r+0x52c>
 100c2c4:	99bfff04 	addi	r6,r19,-4
 100c2c8:	01c00904 	movi	r7,36
 100c2cc:	39804536 	bltu	r7,r6,100c3e4 <_realloc_r+0x3f8>
 100c2d0:	008004c4 	movi	r2,19
 100c2d4:	9009883a 	mov	r4,r18
 100c2d8:	880b883a 	mov	r5,r17
 100c2dc:	11800f2e 	bgeu	r2,r6,100c31c <_realloc_r+0x330>
 100c2e0:	90800017 	ldw	r2,0(r18)
 100c2e4:	89400204 	addi	r5,r17,8
 100c2e8:	91000204 	addi	r4,r18,8
 100c2ec:	88800015 	stw	r2,0(r17)
 100c2f0:	90c00117 	ldw	r3,4(r18)
 100c2f4:	008006c4 	movi	r2,27
 100c2f8:	88c00115 	stw	r3,4(r17)
 100c2fc:	1180072e 	bgeu	r2,r6,100c31c <_realloc_r+0x330>
 100c300:	90c00217 	ldw	r3,8(r18)
 100c304:	89400404 	addi	r5,r17,16
 100c308:	91000404 	addi	r4,r18,16
 100c30c:	88c00215 	stw	r3,8(r17)
 100c310:	90800317 	ldw	r2,12(r18)
 100c314:	88800315 	stw	r2,12(r17)
 100c318:	31c09126 	beq	r6,r7,100c560 <_realloc_r+0x574>
 100c31c:	20800017 	ldw	r2,0(r4)
 100c320:	28800015 	stw	r2,0(r5)
 100c324:	20c00117 	ldw	r3,4(r4)
 100c328:	28c00115 	stw	r3,4(r5)
 100c32c:	20800217 	ldw	r2,8(r4)
 100c330:	28800215 	stw	r2,8(r5)
 100c334:	900b883a 	mov	r5,r18
 100c338:	b009883a 	mov	r4,r22
 100c33c:	100a0c00 	call	100a0c0 <_free_r>
 100c340:	b009883a 	mov	r4,r22
 100c344:	10110a80 	call	10110a8 <__malloc_unlock>
 100c348:	003f5e06 	br	100c0c4 <_realloc_r+0xd8>
 100c34c:	300b883a 	mov	r5,r6
 100c350:	dfc00b17 	ldw	ra,44(sp)
 100c354:	df000a17 	ldw	fp,40(sp)
 100c358:	ddc00917 	ldw	r23,36(sp)
 100c35c:	dd800817 	ldw	r22,32(sp)
 100c360:	dd400717 	ldw	r21,28(sp)
 100c364:	dd000617 	ldw	r20,24(sp)
 100c368:	dcc00517 	ldw	r19,20(sp)
 100c36c:	dc800417 	ldw	r18,16(sp)
 100c370:	dc400317 	ldw	r17,12(sp)
 100c374:	dc000217 	ldw	r16,8(sp)
 100c378:	dec00c04 	addi	sp,sp,48
 100c37c:	10055e01 	jmpi	10055e0 <_malloc_r>
 100c380:	38800117 	ldw	r2,4(r7)
 100c384:	e54b883a 	add	r5,fp,r21
 100c388:	31000054 	ori	r4,r6,1
 100c38c:	1080004c 	andi	r2,r2,1
 100c390:	1704b03a 	or	r2,r2,fp
 100c394:	38800115 	stw	r2,4(r7)
 100c398:	29000115 	stw	r4,4(r5)
 100c39c:	2987883a 	add	r3,r5,r6
 100c3a0:	18800117 	ldw	r2,4(r3)
 100c3a4:	29400204 	addi	r5,r5,8
 100c3a8:	b009883a 	mov	r4,r22
 100c3ac:	10800054 	ori	r2,r2,1
 100c3b0:	18800115 	stw	r2,4(r3)
 100c3b4:	100a0c00 	call	100a0c0 <_free_r>
 100c3b8:	003f3806 	br	100c09c <_realloc_r+0xb0>
 100c3bc:	000d883a 	mov	r6,zero
 100c3c0:	0009883a 	mov	r4,zero
 100c3c4:	003f5d06 	br	100c13c <_realloc_r+0x150>
 100c3c8:	30c00217 	ldw	r3,8(r6)
 100c3cc:	30800317 	ldw	r2,12(r6)
 100c3d0:	800f883a 	mov	r7,r16
 100c3d4:	84000204 	addi	r16,r16,8
 100c3d8:	10c00215 	stw	r3,8(r2)
 100c3dc:	18800315 	stw	r2,12(r3)
 100c3e0:	003f2306 	br	100c070 <_realloc_r+0x84>
 100c3e4:	8809883a 	mov	r4,r17
 100c3e8:	900b883a 	mov	r5,r18
 100c3ec:	100ad2c0 	call	100ad2c <memmove>
 100c3f0:	003fd006 	br	100c334 <_realloc_r+0x348>
 100c3f4:	30800117 	ldw	r2,4(r6)
 100c3f8:	e0c00404 	addi	r3,fp,16
 100c3fc:	1108703a 	and	r4,r2,r4
 100c400:	9905883a 	add	r2,r19,r4
 100c404:	10ff4d16 	blt	r2,r3,100c13c <_realloc_r+0x150>
 100c408:	1705c83a 	sub	r2,r2,fp
 100c40c:	870b883a 	add	r5,r16,fp
 100c410:	10800054 	ori	r2,r2,1
 100c414:	28800115 	stw	r2,4(r5)
 100c418:	80c00117 	ldw	r3,4(r16)
 100c41c:	00804074 	movhi	r2,257
 100c420:	10917604 	addi	r2,r2,17880
 100c424:	b009883a 	mov	r4,r22
 100c428:	18c0004c 	andi	r3,r3,1
 100c42c:	e0c6b03a 	or	r3,fp,r3
 100c430:	11400215 	stw	r5,8(r2)
 100c434:	80c00115 	stw	r3,4(r16)
 100c438:	10110a80 	call	10110a8 <__malloc_unlock>
 100c43c:	84400204 	addi	r17,r16,8
 100c440:	003f2006 	br	100c0c4 <_realloc_r+0xd8>
 100c444:	98a9883a 	add	r20,r19,r2
 100c448:	2509883a 	add	r4,r4,r20
 100c44c:	e0800404 	addi	r2,fp,16
 100c450:	d9000115 	stw	r4,4(sp)
 100c454:	20bf7016 	blt	r4,r2,100c218 <_realloc_r+0x22c>
 100c458:	b8c00317 	ldw	r3,12(r23)
 100c45c:	b8800217 	ldw	r2,8(r23)
 100c460:	99bfff04 	addi	r6,r19,-4
 100c464:	01400904 	movi	r5,36
 100c468:	18800215 	stw	r2,8(r3)
 100c46c:	10c00315 	stw	r3,12(r2)
 100c470:	bc400204 	addi	r17,r23,8
 100c474:	29804136 	bltu	r5,r6,100c57c <_realloc_r+0x590>
 100c478:	008004c4 	movi	r2,19
 100c47c:	9009883a 	mov	r4,r18
 100c480:	880f883a 	mov	r7,r17
 100c484:	11800f2e 	bgeu	r2,r6,100c4c4 <_realloc_r+0x4d8>
 100c488:	90800017 	ldw	r2,0(r18)
 100c48c:	b9c00404 	addi	r7,r23,16
 100c490:	91000204 	addi	r4,r18,8
 100c494:	b8800215 	stw	r2,8(r23)
 100c498:	90c00117 	ldw	r3,4(r18)
 100c49c:	008006c4 	movi	r2,27
 100c4a0:	b8c00315 	stw	r3,12(r23)
 100c4a4:	1180072e 	bgeu	r2,r6,100c4c4 <_realloc_r+0x4d8>
 100c4a8:	90c00217 	ldw	r3,8(r18)
 100c4ac:	b9c00604 	addi	r7,r23,24
 100c4b0:	91000404 	addi	r4,r18,16
 100c4b4:	b8c00415 	stw	r3,16(r23)
 100c4b8:	90800317 	ldw	r2,12(r18)
 100c4bc:	b8800515 	stw	r2,20(r23)
 100c4c0:	31404026 	beq	r6,r5,100c5c4 <_realloc_r+0x5d8>
 100c4c4:	20800017 	ldw	r2,0(r4)
 100c4c8:	38800015 	stw	r2,0(r7)
 100c4cc:	20c00117 	ldw	r3,4(r4)
 100c4d0:	38c00115 	stw	r3,4(r7)
 100c4d4:	20800217 	ldw	r2,8(r4)
 100c4d8:	38800215 	stw	r2,8(r7)
 100c4dc:	d8c00117 	ldw	r3,4(sp)
 100c4e0:	bf0b883a 	add	r5,r23,fp
 100c4e4:	b009883a 	mov	r4,r22
 100c4e8:	1f05c83a 	sub	r2,r3,fp
 100c4ec:	10800054 	ori	r2,r2,1
 100c4f0:	28800115 	stw	r2,4(r5)
 100c4f4:	b8c00117 	ldw	r3,4(r23)
 100c4f8:	00804074 	movhi	r2,257
 100c4fc:	10917604 	addi	r2,r2,17880
 100c500:	11400215 	stw	r5,8(r2)
 100c504:	18c0004c 	andi	r3,r3,1
 100c508:	e0c6b03a 	or	r3,fp,r3
 100c50c:	b8c00115 	stw	r3,4(r23)
 100c510:	10110a80 	call	10110a8 <__malloc_unlock>
 100c514:	003eeb06 	br	100c0c4 <_realloc_r+0xd8>
 100c518:	20800117 	ldw	r2,4(r4)
 100c51c:	00ffff04 	movi	r3,-4
 100c520:	800f883a 	mov	r7,r16
 100c524:	10c4703a 	and	r2,r2,r3
 100c528:	98a9883a 	add	r20,r19,r2
 100c52c:	84000204 	addi	r16,r16,8
 100c530:	003ecf06 	br	100c070 <_realloc_r+0x84>
 100c534:	900b883a 	mov	r5,r18
 100c538:	8009883a 	mov	r4,r16
 100c53c:	100ad2c0 	call	100ad2c <memmove>
 100c540:	dd000017 	ldw	r20,0(sp)
 100c544:	b80f883a 	mov	r7,r23
 100c548:	003ec906 	br	100c070 <_realloc_r+0x84>
 100c54c:	900b883a 	mov	r5,r18
 100c550:	8009883a 	mov	r4,r16
 100c554:	100ad2c0 	call	100ad2c <memmove>
 100c558:	b80f883a 	mov	r7,r23
 100c55c:	003ec406 	br	100c070 <_realloc_r+0x84>
 100c560:	90c00417 	ldw	r3,16(r18)
 100c564:	89400604 	addi	r5,r17,24
 100c568:	91000604 	addi	r4,r18,24
 100c56c:	88c00415 	stw	r3,16(r17)
 100c570:	90800517 	ldw	r2,20(r18)
 100c574:	88800515 	stw	r2,20(r17)
 100c578:	003f6806 	br	100c31c <_realloc_r+0x330>
 100c57c:	900b883a 	mov	r5,r18
 100c580:	8809883a 	mov	r4,r17
 100c584:	100ad2c0 	call	100ad2c <memmove>
 100c588:	003fd406 	br	100c4dc <_realloc_r+0x4f0>
 100c58c:	90c00417 	ldw	r3,16(r18)
 100c590:	91000604 	addi	r4,r18,24
 100c594:	ba000804 	addi	r8,r23,32
 100c598:	b8c00615 	stw	r3,24(r23)
 100c59c:	90800517 	ldw	r2,20(r18)
 100c5a0:	b8800715 	stw	r2,28(r23)
 100c5a4:	003f1206 	br	100c1f0 <_realloc_r+0x204>
 100c5a8:	90c00417 	ldw	r3,16(r18)
 100c5ac:	91000604 	addi	r4,r18,24
 100c5b0:	ba000804 	addi	r8,r23,32
 100c5b4:	b8c00615 	stw	r3,24(r23)
 100c5b8:	90800517 	ldw	r2,20(r18)
 100c5bc:	b8800715 	stw	r2,28(r23)
 100c5c0:	003f3206 	br	100c28c <_realloc_r+0x2a0>
 100c5c4:	90c00417 	ldw	r3,16(r18)
 100c5c8:	91000604 	addi	r4,r18,24
 100c5cc:	b9c00804 	addi	r7,r23,32
 100c5d0:	b8c00615 	stw	r3,24(r23)
 100c5d4:	90800517 	ldw	r2,20(r18)
 100c5d8:	b8800715 	stw	r2,28(r23)
 100c5dc:	003fb906 	br	100c4c4 <_realloc_r+0x4d8>

0100c5e0 <__isinfd>:
 100c5e0:	200d883a 	mov	r6,r4
 100c5e4:	0109c83a 	sub	r4,zero,r4
 100c5e8:	2188b03a 	or	r4,r4,r6
 100c5ec:	2008d7fa 	srli	r4,r4,31
 100c5f0:	00a00034 	movhi	r2,32768
 100c5f4:	10bfffc4 	addi	r2,r2,-1
 100c5f8:	1144703a 	and	r2,r2,r5
 100c5fc:	2088b03a 	or	r4,r4,r2
 100c600:	009ffc34 	movhi	r2,32752
 100c604:	1105c83a 	sub	r2,r2,r4
 100c608:	0087c83a 	sub	r3,zero,r2
 100c60c:	10c4b03a 	or	r2,r2,r3
 100c610:	1004d7fa 	srli	r2,r2,31
 100c614:	00c00044 	movi	r3,1
 100c618:	1885c83a 	sub	r2,r3,r2
 100c61c:	f800283a 	ret

0100c620 <__isnand>:
 100c620:	200d883a 	mov	r6,r4
 100c624:	0109c83a 	sub	r4,zero,r4
 100c628:	2188b03a 	or	r4,r4,r6
 100c62c:	2008d7fa 	srli	r4,r4,31
 100c630:	00a00034 	movhi	r2,32768
 100c634:	10bfffc4 	addi	r2,r2,-1
 100c638:	1144703a 	and	r2,r2,r5
 100c63c:	2088b03a 	or	r4,r4,r2
 100c640:	009ffc34 	movhi	r2,32752
 100c644:	1105c83a 	sub	r2,r2,r4
 100c648:	1004d7fa 	srli	r2,r2,31
 100c64c:	f800283a 	ret

0100c650 <_raise_r>:
 100c650:	defffd04 	addi	sp,sp,-12
 100c654:	008007c4 	movi	r2,31
 100c658:	dc400115 	stw	r17,4(sp)
 100c65c:	dc000015 	stw	r16,0(sp)
 100c660:	dfc00215 	stw	ra,8(sp)
 100c664:	2821883a 	mov	r16,r5
 100c668:	2023883a 	mov	r17,r4
 100c66c:	11402736 	bltu	r2,r5,100c70c <_raise_r+0xbc>
 100c670:	20c0b717 	ldw	r3,732(r4)
 100c674:	18001326 	beq	r3,zero,100c6c4 <_raise_r+0x74>
 100c678:	2945883a 	add	r2,r5,r5
 100c67c:	1085883a 	add	r2,r2,r2
 100c680:	188b883a 	add	r5,r3,r2
 100c684:	28c00017 	ldw	r3,0(r5)
 100c688:	18000e26 	beq	r3,zero,100c6c4 <_raise_r+0x74>
 100c68c:	01000044 	movi	r4,1
 100c690:	19000526 	beq	r3,r4,100c6a8 <_raise_r+0x58>
 100c694:	00bfffc4 	movi	r2,-1
 100c698:	18801326 	beq	r3,r2,100c6e8 <_raise_r+0x98>
 100c69c:	28000015 	stw	zero,0(r5)
 100c6a0:	8009883a 	mov	r4,r16
 100c6a4:	183ee83a 	callr	r3
 100c6a8:	0007883a 	mov	r3,zero
 100c6ac:	1805883a 	mov	r2,r3
 100c6b0:	dfc00217 	ldw	ra,8(sp)
 100c6b4:	dc400117 	ldw	r17,4(sp)
 100c6b8:	dc000017 	ldw	r16,0(sp)
 100c6bc:	dec00304 	addi	sp,sp,12
 100c6c0:	f800283a 	ret
 100c6c4:	100c9280 	call	100c928 <_getpid_r>
 100c6c8:	100b883a 	mov	r5,r2
 100c6cc:	8809883a 	mov	r4,r17
 100c6d0:	800d883a 	mov	r6,r16
 100c6d4:	dfc00217 	ldw	ra,8(sp)
 100c6d8:	dc400117 	ldw	r17,4(sp)
 100c6dc:	dc000017 	ldw	r16,0(sp)
 100c6e0:	dec00304 	addi	sp,sp,12
 100c6e4:	100c92c1 	jmpi	100c92c <_kill_r>
 100c6e8:	2007883a 	mov	r3,r4
 100c6ec:	00800584 	movi	r2,22
 100c6f0:	88800015 	stw	r2,0(r17)
 100c6f4:	1805883a 	mov	r2,r3
 100c6f8:	dfc00217 	ldw	ra,8(sp)
 100c6fc:	dc400117 	ldw	r17,4(sp)
 100c700:	dc000017 	ldw	r16,0(sp)
 100c704:	dec00304 	addi	sp,sp,12
 100c708:	f800283a 	ret
 100c70c:	00800584 	movi	r2,22
 100c710:	00ffffc4 	movi	r3,-1
 100c714:	20800015 	stw	r2,0(r4)
 100c718:	003fe406 	br	100c6ac <_raise_r+0x5c>

0100c71c <raise>:
 100c71c:	00804074 	movhi	r2,257
 100c720:	10974504 	addi	r2,r2,23828
 100c724:	200b883a 	mov	r5,r4
 100c728:	11000017 	ldw	r4,0(r2)
 100c72c:	100c6501 	jmpi	100c650 <_raise_r>

0100c730 <_init_signal_r>:
 100c730:	2080b717 	ldw	r2,732(r4)
 100c734:	defffe04 	addi	sp,sp,-8
 100c738:	dc000015 	stw	r16,0(sp)
 100c73c:	dfc00115 	stw	ra,4(sp)
 100c740:	2021883a 	mov	r16,r4
 100c744:	10000526 	beq	r2,zero,100c75c <_init_signal_r+0x2c>
 100c748:	0005883a 	mov	r2,zero
 100c74c:	dfc00117 	ldw	ra,4(sp)
 100c750:	dc000017 	ldw	r16,0(sp)
 100c754:	dec00204 	addi	sp,sp,8
 100c758:	f800283a 	ret
 100c75c:	01402004 	movi	r5,128
 100c760:	10055e00 	call	10055e0 <_malloc_r>
 100c764:	1009883a 	mov	r4,r2
 100c768:	8080b715 	stw	r2,732(r16)
 100c76c:	10000726 	beq	r2,zero,100c78c <_init_signal_r+0x5c>
 100c770:	0007883a 	mov	r3,zero
 100c774:	01402004 	movi	r5,128
 100c778:	20c5883a 	add	r2,r4,r3
 100c77c:	18c00104 	addi	r3,r3,4
 100c780:	10000015 	stw	zero,0(r2)
 100c784:	197ffc1e 	bne	r3,r5,100c778 <_init_signal_r+0x48>
 100c788:	003fef06 	br	100c748 <_init_signal_r+0x18>
 100c78c:	00bfffc4 	movi	r2,-1
 100c790:	003fee06 	br	100c74c <_init_signal_r+0x1c>

0100c794 <_init_signal>:
 100c794:	00804074 	movhi	r2,257
 100c798:	10974504 	addi	r2,r2,23828
 100c79c:	11000017 	ldw	r4,0(r2)
 100c7a0:	100c7301 	jmpi	100c730 <_init_signal_r>

0100c7a4 <__sigtramp_r>:
 100c7a4:	defffd04 	addi	sp,sp,-12
 100c7a8:	008007c4 	movi	r2,31
 100c7ac:	dc000115 	stw	r16,4(sp)
 100c7b0:	dfc00215 	stw	ra,8(sp)
 100c7b4:	2021883a 	mov	r16,r4
 100c7b8:	11401336 	bltu	r2,r5,100c808 <__sigtramp_r+0x64>
 100c7bc:	20c0b717 	ldw	r3,732(r4)
 100c7c0:	18001f26 	beq	r3,zero,100c840 <__sigtramp_r+0x9c>
 100c7c4:	2945883a 	add	r2,r5,r5
 100c7c8:	1085883a 	add	r2,r2,r2
 100c7cc:	10c9883a 	add	r4,r2,r3
 100c7d0:	20c00017 	ldw	r3,0(r4)
 100c7d4:	18001626 	beq	r3,zero,100c830 <__sigtramp_r+0x8c>
 100c7d8:	00bfffc4 	movi	r2,-1
 100c7dc:	18801626 	beq	r3,r2,100c838 <__sigtramp_r+0x94>
 100c7e0:	00800044 	movi	r2,1
 100c7e4:	18800d26 	beq	r3,r2,100c81c <__sigtramp_r+0x78>
 100c7e8:	20000015 	stw	zero,0(r4)
 100c7ec:	2809883a 	mov	r4,r5
 100c7f0:	183ee83a 	callr	r3
 100c7f4:	0005883a 	mov	r2,zero
 100c7f8:	dfc00217 	ldw	ra,8(sp)
 100c7fc:	dc000117 	ldw	r16,4(sp)
 100c800:	dec00304 	addi	sp,sp,12
 100c804:	f800283a 	ret
 100c808:	00bfffc4 	movi	r2,-1
 100c80c:	dfc00217 	ldw	ra,8(sp)
 100c810:	dc000117 	ldw	r16,4(sp)
 100c814:	dec00304 	addi	sp,sp,12
 100c818:	f800283a 	ret
 100c81c:	008000c4 	movi	r2,3
 100c820:	dfc00217 	ldw	ra,8(sp)
 100c824:	dc000117 	ldw	r16,4(sp)
 100c828:	dec00304 	addi	sp,sp,12
 100c82c:	f800283a 	ret
 100c830:	00800044 	movi	r2,1
 100c834:	003ff006 	br	100c7f8 <__sigtramp_r+0x54>
 100c838:	00800084 	movi	r2,2
 100c83c:	003fee06 	br	100c7f8 <__sigtramp_r+0x54>
 100c840:	d9400015 	stw	r5,0(sp)
 100c844:	100c7300 	call	100c730 <_init_signal_r>
 100c848:	d9400017 	ldw	r5,0(sp)
 100c84c:	103fee1e 	bne	r2,zero,100c808 <__sigtramp_r+0x64>
 100c850:	80c0b717 	ldw	r3,732(r16)
 100c854:	003fdb06 	br	100c7c4 <__sigtramp_r+0x20>

0100c858 <__sigtramp>:
 100c858:	00804074 	movhi	r2,257
 100c85c:	10974504 	addi	r2,r2,23828
 100c860:	200b883a 	mov	r5,r4
 100c864:	11000017 	ldw	r4,0(r2)
 100c868:	100c7a41 	jmpi	100c7a4 <__sigtramp_r>

0100c86c <_signal_r>:
 100c86c:	defffc04 	addi	sp,sp,-16
 100c870:	008007c4 	movi	r2,31
 100c874:	dc800215 	stw	r18,8(sp)
 100c878:	dc400115 	stw	r17,4(sp)
 100c87c:	dc000015 	stw	r16,0(sp)
 100c880:	dfc00315 	stw	ra,12(sp)
 100c884:	2823883a 	mov	r17,r5
 100c888:	00ffffc4 	movi	r3,-1
 100c88c:	3025883a 	mov	r18,r6
 100c890:	2021883a 	mov	r16,r4
 100c894:	1140092e 	bgeu	r2,r5,100c8bc <_signal_r+0x50>
 100c898:	00800584 	movi	r2,22
 100c89c:	20800015 	stw	r2,0(r4)
 100c8a0:	1805883a 	mov	r2,r3
 100c8a4:	dfc00317 	ldw	ra,12(sp)
 100c8a8:	dc800217 	ldw	r18,8(sp)
 100c8ac:	dc400117 	ldw	r17,4(sp)
 100c8b0:	dc000017 	ldw	r16,0(sp)
 100c8b4:	dec00404 	addi	sp,sp,16
 100c8b8:	f800283a 	ret
 100c8bc:	2140b717 	ldw	r5,732(r4)
 100c8c0:	28000c26 	beq	r5,zero,100c8f4 <_signal_r+0x88>
 100c8c4:	8c45883a 	add	r2,r17,r17
 100c8c8:	1085883a 	add	r2,r2,r2
 100c8cc:	1145883a 	add	r2,r2,r5
 100c8d0:	10c00017 	ldw	r3,0(r2)
 100c8d4:	14800015 	stw	r18,0(r2)
 100c8d8:	1805883a 	mov	r2,r3
 100c8dc:	dfc00317 	ldw	ra,12(sp)
 100c8e0:	dc800217 	ldw	r18,8(sp)
 100c8e4:	dc400117 	ldw	r17,4(sp)
 100c8e8:	dc000017 	ldw	r16,0(sp)
 100c8ec:	dec00404 	addi	sp,sp,16
 100c8f0:	f800283a 	ret
 100c8f4:	100c7300 	call	100c730 <_init_signal_r>
 100c8f8:	1000021e 	bne	r2,zero,100c904 <_signal_r+0x98>
 100c8fc:	8140b717 	ldw	r5,732(r16)
 100c900:	003ff006 	br	100c8c4 <_signal_r+0x58>
 100c904:	00ffffc4 	movi	r3,-1
 100c908:	003fe506 	br	100c8a0 <_signal_r+0x34>

0100c90c <signal>:
 100c90c:	01804074 	movhi	r6,257
 100c910:	31974504 	addi	r6,r6,23828
 100c914:	2007883a 	mov	r3,r4
 100c918:	31000017 	ldw	r4,0(r6)
 100c91c:	280d883a 	mov	r6,r5
 100c920:	180b883a 	mov	r5,r3
 100c924:	100c86c1 	jmpi	100c86c <_signal_r>

0100c928 <_getpid_r>:
 100c928:	10109401 	jmpi	1010940 <getpid>

0100c92c <_kill_r>:
 100c92c:	defffd04 	addi	sp,sp,-12
 100c930:	dc000015 	stw	r16,0(sp)
 100c934:	04004074 	movhi	r16,257
 100c938:	841ef604 	addi	r16,r16,31704
 100c93c:	dc400115 	stw	r17,4(sp)
 100c940:	80000015 	stw	zero,0(r16)
 100c944:	2023883a 	mov	r17,r4
 100c948:	2809883a 	mov	r4,r5
 100c94c:	300b883a 	mov	r5,r6
 100c950:	dfc00215 	stw	ra,8(sp)
 100c954:	1010c400 	call	1010c40 <kill>
 100c958:	1007883a 	mov	r3,r2
 100c95c:	00bfffc4 	movi	r2,-1
 100c960:	18800626 	beq	r3,r2,100c97c <_kill_r+0x50>
 100c964:	1805883a 	mov	r2,r3
 100c968:	dfc00217 	ldw	ra,8(sp)
 100c96c:	dc400117 	ldw	r17,4(sp)
 100c970:	dc000017 	ldw	r16,0(sp)
 100c974:	dec00304 	addi	sp,sp,12
 100c978:	f800283a 	ret
 100c97c:	80800017 	ldw	r2,0(r16)
 100c980:	103ff826 	beq	r2,zero,100c964 <_kill_r+0x38>
 100c984:	88800015 	stw	r2,0(r17)
 100c988:	1805883a 	mov	r2,r3
 100c98c:	dfc00217 	ldw	ra,8(sp)
 100c990:	dc400117 	ldw	r17,4(sp)
 100c994:	dc000017 	ldw	r16,0(sp)
 100c998:	dec00304 	addi	sp,sp,12
 100c99c:	f800283a 	ret

0100c9a0 <__sclose>:
 100c9a0:	2940038f 	ldh	r5,14(r5)
 100c9a4:	100de8c1 	jmpi	100de8c <_close_r>

0100c9a8 <__sseek>:
 100c9a8:	defffe04 	addi	sp,sp,-8
 100c9ac:	dc000015 	stw	r16,0(sp)
 100c9b0:	2821883a 	mov	r16,r5
 100c9b4:	2940038f 	ldh	r5,14(r5)
 100c9b8:	dfc00115 	stw	ra,4(sp)
 100c9bc:	100e1040 	call	100e104 <_lseek_r>
 100c9c0:	1007883a 	mov	r3,r2
 100c9c4:	00bfffc4 	movi	r2,-1
 100c9c8:	18800926 	beq	r3,r2,100c9f0 <__sseek+0x48>
 100c9cc:	8080030b 	ldhu	r2,12(r16)
 100c9d0:	80c01415 	stw	r3,80(r16)
 100c9d4:	10840014 	ori	r2,r2,4096
 100c9d8:	8080030d 	sth	r2,12(r16)
 100c9dc:	1805883a 	mov	r2,r3
 100c9e0:	dfc00117 	ldw	ra,4(sp)
 100c9e4:	dc000017 	ldw	r16,0(sp)
 100c9e8:	dec00204 	addi	sp,sp,8
 100c9ec:	f800283a 	ret
 100c9f0:	8080030b 	ldhu	r2,12(r16)
 100c9f4:	10bbffcc 	andi	r2,r2,61439
 100c9f8:	8080030d 	sth	r2,12(r16)
 100c9fc:	1805883a 	mov	r2,r3
 100ca00:	dfc00117 	ldw	ra,4(sp)
 100ca04:	dc000017 	ldw	r16,0(sp)
 100ca08:	dec00204 	addi	sp,sp,8
 100ca0c:	f800283a 	ret

0100ca10 <__swrite>:
 100ca10:	2880030b 	ldhu	r2,12(r5)
 100ca14:	defffb04 	addi	sp,sp,-20
 100ca18:	dcc00315 	stw	r19,12(sp)
 100ca1c:	1080400c 	andi	r2,r2,256
 100ca20:	dc800215 	stw	r18,8(sp)
 100ca24:	dc400115 	stw	r17,4(sp)
 100ca28:	dc000015 	stw	r16,0(sp)
 100ca2c:	3027883a 	mov	r19,r6
 100ca30:	3825883a 	mov	r18,r7
 100ca34:	dfc00415 	stw	ra,16(sp)
 100ca38:	2821883a 	mov	r16,r5
 100ca3c:	000d883a 	mov	r6,zero
 100ca40:	01c00084 	movi	r7,2
 100ca44:	2023883a 	mov	r17,r4
 100ca48:	10000226 	beq	r2,zero,100ca54 <__swrite+0x44>
 100ca4c:	2940038f 	ldh	r5,14(r5)
 100ca50:	100e1040 	call	100e104 <_lseek_r>
 100ca54:	8080030b 	ldhu	r2,12(r16)
 100ca58:	8140038f 	ldh	r5,14(r16)
 100ca5c:	8809883a 	mov	r4,r17
 100ca60:	10bbffcc 	andi	r2,r2,61439
 100ca64:	980d883a 	mov	r6,r19
 100ca68:	900f883a 	mov	r7,r18
 100ca6c:	8080030d 	sth	r2,12(r16)
 100ca70:	dfc00417 	ldw	ra,16(sp)
 100ca74:	dcc00317 	ldw	r19,12(sp)
 100ca78:	dc800217 	ldw	r18,8(sp)
 100ca7c:	dc400117 	ldw	r17,4(sp)
 100ca80:	dc000017 	ldw	r16,0(sp)
 100ca84:	dec00504 	addi	sp,sp,20
 100ca88:	100de141 	jmpi	100de14 <_write_r>

0100ca8c <__sread>:
 100ca8c:	defffe04 	addi	sp,sp,-8
 100ca90:	dc000015 	stw	r16,0(sp)
 100ca94:	2821883a 	mov	r16,r5
 100ca98:	2940038f 	ldh	r5,14(r5)
 100ca9c:	dfc00115 	stw	ra,4(sp)
 100caa0:	100e17c0 	call	100e17c <_read_r>
 100caa4:	1007883a 	mov	r3,r2
 100caa8:	10000816 	blt	r2,zero,100cacc <__sread+0x40>
 100caac:	80801417 	ldw	r2,80(r16)
 100cab0:	10c5883a 	add	r2,r2,r3
 100cab4:	80801415 	stw	r2,80(r16)
 100cab8:	1805883a 	mov	r2,r3
 100cabc:	dfc00117 	ldw	ra,4(sp)
 100cac0:	dc000017 	ldw	r16,0(sp)
 100cac4:	dec00204 	addi	sp,sp,8
 100cac8:	f800283a 	ret
 100cacc:	8080030b 	ldhu	r2,12(r16)
 100cad0:	10bbffcc 	andi	r2,r2,61439
 100cad4:	8080030d 	sth	r2,12(r16)
 100cad8:	1805883a 	mov	r2,r3
 100cadc:	dfc00117 	ldw	ra,4(sp)
 100cae0:	dc000017 	ldw	r16,0(sp)
 100cae4:	dec00204 	addi	sp,sp,8
 100cae8:	f800283a 	ret

0100caec <strcmp>:
 100caec:	2144b03a 	or	r2,r4,r5
 100caf0:	108000cc 	andi	r2,r2,3
 100caf4:	10001d1e 	bne	r2,zero,100cb6c <strcmp+0x80>
 100caf8:	200f883a 	mov	r7,r4
 100cafc:	28800017 	ldw	r2,0(r5)
 100cb00:	21000017 	ldw	r4,0(r4)
 100cb04:	280d883a 	mov	r6,r5
 100cb08:	2080161e 	bne	r4,r2,100cb64 <strcmp+0x78>
 100cb0c:	023fbff4 	movhi	r8,65279
 100cb10:	423fbfc4 	addi	r8,r8,-257
 100cb14:	2207883a 	add	r3,r4,r8
 100cb18:	01602074 	movhi	r5,32897
 100cb1c:	29602004 	addi	r5,r5,-32640
 100cb20:	1946703a 	and	r3,r3,r5
 100cb24:	0104303a 	nor	r2,zero,r4
 100cb28:	10c4703a 	and	r2,r2,r3
 100cb2c:	10001c1e 	bne	r2,zero,100cba0 <strcmp+0xb4>
 100cb30:	4013883a 	mov	r9,r8
 100cb34:	2811883a 	mov	r8,r5
 100cb38:	00000106 	br	100cb40 <strcmp+0x54>
 100cb3c:	1800181e 	bne	r3,zero,100cba0 <strcmp+0xb4>
 100cb40:	39c00104 	addi	r7,r7,4
 100cb44:	39000017 	ldw	r4,0(r7)
 100cb48:	31800104 	addi	r6,r6,4
 100cb4c:	31400017 	ldw	r5,0(r6)
 100cb50:	2245883a 	add	r2,r4,r9
 100cb54:	1204703a 	and	r2,r2,r8
 100cb58:	0106303a 	nor	r3,zero,r4
 100cb5c:	1886703a 	and	r3,r3,r2
 100cb60:	217ff626 	beq	r4,r5,100cb3c <strcmp+0x50>
 100cb64:	3809883a 	mov	r4,r7
 100cb68:	300b883a 	mov	r5,r6
 100cb6c:	20c00007 	ldb	r3,0(r4)
 100cb70:	1800051e 	bne	r3,zero,100cb88 <strcmp+0x9c>
 100cb74:	00000606 	br	100cb90 <strcmp+0xa4>
 100cb78:	21000044 	addi	r4,r4,1
 100cb7c:	20c00007 	ldb	r3,0(r4)
 100cb80:	29400044 	addi	r5,r5,1
 100cb84:	18000226 	beq	r3,zero,100cb90 <strcmp+0xa4>
 100cb88:	28800007 	ldb	r2,0(r5)
 100cb8c:	18bffa26 	beq	r3,r2,100cb78 <strcmp+0x8c>
 100cb90:	20c00003 	ldbu	r3,0(r4)
 100cb94:	28800003 	ldbu	r2,0(r5)
 100cb98:	1885c83a 	sub	r2,r3,r2
 100cb9c:	f800283a 	ret
 100cba0:	0005883a 	mov	r2,zero
 100cba4:	f800283a 	ret

0100cba8 <__sprint_r>:
 100cba8:	30800217 	ldw	r2,8(r6)
 100cbac:	defffe04 	addi	sp,sp,-8
 100cbb0:	dc000015 	stw	r16,0(sp)
 100cbb4:	dfc00115 	stw	ra,4(sp)
 100cbb8:	3021883a 	mov	r16,r6
 100cbbc:	0007883a 	mov	r3,zero
 100cbc0:	1000061e 	bne	r2,zero,100cbdc <__sprint_r+0x34>
 100cbc4:	1805883a 	mov	r2,r3
 100cbc8:	30000115 	stw	zero,4(r6)
 100cbcc:	dfc00117 	ldw	ra,4(sp)
 100cbd0:	dc000017 	ldw	r16,0(sp)
 100cbd4:	dec00204 	addi	sp,sp,8
 100cbd8:	f800283a 	ret
 100cbdc:	100a3d40 	call	100a3d4 <__sfvwrite_r>
 100cbe0:	1007883a 	mov	r3,r2
 100cbe4:	1805883a 	mov	r2,r3
 100cbe8:	80000115 	stw	zero,4(r16)
 100cbec:	80000215 	stw	zero,8(r16)
 100cbf0:	dfc00117 	ldw	ra,4(sp)
 100cbf4:	dc000017 	ldw	r16,0(sp)
 100cbf8:	dec00204 	addi	sp,sp,8
 100cbfc:	f800283a 	ret

0100cc00 <___vfiprintf_internal_r>:
 100cc00:	defeb604 	addi	sp,sp,-1320
 100cc04:	dd814615 	stw	r22,1304(sp)
 100cc08:	dd414515 	stw	r21,1300(sp)
 100cc0c:	dc014015 	stw	r16,1280(sp)
 100cc10:	dfc14915 	stw	ra,1316(sp)
 100cc14:	df014815 	stw	fp,1312(sp)
 100cc18:	ddc14715 	stw	r23,1308(sp)
 100cc1c:	dd014415 	stw	r20,1296(sp)
 100cc20:	dcc14315 	stw	r19,1292(sp)
 100cc24:	dc814215 	stw	r18,1288(sp)
 100cc28:	dc414115 	stw	r17,1284(sp)
 100cc2c:	202d883a 	mov	r22,r4
 100cc30:	282b883a 	mov	r21,r5
 100cc34:	3021883a 	mov	r16,r6
 100cc38:	20000226 	beq	r4,zero,100cc44 <___vfiprintf_internal_r+0x44>
 100cc3c:	20800e17 	ldw	r2,56(r4)
 100cc40:	1001bc26 	beq	r2,zero,100d334 <___vfiprintf_internal_r+0x734>
 100cc44:	a880030b 	ldhu	r2,12(r21)
 100cc48:	1080020c 	andi	r2,r2,8
 100cc4c:	1001cb26 	beq	r2,zero,100d37c <___vfiprintf_internal_r+0x77c>
 100cc50:	a8800417 	ldw	r2,16(r21)
 100cc54:	1001c926 	beq	r2,zero,100d37c <___vfiprintf_internal_r+0x77c>
 100cc58:	aa00030b 	ldhu	r8,12(r21)
 100cc5c:	00800284 	movi	r2,10
 100cc60:	40c0068c 	andi	r3,r8,26
 100cc64:	18802f1e 	bne	r3,r2,100cd24 <___vfiprintf_internal_r+0x124>
 100cc68:	a880038f 	ldh	r2,14(r21)
 100cc6c:	10002d16 	blt	r2,zero,100cd24 <___vfiprintf_internal_r+0x124>
 100cc70:	aa40038b 	ldhu	r9,14(r21)
 100cc74:	aa800717 	ldw	r10,28(r21)
 100cc78:	aac00917 	ldw	r11,36(r21)
 100cc7c:	dc401e04 	addi	r17,sp,120
 100cc80:	d8803504 	addi	r2,sp,212
 100cc84:	00c10004 	movi	r3,1024
 100cc88:	423fff4c 	andi	r8,r8,65533
 100cc8c:	800d883a 	mov	r6,r16
 100cc90:	b009883a 	mov	r4,r22
 100cc94:	880b883a 	mov	r5,r17
 100cc98:	da00210d 	sth	r8,132(sp)
 100cc9c:	da40218d 	sth	r9,134(sp)
 100cca0:	da802515 	stw	r10,148(sp)
 100cca4:	dac02715 	stw	r11,156(sp)
 100cca8:	d8802215 	stw	r2,136(sp)
 100ccac:	d8c02315 	stw	r3,140(sp)
 100ccb0:	d8801e15 	stw	r2,120(sp)
 100ccb4:	d8c02015 	stw	r3,128(sp)
 100ccb8:	d8002415 	stw	zero,144(sp)
 100ccbc:	100cc000 	call	100cc00 <___vfiprintf_internal_r>
 100ccc0:	d8813a15 	stw	r2,1256(sp)
 100ccc4:	10000416 	blt	r2,zero,100ccd8 <___vfiprintf_internal_r+0xd8>
 100ccc8:	b009883a 	mov	r4,r22
 100cccc:	880b883a 	mov	r5,r17
 100ccd0:	1009aa40 	call	1009aa4 <_fflush_r>
 100ccd4:	1001b01e 	bne	r2,zero,100d398 <___vfiprintf_internal_r+0x798>
 100ccd8:	d880210b 	ldhu	r2,132(sp)
 100ccdc:	1080100c 	andi	r2,r2,64
 100cce0:	10000326 	beq	r2,zero,100ccf0 <___vfiprintf_internal_r+0xf0>
 100cce4:	a880030b 	ldhu	r2,12(r21)
 100cce8:	10801014 	ori	r2,r2,64
 100ccec:	a880030d 	sth	r2,12(r21)
 100ccf0:	d8813a17 	ldw	r2,1256(sp)
 100ccf4:	dfc14917 	ldw	ra,1316(sp)
 100ccf8:	df014817 	ldw	fp,1312(sp)
 100ccfc:	ddc14717 	ldw	r23,1308(sp)
 100cd00:	dd814617 	ldw	r22,1304(sp)
 100cd04:	dd414517 	ldw	r21,1300(sp)
 100cd08:	dd014417 	ldw	r20,1296(sp)
 100cd0c:	dcc14317 	ldw	r19,1292(sp)
 100cd10:	dc814217 	ldw	r18,1288(sp)
 100cd14:	dc414117 	ldw	r17,1284(sp)
 100cd18:	dc014017 	ldw	r16,1280(sp)
 100cd1c:	dec14a04 	addi	sp,sp,1320
 100cd20:	f800283a 	ret
 100cd24:	d8c00e04 	addi	r3,sp,56
 100cd28:	8029883a 	mov	r20,r16
 100cd2c:	d8c00115 	stw	r3,4(sp)
 100cd30:	d8000315 	stw	zero,12(sp)
 100cd34:	d8000215 	stw	zero,8(sp)
 100cd38:	1825883a 	mov	r18,r3
 100cd3c:	d8013a15 	stw	zero,1256(sp)
 100cd40:	d8013615 	stw	zero,1240(sp)
 100cd44:	a0800007 	ldb	r2,0(r20)
 100cd48:	10001926 	beq	r2,zero,100cdb0 <___vfiprintf_internal_r+0x1b0>
 100cd4c:	00c00944 	movi	r3,37
 100cd50:	10c01726 	beq	r2,r3,100cdb0 <___vfiprintf_internal_r+0x1b0>
 100cd54:	a021883a 	mov	r16,r20
 100cd58:	00000106 	br	100cd60 <___vfiprintf_internal_r+0x160>
 100cd5c:	10c00326 	beq	r2,r3,100cd6c <___vfiprintf_internal_r+0x16c>
 100cd60:	84000044 	addi	r16,r16,1
 100cd64:	80800007 	ldb	r2,0(r16)
 100cd68:	103ffc1e 	bne	r2,zero,100cd5c <___vfiprintf_internal_r+0x15c>
 100cd6c:	8523c83a 	sub	r17,r16,r20
 100cd70:	88000e26 	beq	r17,zero,100cdac <___vfiprintf_internal_r+0x1ac>
 100cd74:	d9400317 	ldw	r5,12(sp)
 100cd78:	d9000217 	ldw	r4,8(sp)
 100cd7c:	008001c4 	movi	r2,7
 100cd80:	2c4b883a 	add	r5,r5,r17
 100cd84:	21000044 	addi	r4,r4,1
 100cd88:	95000015 	stw	r20,0(r18)
 100cd8c:	d9400315 	stw	r5,12(sp)
 100cd90:	94400115 	stw	r17,4(r18)
 100cd94:	d9000215 	stw	r4,8(sp)
 100cd98:	1101e816 	blt	r2,r4,100d53c <___vfiprintf_internal_r+0x93c>
 100cd9c:	94800204 	addi	r18,r18,8
 100cda0:	d9013a17 	ldw	r4,1256(sp)
 100cda4:	2449883a 	add	r4,r4,r17
 100cda8:	d9013a15 	stw	r4,1256(sp)
 100cdac:	8029883a 	mov	r20,r16
 100cdb0:	a0800007 	ldb	r2,0(r20)
 100cdb4:	10012e26 	beq	r2,zero,100d270 <___vfiprintf_internal_r+0x670>
 100cdb8:	a5000044 	addi	r20,r20,1
 100cdbc:	d8000005 	stb	zero,0(sp)
 100cdc0:	a0c00007 	ldb	r3,0(r20)
 100cdc4:	05ffffc4 	movi	r23,-1
 100cdc8:	d8013915 	stw	zero,1252(sp)
 100cdcc:	d8013b15 	stw	zero,1260(sp)
 100cdd0:	180b883a 	mov	r5,r3
 100cdd4:	a5000044 	addi	r20,r20,1
 100cdd8:	28fff804 	addi	r3,r5,-32
 100cddc:	00801604 	movi	r2,88
 100cde0:	10c06036 	bltu	r2,r3,100cf64 <___vfiprintf_internal_r+0x364>
 100cde4:	18c5883a 	add	r2,r3,r3
 100cde8:	1085883a 	add	r2,r2,r2
 100cdec:	00c04074 	movhi	r3,257
 100cdf0:	18f38004 	addi	r3,r3,-12800
 100cdf4:	10c5883a 	add	r2,r2,r3
 100cdf8:	11000017 	ldw	r4,0(r2)
 100cdfc:	2000683a 	jmp	r4
 100ce00:	0100d668 	cmpgeui	r4,zero,857
 100ce04:	0100cf64 	muli	r4,zero,829
 100ce08:	0100cf64 	muli	r4,zero,829
 100ce0c:	0100d710 	cmplti	r4,zero,860
 100ce10:	0100cf64 	muli	r4,zero,829
 100ce14:	0100cf64 	muli	r4,zero,829
 100ce18:	0100cf64 	muli	r4,zero,829
 100ce1c:	0100cf64 	muli	r4,zero,829
 100ce20:	0100cf64 	muli	r4,zero,829
 100ce24:	0100cf64 	muli	r4,zero,829
 100ce28:	0100d5f0 	cmpltui	r4,zero,855
 100ce2c:	0100d724 	muli	r4,zero,860
 100ce30:	0100cf64 	muli	r4,zero,829
 100ce34:	0100d608 	cmpgei	r4,zero,856
 100ce38:	0100d6c0 	call	100d6c <__alt_mem_onchip_memory2_0+0x100d6c>
 100ce3c:	0100cf64 	muli	r4,zero,829
 100ce40:	0100d6ac 	andhi	r4,zero,858
 100ce44:	0100d680 	call	100d68 <__alt_mem_onchip_memory2_0+0x100d68>
 100ce48:	0100d680 	call	100d68 <__alt_mem_onchip_memory2_0+0x100d68>
 100ce4c:	0100d680 	call	100d68 <__alt_mem_onchip_memory2_0+0x100d68>
 100ce50:	0100d680 	call	100d68 <__alt_mem_onchip_memory2_0+0x100d68>
 100ce54:	0100d680 	call	100d68 <__alt_mem_onchip_memory2_0+0x100d68>
 100ce58:	0100d680 	call	100d68 <__alt_mem_onchip_memory2_0+0x100d68>
 100ce5c:	0100d680 	call	100d68 <__alt_mem_onchip_memory2_0+0x100d68>
 100ce60:	0100d680 	call	100d68 <__alt_mem_onchip_memory2_0+0x100d68>
 100ce64:	0100d680 	call	100d68 <__alt_mem_onchip_memory2_0+0x100d68>
 100ce68:	0100cf64 	muli	r4,zero,829
 100ce6c:	0100cf64 	muli	r4,zero,829
 100ce70:	0100cf64 	muli	r4,zero,829
 100ce74:	0100cf64 	muli	r4,zero,829
 100ce78:	0100cf64 	muli	r4,zero,829
 100ce7c:	0100cf64 	muli	r4,zero,829
 100ce80:	0100cf64 	muli	r4,zero,829
 100ce84:	0100cf64 	muli	r4,zero,829
 100ce88:	0100cf64 	muli	r4,zero,829
 100ce8c:	0100cf64 	muli	r4,zero,829
 100ce90:	0100d3cc 	andi	r4,zero,847
 100ce94:	0100cf64 	muli	r4,zero,829
 100ce98:	0100cf64 	muli	r4,zero,829
 100ce9c:	0100cf64 	muli	r4,zero,829
 100cea0:	0100cf64 	muli	r4,zero,829
 100cea4:	0100cf64 	muli	r4,zero,829
 100cea8:	0100cf64 	muli	r4,zero,829
 100ceac:	0100cf64 	muli	r4,zero,829
 100ceb0:	0100cf64 	muli	r4,zero,829
 100ceb4:	0100cf64 	muli	r4,zero,829
 100ceb8:	0100cf64 	muli	r4,zero,829
 100cebc:	0100d480 	call	100d48 <__alt_mem_onchip_memory2_0+0x100d48>
 100cec0:	0100cf64 	muli	r4,zero,829
 100cec4:	0100cf64 	muli	r4,zero,829
 100cec8:	0100cf64 	muli	r4,zero,829
 100cecc:	0100cf64 	muli	r4,zero,829
 100ced0:	0100cf64 	muli	r4,zero,829
 100ced4:	0100d4cc 	andi	r4,zero,851
 100ced8:	0100cf64 	muli	r4,zero,829
 100cedc:	0100cf64 	muli	r4,zero,829
 100cee0:	0100d7bc 	xorhi	r4,zero,862
 100cee4:	0100cf64 	muli	r4,zero,829
 100cee8:	0100cf64 	muli	r4,zero,829
 100ceec:	0100cf64 	muli	r4,zero,829
 100cef0:	0100cf64 	muli	r4,zero,829
 100cef4:	0100cf64 	muli	r4,zero,829
 100cef8:	0100cf64 	muli	r4,zero,829
 100cefc:	0100cf64 	muli	r4,zero,829
 100cf00:	0100cf64 	muli	r4,zero,829
 100cf04:	0100cf64 	muli	r4,zero,829
 100cf08:	0100cf64 	muli	r4,zero,829
 100cf0c:	0100d794 	movui	r4,862
 100cf10:	0100d3d8 	cmpnei	r4,zero,847
 100cf14:	0100cf64 	muli	r4,zero,829
 100cf18:	0100cf64 	muli	r4,zero,829
 100cf1c:	0100cf64 	muli	r4,zero,829
 100cf20:	0100d8a0 	cmpeqi	r4,zero,866
 100cf24:	0100d3d8 	cmpnei	r4,zero,847
 100cf28:	0100cf64 	muli	r4,zero,829
 100cf2c:	0100cf64 	muli	r4,zero,829
 100cf30:	0100d7f4 	movhi	r4,863
 100cf34:	0100cf64 	muli	r4,zero,829
 100cf38:	0100d7cc 	andi	r4,zero,863
 100cf3c:	0100d48c 	andi	r4,zero,850
 100cf40:	0100d85c 	xori	r4,zero,865
 100cf44:	0100d8b4 	movhi	r4,866
 100cf48:	0100cf64 	muli	r4,zero,829
 100cf4c:	0100d810 	cmplti	r4,zero,864
 100cf50:	0100cf64 	muli	r4,zero,829
 100cf54:	0100d4d8 	cmpnei	r4,zero,851
 100cf58:	0100cf64 	muli	r4,zero,829
 100cf5c:	0100cf64 	muli	r4,zero,829
 100cf60:	0100d734 	movhi	r4,860
 100cf64:	2800c226 	beq	r5,zero,100d270 <___vfiprintf_internal_r+0x670>
 100cf68:	07000044 	movi	fp,1
 100cf6c:	d9000404 	addi	r4,sp,16
 100cf70:	d9c13515 	stw	r7,1236(sp)
 100cf74:	d9013c15 	stw	r4,1264(sp)
 100cf78:	df013715 	stw	fp,1244(sp)
 100cf7c:	d9400405 	stb	r5,16(sp)
 100cf80:	d8000005 	stb	zero,0(sp)
 100cf84:	d8013815 	stw	zero,1248(sp)
 100cf88:	d9813b17 	ldw	r6,1260(sp)
 100cf8c:	3080008c 	andi	r2,r6,2
 100cf90:	1005003a 	cmpeq	r2,r2,zero
 100cf94:	d8813e15 	stw	r2,1272(sp)
 100cf98:	1000011e 	bne	r2,zero,100cfa0 <___vfiprintf_internal_r+0x3a0>
 100cf9c:	e7000084 	addi	fp,fp,2
 100cfa0:	d8813b17 	ldw	r2,1260(sp)
 100cfa4:	1080210c 	andi	r2,r2,132
 100cfa8:	d8813d15 	stw	r2,1268(sp)
 100cfac:	10002a1e 	bne	r2,zero,100d058 <___vfiprintf_internal_r+0x458>
 100cfb0:	d8c13917 	ldw	r3,1252(sp)
 100cfb4:	1f21c83a 	sub	r16,r3,fp
 100cfb8:	0400270e 	bge	zero,r16,100d058 <___vfiprintf_internal_r+0x458>
 100cfbc:	00800404 	movi	r2,16
 100cfc0:	1402c80e 	bge	r2,r16,100dae4 <___vfiprintf_internal_r+0xee4>
 100cfc4:	d9400317 	ldw	r5,12(sp)
 100cfc8:	d9000217 	ldw	r4,8(sp)
 100cfcc:	1023883a 	mov	r17,r2
 100cfd0:	05c04074 	movhi	r23,257
 100cfd4:	bdcf5304 	addi	r23,r23,15692
 100cfd8:	04c001c4 	movi	r19,7
 100cfdc:	00000306 	br	100cfec <___vfiprintf_internal_r+0x3ec>
 100cfe0:	843ffc04 	addi	r16,r16,-16
 100cfe4:	94800204 	addi	r18,r18,8
 100cfe8:	8c00110e 	bge	r17,r16,100d030 <___vfiprintf_internal_r+0x430>
 100cfec:	29400404 	addi	r5,r5,16
 100cff0:	21000044 	addi	r4,r4,1
 100cff4:	95c00015 	stw	r23,0(r18)
 100cff8:	94400115 	stw	r17,4(r18)
 100cffc:	d9400315 	stw	r5,12(sp)
 100d000:	d9000215 	stw	r4,8(sp)
 100d004:	993ff60e 	bge	r19,r4,100cfe0 <___vfiprintf_internal_r+0x3e0>
 100d008:	b009883a 	mov	r4,r22
 100d00c:	a80b883a 	mov	r5,r21
 100d010:	d9800104 	addi	r6,sp,4
 100d014:	100cba80 	call	100cba8 <__sprint_r>
 100d018:	1000981e 	bne	r2,zero,100d27c <___vfiprintf_internal_r+0x67c>
 100d01c:	843ffc04 	addi	r16,r16,-16
 100d020:	d9400317 	ldw	r5,12(sp)
 100d024:	d9000217 	ldw	r4,8(sp)
 100d028:	dc800e04 	addi	r18,sp,56
 100d02c:	8c3fef16 	blt	r17,r16,100cfec <___vfiprintf_internal_r+0x3ec>
 100d030:	2c0b883a 	add	r5,r5,r16
 100d034:	21000044 	addi	r4,r4,1
 100d038:	008001c4 	movi	r2,7
 100d03c:	95c00015 	stw	r23,0(r18)
 100d040:	94000115 	stw	r16,4(r18)
 100d044:	d9400315 	stw	r5,12(sp)
 100d048:	d9000215 	stw	r4,8(sp)
 100d04c:	11015616 	blt	r2,r4,100d5a8 <___vfiprintf_internal_r+0x9a8>
 100d050:	94800204 	addi	r18,r18,8
 100d054:	00000206 	br	100d060 <___vfiprintf_internal_r+0x460>
 100d058:	d9400317 	ldw	r5,12(sp)
 100d05c:	d9000217 	ldw	r4,8(sp)
 100d060:	d8800007 	ldb	r2,0(sp)
 100d064:	10000a26 	beq	r2,zero,100d090 <___vfiprintf_internal_r+0x490>
 100d068:	00800044 	movi	r2,1
 100d06c:	29400044 	addi	r5,r5,1
 100d070:	21000044 	addi	r4,r4,1
 100d074:	90800115 	stw	r2,4(r18)
 100d078:	008001c4 	movi	r2,7
 100d07c:	96c00015 	stw	sp,0(r18)
 100d080:	d9400315 	stw	r5,12(sp)
 100d084:	d9000215 	stw	r4,8(sp)
 100d088:	11013516 	blt	r2,r4,100d560 <___vfiprintf_internal_r+0x960>
 100d08c:	94800204 	addi	r18,r18,8
 100d090:	d9813e17 	ldw	r6,1272(sp)
 100d094:	30000b1e 	bne	r6,zero,100d0c4 <___vfiprintf_internal_r+0x4c4>
 100d098:	d8800044 	addi	r2,sp,1
 100d09c:	29400084 	addi	r5,r5,2
 100d0a0:	21000044 	addi	r4,r4,1
 100d0a4:	90800015 	stw	r2,0(r18)
 100d0a8:	00c00084 	movi	r3,2
 100d0ac:	008001c4 	movi	r2,7
 100d0b0:	90c00115 	stw	r3,4(r18)
 100d0b4:	d9400315 	stw	r5,12(sp)
 100d0b8:	d9000215 	stw	r4,8(sp)
 100d0bc:	11013116 	blt	r2,r4,100d584 <___vfiprintf_internal_r+0x984>
 100d0c0:	94800204 	addi	r18,r18,8
 100d0c4:	d8c13d17 	ldw	r3,1268(sp)
 100d0c8:	00802004 	movi	r2,128
 100d0cc:	18807126 	beq	r3,r2,100d294 <___vfiprintf_internal_r+0x694>
 100d0d0:	d8813817 	ldw	r2,1248(sp)
 100d0d4:	d8c13717 	ldw	r3,1244(sp)
 100d0d8:	10e1c83a 	sub	r16,r2,r3
 100d0dc:	0400240e 	bge	zero,r16,100d170 <___vfiprintf_internal_r+0x570>
 100d0e0:	00800404 	movi	r2,16
 100d0e4:	1402510e 	bge	r2,r16,100da2c <___vfiprintf_internal_r+0xe2c>
 100d0e8:	1023883a 	mov	r17,r2
 100d0ec:	05c04074 	movhi	r23,257
 100d0f0:	bdcf4f04 	addi	r23,r23,15676
 100d0f4:	04c001c4 	movi	r19,7
 100d0f8:	00000306 	br	100d108 <___vfiprintf_internal_r+0x508>
 100d0fc:	843ffc04 	addi	r16,r16,-16
 100d100:	94800204 	addi	r18,r18,8
 100d104:	8c00110e 	bge	r17,r16,100d14c <___vfiprintf_internal_r+0x54c>
 100d108:	29400404 	addi	r5,r5,16
 100d10c:	21000044 	addi	r4,r4,1
 100d110:	95c00015 	stw	r23,0(r18)
 100d114:	94400115 	stw	r17,4(r18)
 100d118:	d9400315 	stw	r5,12(sp)
 100d11c:	d9000215 	stw	r4,8(sp)
 100d120:	993ff60e 	bge	r19,r4,100d0fc <___vfiprintf_internal_r+0x4fc>
 100d124:	b009883a 	mov	r4,r22
 100d128:	a80b883a 	mov	r5,r21
 100d12c:	d9800104 	addi	r6,sp,4
 100d130:	100cba80 	call	100cba8 <__sprint_r>
 100d134:	1000511e 	bne	r2,zero,100d27c <___vfiprintf_internal_r+0x67c>
 100d138:	843ffc04 	addi	r16,r16,-16
 100d13c:	d9400317 	ldw	r5,12(sp)
 100d140:	d9000217 	ldw	r4,8(sp)
 100d144:	dc800e04 	addi	r18,sp,56
 100d148:	8c3fef16 	blt	r17,r16,100d108 <___vfiprintf_internal_r+0x508>
 100d14c:	2c0b883a 	add	r5,r5,r16
 100d150:	21000044 	addi	r4,r4,1
 100d154:	008001c4 	movi	r2,7
 100d158:	95c00015 	stw	r23,0(r18)
 100d15c:	94000115 	stw	r16,4(r18)
 100d160:	d9400315 	stw	r5,12(sp)
 100d164:	d9000215 	stw	r4,8(sp)
 100d168:	1100eb16 	blt	r2,r4,100d518 <___vfiprintf_internal_r+0x918>
 100d16c:	94800204 	addi	r18,r18,8
 100d170:	d9813717 	ldw	r6,1244(sp)
 100d174:	d8813c17 	ldw	r2,1264(sp)
 100d178:	21000044 	addi	r4,r4,1
 100d17c:	298b883a 	add	r5,r5,r6
 100d180:	90800015 	stw	r2,0(r18)
 100d184:	008001c4 	movi	r2,7
 100d188:	91800115 	stw	r6,4(r18)
 100d18c:	d9400315 	stw	r5,12(sp)
 100d190:	d9000215 	stw	r4,8(sp)
 100d194:	11006b16 	blt	r2,r4,100d344 <___vfiprintf_internal_r+0x744>
 100d198:	90c00204 	addi	r3,r18,8
 100d19c:	d9013b17 	ldw	r4,1260(sp)
 100d1a0:	2080010c 	andi	r2,r4,4
 100d1a4:	10002726 	beq	r2,zero,100d244 <___vfiprintf_internal_r+0x644>
 100d1a8:	d9813917 	ldw	r6,1252(sp)
 100d1ac:	3721c83a 	sub	r16,r6,fp
 100d1b0:	0400240e 	bge	zero,r16,100d244 <___vfiprintf_internal_r+0x644>
 100d1b4:	00800404 	movi	r2,16
 100d1b8:	1402720e 	bge	r2,r16,100db84 <___vfiprintf_internal_r+0xf84>
 100d1bc:	d9000217 	ldw	r4,8(sp)
 100d1c0:	1023883a 	mov	r17,r2
 100d1c4:	05c04074 	movhi	r23,257
 100d1c8:	bdcf5304 	addi	r23,r23,15692
 100d1cc:	048001c4 	movi	r18,7
 100d1d0:	00000306 	br	100d1e0 <___vfiprintf_internal_r+0x5e0>
 100d1d4:	843ffc04 	addi	r16,r16,-16
 100d1d8:	18c00204 	addi	r3,r3,8
 100d1dc:	8c00110e 	bge	r17,r16,100d224 <___vfiprintf_internal_r+0x624>
 100d1e0:	29400404 	addi	r5,r5,16
 100d1e4:	21000044 	addi	r4,r4,1
 100d1e8:	1dc00015 	stw	r23,0(r3)
 100d1ec:	1c400115 	stw	r17,4(r3)
 100d1f0:	d9400315 	stw	r5,12(sp)
 100d1f4:	d9000215 	stw	r4,8(sp)
 100d1f8:	913ff60e 	bge	r18,r4,100d1d4 <___vfiprintf_internal_r+0x5d4>
 100d1fc:	b009883a 	mov	r4,r22
 100d200:	a80b883a 	mov	r5,r21
 100d204:	d9800104 	addi	r6,sp,4
 100d208:	100cba80 	call	100cba8 <__sprint_r>
 100d20c:	10001b1e 	bne	r2,zero,100d27c <___vfiprintf_internal_r+0x67c>
 100d210:	843ffc04 	addi	r16,r16,-16
 100d214:	d9400317 	ldw	r5,12(sp)
 100d218:	d9000217 	ldw	r4,8(sp)
 100d21c:	d8c00e04 	addi	r3,sp,56
 100d220:	8c3fef16 	blt	r17,r16,100d1e0 <___vfiprintf_internal_r+0x5e0>
 100d224:	2c0b883a 	add	r5,r5,r16
 100d228:	21000044 	addi	r4,r4,1
 100d22c:	008001c4 	movi	r2,7
 100d230:	1dc00015 	stw	r23,0(r3)
 100d234:	1c000115 	stw	r16,4(r3)
 100d238:	d9400315 	stw	r5,12(sp)
 100d23c:	d9000215 	stw	r4,8(sp)
 100d240:	11005b16 	blt	r2,r4,100d3b0 <___vfiprintf_internal_r+0x7b0>
 100d244:	d8813917 	ldw	r2,1252(sp)
 100d248:	1700010e 	bge	r2,fp,100d250 <___vfiprintf_internal_r+0x650>
 100d24c:	e005883a 	mov	r2,fp
 100d250:	d8c13a17 	ldw	r3,1256(sp)
 100d254:	1887883a 	add	r3,r3,r2
 100d258:	d8c13a15 	stw	r3,1256(sp)
 100d25c:	2800411e 	bne	r5,zero,100d364 <___vfiprintf_internal_r+0x764>
 100d260:	d9c13517 	ldw	r7,1236(sp)
 100d264:	dc800e04 	addi	r18,sp,56
 100d268:	d8000215 	stw	zero,8(sp)
 100d26c:	003eb506 	br	100cd44 <___vfiprintf_internal_r+0x144>
 100d270:	d8800317 	ldw	r2,12(sp)
 100d274:	1002521e 	bne	r2,zero,100dbc0 <___vfiprintf_internal_r+0xfc0>
 100d278:	d8000215 	stw	zero,8(sp)
 100d27c:	a880030b 	ldhu	r2,12(r21)
 100d280:	1080100c 	andi	r2,r2,64
 100d284:	103e9a26 	beq	r2,zero,100ccf0 <___vfiprintf_internal_r+0xf0>
 100d288:	013fffc4 	movi	r4,-1
 100d28c:	d9013a15 	stw	r4,1256(sp)
 100d290:	003e9706 	br	100ccf0 <___vfiprintf_internal_r+0xf0>
 100d294:	d9813917 	ldw	r6,1252(sp)
 100d298:	3721c83a 	sub	r16,r6,fp
 100d29c:	043f8c0e 	bge	zero,r16,100d0d0 <___vfiprintf_internal_r+0x4d0>
 100d2a0:	00800404 	movi	r2,16
 100d2a4:	14024c0e 	bge	r2,r16,100dbd8 <___vfiprintf_internal_r+0xfd8>
 100d2a8:	1023883a 	mov	r17,r2
 100d2ac:	05c04074 	movhi	r23,257
 100d2b0:	bdcf4f04 	addi	r23,r23,15676
 100d2b4:	04c001c4 	movi	r19,7
 100d2b8:	00000306 	br	100d2c8 <___vfiprintf_internal_r+0x6c8>
 100d2bc:	843ffc04 	addi	r16,r16,-16
 100d2c0:	94800204 	addi	r18,r18,8
 100d2c4:	8c00110e 	bge	r17,r16,100d30c <___vfiprintf_internal_r+0x70c>
 100d2c8:	29400404 	addi	r5,r5,16
 100d2cc:	21000044 	addi	r4,r4,1
 100d2d0:	95c00015 	stw	r23,0(r18)
 100d2d4:	94400115 	stw	r17,4(r18)
 100d2d8:	d9400315 	stw	r5,12(sp)
 100d2dc:	d9000215 	stw	r4,8(sp)
 100d2e0:	993ff60e 	bge	r19,r4,100d2bc <___vfiprintf_internal_r+0x6bc>
 100d2e4:	b009883a 	mov	r4,r22
 100d2e8:	a80b883a 	mov	r5,r21
 100d2ec:	d9800104 	addi	r6,sp,4
 100d2f0:	100cba80 	call	100cba8 <__sprint_r>
 100d2f4:	103fe11e 	bne	r2,zero,100d27c <___vfiprintf_internal_r+0x67c>
 100d2f8:	843ffc04 	addi	r16,r16,-16
 100d2fc:	d9400317 	ldw	r5,12(sp)
 100d300:	d9000217 	ldw	r4,8(sp)
 100d304:	dc800e04 	addi	r18,sp,56
 100d308:	8c3fef16 	blt	r17,r16,100d2c8 <___vfiprintf_internal_r+0x6c8>
 100d30c:	2c0b883a 	add	r5,r5,r16
 100d310:	21000044 	addi	r4,r4,1
 100d314:	008001c4 	movi	r2,7
 100d318:	95c00015 	stw	r23,0(r18)
 100d31c:	94000115 	stw	r16,4(r18)
 100d320:	d9400315 	stw	r5,12(sp)
 100d324:	d9000215 	stw	r4,8(sp)
 100d328:	1100a816 	blt	r2,r4,100d5cc <___vfiprintf_internal_r+0x9cc>
 100d32c:	94800204 	addi	r18,r18,8
 100d330:	003f6706 	br	100d0d0 <___vfiprintf_internal_r+0x4d0>
 100d334:	d9c13f15 	stw	r7,1276(sp)
 100d338:	1009d3c0 	call	1009d3c <__sinit>
 100d33c:	d9c13f17 	ldw	r7,1276(sp)
 100d340:	003e4006 	br	100cc44 <___vfiprintf_internal_r+0x44>
 100d344:	b009883a 	mov	r4,r22
 100d348:	a80b883a 	mov	r5,r21
 100d34c:	d9800104 	addi	r6,sp,4
 100d350:	100cba80 	call	100cba8 <__sprint_r>
 100d354:	103fc91e 	bne	r2,zero,100d27c <___vfiprintf_internal_r+0x67c>
 100d358:	d9400317 	ldw	r5,12(sp)
 100d35c:	d8c00e04 	addi	r3,sp,56
 100d360:	003f8e06 	br	100d19c <___vfiprintf_internal_r+0x59c>
 100d364:	b009883a 	mov	r4,r22
 100d368:	a80b883a 	mov	r5,r21
 100d36c:	d9800104 	addi	r6,sp,4
 100d370:	100cba80 	call	100cba8 <__sprint_r>
 100d374:	103fba26 	beq	r2,zero,100d260 <___vfiprintf_internal_r+0x660>
 100d378:	003fc006 	br	100d27c <___vfiprintf_internal_r+0x67c>
 100d37c:	b009883a 	mov	r4,r22
 100d380:	a80b883a 	mov	r5,r21
 100d384:	d9c13f15 	stw	r7,1276(sp)
 100d388:	1007fd00 	call	1007fd0 <__swsetup_r>
 100d38c:	d9c13f17 	ldw	r7,1276(sp)
 100d390:	103e3126 	beq	r2,zero,100cc58 <___vfiprintf_internal_r+0x58>
 100d394:	003fbc06 	br	100d288 <___vfiprintf_internal_r+0x688>
 100d398:	00bfffc4 	movi	r2,-1
 100d39c:	d8813a15 	stw	r2,1256(sp)
 100d3a0:	d880210b 	ldhu	r2,132(sp)
 100d3a4:	1080100c 	andi	r2,r2,64
 100d3a8:	103e4e1e 	bne	r2,zero,100cce4 <___vfiprintf_internal_r+0xe4>
 100d3ac:	003e5006 	br	100ccf0 <___vfiprintf_internal_r+0xf0>
 100d3b0:	b009883a 	mov	r4,r22
 100d3b4:	a80b883a 	mov	r5,r21
 100d3b8:	d9800104 	addi	r6,sp,4
 100d3bc:	100cba80 	call	100cba8 <__sprint_r>
 100d3c0:	103fae1e 	bne	r2,zero,100d27c <___vfiprintf_internal_r+0x67c>
 100d3c4:	d9400317 	ldw	r5,12(sp)
 100d3c8:	003f9e06 	br	100d244 <___vfiprintf_internal_r+0x644>
 100d3cc:	d8813b17 	ldw	r2,1260(sp)
 100d3d0:	10800414 	ori	r2,r2,16
 100d3d4:	d8813b15 	stw	r2,1260(sp)
 100d3d8:	d8c13b17 	ldw	r3,1260(sp)
 100d3dc:	1880080c 	andi	r2,r3,32
 100d3e0:	10009c1e 	bne	r2,zero,100d654 <___vfiprintf_internal_r+0xa54>
 100d3e4:	d9413b17 	ldw	r5,1260(sp)
 100d3e8:	2880040c 	andi	r2,r5,16
 100d3ec:	1001b21e 	bne	r2,zero,100dab8 <___vfiprintf_internal_r+0xeb8>
 100d3f0:	d9813b17 	ldw	r6,1260(sp)
 100d3f4:	3080100c 	andi	r2,r6,64
 100d3f8:	1001af26 	beq	r2,zero,100dab8 <___vfiprintf_internal_r+0xeb8>
 100d3fc:	3880000f 	ldh	r2,0(r7)
 100d400:	39c00104 	addi	r7,r7,4
 100d404:	d9c13515 	stw	r7,1236(sp)
 100d408:	1023d7fa 	srai	r17,r2,31
 100d40c:	1021883a 	mov	r16,r2
 100d410:	8801e016 	blt	r17,zero,100db94 <___vfiprintf_internal_r+0xf94>
 100d414:	01000044 	movi	r4,1
 100d418:	b8000416 	blt	r23,zero,100d42c <___vfiprintf_internal_r+0x82c>
 100d41c:	d9413b17 	ldw	r5,1260(sp)
 100d420:	00bfdfc4 	movi	r2,-129
 100d424:	288a703a 	and	r5,r5,r2
 100d428:	d9413b15 	stw	r5,1260(sp)
 100d42c:	8444b03a 	or	r2,r16,r17
 100d430:	1001271e 	bne	r2,zero,100d8d0 <___vfiprintf_internal_r+0xcd0>
 100d434:	b801261e 	bne	r23,zero,100d8d0 <___vfiprintf_internal_r+0xcd0>
 100d438:	20803fcc 	andi	r2,r4,255
 100d43c:	10017e26 	beq	r2,zero,100da38 <___vfiprintf_internal_r+0xe38>
 100d440:	d8c00e04 	addi	r3,sp,56
 100d444:	df000404 	addi	fp,sp,16
 100d448:	d8c13c15 	stw	r3,1264(sp)
 100d44c:	d8c13c17 	ldw	r3,1264(sp)
 100d450:	ddc13815 	stw	r23,1248(sp)
 100d454:	e0c5c83a 	sub	r2,fp,r3
 100d458:	10800a04 	addi	r2,r2,40
 100d45c:	d8813715 	stw	r2,1244(sp)
 100d460:	df013817 	ldw	fp,1248(sp)
 100d464:	d9413717 	ldw	r5,1244(sp)
 100d468:	e140010e 	bge	fp,r5,100d470 <___vfiprintf_internal_r+0x870>
 100d46c:	2839883a 	mov	fp,r5
 100d470:	d8800007 	ldb	r2,0(sp)
 100d474:	103ec426 	beq	r2,zero,100cf88 <___vfiprintf_internal_r+0x388>
 100d478:	e7000044 	addi	fp,fp,1
 100d47c:	003ec206 	br	100cf88 <___vfiprintf_internal_r+0x388>
 100d480:	d9813b17 	ldw	r6,1260(sp)
 100d484:	31800414 	ori	r6,r6,16
 100d488:	d9813b15 	stw	r6,1260(sp)
 100d48c:	d8c13b17 	ldw	r3,1260(sp)
 100d490:	1880080c 	andi	r2,r3,32
 100d494:	1000681e 	bne	r2,zero,100d638 <___vfiprintf_internal_r+0xa38>
 100d498:	d9413b17 	ldw	r5,1260(sp)
 100d49c:	2880040c 	andi	r2,r5,16
 100d4a0:	1001771e 	bne	r2,zero,100da80 <___vfiprintf_internal_r+0xe80>
 100d4a4:	d9813b17 	ldw	r6,1260(sp)
 100d4a8:	3080100c 	andi	r2,r6,64
 100d4ac:	10017426 	beq	r2,zero,100da80 <___vfiprintf_internal_r+0xe80>
 100d4b0:	3c00000b 	ldhu	r16,0(r7)
 100d4b4:	0009883a 	mov	r4,zero
 100d4b8:	39c00104 	addi	r7,r7,4
 100d4bc:	0023883a 	mov	r17,zero
 100d4c0:	d9c13515 	stw	r7,1236(sp)
 100d4c4:	d8000005 	stb	zero,0(sp)
 100d4c8:	003fd306 	br	100d418 <___vfiprintf_internal_r+0x818>
 100d4cc:	d8813b17 	ldw	r2,1260(sp)
 100d4d0:	10800414 	ori	r2,r2,16
 100d4d4:	d8813b15 	stw	r2,1260(sp)
 100d4d8:	d8c13b17 	ldw	r3,1260(sp)
 100d4dc:	1880080c 	andi	r2,r3,32
 100d4e0:	10004e1e 	bne	r2,zero,100d61c <___vfiprintf_internal_r+0xa1c>
 100d4e4:	d9413b17 	ldw	r5,1260(sp)
 100d4e8:	2880040c 	andi	r2,r5,16
 100d4ec:	10016b1e 	bne	r2,zero,100da9c <___vfiprintf_internal_r+0xe9c>
 100d4f0:	d9813b17 	ldw	r6,1260(sp)
 100d4f4:	3080100c 	andi	r2,r6,64
 100d4f8:	10016826 	beq	r2,zero,100da9c <___vfiprintf_internal_r+0xe9c>
 100d4fc:	3c00000b 	ldhu	r16,0(r7)
 100d500:	01000044 	movi	r4,1
 100d504:	39c00104 	addi	r7,r7,4
 100d508:	0023883a 	mov	r17,zero
 100d50c:	d9c13515 	stw	r7,1236(sp)
 100d510:	d8000005 	stb	zero,0(sp)
 100d514:	003fc006 	br	100d418 <___vfiprintf_internal_r+0x818>
 100d518:	b009883a 	mov	r4,r22
 100d51c:	a80b883a 	mov	r5,r21
 100d520:	d9800104 	addi	r6,sp,4
 100d524:	100cba80 	call	100cba8 <__sprint_r>
 100d528:	103f541e 	bne	r2,zero,100d27c <___vfiprintf_internal_r+0x67c>
 100d52c:	d9400317 	ldw	r5,12(sp)
 100d530:	d9000217 	ldw	r4,8(sp)
 100d534:	dc800e04 	addi	r18,sp,56
 100d538:	003f0d06 	br	100d170 <___vfiprintf_internal_r+0x570>
 100d53c:	b009883a 	mov	r4,r22
 100d540:	a80b883a 	mov	r5,r21
 100d544:	d9800104 	addi	r6,sp,4
 100d548:	d9c13f15 	stw	r7,1276(sp)
 100d54c:	100cba80 	call	100cba8 <__sprint_r>
 100d550:	d9c13f17 	ldw	r7,1276(sp)
 100d554:	103f491e 	bne	r2,zero,100d27c <___vfiprintf_internal_r+0x67c>
 100d558:	dc800e04 	addi	r18,sp,56
 100d55c:	003e1006 	br	100cda0 <___vfiprintf_internal_r+0x1a0>
 100d560:	b009883a 	mov	r4,r22
 100d564:	a80b883a 	mov	r5,r21
 100d568:	d9800104 	addi	r6,sp,4
 100d56c:	100cba80 	call	100cba8 <__sprint_r>
 100d570:	103f421e 	bne	r2,zero,100d27c <___vfiprintf_internal_r+0x67c>
 100d574:	d9400317 	ldw	r5,12(sp)
 100d578:	d9000217 	ldw	r4,8(sp)
 100d57c:	dc800e04 	addi	r18,sp,56
 100d580:	003ec306 	br	100d090 <___vfiprintf_internal_r+0x490>
 100d584:	b009883a 	mov	r4,r22
 100d588:	a80b883a 	mov	r5,r21
 100d58c:	d9800104 	addi	r6,sp,4
 100d590:	100cba80 	call	100cba8 <__sprint_r>
 100d594:	103f391e 	bne	r2,zero,100d27c <___vfiprintf_internal_r+0x67c>
 100d598:	d9400317 	ldw	r5,12(sp)
 100d59c:	d9000217 	ldw	r4,8(sp)
 100d5a0:	dc800e04 	addi	r18,sp,56
 100d5a4:	003ec706 	br	100d0c4 <___vfiprintf_internal_r+0x4c4>
 100d5a8:	b009883a 	mov	r4,r22
 100d5ac:	a80b883a 	mov	r5,r21
 100d5b0:	d9800104 	addi	r6,sp,4
 100d5b4:	100cba80 	call	100cba8 <__sprint_r>
 100d5b8:	103f301e 	bne	r2,zero,100d27c <___vfiprintf_internal_r+0x67c>
 100d5bc:	d9400317 	ldw	r5,12(sp)
 100d5c0:	d9000217 	ldw	r4,8(sp)
 100d5c4:	dc800e04 	addi	r18,sp,56
 100d5c8:	003ea506 	br	100d060 <___vfiprintf_internal_r+0x460>
 100d5cc:	b009883a 	mov	r4,r22
 100d5d0:	a80b883a 	mov	r5,r21
 100d5d4:	d9800104 	addi	r6,sp,4
 100d5d8:	100cba80 	call	100cba8 <__sprint_r>
 100d5dc:	103f271e 	bne	r2,zero,100d27c <___vfiprintf_internal_r+0x67c>
 100d5e0:	d9400317 	ldw	r5,12(sp)
 100d5e4:	d9000217 	ldw	r4,8(sp)
 100d5e8:	dc800e04 	addi	r18,sp,56
 100d5ec:	003eb806 	br	100d0d0 <___vfiprintf_internal_r+0x4d0>
 100d5f0:	38c00017 	ldw	r3,0(r7)
 100d5f4:	39c00104 	addi	r7,r7,4
 100d5f8:	d8c13915 	stw	r3,1252(sp)
 100d5fc:	1800b20e 	bge	r3,zero,100d8c8 <___vfiprintf_internal_r+0xcc8>
 100d600:	00c7c83a 	sub	r3,zero,r3
 100d604:	d8c13915 	stw	r3,1252(sp)
 100d608:	d9013b17 	ldw	r4,1260(sp)
 100d60c:	a0c00007 	ldb	r3,0(r20)
 100d610:	21000114 	ori	r4,r4,4
 100d614:	d9013b15 	stw	r4,1260(sp)
 100d618:	003ded06 	br	100cdd0 <___vfiprintf_internal_r+0x1d0>
 100d61c:	3c000017 	ldw	r16,0(r7)
 100d620:	3c400117 	ldw	r17,4(r7)
 100d624:	39000204 	addi	r4,r7,8
 100d628:	d9013515 	stw	r4,1236(sp)
 100d62c:	01000044 	movi	r4,1
 100d630:	d8000005 	stb	zero,0(sp)
 100d634:	003f7806 	br	100d418 <___vfiprintf_internal_r+0x818>
 100d638:	3c000017 	ldw	r16,0(r7)
 100d63c:	3c400117 	ldw	r17,4(r7)
 100d640:	39000204 	addi	r4,r7,8
 100d644:	d9013515 	stw	r4,1236(sp)
 100d648:	0009883a 	mov	r4,zero
 100d64c:	d8000005 	stb	zero,0(sp)
 100d650:	003f7106 	br	100d418 <___vfiprintf_internal_r+0x818>
 100d654:	3c000017 	ldw	r16,0(r7)
 100d658:	3c400117 	ldw	r17,4(r7)
 100d65c:	39000204 	addi	r4,r7,8
 100d660:	d9013515 	stw	r4,1236(sp)
 100d664:	003f6a06 	br	100d410 <___vfiprintf_internal_r+0x810>
 100d668:	d8800007 	ldb	r2,0(sp)
 100d66c:	1000961e 	bne	r2,zero,100d8c8 <___vfiprintf_internal_r+0xcc8>
 100d670:	00800804 	movi	r2,32
 100d674:	d8800005 	stb	r2,0(sp)
 100d678:	a0c00007 	ldb	r3,0(r20)
 100d67c:	003dd406 	br	100cdd0 <___vfiprintf_internal_r+0x1d0>
 100d680:	0007883a 	mov	r3,zero
 100d684:	01000244 	movi	r4,9
 100d688:	188002a4 	muli	r2,r3,10
 100d68c:	2885883a 	add	r2,r5,r2
 100d690:	a1400007 	ldb	r5,0(r20)
 100d694:	10fff404 	addi	r3,r2,-48
 100d698:	a5000044 	addi	r20,r20,1
 100d69c:	28bff404 	addi	r2,r5,-48
 100d6a0:	20bff92e 	bgeu	r4,r2,100d688 <___vfiprintf_internal_r+0xa88>
 100d6a4:	d8c13915 	stw	r3,1252(sp)
 100d6a8:	003dcb06 	br	100cdd8 <___vfiprintf_internal_r+0x1d8>
 100d6ac:	d9413b17 	ldw	r5,1260(sp)
 100d6b0:	a0c00007 	ldb	r3,0(r20)
 100d6b4:	29402014 	ori	r5,r5,128
 100d6b8:	d9413b15 	stw	r5,1260(sp)
 100d6bc:	003dc406 	br	100cdd0 <___vfiprintf_internal_r+0x1d0>
 100d6c0:	a0c00007 	ldb	r3,0(r20)
 100d6c4:	00800a84 	movi	r2,42
 100d6c8:	a5000044 	addi	r20,r20,1
 100d6cc:	18816f26 	beq	r3,r2,100dc8c <___vfiprintf_internal_r+0x108c>
 100d6d0:	180b883a 	mov	r5,r3
 100d6d4:	18bff404 	addi	r2,r3,-48
 100d6d8:	00c00244 	movi	r3,9
 100d6dc:	18816936 	bltu	r3,r2,100dc84 <___vfiprintf_internal_r+0x1084>
 100d6e0:	000d883a 	mov	r6,zero
 100d6e4:	308002a4 	muli	r2,r6,10
 100d6e8:	1145883a 	add	r2,r2,r5
 100d6ec:	a1400007 	ldb	r5,0(r20)
 100d6f0:	11bff404 	addi	r6,r2,-48
 100d6f4:	a5000044 	addi	r20,r20,1
 100d6f8:	28bff404 	addi	r2,r5,-48
 100d6fc:	18bff92e 	bgeu	r3,r2,100d6e4 <___vfiprintf_internal_r+0xae4>
 100d700:	302f883a 	mov	r23,r6
 100d704:	303db40e 	bge	r6,zero,100cdd8 <___vfiprintf_internal_r+0x1d8>
 100d708:	05ffffc4 	movi	r23,-1
 100d70c:	003db206 	br	100cdd8 <___vfiprintf_internal_r+0x1d8>
 100d710:	d8813b17 	ldw	r2,1260(sp)
 100d714:	a0c00007 	ldb	r3,0(r20)
 100d718:	10800054 	ori	r2,r2,1
 100d71c:	d8813b15 	stw	r2,1260(sp)
 100d720:	003dab06 	br	100cdd0 <___vfiprintf_internal_r+0x1d0>
 100d724:	00800ac4 	movi	r2,43
 100d728:	d8800005 	stb	r2,0(sp)
 100d72c:	a0c00007 	ldb	r3,0(r20)
 100d730:	003da706 	br	100cdd0 <___vfiprintf_internal_r+0x1d0>
 100d734:	01804074 	movhi	r6,257
 100d738:	318ed204 	addi	r6,r6,15176
 100d73c:	d9813615 	stw	r6,1240(sp)
 100d740:	d8c13b17 	ldw	r3,1260(sp)
 100d744:	1880080c 	andi	r2,r3,32
 100d748:	1000c226 	beq	r2,zero,100da54 <___vfiprintf_internal_r+0xe54>
 100d74c:	3c000017 	ldw	r16,0(r7)
 100d750:	3c400117 	ldw	r17,4(r7)
 100d754:	39000204 	addi	r4,r7,8
 100d758:	d9013515 	stw	r4,1236(sp)
 100d75c:	d9013b17 	ldw	r4,1260(sp)
 100d760:	2080004c 	andi	r2,r4,1
 100d764:	1005003a 	cmpeq	r2,r2,zero
 100d768:	1000931e 	bne	r2,zero,100d9b8 <___vfiprintf_internal_r+0xdb8>
 100d76c:	8444b03a 	or	r2,r16,r17
 100d770:	10009126 	beq	r2,zero,100d9b8 <___vfiprintf_internal_r+0xdb8>
 100d774:	21000094 	ori	r4,r4,2
 100d778:	d9013b15 	stw	r4,1260(sp)
 100d77c:	00800c04 	movi	r2,48
 100d780:	01000084 	movi	r4,2
 100d784:	d8800045 	stb	r2,1(sp)
 100d788:	d9400085 	stb	r5,2(sp)
 100d78c:	d8000005 	stb	zero,0(sp)
 100d790:	003f2106 	br	100d418 <___vfiprintf_internal_r+0x818>
 100d794:	38800017 	ldw	r2,0(r7)
 100d798:	07000044 	movi	fp,1
 100d79c:	39c00104 	addi	r7,r7,4
 100d7a0:	d9800404 	addi	r6,sp,16
 100d7a4:	d9c13515 	stw	r7,1236(sp)
 100d7a8:	d9813c15 	stw	r6,1264(sp)
 100d7ac:	df013715 	stw	fp,1244(sp)
 100d7b0:	d8800405 	stb	r2,16(sp)
 100d7b4:	d8000005 	stb	zero,0(sp)
 100d7b8:	003df206 	br	100cf84 <___vfiprintf_internal_r+0x384>
 100d7bc:	00804074 	movhi	r2,257
 100d7c0:	108edd04 	addi	r2,r2,15220
 100d7c4:	d8813615 	stw	r2,1240(sp)
 100d7c8:	003fdd06 	br	100d740 <___vfiprintf_internal_r+0xb40>
 100d7cc:	d8c13b17 	ldw	r3,1260(sp)
 100d7d0:	1880080c 	andi	r2,r3,32
 100d7d4:	1000e326 	beq	r2,zero,100db64 <___vfiprintf_internal_r+0xf64>
 100d7d8:	d9013a17 	ldw	r4,1256(sp)
 100d7dc:	38800017 	ldw	r2,0(r7)
 100d7e0:	39c00104 	addi	r7,r7,4
 100d7e4:	2007d7fa 	srai	r3,r4,31
 100d7e8:	11000015 	stw	r4,0(r2)
 100d7ec:	10c00115 	stw	r3,4(r2)
 100d7f0:	003d5406 	br	100cd44 <___vfiprintf_internal_r+0x144>
 100d7f4:	a0c00007 	ldb	r3,0(r20)
 100d7f8:	00801b04 	movi	r2,108
 100d7fc:	1880f926 	beq	r3,r2,100dbe4 <___vfiprintf_internal_r+0xfe4>
 100d800:	d9013b17 	ldw	r4,1260(sp)
 100d804:	21000414 	ori	r4,r4,16
 100d808:	d9013b15 	stw	r4,1260(sp)
 100d80c:	003d7006 	br	100cdd0 <___vfiprintf_internal_r+0x1d0>
 100d810:	d8000005 	stb	zero,0(sp)
 100d814:	39000017 	ldw	r4,0(r7)
 100d818:	39c00104 	addi	r7,r7,4
 100d81c:	d9c13515 	stw	r7,1236(sp)
 100d820:	d9013c15 	stw	r4,1264(sp)
 100d824:	20010226 	beq	r4,zero,100dc30 <___vfiprintf_internal_r+0x1030>
 100d828:	b800fc16 	blt	r23,zero,100dc1c <___vfiprintf_internal_r+0x101c>
 100d82c:	d9013c17 	ldw	r4,1264(sp)
 100d830:	000b883a 	mov	r5,zero
 100d834:	b80d883a 	mov	r6,r23
 100d838:	100ac480 	call	100ac48 <memchr>
 100d83c:	10000426 	beq	r2,zero,100d850 <___vfiprintf_internal_r+0xc50>
 100d840:	d9813c17 	ldw	r6,1264(sp)
 100d844:	1185c83a 	sub	r2,r2,r6
 100d848:	d8813715 	stw	r2,1244(sp)
 100d84c:	b880010e 	bge	r23,r2,100d854 <___vfiprintf_internal_r+0xc54>
 100d850:	ddc13715 	stw	r23,1244(sp)
 100d854:	d8013815 	stw	zero,1248(sp)
 100d858:	003f0106 	br	100d460 <___vfiprintf_internal_r+0x860>
 100d85c:	d8813b17 	ldw	r2,1260(sp)
 100d860:	3c000017 	ldw	r16,0(r7)
 100d864:	00c04074 	movhi	r3,257
 100d868:	18ced204 	addi	r3,r3,15176
 100d86c:	10800094 	ori	r2,r2,2
 100d870:	d8813b15 	stw	r2,1260(sp)
 100d874:	39c00104 	addi	r7,r7,4
 100d878:	d8c13615 	stw	r3,1240(sp)
 100d87c:	00800c04 	movi	r2,48
 100d880:	00c01e04 	movi	r3,120
 100d884:	0023883a 	mov	r17,zero
 100d888:	01000084 	movi	r4,2
 100d88c:	d9c13515 	stw	r7,1236(sp)
 100d890:	d8800045 	stb	r2,1(sp)
 100d894:	d8c00085 	stb	r3,2(sp)
 100d898:	d8000005 	stb	zero,0(sp)
 100d89c:	003ede06 	br	100d418 <___vfiprintf_internal_r+0x818>
 100d8a0:	d9813b17 	ldw	r6,1260(sp)
 100d8a4:	a0c00007 	ldb	r3,0(r20)
 100d8a8:	31801014 	ori	r6,r6,64
 100d8ac:	d9813b15 	stw	r6,1260(sp)
 100d8b0:	003d4706 	br	100cdd0 <___vfiprintf_internal_r+0x1d0>
 100d8b4:	d9413b17 	ldw	r5,1260(sp)
 100d8b8:	a0c00007 	ldb	r3,0(r20)
 100d8bc:	29400814 	ori	r5,r5,32
 100d8c0:	d9413b15 	stw	r5,1260(sp)
 100d8c4:	003d4206 	br	100cdd0 <___vfiprintf_internal_r+0x1d0>
 100d8c8:	a0c00007 	ldb	r3,0(r20)
 100d8cc:	003d4006 	br	100cdd0 <___vfiprintf_internal_r+0x1d0>
 100d8d0:	20c03fcc 	andi	r3,r4,255
 100d8d4:	00800044 	movi	r2,1
 100d8d8:	18802b26 	beq	r3,r2,100d988 <___vfiprintf_internal_r+0xd88>
 100d8dc:	18800b36 	bltu	r3,r2,100d90c <___vfiprintf_internal_r+0xd0c>
 100d8e0:	00800084 	movi	r2,2
 100d8e4:	18808426 	beq	r3,r2,100daf8 <___vfiprintf_internal_r+0xef8>
 100d8e8:	01004074 	movhi	r4,257
 100d8ec:	210ee204 	addi	r4,r4,15240
 100d8f0:	ddc13815 	stw	r23,1248(sp)
 100d8f4:	10060180 	call	1006018 <strlen>
 100d8f8:	d8813715 	stw	r2,1244(sp)
 100d8fc:	00804074 	movhi	r2,257
 100d900:	108ee204 	addi	r2,r2,15240
 100d904:	d8813c15 	stw	r2,1264(sp)
 100d908:	003ed506 	br	100d460 <___vfiprintf_internal_r+0x860>
 100d90c:	d8800e04 	addi	r2,sp,56
 100d910:	df000404 	addi	fp,sp,16
 100d914:	d8813c15 	stw	r2,1264(sp)
 100d918:	880a977a 	slli	r5,r17,29
 100d91c:	8004d0fa 	srli	r2,r16,3
 100d920:	8806d0fa 	srli	r3,r17,3
 100d924:	810001cc 	andi	r4,r16,7
 100d928:	2884b03a 	or	r2,r5,r2
 100d92c:	d9413c17 	ldw	r5,1264(sp)
 100d930:	21000c04 	addi	r4,r4,48
 100d934:	1021883a 	mov	r16,r2
 100d938:	297fffc4 	addi	r5,r5,-1
 100d93c:	d9413c15 	stw	r5,1264(sp)
 100d940:	29000005 	stb	r4,0(r5)
 100d944:	10cab03a 	or	r5,r2,r3
 100d948:	1823883a 	mov	r17,r3
 100d94c:	283ff21e 	bne	r5,zero,100d918 <___vfiprintf_internal_r+0xd18>
 100d950:	d9813b17 	ldw	r6,1260(sp)
 100d954:	3080004c 	andi	r2,r6,1
 100d958:	1005003a 	cmpeq	r2,r2,zero
 100d95c:	103ebb1e 	bne	r2,zero,100d44c <___vfiprintf_internal_r+0x84c>
 100d960:	20803fcc 	andi	r2,r4,255
 100d964:	1080201c 	xori	r2,r2,128
 100d968:	10bfe004 	addi	r2,r2,-128
 100d96c:	00c00c04 	movi	r3,48
 100d970:	10feb626 	beq	r2,r3,100d44c <___vfiprintf_internal_r+0x84c>
 100d974:	d8813c17 	ldw	r2,1264(sp)
 100d978:	10bfffc4 	addi	r2,r2,-1
 100d97c:	d8813c15 	stw	r2,1264(sp)
 100d980:	10c00005 	stb	r3,0(r2)
 100d984:	003eb106 	br	100d44c <___vfiprintf_internal_r+0x84c>
 100d988:	88800068 	cmpgeui	r2,r17,1
 100d98c:	10000d1e 	bne	r2,zero,100d9c4 <___vfiprintf_internal_r+0xdc4>
 100d990:	8800021e 	bne	r17,zero,100d99c <___vfiprintf_internal_r+0xd9c>
 100d994:	00800244 	movi	r2,9
 100d998:	14000a36 	bltu	r2,r16,100d9c4 <___vfiprintf_internal_r+0xdc4>
 100d99c:	d9800dc4 	addi	r6,sp,55
 100d9a0:	df000404 	addi	fp,sp,16
 100d9a4:	d9813c15 	stw	r6,1264(sp)
 100d9a8:	d8c13c17 	ldw	r3,1264(sp)
 100d9ac:	80800c04 	addi	r2,r16,48
 100d9b0:	18800005 	stb	r2,0(r3)
 100d9b4:	003ea506 	br	100d44c <___vfiprintf_internal_r+0x84c>
 100d9b8:	01000084 	movi	r4,2
 100d9bc:	d8000005 	stb	zero,0(sp)
 100d9c0:	003e9506 	br	100d418 <___vfiprintf_internal_r+0x818>
 100d9c4:	df000404 	addi	fp,sp,16
 100d9c8:	dcc00e04 	addi	r19,sp,56
 100d9cc:	8009883a 	mov	r4,r16
 100d9d0:	880b883a 	mov	r5,r17
 100d9d4:	01800284 	movi	r6,10
 100d9d8:	000f883a 	mov	r7,zero
 100d9dc:	100e7d00 	call	100e7d0 <__umoddi3>
 100d9e0:	12000c04 	addi	r8,r2,48
 100d9e4:	9cffffc4 	addi	r19,r19,-1
 100d9e8:	8009883a 	mov	r4,r16
 100d9ec:	880b883a 	mov	r5,r17
 100d9f0:	01800284 	movi	r6,10
 100d9f4:	000f883a 	mov	r7,zero
 100d9f8:	9a000005 	stb	r8,0(r19)
 100d9fc:	100e1f40 	call	100e1f4 <__udivdi3>
 100da00:	1009883a 	mov	r4,r2
 100da04:	1021883a 	mov	r16,r2
 100da08:	18800068 	cmpgeui	r2,r3,1
 100da0c:	1823883a 	mov	r17,r3
 100da10:	103fee1e 	bne	r2,zero,100d9cc <___vfiprintf_internal_r+0xdcc>
 100da14:	1800021e 	bne	r3,zero,100da20 <___vfiprintf_internal_r+0xe20>
 100da18:	00800244 	movi	r2,9
 100da1c:	113feb36 	bltu	r2,r4,100d9cc <___vfiprintf_internal_r+0xdcc>
 100da20:	9cffffc4 	addi	r19,r19,-1
 100da24:	dcc13c15 	stw	r19,1264(sp)
 100da28:	003fdf06 	br	100d9a8 <___vfiprintf_internal_r+0xda8>
 100da2c:	05c04074 	movhi	r23,257
 100da30:	bdcf4f04 	addi	r23,r23,15676
 100da34:	003dc506 	br	100d14c <___vfiprintf_internal_r+0x54c>
 100da38:	d9013b17 	ldw	r4,1260(sp)
 100da3c:	2080004c 	andi	r2,r4,1
 100da40:	1000421e 	bne	r2,zero,100db4c <___vfiprintf_internal_r+0xf4c>
 100da44:	d9400e04 	addi	r5,sp,56
 100da48:	df000404 	addi	fp,sp,16
 100da4c:	d9413c15 	stw	r5,1264(sp)
 100da50:	003e7e06 	br	100d44c <___vfiprintf_internal_r+0x84c>
 100da54:	d9813b17 	ldw	r6,1260(sp)
 100da58:	3080040c 	andi	r2,r6,16
 100da5c:	10001c1e 	bne	r2,zero,100dad0 <___vfiprintf_internal_r+0xed0>
 100da60:	d8c13b17 	ldw	r3,1260(sp)
 100da64:	1880100c 	andi	r2,r3,64
 100da68:	10001926 	beq	r2,zero,100dad0 <___vfiprintf_internal_r+0xed0>
 100da6c:	3c00000b 	ldhu	r16,0(r7)
 100da70:	0023883a 	mov	r17,zero
 100da74:	39c00104 	addi	r7,r7,4
 100da78:	d9c13515 	stw	r7,1236(sp)
 100da7c:	003f3706 	br	100d75c <___vfiprintf_internal_r+0xb5c>
 100da80:	3c000017 	ldw	r16,0(r7)
 100da84:	0009883a 	mov	r4,zero
 100da88:	39c00104 	addi	r7,r7,4
 100da8c:	0023883a 	mov	r17,zero
 100da90:	d9c13515 	stw	r7,1236(sp)
 100da94:	d8000005 	stb	zero,0(sp)
 100da98:	003e5f06 	br	100d418 <___vfiprintf_internal_r+0x818>
 100da9c:	3c000017 	ldw	r16,0(r7)
 100daa0:	01000044 	movi	r4,1
 100daa4:	39c00104 	addi	r7,r7,4
 100daa8:	0023883a 	mov	r17,zero
 100daac:	d9c13515 	stw	r7,1236(sp)
 100dab0:	d8000005 	stb	zero,0(sp)
 100dab4:	003e5806 	br	100d418 <___vfiprintf_internal_r+0x818>
 100dab8:	38800017 	ldw	r2,0(r7)
 100dabc:	39c00104 	addi	r7,r7,4
 100dac0:	d9c13515 	stw	r7,1236(sp)
 100dac4:	1023d7fa 	srai	r17,r2,31
 100dac8:	1021883a 	mov	r16,r2
 100dacc:	003e5006 	br	100d410 <___vfiprintf_internal_r+0x810>
 100dad0:	3c000017 	ldw	r16,0(r7)
 100dad4:	0023883a 	mov	r17,zero
 100dad8:	39c00104 	addi	r7,r7,4
 100dadc:	d9c13515 	stw	r7,1236(sp)
 100dae0:	003f1e06 	br	100d75c <___vfiprintf_internal_r+0xb5c>
 100dae4:	d9400317 	ldw	r5,12(sp)
 100dae8:	d9000217 	ldw	r4,8(sp)
 100daec:	05c04074 	movhi	r23,257
 100daf0:	bdcf5304 	addi	r23,r23,15692
 100daf4:	003d4e06 	br	100d030 <___vfiprintf_internal_r+0x430>
 100daf8:	d9000e04 	addi	r4,sp,56
 100dafc:	df000404 	addi	fp,sp,16
 100db00:	d9013c15 	stw	r4,1264(sp)
 100db04:	d9813617 	ldw	r6,1240(sp)
 100db08:	880a973a 	slli	r5,r17,28
 100db0c:	8004d13a 	srli	r2,r16,4
 100db10:	810003cc 	andi	r4,r16,15
 100db14:	3109883a 	add	r4,r6,r4
 100db18:	2884b03a 	or	r2,r5,r2
 100db1c:	21400003 	ldbu	r5,0(r4)
 100db20:	d9013c17 	ldw	r4,1264(sp)
 100db24:	8806d13a 	srli	r3,r17,4
 100db28:	1021883a 	mov	r16,r2
 100db2c:	213fffc4 	addi	r4,r4,-1
 100db30:	d9013c15 	stw	r4,1264(sp)
 100db34:	d9813c17 	ldw	r6,1264(sp)
 100db38:	10c8b03a 	or	r4,r2,r3
 100db3c:	1823883a 	mov	r17,r3
 100db40:	31400005 	stb	r5,0(r6)
 100db44:	203fef1e 	bne	r4,zero,100db04 <___vfiprintf_internal_r+0xf04>
 100db48:	003e4006 	br	100d44c <___vfiprintf_internal_r+0x84c>
 100db4c:	00800c04 	movi	r2,48
 100db50:	d9800dc4 	addi	r6,sp,55
 100db54:	df000404 	addi	fp,sp,16
 100db58:	d8800dc5 	stb	r2,55(sp)
 100db5c:	d9813c15 	stw	r6,1264(sp)
 100db60:	003e3a06 	br	100d44c <___vfiprintf_internal_r+0x84c>
 100db64:	d9413b17 	ldw	r5,1260(sp)
 100db68:	2880040c 	andi	r2,r5,16
 100db6c:	10002326 	beq	r2,zero,100dbfc <___vfiprintf_internal_r+0xffc>
 100db70:	38800017 	ldw	r2,0(r7)
 100db74:	d9813a17 	ldw	r6,1256(sp)
 100db78:	39c00104 	addi	r7,r7,4
 100db7c:	11800015 	stw	r6,0(r2)
 100db80:	003c7006 	br	100cd44 <___vfiprintf_internal_r+0x144>
 100db84:	d9000217 	ldw	r4,8(sp)
 100db88:	05c04074 	movhi	r23,257
 100db8c:	bdcf5304 	addi	r23,r23,15692
 100db90:	003da406 	br	100d224 <___vfiprintf_internal_r+0x624>
 100db94:	0005883a 	mov	r2,zero
 100db98:	1409c83a 	sub	r4,r2,r16
 100db9c:	1105803a 	cmpltu	r2,r2,r4
 100dba0:	044bc83a 	sub	r5,zero,r17
 100dba4:	2885c83a 	sub	r2,r5,r2
 100dba8:	2021883a 	mov	r16,r4
 100dbac:	1023883a 	mov	r17,r2
 100dbb0:	01000044 	movi	r4,1
 100dbb4:	00800b44 	movi	r2,45
 100dbb8:	d8800005 	stb	r2,0(sp)
 100dbbc:	003e1606 	br	100d418 <___vfiprintf_internal_r+0x818>
 100dbc0:	b009883a 	mov	r4,r22
 100dbc4:	a80b883a 	mov	r5,r21
 100dbc8:	d9800104 	addi	r6,sp,4
 100dbcc:	100cba80 	call	100cba8 <__sprint_r>
 100dbd0:	103daa1e 	bne	r2,zero,100d27c <___vfiprintf_internal_r+0x67c>
 100dbd4:	003da806 	br	100d278 <___vfiprintf_internal_r+0x678>
 100dbd8:	05c04074 	movhi	r23,257
 100dbdc:	bdcf4f04 	addi	r23,r23,15676
 100dbe0:	003dca06 	br	100d30c <___vfiprintf_internal_r+0x70c>
 100dbe4:	d8813b17 	ldw	r2,1260(sp)
 100dbe8:	a5000044 	addi	r20,r20,1
 100dbec:	a0c00007 	ldb	r3,0(r20)
 100dbf0:	10800814 	ori	r2,r2,32
 100dbf4:	d8813b15 	stw	r2,1260(sp)
 100dbf8:	003c7506 	br	100cdd0 <___vfiprintf_internal_r+0x1d0>
 100dbfc:	d8c13b17 	ldw	r3,1260(sp)
 100dc00:	1880100c 	andi	r2,r3,64
 100dc04:	10001a26 	beq	r2,zero,100dc70 <___vfiprintf_internal_r+0x1070>
 100dc08:	38800017 	ldw	r2,0(r7)
 100dc0c:	d9013a17 	ldw	r4,1256(sp)
 100dc10:	39c00104 	addi	r7,r7,4
 100dc14:	1100000d 	sth	r4,0(r2)
 100dc18:	003c4a06 	br	100cd44 <___vfiprintf_internal_r+0x144>
 100dc1c:	d9013c17 	ldw	r4,1264(sp)
 100dc20:	10060180 	call	1006018 <strlen>
 100dc24:	d8813715 	stw	r2,1244(sp)
 100dc28:	d8013815 	stw	zero,1248(sp)
 100dc2c:	003e0c06 	br	100d460 <___vfiprintf_internal_r+0x860>
 100dc30:	00800184 	movi	r2,6
 100dc34:	15c00836 	bltu	r2,r23,100dc58 <___vfiprintf_internal_r+0x1058>
 100dc38:	b839883a 	mov	fp,r23
 100dc3c:	b800010e 	bge	r23,zero,100dc44 <___vfiprintf_internal_r+0x1044>
 100dc40:	0039883a 	mov	fp,zero
 100dc44:	01404074 	movhi	r5,257
 100dc48:	294edb04 	addi	r5,r5,15212
 100dc4c:	ddc13715 	stw	r23,1244(sp)
 100dc50:	d9413c15 	stw	r5,1264(sp)
 100dc54:	003ccb06 	br	100cf84 <___vfiprintf_internal_r+0x384>
 100dc58:	01404074 	movhi	r5,257
 100dc5c:	294edb04 	addi	r5,r5,15212
 100dc60:	1039883a 	mov	fp,r2
 100dc64:	d9413c15 	stw	r5,1264(sp)
 100dc68:	d8813715 	stw	r2,1244(sp)
 100dc6c:	003cc506 	br	100cf84 <___vfiprintf_internal_r+0x384>
 100dc70:	38800017 	ldw	r2,0(r7)
 100dc74:	d9413a17 	ldw	r5,1256(sp)
 100dc78:	39c00104 	addi	r7,r7,4
 100dc7c:	11400015 	stw	r5,0(r2)
 100dc80:	003c3006 	br	100cd44 <___vfiprintf_internal_r+0x144>
 100dc84:	002f883a 	mov	r23,zero
 100dc88:	003c5306 	br	100cdd8 <___vfiprintf_internal_r+0x1d8>
 100dc8c:	3dc00017 	ldw	r23,0(r7)
 100dc90:	39c00104 	addi	r7,r7,4
 100dc94:	b83f0c0e 	bge	r23,zero,100d8c8 <___vfiprintf_internal_r+0xcc8>
 100dc98:	a0c00007 	ldb	r3,0(r20)
 100dc9c:	05ffffc4 	movi	r23,-1
 100dca0:	003c4b06 	br	100cdd0 <___vfiprintf_internal_r+0x1d0>

0100dca4 <__vfiprintf_internal>:
 100dca4:	00804074 	movhi	r2,257
 100dca8:	10974504 	addi	r2,r2,23828
 100dcac:	2013883a 	mov	r9,r4
 100dcb0:	11000017 	ldw	r4,0(r2)
 100dcb4:	2805883a 	mov	r2,r5
 100dcb8:	300f883a 	mov	r7,r6
 100dcbc:	480b883a 	mov	r5,r9
 100dcc0:	100d883a 	mov	r6,r2
 100dcc4:	100cc001 	jmpi	100cc00 <___vfiprintf_internal_r>

0100dcc8 <__swbuf_r>:
 100dcc8:	defffc04 	addi	sp,sp,-16
 100dccc:	dc400215 	stw	r17,8(sp)
 100dcd0:	dc000115 	stw	r16,4(sp)
 100dcd4:	dfc00315 	stw	ra,12(sp)
 100dcd8:	2023883a 	mov	r17,r4
 100dcdc:	2821883a 	mov	r16,r5
 100dce0:	20000226 	beq	r4,zero,100dcec <__swbuf_r+0x24>
 100dce4:	20800e17 	ldw	r2,56(r4)
 100dce8:	10002f26 	beq	r2,zero,100dda8 <__swbuf_r+0xe0>
 100dcec:	3080030b 	ldhu	r2,12(r6)
 100dcf0:	30c00617 	ldw	r3,24(r6)
 100dcf4:	1080020c 	andi	r2,r2,8
 100dcf8:	30c00215 	stw	r3,8(r6)
 100dcfc:	10002226 	beq	r2,zero,100dd88 <__swbuf_r+0xc0>
 100dd00:	30c00417 	ldw	r3,16(r6)
 100dd04:	18002026 	beq	r3,zero,100dd88 <__swbuf_r+0xc0>
 100dd08:	31000017 	ldw	r4,0(r6)
 100dd0c:	30800517 	ldw	r2,20(r6)
 100dd10:	20c7c83a 	sub	r3,r4,r3
 100dd14:	18802f0e 	bge	r3,r2,100ddd4 <__swbuf_r+0x10c>
 100dd18:	19400044 	addi	r5,r3,1
 100dd1c:	30800217 	ldw	r2,8(r6)
 100dd20:	84003fcc 	andi	r16,r16,255
 100dd24:	20c00044 	addi	r3,r4,1
 100dd28:	10bfffc4 	addi	r2,r2,-1
 100dd2c:	30800215 	stw	r2,8(r6)
 100dd30:	24000005 	stb	r16,0(r4)
 100dd34:	30800517 	ldw	r2,20(r6)
 100dd38:	30c00015 	stw	r3,0(r6)
 100dd3c:	11400c26 	beq	r2,r5,100dd70 <__swbuf_r+0xa8>
 100dd40:	3080030b 	ldhu	r2,12(r6)
 100dd44:	1080004c 	andi	r2,r2,1
 100dd48:	1005003a 	cmpeq	r2,r2,zero
 100dd4c:	10000626 	beq	r2,zero,100dd68 <__swbuf_r+0xa0>
 100dd50:	8005883a 	mov	r2,r16
 100dd54:	dfc00317 	ldw	ra,12(sp)
 100dd58:	dc400217 	ldw	r17,8(sp)
 100dd5c:	dc000117 	ldw	r16,4(sp)
 100dd60:	dec00404 	addi	sp,sp,16
 100dd64:	f800283a 	ret
 100dd68:	00800284 	movi	r2,10
 100dd6c:	80bff81e 	bne	r16,r2,100dd50 <__swbuf_r+0x88>
 100dd70:	8809883a 	mov	r4,r17
 100dd74:	300b883a 	mov	r5,r6
 100dd78:	1009aa40 	call	1009aa4 <_fflush_r>
 100dd7c:	103ff426 	beq	r2,zero,100dd50 <__swbuf_r+0x88>
 100dd80:	043fffc4 	movi	r16,-1
 100dd84:	003ff206 	br	100dd50 <__swbuf_r+0x88>
 100dd88:	300b883a 	mov	r5,r6
 100dd8c:	8809883a 	mov	r4,r17
 100dd90:	d9800015 	stw	r6,0(sp)
 100dd94:	1007fd00 	call	1007fd0 <__swsetup_r>
 100dd98:	d9800017 	ldw	r6,0(sp)
 100dd9c:	1000061e 	bne	r2,zero,100ddb8 <__swbuf_r+0xf0>
 100dda0:	30c00417 	ldw	r3,16(r6)
 100dda4:	003fd806 	br	100dd08 <__swbuf_r+0x40>
 100dda8:	d9800015 	stw	r6,0(sp)
 100ddac:	1009d3c0 	call	1009d3c <__sinit>
 100ddb0:	d9800017 	ldw	r6,0(sp)
 100ddb4:	003fcd06 	br	100dcec <__swbuf_r+0x24>
 100ddb8:	3080030b 	ldhu	r2,12(r6)
 100ddbc:	00c00244 	movi	r3,9
 100ddc0:	043fffc4 	movi	r16,-1
 100ddc4:	10801014 	ori	r2,r2,64
 100ddc8:	3080030d 	sth	r2,12(r6)
 100ddcc:	88c00015 	stw	r3,0(r17)
 100ddd0:	003fdf06 	br	100dd50 <__swbuf_r+0x88>
 100ddd4:	300b883a 	mov	r5,r6
 100ddd8:	8809883a 	mov	r4,r17
 100dddc:	d9800015 	stw	r6,0(sp)
 100dde0:	1009aa40 	call	1009aa4 <_fflush_r>
 100dde4:	d9800017 	ldw	r6,0(sp)
 100dde8:	103fe51e 	bne	r2,zero,100dd80 <__swbuf_r+0xb8>
 100ddec:	31000017 	ldw	r4,0(r6)
 100ddf0:	01400044 	movi	r5,1
 100ddf4:	003fc906 	br	100dd1c <__swbuf_r+0x54>

0100ddf8 <__swbuf>:
 100ddf8:	01804074 	movhi	r6,257
 100ddfc:	31974504 	addi	r6,r6,23828
 100de00:	2007883a 	mov	r3,r4
 100de04:	31000017 	ldw	r4,0(r6)
 100de08:	280d883a 	mov	r6,r5
 100de0c:	180b883a 	mov	r5,r3
 100de10:	100dcc81 	jmpi	100dcc8 <__swbuf_r>

0100de14 <_write_r>:
 100de14:	defffd04 	addi	sp,sp,-12
 100de18:	dc000015 	stw	r16,0(sp)
 100de1c:	04004074 	movhi	r16,257
 100de20:	841ef604 	addi	r16,r16,31704
 100de24:	dc400115 	stw	r17,4(sp)
 100de28:	80000015 	stw	zero,0(r16)
 100de2c:	2023883a 	mov	r17,r4
 100de30:	2809883a 	mov	r4,r5
 100de34:	300b883a 	mov	r5,r6
 100de38:	380d883a 	mov	r6,r7
 100de3c:	dfc00215 	stw	ra,8(sp)
 100de40:	10113940 	call	1011394 <write>
 100de44:	1007883a 	mov	r3,r2
 100de48:	00bfffc4 	movi	r2,-1
 100de4c:	18800626 	beq	r3,r2,100de68 <_write_r+0x54>
 100de50:	1805883a 	mov	r2,r3
 100de54:	dfc00217 	ldw	ra,8(sp)
 100de58:	dc400117 	ldw	r17,4(sp)
 100de5c:	dc000017 	ldw	r16,0(sp)
 100de60:	dec00304 	addi	sp,sp,12
 100de64:	f800283a 	ret
 100de68:	80800017 	ldw	r2,0(r16)
 100de6c:	103ff826 	beq	r2,zero,100de50 <_write_r+0x3c>
 100de70:	88800015 	stw	r2,0(r17)
 100de74:	1805883a 	mov	r2,r3
 100de78:	dfc00217 	ldw	ra,8(sp)
 100de7c:	dc400117 	ldw	r17,4(sp)
 100de80:	dc000017 	ldw	r16,0(sp)
 100de84:	dec00304 	addi	sp,sp,12
 100de88:	f800283a 	ret

0100de8c <_close_r>:
 100de8c:	defffd04 	addi	sp,sp,-12
 100de90:	dc000015 	stw	r16,0(sp)
 100de94:	04004074 	movhi	r16,257
 100de98:	841ef604 	addi	r16,r16,31704
 100de9c:	dc400115 	stw	r17,4(sp)
 100dea0:	80000015 	stw	zero,0(r16)
 100dea4:	2023883a 	mov	r17,r4
 100dea8:	2809883a 	mov	r4,r5
 100deac:	dfc00215 	stw	ra,8(sp)
 100deb0:	10106240 	call	1010624 <close>
 100deb4:	1007883a 	mov	r3,r2
 100deb8:	00bfffc4 	movi	r2,-1
 100debc:	18800626 	beq	r3,r2,100ded8 <_close_r+0x4c>
 100dec0:	1805883a 	mov	r2,r3
 100dec4:	dfc00217 	ldw	ra,8(sp)
 100dec8:	dc400117 	ldw	r17,4(sp)
 100decc:	dc000017 	ldw	r16,0(sp)
 100ded0:	dec00304 	addi	sp,sp,12
 100ded4:	f800283a 	ret
 100ded8:	80800017 	ldw	r2,0(r16)
 100dedc:	103ff826 	beq	r2,zero,100dec0 <_close_r+0x34>
 100dee0:	88800015 	stw	r2,0(r17)
 100dee4:	1805883a 	mov	r2,r3
 100dee8:	dfc00217 	ldw	ra,8(sp)
 100deec:	dc400117 	ldw	r17,4(sp)
 100def0:	dc000017 	ldw	r16,0(sp)
 100def4:	dec00304 	addi	sp,sp,12
 100def8:	f800283a 	ret

0100defc <_fclose_r>:
 100defc:	defffc04 	addi	sp,sp,-16
 100df00:	dc400115 	stw	r17,4(sp)
 100df04:	dc000015 	stw	r16,0(sp)
 100df08:	dfc00315 	stw	ra,12(sp)
 100df0c:	dc800215 	stw	r18,8(sp)
 100df10:	2821883a 	mov	r16,r5
 100df14:	2023883a 	mov	r17,r4
 100df18:	28002926 	beq	r5,zero,100dfc0 <_fclose_r+0xc4>
 100df1c:	1009d2c0 	call	1009d2c <__sfp_lock_acquire>
 100df20:	88000226 	beq	r17,zero,100df2c <_fclose_r+0x30>
 100df24:	88800e17 	ldw	r2,56(r17)
 100df28:	10002d26 	beq	r2,zero,100dfe0 <_fclose_r+0xe4>
 100df2c:	8080030f 	ldh	r2,12(r16)
 100df30:	10002226 	beq	r2,zero,100dfbc <_fclose_r+0xc0>
 100df34:	8809883a 	mov	r4,r17
 100df38:	800b883a 	mov	r5,r16
 100df3c:	1009aa40 	call	1009aa4 <_fflush_r>
 100df40:	1025883a 	mov	r18,r2
 100df44:	80800b17 	ldw	r2,44(r16)
 100df48:	10000426 	beq	r2,zero,100df5c <_fclose_r+0x60>
 100df4c:	81400717 	ldw	r5,28(r16)
 100df50:	8809883a 	mov	r4,r17
 100df54:	103ee83a 	callr	r2
 100df58:	10002a16 	blt	r2,zero,100e004 <_fclose_r+0x108>
 100df5c:	8080030b 	ldhu	r2,12(r16)
 100df60:	1080200c 	andi	r2,r2,128
 100df64:	1000231e 	bne	r2,zero,100dff4 <_fclose_r+0xf8>
 100df68:	81400c17 	ldw	r5,48(r16)
 100df6c:	28000526 	beq	r5,zero,100df84 <_fclose_r+0x88>
 100df70:	80801004 	addi	r2,r16,64
 100df74:	28800226 	beq	r5,r2,100df80 <_fclose_r+0x84>
 100df78:	8809883a 	mov	r4,r17
 100df7c:	100a0c00 	call	100a0c0 <_free_r>
 100df80:	80000c15 	stw	zero,48(r16)
 100df84:	81401117 	ldw	r5,68(r16)
 100df88:	28000326 	beq	r5,zero,100df98 <_fclose_r+0x9c>
 100df8c:	8809883a 	mov	r4,r17
 100df90:	100a0c00 	call	100a0c0 <_free_r>
 100df94:	80001115 	stw	zero,68(r16)
 100df98:	8000030d 	sth	zero,12(r16)
 100df9c:	1009d300 	call	1009d30 <__sfp_lock_release>
 100dfa0:	9005883a 	mov	r2,r18
 100dfa4:	dfc00317 	ldw	ra,12(sp)
 100dfa8:	dc800217 	ldw	r18,8(sp)
 100dfac:	dc400117 	ldw	r17,4(sp)
 100dfb0:	dc000017 	ldw	r16,0(sp)
 100dfb4:	dec00404 	addi	sp,sp,16
 100dfb8:	f800283a 	ret
 100dfbc:	1009d300 	call	1009d30 <__sfp_lock_release>
 100dfc0:	0025883a 	mov	r18,zero
 100dfc4:	9005883a 	mov	r2,r18
 100dfc8:	dfc00317 	ldw	ra,12(sp)
 100dfcc:	dc800217 	ldw	r18,8(sp)
 100dfd0:	dc400117 	ldw	r17,4(sp)
 100dfd4:	dc000017 	ldw	r16,0(sp)
 100dfd8:	dec00404 	addi	sp,sp,16
 100dfdc:	f800283a 	ret
 100dfe0:	8809883a 	mov	r4,r17
 100dfe4:	1009d3c0 	call	1009d3c <__sinit>
 100dfe8:	8080030f 	ldh	r2,12(r16)
 100dfec:	103fd11e 	bne	r2,zero,100df34 <_fclose_r+0x38>
 100dff0:	003ff206 	br	100dfbc <_fclose_r+0xc0>
 100dff4:	81400417 	ldw	r5,16(r16)
 100dff8:	8809883a 	mov	r4,r17
 100dffc:	100a0c00 	call	100a0c0 <_free_r>
 100e000:	003fd906 	br	100df68 <_fclose_r+0x6c>
 100e004:	04bfffc4 	movi	r18,-1
 100e008:	003fd406 	br	100df5c <_fclose_r+0x60>

0100e00c <fclose>:
 100e00c:	00804074 	movhi	r2,257
 100e010:	10974504 	addi	r2,r2,23828
 100e014:	200b883a 	mov	r5,r4
 100e018:	11000017 	ldw	r4,0(r2)
 100e01c:	100defc1 	jmpi	100defc <_fclose_r>

0100e020 <_fstat_r>:
 100e020:	defffd04 	addi	sp,sp,-12
 100e024:	dc000015 	stw	r16,0(sp)
 100e028:	04004074 	movhi	r16,257
 100e02c:	841ef604 	addi	r16,r16,31704
 100e030:	dc400115 	stw	r17,4(sp)
 100e034:	80000015 	stw	zero,0(r16)
 100e038:	2023883a 	mov	r17,r4
 100e03c:	2809883a 	mov	r4,r5
 100e040:	300b883a 	mov	r5,r6
 100e044:	dfc00215 	stw	ra,8(sp)
 100e048:	101080c0 	call	101080c <fstat>
 100e04c:	1007883a 	mov	r3,r2
 100e050:	00bfffc4 	movi	r2,-1
 100e054:	18800626 	beq	r3,r2,100e070 <_fstat_r+0x50>
 100e058:	1805883a 	mov	r2,r3
 100e05c:	dfc00217 	ldw	ra,8(sp)
 100e060:	dc400117 	ldw	r17,4(sp)
 100e064:	dc000017 	ldw	r16,0(sp)
 100e068:	dec00304 	addi	sp,sp,12
 100e06c:	f800283a 	ret
 100e070:	80800017 	ldw	r2,0(r16)
 100e074:	103ff826 	beq	r2,zero,100e058 <_fstat_r+0x38>
 100e078:	88800015 	stw	r2,0(r17)
 100e07c:	1805883a 	mov	r2,r3
 100e080:	dfc00217 	ldw	ra,8(sp)
 100e084:	dc400117 	ldw	r17,4(sp)
 100e088:	dc000017 	ldw	r16,0(sp)
 100e08c:	dec00304 	addi	sp,sp,12
 100e090:	f800283a 	ret

0100e094 <_isatty_r>:
 100e094:	defffd04 	addi	sp,sp,-12
 100e098:	dc000015 	stw	r16,0(sp)
 100e09c:	04004074 	movhi	r16,257
 100e0a0:	841ef604 	addi	r16,r16,31704
 100e0a4:	dc400115 	stw	r17,4(sp)
 100e0a8:	80000015 	stw	zero,0(r16)
 100e0ac:	2023883a 	mov	r17,r4
 100e0b0:	2809883a 	mov	r4,r5
 100e0b4:	dfc00215 	stw	ra,8(sp)
 100e0b8:	1010b200 	call	1010b20 <isatty>
 100e0bc:	1007883a 	mov	r3,r2
 100e0c0:	00bfffc4 	movi	r2,-1
 100e0c4:	18800626 	beq	r3,r2,100e0e0 <_isatty_r+0x4c>
 100e0c8:	1805883a 	mov	r2,r3
 100e0cc:	dfc00217 	ldw	ra,8(sp)
 100e0d0:	dc400117 	ldw	r17,4(sp)
 100e0d4:	dc000017 	ldw	r16,0(sp)
 100e0d8:	dec00304 	addi	sp,sp,12
 100e0dc:	f800283a 	ret
 100e0e0:	80800017 	ldw	r2,0(r16)
 100e0e4:	103ff826 	beq	r2,zero,100e0c8 <_isatty_r+0x34>
 100e0e8:	88800015 	stw	r2,0(r17)
 100e0ec:	1805883a 	mov	r2,r3
 100e0f0:	dfc00217 	ldw	ra,8(sp)
 100e0f4:	dc400117 	ldw	r17,4(sp)
 100e0f8:	dc000017 	ldw	r16,0(sp)
 100e0fc:	dec00304 	addi	sp,sp,12
 100e100:	f800283a 	ret

0100e104 <_lseek_r>:
 100e104:	defffd04 	addi	sp,sp,-12
 100e108:	dc000015 	stw	r16,0(sp)
 100e10c:	04004074 	movhi	r16,257
 100e110:	841ef604 	addi	r16,r16,31704
 100e114:	dc400115 	stw	r17,4(sp)
 100e118:	80000015 	stw	zero,0(r16)
 100e11c:	2023883a 	mov	r17,r4
 100e120:	2809883a 	mov	r4,r5
 100e124:	300b883a 	mov	r5,r6
 100e128:	380d883a 	mov	r6,r7
 100e12c:	dfc00215 	stw	ra,8(sp)
 100e130:	1010ecc0 	call	1010ecc <lseek>
 100e134:	1007883a 	mov	r3,r2
 100e138:	00bfffc4 	movi	r2,-1
 100e13c:	18800626 	beq	r3,r2,100e158 <_lseek_r+0x54>
 100e140:	1805883a 	mov	r2,r3
 100e144:	dfc00217 	ldw	ra,8(sp)
 100e148:	dc400117 	ldw	r17,4(sp)
 100e14c:	dc000017 	ldw	r16,0(sp)
 100e150:	dec00304 	addi	sp,sp,12
 100e154:	f800283a 	ret
 100e158:	80800017 	ldw	r2,0(r16)
 100e15c:	103ff826 	beq	r2,zero,100e140 <_lseek_r+0x3c>
 100e160:	88800015 	stw	r2,0(r17)
 100e164:	1805883a 	mov	r2,r3
 100e168:	dfc00217 	ldw	ra,8(sp)
 100e16c:	dc400117 	ldw	r17,4(sp)
 100e170:	dc000017 	ldw	r16,0(sp)
 100e174:	dec00304 	addi	sp,sp,12
 100e178:	f800283a 	ret

0100e17c <_read_r>:
 100e17c:	defffd04 	addi	sp,sp,-12
 100e180:	dc000015 	stw	r16,0(sp)
 100e184:	04004074 	movhi	r16,257
 100e188:	841ef604 	addi	r16,r16,31704
 100e18c:	dc400115 	stw	r17,4(sp)
 100e190:	80000015 	stw	zero,0(r16)
 100e194:	2023883a 	mov	r17,r4
 100e198:	2809883a 	mov	r4,r5
 100e19c:	300b883a 	mov	r5,r6
 100e1a0:	380d883a 	mov	r6,r7
 100e1a4:	dfc00215 	stw	ra,8(sp)
 100e1a8:	10110c80 	call	10110c8 <read>
 100e1ac:	1007883a 	mov	r3,r2
 100e1b0:	00bfffc4 	movi	r2,-1
 100e1b4:	18800626 	beq	r3,r2,100e1d0 <_read_r+0x54>
 100e1b8:	1805883a 	mov	r2,r3
 100e1bc:	dfc00217 	ldw	ra,8(sp)
 100e1c0:	dc400117 	ldw	r17,4(sp)
 100e1c4:	dc000017 	ldw	r16,0(sp)
 100e1c8:	dec00304 	addi	sp,sp,12
 100e1cc:	f800283a 	ret
 100e1d0:	80800017 	ldw	r2,0(r16)
 100e1d4:	103ff826 	beq	r2,zero,100e1b8 <_read_r+0x3c>
 100e1d8:	88800015 	stw	r2,0(r17)
 100e1dc:	1805883a 	mov	r2,r3
 100e1e0:	dfc00217 	ldw	ra,8(sp)
 100e1e4:	dc400117 	ldw	r17,4(sp)
 100e1e8:	dc000017 	ldw	r16,0(sp)
 100e1ec:	dec00304 	addi	sp,sp,12
 100e1f0:	f800283a 	ret

0100e1f4 <__udivdi3>:
 100e1f4:	defff004 	addi	sp,sp,-64
 100e1f8:	2005883a 	mov	r2,r4
 100e1fc:	3011883a 	mov	r8,r6
 100e200:	df000e15 	stw	fp,56(sp)
 100e204:	dd000a15 	stw	r20,40(sp)
 100e208:	dc000615 	stw	r16,24(sp)
 100e20c:	dfc00f15 	stw	ra,60(sp)
 100e210:	ddc00d15 	stw	r23,52(sp)
 100e214:	dd800c15 	stw	r22,48(sp)
 100e218:	dd400b15 	stw	r21,44(sp)
 100e21c:	dcc00915 	stw	r19,36(sp)
 100e220:	dc800815 	stw	r18,32(sp)
 100e224:	dc400715 	stw	r17,28(sp)
 100e228:	4021883a 	mov	r16,r8
 100e22c:	1039883a 	mov	fp,r2
 100e230:	2829883a 	mov	r20,r5
 100e234:	38003b1e 	bne	r7,zero,100e324 <__udivdi3+0x130>
 100e238:	2a005c36 	bltu	r5,r8,100e3ac <__udivdi3+0x1b8>
 100e23c:	4000a626 	beq	r8,zero,100e4d8 <__udivdi3+0x2e4>
 100e240:	00bfffd4 	movui	r2,65535
 100e244:	14009e36 	bltu	r2,r16,100e4c0 <__udivdi3+0x2cc>
 100e248:	00803fc4 	movi	r2,255
 100e24c:	14013d36 	bltu	r2,r16,100e744 <__udivdi3+0x550>
 100e250:	000b883a 	mov	r5,zero
 100e254:	0005883a 	mov	r2,zero
 100e258:	8084d83a 	srl	r2,r16,r2
 100e25c:	01004074 	movhi	r4,257
 100e260:	210f5c04 	addi	r4,r4,15728
 100e264:	01800804 	movi	r6,32
 100e268:	1105883a 	add	r2,r2,r4
 100e26c:	10c00003 	ldbu	r3,0(r2)
 100e270:	28c7883a 	add	r3,r5,r3
 100e274:	30edc83a 	sub	r22,r6,r3
 100e278:	b000ee1e 	bne	r22,zero,100e634 <__udivdi3+0x440>
 100e27c:	802ad43a 	srli	r21,r16,16
 100e280:	00800044 	movi	r2,1
 100e284:	a423c83a 	sub	r17,r20,r16
 100e288:	85ffffcc 	andi	r23,r16,65535
 100e28c:	d8800315 	stw	r2,12(sp)
 100e290:	8809883a 	mov	r4,r17
 100e294:	a80b883a 	mov	r5,r21
 100e298:	100ffe80 	call	100ffe8 <__udivsi3>
 100e29c:	8809883a 	mov	r4,r17
 100e2a0:	a80b883a 	mov	r5,r21
 100e2a4:	102d883a 	mov	r22,r2
 100e2a8:	100fff00 	call	100fff0 <__umodsi3>
 100e2ac:	1004943a 	slli	r2,r2,16
 100e2b0:	e006d43a 	srli	r3,fp,16
 100e2b4:	bda3383a 	mul	r17,r23,r22
 100e2b8:	10c4b03a 	or	r2,r2,r3
 100e2bc:	1440042e 	bgeu	r2,r17,100e2d0 <__udivdi3+0xdc>
 100e2c0:	1405883a 	add	r2,r2,r16
 100e2c4:	b5bfffc4 	addi	r22,r22,-1
 100e2c8:	14000136 	bltu	r2,r16,100e2d0 <__udivdi3+0xdc>
 100e2cc:	14413d36 	bltu	r2,r17,100e7c4 <__udivdi3+0x5d0>
 100e2d0:	1463c83a 	sub	r17,r2,r17
 100e2d4:	8809883a 	mov	r4,r17
 100e2d8:	a80b883a 	mov	r5,r21
 100e2dc:	100ffe80 	call	100ffe8 <__udivsi3>
 100e2e0:	8809883a 	mov	r4,r17
 100e2e4:	a80b883a 	mov	r5,r21
 100e2e8:	1029883a 	mov	r20,r2
 100e2ec:	100fff00 	call	100fff0 <__umodsi3>
 100e2f0:	1004943a 	slli	r2,r2,16
 100e2f4:	bd09383a 	mul	r4,r23,r20
 100e2f8:	e0ffffcc 	andi	r3,fp,65535
 100e2fc:	10c4b03a 	or	r2,r2,r3
 100e300:	1100042e 	bgeu	r2,r4,100e314 <__udivdi3+0x120>
 100e304:	8085883a 	add	r2,r16,r2
 100e308:	a53fffc4 	addi	r20,r20,-1
 100e30c:	14000136 	bltu	r2,r16,100e314 <__udivdi3+0x120>
 100e310:	11012036 	bltu	r2,r4,100e794 <__udivdi3+0x5a0>
 100e314:	b004943a 	slli	r2,r22,16
 100e318:	d9000317 	ldw	r4,12(sp)
 100e31c:	a084b03a 	or	r2,r20,r2
 100e320:	00001506 	br	100e378 <__udivdi3+0x184>
 100e324:	380d883a 	mov	r6,r7
 100e328:	29c06236 	bltu	r5,r7,100e4b4 <__udivdi3+0x2c0>
 100e32c:	00bfffd4 	movui	r2,65535
 100e330:	11c05a36 	bltu	r2,r7,100e49c <__udivdi3+0x2a8>
 100e334:	00803fc4 	movi	r2,255
 100e338:	11c0fc36 	bltu	r2,r7,100e72c <__udivdi3+0x538>
 100e33c:	000b883a 	mov	r5,zero
 100e340:	0005883a 	mov	r2,zero
 100e344:	3084d83a 	srl	r2,r6,r2
 100e348:	01004074 	movhi	r4,257
 100e34c:	210f5c04 	addi	r4,r4,15728
 100e350:	01c00804 	movi	r7,32
 100e354:	1105883a 	add	r2,r2,r4
 100e358:	10c00003 	ldbu	r3,0(r2)
 100e35c:	28c7883a 	add	r3,r5,r3
 100e360:	38efc83a 	sub	r23,r7,r3
 100e364:	b800691e 	bne	r23,zero,100e50c <__udivdi3+0x318>
 100e368:	35000136 	bltu	r6,r20,100e370 <__udivdi3+0x17c>
 100e36c:	e4005136 	bltu	fp,r16,100e4b4 <__udivdi3+0x2c0>
 100e370:	00800044 	movi	r2,1
 100e374:	0009883a 	mov	r4,zero
 100e378:	2007883a 	mov	r3,r4
 100e37c:	dfc00f17 	ldw	ra,60(sp)
 100e380:	df000e17 	ldw	fp,56(sp)
 100e384:	ddc00d17 	ldw	r23,52(sp)
 100e388:	dd800c17 	ldw	r22,48(sp)
 100e38c:	dd400b17 	ldw	r21,44(sp)
 100e390:	dd000a17 	ldw	r20,40(sp)
 100e394:	dcc00917 	ldw	r19,36(sp)
 100e398:	dc800817 	ldw	r18,32(sp)
 100e39c:	dc400717 	ldw	r17,28(sp)
 100e3a0:	dc000617 	ldw	r16,24(sp)
 100e3a4:	dec01004 	addi	sp,sp,64
 100e3a8:	f800283a 	ret
 100e3ac:	00bfffd4 	movui	r2,65535
 100e3b0:	12005036 	bltu	r2,r8,100e4f4 <__udivdi3+0x300>
 100e3b4:	00803fc4 	movi	r2,255
 100e3b8:	1200e836 	bltu	r2,r8,100e75c <__udivdi3+0x568>
 100e3bc:	000b883a 	mov	r5,zero
 100e3c0:	0005883a 	mov	r2,zero
 100e3c4:	8084d83a 	srl	r2,r16,r2
 100e3c8:	01004074 	movhi	r4,257
 100e3cc:	210f5c04 	addi	r4,r4,15728
 100e3d0:	01800804 	movi	r6,32
 100e3d4:	1105883a 	add	r2,r2,r4
 100e3d8:	10c00003 	ldbu	r3,0(r2)
 100e3dc:	28c7883a 	add	r3,r5,r3
 100e3e0:	30cbc83a 	sub	r5,r6,r3
 100e3e4:	28000626 	beq	r5,zero,100e400 <__udivdi3+0x20c>
 100e3e8:	3145c83a 	sub	r2,r6,r5
 100e3ec:	e084d83a 	srl	r2,fp,r2
 100e3f0:	a146983a 	sll	r3,r20,r5
 100e3f4:	e178983a 	sll	fp,fp,r5
 100e3f8:	8160983a 	sll	r16,r16,r5
 100e3fc:	18a8b03a 	or	r20,r3,r2
 100e400:	802ad43a 	srli	r21,r16,16
 100e404:	a009883a 	mov	r4,r20
 100e408:	85ffffcc 	andi	r23,r16,65535
 100e40c:	a80b883a 	mov	r5,r21
 100e410:	100ffe80 	call	100ffe8 <__udivsi3>
 100e414:	a009883a 	mov	r4,r20
 100e418:	a80b883a 	mov	r5,r21
 100e41c:	102d883a 	mov	r22,r2
 100e420:	100fff00 	call	100fff0 <__umodsi3>
 100e424:	1004943a 	slli	r2,r2,16
 100e428:	e006d43a 	srli	r3,fp,16
 100e42c:	bda3383a 	mul	r17,r23,r22
 100e430:	10c4b03a 	or	r2,r2,r3
 100e434:	1440042e 	bgeu	r2,r17,100e448 <__udivdi3+0x254>
 100e438:	1405883a 	add	r2,r2,r16
 100e43c:	b5bfffc4 	addi	r22,r22,-1
 100e440:	14000136 	bltu	r2,r16,100e448 <__udivdi3+0x254>
 100e444:	1440d536 	bltu	r2,r17,100e79c <__udivdi3+0x5a8>
 100e448:	1463c83a 	sub	r17,r2,r17
 100e44c:	8809883a 	mov	r4,r17
 100e450:	a80b883a 	mov	r5,r21
 100e454:	100ffe80 	call	100ffe8 <__udivsi3>
 100e458:	8809883a 	mov	r4,r17
 100e45c:	a80b883a 	mov	r5,r21
 100e460:	1029883a 	mov	r20,r2
 100e464:	100fff00 	call	100fff0 <__umodsi3>
 100e468:	1004943a 	slli	r2,r2,16
 100e46c:	bd09383a 	mul	r4,r23,r20
 100e470:	e0ffffcc 	andi	r3,fp,65535
 100e474:	10c4b03a 	or	r2,r2,r3
 100e478:	1100042e 	bgeu	r2,r4,100e48c <__udivdi3+0x298>
 100e47c:	8085883a 	add	r2,r16,r2
 100e480:	a53fffc4 	addi	r20,r20,-1
 100e484:	14000136 	bltu	r2,r16,100e48c <__udivdi3+0x298>
 100e488:	1100c736 	bltu	r2,r4,100e7a8 <__udivdi3+0x5b4>
 100e48c:	b004943a 	slli	r2,r22,16
 100e490:	0009883a 	mov	r4,zero
 100e494:	a084b03a 	or	r2,r20,r2
 100e498:	003fb706 	br	100e378 <__udivdi3+0x184>
 100e49c:	00804034 	movhi	r2,256
 100e4a0:	10bfffc4 	addi	r2,r2,-1
 100e4a4:	11c0a436 	bltu	r2,r7,100e738 <__udivdi3+0x544>
 100e4a8:	01400404 	movi	r5,16
 100e4ac:	2805883a 	mov	r2,r5
 100e4b0:	003fa406 	br	100e344 <__udivdi3+0x150>
 100e4b4:	0005883a 	mov	r2,zero
 100e4b8:	0009883a 	mov	r4,zero
 100e4bc:	003fae06 	br	100e378 <__udivdi3+0x184>
 100e4c0:	00804034 	movhi	r2,256
 100e4c4:	10bfffc4 	addi	r2,r2,-1
 100e4c8:	1400a136 	bltu	r2,r16,100e750 <__udivdi3+0x55c>
 100e4cc:	01400404 	movi	r5,16
 100e4d0:	2805883a 	mov	r2,r5
 100e4d4:	003f6006 	br	100e258 <__udivdi3+0x64>
 100e4d8:	01000044 	movi	r4,1
 100e4dc:	000b883a 	mov	r5,zero
 100e4e0:	100ffe80 	call	100ffe8 <__udivsi3>
 100e4e4:	1021883a 	mov	r16,r2
 100e4e8:	00bfffd4 	movui	r2,65535
 100e4ec:	143ff436 	bltu	r2,r16,100e4c0 <__udivdi3+0x2cc>
 100e4f0:	003f5506 	br	100e248 <__udivdi3+0x54>
 100e4f4:	00804034 	movhi	r2,256
 100e4f8:	10bfffc4 	addi	r2,r2,-1
 100e4fc:	12009a36 	bltu	r2,r8,100e768 <__udivdi3+0x574>
 100e500:	01400404 	movi	r5,16
 100e504:	2805883a 	mov	r2,r5
 100e508:	003fae06 	br	100e3c4 <__udivdi3+0x1d0>
 100e50c:	3dc5c83a 	sub	r2,r7,r23
 100e510:	35c8983a 	sll	r4,r6,r23
 100e514:	8086d83a 	srl	r3,r16,r2
 100e518:	a0a2d83a 	srl	r17,r20,r2
 100e51c:	e084d83a 	srl	r2,fp,r2
 100e520:	20eab03a 	or	r21,r4,r3
 100e524:	a82cd43a 	srli	r22,r21,16
 100e528:	a5c6983a 	sll	r3,r20,r23
 100e52c:	8809883a 	mov	r4,r17
 100e530:	b00b883a 	mov	r5,r22
 100e534:	1886b03a 	or	r3,r3,r2
 100e538:	d8c00215 	stw	r3,8(sp)
 100e53c:	100ffe80 	call	100ffe8 <__udivsi3>
 100e540:	8809883a 	mov	r4,r17
 100e544:	b00b883a 	mov	r5,r22
 100e548:	1029883a 	mov	r20,r2
 100e54c:	100fff00 	call	100fff0 <__umodsi3>
 100e550:	a8ffffcc 	andi	r3,r21,65535
 100e554:	d8c00515 	stw	r3,20(sp)
 100e558:	d9000217 	ldw	r4,8(sp)
 100e55c:	d9400517 	ldw	r5,20(sp)
 100e560:	1004943a 	slli	r2,r2,16
 100e564:	2006d43a 	srli	r3,r4,16
 100e568:	85e0983a 	sll	r16,r16,r23
 100e56c:	2d23383a 	mul	r17,r5,r20
 100e570:	10c4b03a 	or	r2,r2,r3
 100e574:	dc000015 	stw	r16,0(sp)
 100e578:	1440032e 	bgeu	r2,r17,100e588 <__udivdi3+0x394>
 100e57c:	1545883a 	add	r2,r2,r21
 100e580:	a53fffc4 	addi	r20,r20,-1
 100e584:	15407f2e 	bgeu	r2,r21,100e784 <__udivdi3+0x590>
 100e588:	1463c83a 	sub	r17,r2,r17
 100e58c:	8809883a 	mov	r4,r17
 100e590:	b00b883a 	mov	r5,r22
 100e594:	100ffe80 	call	100ffe8 <__udivsi3>
 100e598:	8809883a 	mov	r4,r17
 100e59c:	b00b883a 	mov	r5,r22
 100e5a0:	1021883a 	mov	r16,r2
 100e5a4:	100fff00 	call	100fff0 <__umodsi3>
 100e5a8:	d8c00517 	ldw	r3,20(sp)
 100e5ac:	d9000217 	ldw	r4,8(sp)
 100e5b0:	1004943a 	slli	r2,r2,16
 100e5b4:	1c0f383a 	mul	r7,r3,r16
 100e5b8:	20ffffcc 	andi	r3,r4,65535
 100e5bc:	10e2b03a 	or	r17,r2,r3
 100e5c0:	89c0032e 	bgeu	r17,r7,100e5d0 <__udivdi3+0x3dc>
 100e5c4:	8d63883a 	add	r17,r17,r21
 100e5c8:	843fffc4 	addi	r16,r16,-1
 100e5cc:	8d40692e 	bgeu	r17,r21,100e774 <__udivdi3+0x580>
 100e5d0:	a008943a 	slli	r4,r20,16
 100e5d4:	d9400017 	ldw	r5,0(sp)
 100e5d8:	89e3c83a 	sub	r17,r17,r7
 100e5dc:	8110b03a 	or	r8,r16,r4
 100e5e0:	280cd43a 	srli	r6,r5,16
 100e5e4:	28ffffcc 	andi	r3,r5,65535
 100e5e8:	40bfffcc 	andi	r2,r8,65535
 100e5ec:	400ad43a 	srli	r5,r8,16
 100e5f0:	10d3383a 	mul	r9,r2,r3
 100e5f4:	1185383a 	mul	r2,r2,r6
 100e5f8:	28c7383a 	mul	r3,r5,r3
 100e5fc:	4808d43a 	srli	r4,r9,16
 100e600:	298b383a 	mul	r5,r5,r6
 100e604:	10c5883a 	add	r2,r2,r3
 100e608:	2089883a 	add	r4,r4,r2
 100e60c:	20c0022e 	bgeu	r4,r3,100e618 <__udivdi3+0x424>
 100e610:	00800074 	movhi	r2,1
 100e614:	288b883a 	add	r5,r5,r2
 100e618:	2004d43a 	srli	r2,r4,16
 100e61c:	288b883a 	add	r5,r5,r2
 100e620:	89403f36 	bltu	r17,r5,100e720 <__udivdi3+0x52c>
 100e624:	89403926 	beq	r17,r5,100e70c <__udivdi3+0x518>
 100e628:	4005883a 	mov	r2,r8
 100e62c:	0009883a 	mov	r4,zero
 100e630:	003f5106 	br	100e378 <__udivdi3+0x184>
 100e634:	85a0983a 	sll	r16,r16,r22
 100e638:	3585c83a 	sub	r2,r6,r22
 100e63c:	a0a2d83a 	srl	r17,r20,r2
 100e640:	802ad43a 	srli	r21,r16,16
 100e644:	e084d83a 	srl	r2,fp,r2
 100e648:	a586983a 	sll	r3,r20,r22
 100e64c:	8809883a 	mov	r4,r17
 100e650:	a80b883a 	mov	r5,r21
 100e654:	1886b03a 	or	r3,r3,r2
 100e658:	d8c00115 	stw	r3,4(sp)
 100e65c:	100ffe80 	call	100ffe8 <__udivsi3>
 100e660:	8809883a 	mov	r4,r17
 100e664:	a80b883a 	mov	r5,r21
 100e668:	d8800415 	stw	r2,16(sp)
 100e66c:	100fff00 	call	100fff0 <__umodsi3>
 100e670:	d9000117 	ldw	r4,4(sp)
 100e674:	d9400417 	ldw	r5,16(sp)
 100e678:	1004943a 	slli	r2,r2,16
 100e67c:	85ffffcc 	andi	r23,r16,65535
 100e680:	2006d43a 	srli	r3,r4,16
 100e684:	b963383a 	mul	r17,r23,r5
 100e688:	10c4b03a 	or	r2,r2,r3
 100e68c:	1440042e 	bgeu	r2,r17,100e6a0 <__udivdi3+0x4ac>
 100e690:	297fffc4 	addi	r5,r5,-1
 100e694:	1405883a 	add	r2,r2,r16
 100e698:	d9400415 	stw	r5,16(sp)
 100e69c:	1400442e 	bgeu	r2,r16,100e7b0 <__udivdi3+0x5bc>
 100e6a0:	1463c83a 	sub	r17,r2,r17
 100e6a4:	8809883a 	mov	r4,r17
 100e6a8:	a80b883a 	mov	r5,r21
 100e6ac:	100ffe80 	call	100ffe8 <__udivsi3>
 100e6b0:	8809883a 	mov	r4,r17
 100e6b4:	a80b883a 	mov	r5,r21
 100e6b8:	1029883a 	mov	r20,r2
 100e6bc:	100fff00 	call	100fff0 <__umodsi3>
 100e6c0:	d9400117 	ldw	r5,4(sp)
 100e6c4:	1004943a 	slli	r2,r2,16
 100e6c8:	bd09383a 	mul	r4,r23,r20
 100e6cc:	28ffffcc 	andi	r3,r5,65535
 100e6d0:	10c6b03a 	or	r3,r2,r3
 100e6d4:	1900062e 	bgeu	r3,r4,100e6f0 <__udivdi3+0x4fc>
 100e6d8:	1c07883a 	add	r3,r3,r16
 100e6dc:	a53fffc4 	addi	r20,r20,-1
 100e6e0:	1c000336 	bltu	r3,r16,100e6f0 <__udivdi3+0x4fc>
 100e6e4:	1900022e 	bgeu	r3,r4,100e6f0 <__udivdi3+0x4fc>
 100e6e8:	a53fffc4 	addi	r20,r20,-1
 100e6ec:	1c07883a 	add	r3,r3,r16
 100e6f0:	d9400417 	ldw	r5,16(sp)
 100e6f4:	e5b8983a 	sll	fp,fp,r22
 100e6f8:	1923c83a 	sub	r17,r3,r4
 100e6fc:	2804943a 	slli	r2,r5,16
 100e700:	a0a8b03a 	or	r20,r20,r2
 100e704:	dd000315 	stw	r20,12(sp)
 100e708:	003ee106 	br	100e290 <__udivdi3+0x9c>
 100e70c:	2004943a 	slli	r2,r4,16
 100e710:	e5c8983a 	sll	r4,fp,r23
 100e714:	48ffffcc 	andi	r3,r9,65535
 100e718:	10c5883a 	add	r2,r2,r3
 100e71c:	20bfc22e 	bgeu	r4,r2,100e628 <__udivdi3+0x434>
 100e720:	40bfffc4 	addi	r2,r8,-1
 100e724:	0009883a 	mov	r4,zero
 100e728:	003f1306 	br	100e378 <__udivdi3+0x184>
 100e72c:	01400204 	movi	r5,8
 100e730:	2805883a 	mov	r2,r5
 100e734:	003f0306 	br	100e344 <__udivdi3+0x150>
 100e738:	01400604 	movi	r5,24
 100e73c:	2805883a 	mov	r2,r5
 100e740:	003f0006 	br	100e344 <__udivdi3+0x150>
 100e744:	01400204 	movi	r5,8
 100e748:	2805883a 	mov	r2,r5
 100e74c:	003ec206 	br	100e258 <__udivdi3+0x64>
 100e750:	01400604 	movi	r5,24
 100e754:	2805883a 	mov	r2,r5
 100e758:	003ebf06 	br	100e258 <__udivdi3+0x64>
 100e75c:	01400204 	movi	r5,8
 100e760:	2805883a 	mov	r2,r5
 100e764:	003f1706 	br	100e3c4 <__udivdi3+0x1d0>
 100e768:	01400604 	movi	r5,24
 100e76c:	2805883a 	mov	r2,r5
 100e770:	003f1406 	br	100e3c4 <__udivdi3+0x1d0>
 100e774:	89ff962e 	bgeu	r17,r7,100e5d0 <__udivdi3+0x3dc>
 100e778:	8d63883a 	add	r17,r17,r21
 100e77c:	843fffc4 	addi	r16,r16,-1
 100e780:	003f9306 	br	100e5d0 <__udivdi3+0x3dc>
 100e784:	147f802e 	bgeu	r2,r17,100e588 <__udivdi3+0x394>
 100e788:	a53fffc4 	addi	r20,r20,-1
 100e78c:	1545883a 	add	r2,r2,r21
 100e790:	003f7d06 	br	100e588 <__udivdi3+0x394>
 100e794:	a53fffc4 	addi	r20,r20,-1
 100e798:	003ede06 	br	100e314 <__udivdi3+0x120>
 100e79c:	b5bfffc4 	addi	r22,r22,-1
 100e7a0:	1405883a 	add	r2,r2,r16
 100e7a4:	003f2806 	br	100e448 <__udivdi3+0x254>
 100e7a8:	a53fffc4 	addi	r20,r20,-1
 100e7ac:	003f3706 	br	100e48c <__udivdi3+0x298>
 100e7b0:	147fbb2e 	bgeu	r2,r17,100e6a0 <__udivdi3+0x4ac>
 100e7b4:	297fffc4 	addi	r5,r5,-1
 100e7b8:	1405883a 	add	r2,r2,r16
 100e7bc:	d9400415 	stw	r5,16(sp)
 100e7c0:	003fb706 	br	100e6a0 <__udivdi3+0x4ac>
 100e7c4:	b5bfffc4 	addi	r22,r22,-1
 100e7c8:	1405883a 	add	r2,r2,r16
 100e7cc:	003ec006 	br	100e2d0 <__udivdi3+0xdc>

0100e7d0 <__umoddi3>:
 100e7d0:	defff104 	addi	sp,sp,-60
 100e7d4:	dd800b15 	stw	r22,44(sp)
 100e7d8:	dd000915 	stw	r20,36(sp)
 100e7dc:	dc000515 	stw	r16,20(sp)
 100e7e0:	dfc00e15 	stw	ra,56(sp)
 100e7e4:	df000d15 	stw	fp,52(sp)
 100e7e8:	ddc00c15 	stw	r23,48(sp)
 100e7ec:	dd400a15 	stw	r21,40(sp)
 100e7f0:	dcc00815 	stw	r19,32(sp)
 100e7f4:	dc800715 	stw	r18,28(sp)
 100e7f8:	dc400615 	stw	r17,24(sp)
 100e7fc:	3021883a 	mov	r16,r6
 100e800:	202d883a 	mov	r22,r4
 100e804:	2829883a 	mov	r20,r5
 100e808:	38002b1e 	bne	r7,zero,100e8b8 <__umoddi3+0xe8>
 100e80c:	29805036 	bltu	r5,r6,100e950 <__umoddi3+0x180>
 100e810:	30008a26 	beq	r6,zero,100ea3c <__umoddi3+0x26c>
 100e814:	00bfffd4 	movui	r2,65535
 100e818:	14008236 	bltu	r2,r16,100ea24 <__umoddi3+0x254>
 100e81c:	00803fc4 	movi	r2,255
 100e820:	14013636 	bltu	r2,r16,100ecfc <__umoddi3+0x52c>
 100e824:	000b883a 	mov	r5,zero
 100e828:	0005883a 	mov	r2,zero
 100e82c:	8084d83a 	srl	r2,r16,r2
 100e830:	01004074 	movhi	r4,257
 100e834:	210f5c04 	addi	r4,r4,15728
 100e838:	01800804 	movi	r6,32
 100e83c:	1105883a 	add	r2,r2,r4
 100e840:	10c00003 	ldbu	r3,0(r2)
 100e844:	28c7883a 	add	r3,r5,r3
 100e848:	30efc83a 	sub	r23,r6,r3
 100e84c:	b800941e 	bne	r23,zero,100eaa0 <__umoddi3+0x2d0>
 100e850:	802ad43a 	srli	r21,r16,16
 100e854:	a423c83a 	sub	r17,r20,r16
 100e858:	0039883a 	mov	fp,zero
 100e85c:	853fffcc 	andi	r20,r16,65535
 100e860:	8809883a 	mov	r4,r17
 100e864:	a80b883a 	mov	r5,r21
 100e868:	100ffe80 	call	100ffe8 <__udivsi3>
 100e86c:	8809883a 	mov	r4,r17
 100e870:	a80b883a 	mov	r5,r21
 100e874:	a0a3383a 	mul	r17,r20,r2
 100e878:	100fff00 	call	100fff0 <__umodsi3>
 100e87c:	1004943a 	slli	r2,r2,16
 100e880:	b006d43a 	srli	r3,r22,16
 100e884:	10c4b03a 	or	r2,r2,r3
 100e888:	1440032e 	bgeu	r2,r17,100e898 <__umoddi3+0xc8>
 100e88c:	1405883a 	add	r2,r2,r16
 100e890:	14000136 	bltu	r2,r16,100e898 <__umoddi3+0xc8>
 100e894:	14413536 	bltu	r2,r17,100ed6c <__umoddi3+0x59c>
 100e898:	1463c83a 	sub	r17,r2,r17
 100e89c:	8809883a 	mov	r4,r17
 100e8a0:	a80b883a 	mov	r5,r21
 100e8a4:	100ffe80 	call	100ffe8 <__udivsi3>
 100e8a8:	8809883a 	mov	r4,r17
 100e8ac:	a0a3383a 	mul	r17,r20,r2
 100e8b0:	a80b883a 	mov	r5,r21
 100e8b4:	00004d06 	br	100e9ec <__umoddi3+0x21c>
 100e8b8:	380d883a 	mov	r6,r7
 100e8bc:	29c0102e 	bgeu	r5,r7,100e900 <__umoddi3+0x130>
 100e8c0:	2011883a 	mov	r8,r4
 100e8c4:	2813883a 	mov	r9,r5
 100e8c8:	4005883a 	mov	r2,r8
 100e8cc:	4807883a 	mov	r3,r9
 100e8d0:	dfc00e17 	ldw	ra,56(sp)
 100e8d4:	df000d17 	ldw	fp,52(sp)
 100e8d8:	ddc00c17 	ldw	r23,48(sp)
 100e8dc:	dd800b17 	ldw	r22,44(sp)
 100e8e0:	dd400a17 	ldw	r21,40(sp)
 100e8e4:	dd000917 	ldw	r20,36(sp)
 100e8e8:	dcc00817 	ldw	r19,32(sp)
 100e8ec:	dc800717 	ldw	r18,28(sp)
 100e8f0:	dc400617 	ldw	r17,24(sp)
 100e8f4:	dc000517 	ldw	r16,20(sp)
 100e8f8:	dec00f04 	addi	sp,sp,60
 100e8fc:	f800283a 	ret
 100e900:	00bfffd4 	movui	r2,65535
 100e904:	11c05a36 	bltu	r2,r7,100ea70 <__umoddi3+0x2a0>
 100e908:	00803fc4 	movi	r2,255
 100e90c:	11c0fe36 	bltu	r2,r7,100ed08 <__umoddi3+0x538>
 100e910:	000b883a 	mov	r5,zero
 100e914:	0005883a 	mov	r2,zero
 100e918:	3084d83a 	srl	r2,r6,r2
 100e91c:	01004074 	movhi	r4,257
 100e920:	210f5c04 	addi	r4,r4,15728
 100e924:	01c00804 	movi	r7,32
 100e928:	1105883a 	add	r2,r2,r4
 100e92c:	10c00003 	ldbu	r3,0(r2)
 100e930:	28c7883a 	add	r3,r5,r3
 100e934:	38ebc83a 	sub	r21,r7,r3
 100e938:	a800851e 	bne	r21,zero,100eb50 <__umoddi3+0x380>
 100e93c:	35005236 	bltu	r6,r20,100ea88 <__umoddi3+0x2b8>
 100e940:	b400512e 	bgeu	r22,r16,100ea88 <__umoddi3+0x2b8>
 100e944:	b011883a 	mov	r8,r22
 100e948:	a013883a 	mov	r9,r20
 100e94c:	003fde06 	br	100e8c8 <__umoddi3+0xf8>
 100e950:	00bfffd4 	movui	r2,65535
 100e954:	11804036 	bltu	r2,r6,100ea58 <__umoddi3+0x288>
 100e958:	00803fc4 	movi	r2,255
 100e95c:	1180ed36 	bltu	r2,r6,100ed14 <__umoddi3+0x544>
 100e960:	000b883a 	mov	r5,zero
 100e964:	0005883a 	mov	r2,zero
 100e968:	8084d83a 	srl	r2,r16,r2
 100e96c:	01004074 	movhi	r4,257
 100e970:	210f5c04 	addi	r4,r4,15728
 100e974:	01800804 	movi	r6,32
 100e978:	1105883a 	add	r2,r2,r4
 100e97c:	10c00003 	ldbu	r3,0(r2)
 100e980:	28c7883a 	add	r3,r5,r3
 100e984:	30c7c83a 	sub	r3,r6,r3
 100e988:	1800bf1e 	bne	r3,zero,100ec88 <__umoddi3+0x4b8>
 100e98c:	0039883a 	mov	fp,zero
 100e990:	802ad43a 	srli	r21,r16,16
 100e994:	a009883a 	mov	r4,r20
 100e998:	85ffffcc 	andi	r23,r16,65535
 100e99c:	a80b883a 	mov	r5,r21
 100e9a0:	100ffe80 	call	100ffe8 <__udivsi3>
 100e9a4:	a009883a 	mov	r4,r20
 100e9a8:	a80b883a 	mov	r5,r21
 100e9ac:	b8a3383a 	mul	r17,r23,r2
 100e9b0:	100fff00 	call	100fff0 <__umodsi3>
 100e9b4:	1004943a 	slli	r2,r2,16
 100e9b8:	b006d43a 	srli	r3,r22,16
 100e9bc:	10c4b03a 	or	r2,r2,r3
 100e9c0:	1440032e 	bgeu	r2,r17,100e9d0 <__umoddi3+0x200>
 100e9c4:	1405883a 	add	r2,r2,r16
 100e9c8:	14000136 	bltu	r2,r16,100e9d0 <__umoddi3+0x200>
 100e9cc:	1440e536 	bltu	r2,r17,100ed64 <__umoddi3+0x594>
 100e9d0:	1463c83a 	sub	r17,r2,r17
 100e9d4:	8809883a 	mov	r4,r17
 100e9d8:	a80b883a 	mov	r5,r21
 100e9dc:	100ffe80 	call	100ffe8 <__udivsi3>
 100e9e0:	8809883a 	mov	r4,r17
 100e9e4:	b8a3383a 	mul	r17,r23,r2
 100e9e8:	a80b883a 	mov	r5,r21
 100e9ec:	100fff00 	call	100fff0 <__umodsi3>
 100e9f0:	1004943a 	slli	r2,r2,16
 100e9f4:	b0ffffcc 	andi	r3,r22,65535
 100e9f8:	10c4b03a 	or	r2,r2,r3
 100e9fc:	1440042e 	bgeu	r2,r17,100ea10 <__umoddi3+0x240>
 100ea00:	1405883a 	add	r2,r2,r16
 100ea04:	14000236 	bltu	r2,r16,100ea10 <__umoddi3+0x240>
 100ea08:	1440012e 	bgeu	r2,r17,100ea10 <__umoddi3+0x240>
 100ea0c:	1405883a 	add	r2,r2,r16
 100ea10:	1445c83a 	sub	r2,r2,r17
 100ea14:	1724d83a 	srl	r18,r2,fp
 100ea18:	0013883a 	mov	r9,zero
 100ea1c:	9011883a 	mov	r8,r18
 100ea20:	003fa906 	br	100e8c8 <__umoddi3+0xf8>
 100ea24:	00804034 	movhi	r2,256
 100ea28:	10bfffc4 	addi	r2,r2,-1
 100ea2c:	1400b036 	bltu	r2,r16,100ecf0 <__umoddi3+0x520>
 100ea30:	01400404 	movi	r5,16
 100ea34:	2805883a 	mov	r2,r5
 100ea38:	003f7c06 	br	100e82c <__umoddi3+0x5c>
 100ea3c:	01000044 	movi	r4,1
 100ea40:	000b883a 	mov	r5,zero
 100ea44:	100ffe80 	call	100ffe8 <__udivsi3>
 100ea48:	1021883a 	mov	r16,r2
 100ea4c:	00bfffd4 	movui	r2,65535
 100ea50:	143ff436 	bltu	r2,r16,100ea24 <__umoddi3+0x254>
 100ea54:	003f7106 	br	100e81c <__umoddi3+0x4c>
 100ea58:	00804034 	movhi	r2,256
 100ea5c:	10bfffc4 	addi	r2,r2,-1
 100ea60:	1180af36 	bltu	r2,r6,100ed20 <__umoddi3+0x550>
 100ea64:	01400404 	movi	r5,16
 100ea68:	2805883a 	mov	r2,r5
 100ea6c:	003fbe06 	br	100e968 <__umoddi3+0x198>
 100ea70:	00804034 	movhi	r2,256
 100ea74:	10bfffc4 	addi	r2,r2,-1
 100ea78:	11c0ac36 	bltu	r2,r7,100ed2c <__umoddi3+0x55c>
 100ea7c:	01400404 	movi	r5,16
 100ea80:	2805883a 	mov	r2,r5
 100ea84:	003fa406 	br	100e918 <__umoddi3+0x148>
 100ea88:	b409c83a 	sub	r4,r22,r16
 100ea8c:	b105803a 	cmpltu	r2,r22,r4
 100ea90:	a187c83a 	sub	r3,r20,r6
 100ea94:	18a9c83a 	sub	r20,r3,r2
 100ea98:	202d883a 	mov	r22,r4
 100ea9c:	003fa906 	br	100e944 <__umoddi3+0x174>
 100eaa0:	85e0983a 	sll	r16,r16,r23
 100eaa4:	35c5c83a 	sub	r2,r6,r23
 100eaa8:	a0a2d83a 	srl	r17,r20,r2
 100eaac:	802ad43a 	srli	r21,r16,16
 100eab0:	b084d83a 	srl	r2,r22,r2
 100eab4:	a5c6983a 	sll	r3,r20,r23
 100eab8:	8809883a 	mov	r4,r17
 100eabc:	a80b883a 	mov	r5,r21
 100eac0:	1886b03a 	or	r3,r3,r2
 100eac4:	d8c00115 	stw	r3,4(sp)
 100eac8:	853fffcc 	andi	r20,r16,65535
 100eacc:	100ffe80 	call	100ffe8 <__udivsi3>
 100ead0:	8809883a 	mov	r4,r17
 100ead4:	a80b883a 	mov	r5,r21
 100ead8:	a0a3383a 	mul	r17,r20,r2
 100eadc:	100fff00 	call	100fff0 <__umodsi3>
 100eae0:	d9000117 	ldw	r4,4(sp)
 100eae4:	1004943a 	slli	r2,r2,16
 100eae8:	b839883a 	mov	fp,r23
 100eaec:	2006d43a 	srli	r3,r4,16
 100eaf0:	10c4b03a 	or	r2,r2,r3
 100eaf4:	1440022e 	bgeu	r2,r17,100eb00 <__umoddi3+0x330>
 100eaf8:	1405883a 	add	r2,r2,r16
 100eafc:	1400962e 	bgeu	r2,r16,100ed58 <__umoddi3+0x588>
 100eb00:	1463c83a 	sub	r17,r2,r17
 100eb04:	8809883a 	mov	r4,r17
 100eb08:	a80b883a 	mov	r5,r21
 100eb0c:	100ffe80 	call	100ffe8 <__udivsi3>
 100eb10:	8809883a 	mov	r4,r17
 100eb14:	a80b883a 	mov	r5,r21
 100eb18:	a0a3383a 	mul	r17,r20,r2
 100eb1c:	100fff00 	call	100fff0 <__umodsi3>
 100eb20:	d9400117 	ldw	r5,4(sp)
 100eb24:	1004943a 	slli	r2,r2,16
 100eb28:	28ffffcc 	andi	r3,r5,65535
 100eb2c:	10c4b03a 	or	r2,r2,r3
 100eb30:	1440042e 	bgeu	r2,r17,100eb44 <__umoddi3+0x374>
 100eb34:	1405883a 	add	r2,r2,r16
 100eb38:	14000236 	bltu	r2,r16,100eb44 <__umoddi3+0x374>
 100eb3c:	1440012e 	bgeu	r2,r17,100eb44 <__umoddi3+0x374>
 100eb40:	1405883a 	add	r2,r2,r16
 100eb44:	b5ec983a 	sll	r22,r22,r23
 100eb48:	1463c83a 	sub	r17,r2,r17
 100eb4c:	003f4406 	br	100e860 <__umoddi3+0x90>
 100eb50:	3d4fc83a 	sub	r7,r7,r21
 100eb54:	3546983a 	sll	r3,r6,r21
 100eb58:	81c4d83a 	srl	r2,r16,r7
 100eb5c:	a1e2d83a 	srl	r17,r20,r7
 100eb60:	a54c983a 	sll	r6,r20,r21
 100eb64:	18aeb03a 	or	r23,r3,r2
 100eb68:	b828d43a 	srli	r20,r23,16
 100eb6c:	b1c4d83a 	srl	r2,r22,r7
 100eb70:	8809883a 	mov	r4,r17
 100eb74:	a00b883a 	mov	r5,r20
 100eb78:	308cb03a 	or	r6,r6,r2
 100eb7c:	d9c00315 	stw	r7,12(sp)
 100eb80:	d9800215 	stw	r6,8(sp)
 100eb84:	100ffe80 	call	100ffe8 <__udivsi3>
 100eb88:	8809883a 	mov	r4,r17
 100eb8c:	a00b883a 	mov	r5,r20
 100eb90:	1039883a 	mov	fp,r2
 100eb94:	100fff00 	call	100fff0 <__umodsi3>
 100eb98:	b8ffffcc 	andi	r3,r23,65535
 100eb9c:	d8c00415 	stw	r3,16(sp)
 100eba0:	d9000217 	ldw	r4,8(sp)
 100eba4:	d9400417 	ldw	r5,16(sp)
 100eba8:	1004943a 	slli	r2,r2,16
 100ebac:	2006d43a 	srli	r3,r4,16
 100ebb0:	8560983a 	sll	r16,r16,r21
 100ebb4:	2f23383a 	mul	r17,r5,fp
 100ebb8:	10c4b03a 	or	r2,r2,r3
 100ebbc:	dc000015 	stw	r16,0(sp)
 100ebc0:	b56c983a 	sll	r22,r22,r21
 100ebc4:	1440032e 	bgeu	r2,r17,100ebd4 <__umoddi3+0x404>
 100ebc8:	15c5883a 	add	r2,r2,r23
 100ebcc:	e73fffc4 	addi	fp,fp,-1
 100ebd0:	15c05d2e 	bgeu	r2,r23,100ed48 <__umoddi3+0x578>
 100ebd4:	1463c83a 	sub	r17,r2,r17
 100ebd8:	8809883a 	mov	r4,r17
 100ebdc:	a00b883a 	mov	r5,r20
 100ebe0:	100ffe80 	call	100ffe8 <__udivsi3>
 100ebe4:	8809883a 	mov	r4,r17
 100ebe8:	a00b883a 	mov	r5,r20
 100ebec:	1021883a 	mov	r16,r2
 100ebf0:	100fff00 	call	100fff0 <__umodsi3>
 100ebf4:	d8c00417 	ldw	r3,16(sp)
 100ebf8:	d9000217 	ldw	r4,8(sp)
 100ebfc:	1004943a 	slli	r2,r2,16
 100ec00:	1c23383a 	mul	r17,r3,r16
 100ec04:	20ffffcc 	andi	r3,r4,65535
 100ec08:	10ceb03a 	or	r7,r2,r3
 100ec0c:	3c40032e 	bgeu	r7,r17,100ec1c <__umoddi3+0x44c>
 100ec10:	3dcf883a 	add	r7,r7,r23
 100ec14:	843fffc4 	addi	r16,r16,-1
 100ec18:	3dc0472e 	bgeu	r7,r23,100ed38 <__umoddi3+0x568>
 100ec1c:	e004943a 	slli	r2,fp,16
 100ec20:	d9400017 	ldw	r5,0(sp)
 100ec24:	3c4fc83a 	sub	r7,r7,r17
 100ec28:	8084b03a 	or	r2,r16,r2
 100ec2c:	28ffffcc 	andi	r3,r5,65535
 100ec30:	280cd43a 	srli	r6,r5,16
 100ec34:	100ad43a 	srli	r5,r2,16
 100ec38:	10bfffcc 	andi	r2,r2,65535
 100ec3c:	10d1383a 	mul	r8,r2,r3
 100ec40:	28c7383a 	mul	r3,r5,r3
 100ec44:	1185383a 	mul	r2,r2,r6
 100ec48:	4008d43a 	srli	r4,r8,16
 100ec4c:	298b383a 	mul	r5,r5,r6
 100ec50:	10c5883a 	add	r2,r2,r3
 100ec54:	2089883a 	add	r4,r4,r2
 100ec58:	20c0022e 	bgeu	r4,r3,100ec64 <__umoddi3+0x494>
 100ec5c:	00800074 	movhi	r2,1
 100ec60:	288b883a 	add	r5,r5,r2
 100ec64:	2004d43a 	srli	r2,r4,16
 100ec68:	2008943a 	slli	r4,r4,16
 100ec6c:	40ffffcc 	andi	r3,r8,65535
 100ec70:	288b883a 	add	r5,r5,r2
 100ec74:	20c9883a 	add	r4,r4,r3
 100ec78:	39400b36 	bltu	r7,r5,100eca8 <__umoddi3+0x4d8>
 100ec7c:	39403d26 	beq	r7,r5,100ed74 <__umoddi3+0x5a4>
 100ec80:	394bc83a 	sub	r5,r7,r5
 100ec84:	00000f06 	br	100ecc4 <__umoddi3+0x4f4>
 100ec88:	30c5c83a 	sub	r2,r6,r3
 100ec8c:	1839883a 	mov	fp,r3
 100ec90:	b084d83a 	srl	r2,r22,r2
 100ec94:	a0c6983a 	sll	r3,r20,r3
 100ec98:	8720983a 	sll	r16,r16,fp
 100ec9c:	b72c983a 	sll	r22,r22,fp
 100eca0:	18a8b03a 	or	r20,r3,r2
 100eca4:	003f3a06 	br	100e990 <__umoddi3+0x1c0>
 100eca8:	d8c00017 	ldw	r3,0(sp)
 100ecac:	20c5c83a 	sub	r2,r4,r3
 100ecb0:	2089803a 	cmpltu	r4,r4,r2
 100ecb4:	2dc7c83a 	sub	r3,r5,r23
 100ecb8:	1907c83a 	sub	r3,r3,r4
 100ecbc:	38cbc83a 	sub	r5,r7,r3
 100ecc0:	1009883a 	mov	r4,r2
 100ecc4:	b105c83a 	sub	r2,r22,r4
 100ecc8:	b087803a 	cmpltu	r3,r22,r2
 100eccc:	28c7c83a 	sub	r3,r5,r3
 100ecd0:	d9400317 	ldw	r5,12(sp)
 100ecd4:	1544d83a 	srl	r2,r2,r21
 100ecd8:	1948983a 	sll	r4,r3,r5
 100ecdc:	1d46d83a 	srl	r3,r3,r21
 100ece0:	20a4b03a 	or	r18,r4,r2
 100ece4:	9011883a 	mov	r8,r18
 100ece8:	1813883a 	mov	r9,r3
 100ecec:	003ef606 	br	100e8c8 <__umoddi3+0xf8>
 100ecf0:	01400604 	movi	r5,24
 100ecf4:	2805883a 	mov	r2,r5
 100ecf8:	003ecc06 	br	100e82c <__umoddi3+0x5c>
 100ecfc:	01400204 	movi	r5,8
 100ed00:	2805883a 	mov	r2,r5
 100ed04:	003ec906 	br	100e82c <__umoddi3+0x5c>
 100ed08:	01400204 	movi	r5,8
 100ed0c:	2805883a 	mov	r2,r5
 100ed10:	003f0106 	br	100e918 <__umoddi3+0x148>
 100ed14:	01400204 	movi	r5,8
 100ed18:	2805883a 	mov	r2,r5
 100ed1c:	003f1206 	br	100e968 <__umoddi3+0x198>
 100ed20:	01400604 	movi	r5,24
 100ed24:	2805883a 	mov	r2,r5
 100ed28:	003f0f06 	br	100e968 <__umoddi3+0x198>
 100ed2c:	01400604 	movi	r5,24
 100ed30:	2805883a 	mov	r2,r5
 100ed34:	003ef806 	br	100e918 <__umoddi3+0x148>
 100ed38:	3c7fb82e 	bgeu	r7,r17,100ec1c <__umoddi3+0x44c>
 100ed3c:	843fffc4 	addi	r16,r16,-1
 100ed40:	3dcf883a 	add	r7,r7,r23
 100ed44:	003fb506 	br	100ec1c <__umoddi3+0x44c>
 100ed48:	147fa22e 	bgeu	r2,r17,100ebd4 <__umoddi3+0x404>
 100ed4c:	e73fffc4 	addi	fp,fp,-1
 100ed50:	15c5883a 	add	r2,r2,r23
 100ed54:	003f9f06 	br	100ebd4 <__umoddi3+0x404>
 100ed58:	147f692e 	bgeu	r2,r17,100eb00 <__umoddi3+0x330>
 100ed5c:	1405883a 	add	r2,r2,r16
 100ed60:	003f6706 	br	100eb00 <__umoddi3+0x330>
 100ed64:	1405883a 	add	r2,r2,r16
 100ed68:	003f1906 	br	100e9d0 <__umoddi3+0x200>
 100ed6c:	1405883a 	add	r2,r2,r16
 100ed70:	003ec906 	br	100e898 <__umoddi3+0xc8>
 100ed74:	b13fcc36 	bltu	r22,r4,100eca8 <__umoddi3+0x4d8>
 100ed78:	000b883a 	mov	r5,zero
 100ed7c:	003fd106 	br	100ecc4 <__umoddi3+0x4f4>

0100ed80 <_fpadd_parts>:
 100ed80:	defff804 	addi	sp,sp,-32
 100ed84:	dcc00315 	stw	r19,12(sp)
 100ed88:	2027883a 	mov	r19,r4
 100ed8c:	21000017 	ldw	r4,0(r4)
 100ed90:	00c00044 	movi	r3,1
 100ed94:	dd400515 	stw	r21,20(sp)
 100ed98:	dd000415 	stw	r20,16(sp)
 100ed9c:	ddc00715 	stw	r23,28(sp)
 100eda0:	dd800615 	stw	r22,24(sp)
 100eda4:	dc800215 	stw	r18,8(sp)
 100eda8:	dc400115 	stw	r17,4(sp)
 100edac:	dc000015 	stw	r16,0(sp)
 100edb0:	282b883a 	mov	r21,r5
 100edb4:	3029883a 	mov	r20,r6
 100edb8:	1900632e 	bgeu	r3,r4,100ef48 <_fpadd_parts+0x1c8>
 100edbc:	28800017 	ldw	r2,0(r5)
 100edc0:	1880812e 	bgeu	r3,r2,100efc8 <_fpadd_parts+0x248>
 100edc4:	00c00104 	movi	r3,4
 100edc8:	20c0dc26 	beq	r4,r3,100f13c <_fpadd_parts+0x3bc>
 100edcc:	10c07e26 	beq	r2,r3,100efc8 <_fpadd_parts+0x248>
 100edd0:	00c00084 	movi	r3,2
 100edd4:	10c06726 	beq	r2,r3,100ef74 <_fpadd_parts+0x1f4>
 100edd8:	20c07b26 	beq	r4,r3,100efc8 <_fpadd_parts+0x248>
 100eddc:	9dc00217 	ldw	r23,8(r19)
 100ede0:	28c00217 	ldw	r3,8(r5)
 100ede4:	9c400317 	ldw	r17,12(r19)
 100ede8:	2bc00317 	ldw	r15,12(r5)
 100edec:	b8cdc83a 	sub	r6,r23,r3
 100edf0:	9c800417 	ldw	r18,16(r19)
 100edf4:	2c000417 	ldw	r16,16(r5)
 100edf8:	3009883a 	mov	r4,r6
 100edfc:	30009716 	blt	r6,zero,100f05c <_fpadd_parts+0x2dc>
 100ee00:	00800fc4 	movi	r2,63
 100ee04:	11806b16 	blt	r2,r6,100efb4 <_fpadd_parts+0x234>
 100ee08:	0100a40e 	bge	zero,r4,100f09c <_fpadd_parts+0x31c>
 100ee0c:	35bff804 	addi	r22,r6,-32
 100ee10:	b000bc16 	blt	r22,zero,100f104 <_fpadd_parts+0x384>
 100ee14:	8596d83a 	srl	r11,r16,r22
 100ee18:	0019883a 	mov	r12,zero
 100ee1c:	0013883a 	mov	r9,zero
 100ee20:	01000044 	movi	r4,1
 100ee24:	0015883a 	mov	r10,zero
 100ee28:	b000be16 	blt	r22,zero,100f124 <_fpadd_parts+0x3a4>
 100ee2c:	2590983a 	sll	r8,r4,r22
 100ee30:	000f883a 	mov	r7,zero
 100ee34:	00bfffc4 	movi	r2,-1
 100ee38:	3889883a 	add	r4,r7,r2
 100ee3c:	408b883a 	add	r5,r8,r2
 100ee40:	21cd803a 	cmpltu	r6,r4,r7
 100ee44:	314b883a 	add	r5,r6,r5
 100ee48:	7904703a 	and	r2,r15,r4
 100ee4c:	8146703a 	and	r3,r16,r5
 100ee50:	10c4b03a 	or	r2,r2,r3
 100ee54:	10000226 	beq	r2,zero,100ee60 <_fpadd_parts+0xe0>
 100ee58:	02400044 	movi	r9,1
 100ee5c:	0015883a 	mov	r10,zero
 100ee60:	5a5eb03a 	or	r15,r11,r9
 100ee64:	62a0b03a 	or	r16,r12,r10
 100ee68:	99400117 	ldw	r5,4(r19)
 100ee6c:	a8800117 	ldw	r2,4(r21)
 100ee70:	28806e26 	beq	r5,r2,100f02c <_fpadd_parts+0x2ac>
 100ee74:	28006626 	beq	r5,zero,100f010 <_fpadd_parts+0x290>
 100ee78:	7c45c83a 	sub	r2,r15,r17
 100ee7c:	7889803a 	cmpltu	r4,r15,r2
 100ee80:	8487c83a 	sub	r3,r16,r18
 100ee84:	1909c83a 	sub	r4,r3,r4
 100ee88:	100d883a 	mov	r6,r2
 100ee8c:	200f883a 	mov	r7,r4
 100ee90:	38007716 	blt	r7,zero,100f070 <_fpadd_parts+0x2f0>
 100ee94:	a5c00215 	stw	r23,8(r20)
 100ee98:	a1c00415 	stw	r7,16(r20)
 100ee9c:	a0000115 	stw	zero,4(r20)
 100eea0:	a1800315 	stw	r6,12(r20)
 100eea4:	a2000317 	ldw	r8,12(r20)
 100eea8:	a2400417 	ldw	r9,16(r20)
 100eeac:	00bfffc4 	movi	r2,-1
 100eeb0:	408b883a 	add	r5,r8,r2
 100eeb4:	2a09803a 	cmpltu	r4,r5,r8
 100eeb8:	488d883a 	add	r6,r9,r2
 100eebc:	01c40034 	movhi	r7,4096
 100eec0:	39ffffc4 	addi	r7,r7,-1
 100eec4:	218d883a 	add	r6,r4,r6
 100eec8:	39801736 	bltu	r7,r6,100ef28 <_fpadd_parts+0x1a8>
 100eecc:	31c06526 	beq	r6,r7,100f064 <_fpadd_parts+0x2e4>
 100eed0:	a3000217 	ldw	r12,8(r20)
 100eed4:	4209883a 	add	r4,r8,r8
 100eed8:	00bfffc4 	movi	r2,-1
 100eedc:	220f803a 	cmpltu	r7,r4,r8
 100eee0:	4a4b883a 	add	r5,r9,r9
 100eee4:	394f883a 	add	r7,r7,r5
 100eee8:	2095883a 	add	r10,r4,r2
 100eeec:	3897883a 	add	r11,r7,r2
 100eef0:	510d803a 	cmpltu	r6,r10,r4
 100eef4:	6099883a 	add	r12,r12,r2
 100eef8:	32d7883a 	add	r11,r6,r11
 100eefc:	00840034 	movhi	r2,4096
 100ef00:	10bfffc4 	addi	r2,r2,-1
 100ef04:	2011883a 	mov	r8,r4
 100ef08:	3813883a 	mov	r9,r7
 100ef0c:	a1000315 	stw	r4,12(r20)
 100ef10:	a1c00415 	stw	r7,16(r20)
 100ef14:	a3000215 	stw	r12,8(r20)
 100ef18:	12c00336 	bltu	r2,r11,100ef28 <_fpadd_parts+0x1a8>
 100ef1c:	58bfed1e 	bne	r11,r2,100eed4 <_fpadd_parts+0x154>
 100ef20:	00bfff84 	movi	r2,-2
 100ef24:	12bfeb2e 	bgeu	r2,r10,100eed4 <_fpadd_parts+0x154>
 100ef28:	a2800417 	ldw	r10,16(r20)
 100ef2c:	008000c4 	movi	r2,3
 100ef30:	00c80034 	movhi	r3,8192
 100ef34:	18ffffc4 	addi	r3,r3,-1
 100ef38:	a2400317 	ldw	r9,12(r20)
 100ef3c:	a0800015 	stw	r2,0(r20)
 100ef40:	1a802336 	bltu	r3,r10,100efd0 <_fpadd_parts+0x250>
 100ef44:	a027883a 	mov	r19,r20
 100ef48:	9805883a 	mov	r2,r19
 100ef4c:	ddc00717 	ldw	r23,28(sp)
 100ef50:	dd800617 	ldw	r22,24(sp)
 100ef54:	dd400517 	ldw	r21,20(sp)
 100ef58:	dd000417 	ldw	r20,16(sp)
 100ef5c:	dcc00317 	ldw	r19,12(sp)
 100ef60:	dc800217 	ldw	r18,8(sp)
 100ef64:	dc400117 	ldw	r17,4(sp)
 100ef68:	dc000017 	ldw	r16,0(sp)
 100ef6c:	dec00804 	addi	sp,sp,32
 100ef70:	f800283a 	ret
 100ef74:	20fff41e 	bne	r4,r3,100ef48 <_fpadd_parts+0x1c8>
 100ef78:	31000015 	stw	r4,0(r6)
 100ef7c:	98800117 	ldw	r2,4(r19)
 100ef80:	30800115 	stw	r2,4(r6)
 100ef84:	98c00217 	ldw	r3,8(r19)
 100ef88:	30c00215 	stw	r3,8(r6)
 100ef8c:	98800317 	ldw	r2,12(r19)
 100ef90:	30800315 	stw	r2,12(r6)
 100ef94:	98c00417 	ldw	r3,16(r19)
 100ef98:	30c00415 	stw	r3,16(r6)
 100ef9c:	98800117 	ldw	r2,4(r19)
 100efa0:	28c00117 	ldw	r3,4(r5)
 100efa4:	3027883a 	mov	r19,r6
 100efa8:	10c4703a 	and	r2,r2,r3
 100efac:	30800115 	stw	r2,4(r6)
 100efb0:	003fe506 	br	100ef48 <_fpadd_parts+0x1c8>
 100efb4:	1dc02616 	blt	r3,r23,100f050 <_fpadd_parts+0x2d0>
 100efb8:	0023883a 	mov	r17,zero
 100efbc:	182f883a 	mov	r23,r3
 100efc0:	0025883a 	mov	r18,zero
 100efc4:	003fa806 	br	100ee68 <_fpadd_parts+0xe8>
 100efc8:	a827883a 	mov	r19,r21
 100efcc:	003fde06 	br	100ef48 <_fpadd_parts+0x1c8>
 100efd0:	01800044 	movi	r6,1
 100efd4:	500497fa 	slli	r2,r10,31
 100efd8:	4808d07a 	srli	r4,r9,1
 100efdc:	518ad83a 	srl	r5,r10,r6
 100efe0:	a2000217 	ldw	r8,8(r20)
 100efe4:	1108b03a 	or	r4,r2,r4
 100efe8:	0007883a 	mov	r3,zero
 100efec:	4984703a 	and	r2,r9,r6
 100eff0:	208cb03a 	or	r6,r4,r2
 100eff4:	28ceb03a 	or	r7,r5,r3
 100eff8:	42000044 	addi	r8,r8,1
 100effc:	a027883a 	mov	r19,r20
 100f000:	a1c00415 	stw	r7,16(r20)
 100f004:	a2000215 	stw	r8,8(r20)
 100f008:	a1800315 	stw	r6,12(r20)
 100f00c:	003fce06 	br	100ef48 <_fpadd_parts+0x1c8>
 100f010:	8bc5c83a 	sub	r2,r17,r15
 100f014:	8889803a 	cmpltu	r4,r17,r2
 100f018:	9407c83a 	sub	r3,r18,r16
 100f01c:	1909c83a 	sub	r4,r3,r4
 100f020:	100d883a 	mov	r6,r2
 100f024:	200f883a 	mov	r7,r4
 100f028:	003f9906 	br	100ee90 <_fpadd_parts+0x110>
 100f02c:	7c45883a 	add	r2,r15,r17
 100f030:	13c9803a 	cmpltu	r4,r2,r15
 100f034:	8487883a 	add	r3,r16,r18
 100f038:	20c9883a 	add	r4,r4,r3
 100f03c:	a1400115 	stw	r5,4(r20)
 100f040:	a5c00215 	stw	r23,8(r20)
 100f044:	a0800315 	stw	r2,12(r20)
 100f048:	a1000415 	stw	r4,16(r20)
 100f04c:	003fb606 	br	100ef28 <_fpadd_parts+0x1a8>
 100f050:	001f883a 	mov	r15,zero
 100f054:	0021883a 	mov	r16,zero
 100f058:	003f8306 	br	100ee68 <_fpadd_parts+0xe8>
 100f05c:	018dc83a 	sub	r6,zero,r6
 100f060:	003f6706 	br	100ee00 <_fpadd_parts+0x80>
 100f064:	00bfff84 	movi	r2,-2
 100f068:	117faf36 	bltu	r2,r5,100ef28 <_fpadd_parts+0x1a8>
 100f06c:	003f9806 	br	100eed0 <_fpadd_parts+0x150>
 100f070:	0005883a 	mov	r2,zero
 100f074:	1189c83a 	sub	r4,r2,r6
 100f078:	1105803a 	cmpltu	r2,r2,r4
 100f07c:	01cbc83a 	sub	r5,zero,r7
 100f080:	2885c83a 	sub	r2,r5,r2
 100f084:	01800044 	movi	r6,1
 100f088:	a1800115 	stw	r6,4(r20)
 100f08c:	a5c00215 	stw	r23,8(r20)
 100f090:	a1000315 	stw	r4,12(r20)
 100f094:	a0800415 	stw	r2,16(r20)
 100f098:	003f8206 	br	100eea4 <_fpadd_parts+0x124>
 100f09c:	203f7226 	beq	r4,zero,100ee68 <_fpadd_parts+0xe8>
 100f0a0:	35bff804 	addi	r22,r6,-32
 100f0a4:	b9af883a 	add	r23,r23,r6
 100f0a8:	b0003116 	blt	r22,zero,100f170 <_fpadd_parts+0x3f0>
 100f0ac:	959ad83a 	srl	r13,r18,r22
 100f0b0:	001d883a 	mov	r14,zero
 100f0b4:	000f883a 	mov	r7,zero
 100f0b8:	01000044 	movi	r4,1
 100f0bc:	0011883a 	mov	r8,zero
 100f0c0:	b0002516 	blt	r22,zero,100f158 <_fpadd_parts+0x3d8>
 100f0c4:	2594983a 	sll	r10,r4,r22
 100f0c8:	0013883a 	mov	r9,zero
 100f0cc:	00bfffc4 	movi	r2,-1
 100f0d0:	4889883a 	add	r4,r9,r2
 100f0d4:	508b883a 	add	r5,r10,r2
 100f0d8:	224d803a 	cmpltu	r6,r4,r9
 100f0dc:	314b883a 	add	r5,r6,r5
 100f0e0:	8904703a 	and	r2,r17,r4
 100f0e4:	9146703a 	and	r3,r18,r5
 100f0e8:	10c4b03a 	or	r2,r2,r3
 100f0ec:	10000226 	beq	r2,zero,100f0f8 <_fpadd_parts+0x378>
 100f0f0:	01c00044 	movi	r7,1
 100f0f4:	0011883a 	mov	r8,zero
 100f0f8:	69e2b03a 	or	r17,r13,r7
 100f0fc:	7224b03a 	or	r18,r14,r8
 100f100:	003f5906 	br	100ee68 <_fpadd_parts+0xe8>
 100f104:	8407883a 	add	r3,r16,r16
 100f108:	008007c4 	movi	r2,31
 100f10c:	1185c83a 	sub	r2,r2,r6
 100f110:	1886983a 	sll	r3,r3,r2
 100f114:	7996d83a 	srl	r11,r15,r6
 100f118:	8198d83a 	srl	r12,r16,r6
 100f11c:	1ad6b03a 	or	r11,r3,r11
 100f120:	003f3e06 	br	100ee1c <_fpadd_parts+0x9c>
 100f124:	2006d07a 	srli	r3,r4,1
 100f128:	008007c4 	movi	r2,31
 100f12c:	1185c83a 	sub	r2,r2,r6
 100f130:	1890d83a 	srl	r8,r3,r2
 100f134:	218e983a 	sll	r7,r4,r6
 100f138:	003f3e06 	br	100ee34 <_fpadd_parts+0xb4>
 100f13c:	113f821e 	bne	r2,r4,100ef48 <_fpadd_parts+0x1c8>
 100f140:	28c00117 	ldw	r3,4(r5)
 100f144:	98800117 	ldw	r2,4(r19)
 100f148:	10ff7f26 	beq	r2,r3,100ef48 <_fpadd_parts+0x1c8>
 100f14c:	04c04074 	movhi	r19,257
 100f150:	9ccf5704 	addi	r19,r19,15708
 100f154:	003f7c06 	br	100ef48 <_fpadd_parts+0x1c8>
 100f158:	2006d07a 	srli	r3,r4,1
 100f15c:	008007c4 	movi	r2,31
 100f160:	1185c83a 	sub	r2,r2,r6
 100f164:	1894d83a 	srl	r10,r3,r2
 100f168:	2192983a 	sll	r9,r4,r6
 100f16c:	003fd706 	br	100f0cc <_fpadd_parts+0x34c>
 100f170:	9487883a 	add	r3,r18,r18
 100f174:	008007c4 	movi	r2,31
 100f178:	1185c83a 	sub	r2,r2,r6
 100f17c:	1886983a 	sll	r3,r3,r2
 100f180:	899ad83a 	srl	r13,r17,r6
 100f184:	919cd83a 	srl	r14,r18,r6
 100f188:	1b5ab03a 	or	r13,r3,r13
 100f18c:	003fc906 	br	100f0b4 <_fpadd_parts+0x334>

0100f190 <__subdf3>:
 100f190:	deffea04 	addi	sp,sp,-88
 100f194:	dcc01415 	stw	r19,80(sp)
 100f198:	dcc00404 	addi	r19,sp,16
 100f19c:	2011883a 	mov	r8,r4
 100f1a0:	2813883a 	mov	r9,r5
 100f1a4:	dc401315 	stw	r17,76(sp)
 100f1a8:	d809883a 	mov	r4,sp
 100f1ac:	980b883a 	mov	r5,r19
 100f1b0:	dc400904 	addi	r17,sp,36
 100f1b4:	dfc01515 	stw	ra,84(sp)
 100f1b8:	da400115 	stw	r9,4(sp)
 100f1bc:	d9c00315 	stw	r7,12(sp)
 100f1c0:	da000015 	stw	r8,0(sp)
 100f1c4:	d9800215 	stw	r6,8(sp)
 100f1c8:	10104240 	call	1010424 <__unpack_d>
 100f1cc:	d9000204 	addi	r4,sp,8
 100f1d0:	880b883a 	mov	r5,r17
 100f1d4:	10104240 	call	1010424 <__unpack_d>
 100f1d8:	d8800a17 	ldw	r2,40(sp)
 100f1dc:	880b883a 	mov	r5,r17
 100f1e0:	9809883a 	mov	r4,r19
 100f1e4:	d9800e04 	addi	r6,sp,56
 100f1e8:	1080005c 	xori	r2,r2,1
 100f1ec:	d8800a15 	stw	r2,40(sp)
 100f1f0:	100ed800 	call	100ed80 <_fpadd_parts>
 100f1f4:	1009883a 	mov	r4,r2
 100f1f8:	10101100 	call	1010110 <__pack_d>
 100f1fc:	dfc01517 	ldw	ra,84(sp)
 100f200:	dcc01417 	ldw	r19,80(sp)
 100f204:	dc401317 	ldw	r17,76(sp)
 100f208:	dec01604 	addi	sp,sp,88
 100f20c:	f800283a 	ret

0100f210 <__adddf3>:
 100f210:	deffea04 	addi	sp,sp,-88
 100f214:	dcc01415 	stw	r19,80(sp)
 100f218:	dcc00404 	addi	r19,sp,16
 100f21c:	2011883a 	mov	r8,r4
 100f220:	2813883a 	mov	r9,r5
 100f224:	dc401315 	stw	r17,76(sp)
 100f228:	d809883a 	mov	r4,sp
 100f22c:	980b883a 	mov	r5,r19
 100f230:	dc400904 	addi	r17,sp,36
 100f234:	dfc01515 	stw	ra,84(sp)
 100f238:	da400115 	stw	r9,4(sp)
 100f23c:	d9c00315 	stw	r7,12(sp)
 100f240:	da000015 	stw	r8,0(sp)
 100f244:	d9800215 	stw	r6,8(sp)
 100f248:	10104240 	call	1010424 <__unpack_d>
 100f24c:	d9000204 	addi	r4,sp,8
 100f250:	880b883a 	mov	r5,r17
 100f254:	10104240 	call	1010424 <__unpack_d>
 100f258:	d9800e04 	addi	r6,sp,56
 100f25c:	9809883a 	mov	r4,r19
 100f260:	880b883a 	mov	r5,r17
 100f264:	100ed800 	call	100ed80 <_fpadd_parts>
 100f268:	1009883a 	mov	r4,r2
 100f26c:	10101100 	call	1010110 <__pack_d>
 100f270:	dfc01517 	ldw	ra,84(sp)
 100f274:	dcc01417 	ldw	r19,80(sp)
 100f278:	dc401317 	ldw	r17,76(sp)
 100f27c:	dec01604 	addi	sp,sp,88
 100f280:	f800283a 	ret

0100f284 <__muldf3>:
 100f284:	deffe004 	addi	sp,sp,-128
 100f288:	dc401815 	stw	r17,96(sp)
 100f28c:	dc400404 	addi	r17,sp,16
 100f290:	2011883a 	mov	r8,r4
 100f294:	2813883a 	mov	r9,r5
 100f298:	dc001715 	stw	r16,92(sp)
 100f29c:	d809883a 	mov	r4,sp
 100f2a0:	880b883a 	mov	r5,r17
 100f2a4:	dc000904 	addi	r16,sp,36
 100f2a8:	dfc01f15 	stw	ra,124(sp)
 100f2ac:	da400115 	stw	r9,4(sp)
 100f2b0:	d9c00315 	stw	r7,12(sp)
 100f2b4:	da000015 	stw	r8,0(sp)
 100f2b8:	d9800215 	stw	r6,8(sp)
 100f2bc:	ddc01e15 	stw	r23,120(sp)
 100f2c0:	dd801d15 	stw	r22,116(sp)
 100f2c4:	dd401c15 	stw	r21,112(sp)
 100f2c8:	dd001b15 	stw	r20,108(sp)
 100f2cc:	dcc01a15 	stw	r19,104(sp)
 100f2d0:	dc801915 	stw	r18,100(sp)
 100f2d4:	10104240 	call	1010424 <__unpack_d>
 100f2d8:	d9000204 	addi	r4,sp,8
 100f2dc:	800b883a 	mov	r5,r16
 100f2e0:	10104240 	call	1010424 <__unpack_d>
 100f2e4:	d9000417 	ldw	r4,16(sp)
 100f2e8:	00800044 	movi	r2,1
 100f2ec:	1100102e 	bgeu	r2,r4,100f330 <__muldf3+0xac>
 100f2f0:	d8c00917 	ldw	r3,36(sp)
 100f2f4:	10c0062e 	bgeu	r2,r3,100f310 <__muldf3+0x8c>
 100f2f8:	00800104 	movi	r2,4
 100f2fc:	20800a26 	beq	r4,r2,100f328 <__muldf3+0xa4>
 100f300:	1880cc26 	beq	r3,r2,100f634 <__muldf3+0x3b0>
 100f304:	00800084 	movi	r2,2
 100f308:	20800926 	beq	r4,r2,100f330 <__muldf3+0xac>
 100f30c:	1880191e 	bne	r3,r2,100f374 <__muldf3+0xf0>
 100f310:	d8c00a17 	ldw	r3,40(sp)
 100f314:	d8800517 	ldw	r2,20(sp)
 100f318:	8009883a 	mov	r4,r16
 100f31c:	10c4c03a 	cmpne	r2,r2,r3
 100f320:	d8800a15 	stw	r2,40(sp)
 100f324:	00000706 	br	100f344 <__muldf3+0xc0>
 100f328:	00800084 	movi	r2,2
 100f32c:	1880c326 	beq	r3,r2,100f63c <__muldf3+0x3b8>
 100f330:	d8800517 	ldw	r2,20(sp)
 100f334:	d8c00a17 	ldw	r3,40(sp)
 100f338:	8809883a 	mov	r4,r17
 100f33c:	10c4c03a 	cmpne	r2,r2,r3
 100f340:	d8800515 	stw	r2,20(sp)
 100f344:	10101100 	call	1010110 <__pack_d>
 100f348:	dfc01f17 	ldw	ra,124(sp)
 100f34c:	ddc01e17 	ldw	r23,120(sp)
 100f350:	dd801d17 	ldw	r22,116(sp)
 100f354:	dd401c17 	ldw	r21,112(sp)
 100f358:	dd001b17 	ldw	r20,108(sp)
 100f35c:	dcc01a17 	ldw	r19,104(sp)
 100f360:	dc801917 	ldw	r18,100(sp)
 100f364:	dc401817 	ldw	r17,96(sp)
 100f368:	dc001717 	ldw	r16,92(sp)
 100f36c:	dec02004 	addi	sp,sp,128
 100f370:	f800283a 	ret
 100f374:	dd800717 	ldw	r22,28(sp)
 100f378:	dc800c17 	ldw	r18,48(sp)
 100f37c:	002b883a 	mov	r21,zero
 100f380:	0023883a 	mov	r17,zero
 100f384:	a80b883a 	mov	r5,r21
 100f388:	b00d883a 	mov	r6,r22
 100f38c:	880f883a 	mov	r7,r17
 100f390:	ddc00817 	ldw	r23,32(sp)
 100f394:	dcc00d17 	ldw	r19,52(sp)
 100f398:	9009883a 	mov	r4,r18
 100f39c:	100fff80 	call	100fff8 <__muldi3>
 100f3a0:	001b883a 	mov	r13,zero
 100f3a4:	680f883a 	mov	r7,r13
 100f3a8:	b009883a 	mov	r4,r22
 100f3ac:	000b883a 	mov	r5,zero
 100f3b0:	980d883a 	mov	r6,r19
 100f3b4:	b82d883a 	mov	r22,r23
 100f3b8:	002f883a 	mov	r23,zero
 100f3bc:	db401615 	stw	r13,88(sp)
 100f3c0:	d8801315 	stw	r2,76(sp)
 100f3c4:	d8c01415 	stw	r3,80(sp)
 100f3c8:	dcc01515 	stw	r19,84(sp)
 100f3cc:	100fff80 	call	100fff8 <__muldi3>
 100f3d0:	b00d883a 	mov	r6,r22
 100f3d4:	000b883a 	mov	r5,zero
 100f3d8:	9009883a 	mov	r4,r18
 100f3dc:	b80f883a 	mov	r7,r23
 100f3e0:	1021883a 	mov	r16,r2
 100f3e4:	1823883a 	mov	r17,r3
 100f3e8:	100fff80 	call	100fff8 <__muldi3>
 100f3ec:	8085883a 	add	r2,r16,r2
 100f3f0:	140d803a 	cmpltu	r6,r2,r16
 100f3f4:	88c7883a 	add	r3,r17,r3
 100f3f8:	30cd883a 	add	r6,r6,r3
 100f3fc:	1029883a 	mov	r20,r2
 100f400:	302b883a 	mov	r21,r6
 100f404:	da801317 	ldw	r10,76(sp)
 100f408:	dac01417 	ldw	r11,80(sp)
 100f40c:	db001517 	ldw	r12,84(sp)
 100f410:	db401617 	ldw	r13,88(sp)
 100f414:	3440612e 	bgeu	r6,r17,100f59c <__muldf3+0x318>
 100f418:	0009883a 	mov	r4,zero
 100f41c:	5105883a 	add	r2,r10,r4
 100f420:	128d803a 	cmpltu	r6,r2,r10
 100f424:	5d07883a 	add	r3,r11,r20
 100f428:	30cd883a 	add	r6,r6,r3
 100f42c:	0021883a 	mov	r16,zero
 100f430:	04400044 	movi	r17,1
 100f434:	1025883a 	mov	r18,r2
 100f438:	3027883a 	mov	r19,r6
 100f43c:	32c06236 	bltu	r6,r11,100f5c8 <__muldf3+0x344>
 100f440:	59807a26 	beq	r11,r6,100f62c <__muldf3+0x3a8>
 100f444:	680b883a 	mov	r5,r13
 100f448:	b80f883a 	mov	r7,r23
 100f44c:	6009883a 	mov	r4,r12
 100f450:	b00d883a 	mov	r6,r22
 100f454:	100fff80 	call	100fff8 <__muldi3>
 100f458:	1009883a 	mov	r4,r2
 100f45c:	000f883a 	mov	r7,zero
 100f460:	1545883a 	add	r2,r2,r21
 100f464:	1111803a 	cmpltu	r8,r2,r4
 100f468:	19c7883a 	add	r3,r3,r7
 100f46c:	40c7883a 	add	r3,r8,r3
 100f470:	88cb883a 	add	r5,r17,r3
 100f474:	d8c00617 	ldw	r3,24(sp)
 100f478:	8089883a 	add	r4,r16,r2
 100f47c:	d8800b17 	ldw	r2,44(sp)
 100f480:	18c00104 	addi	r3,r3,4
 100f484:	240d803a 	cmpltu	r6,r4,r16
 100f488:	10c7883a 	add	r3,r2,r3
 100f48c:	2013883a 	mov	r9,r4
 100f490:	d8800a17 	ldw	r2,40(sp)
 100f494:	d9000517 	ldw	r4,20(sp)
 100f498:	314d883a 	add	r6,r6,r5
 100f49c:	3015883a 	mov	r10,r6
 100f4a0:	2088c03a 	cmpne	r4,r4,r2
 100f4a4:	00880034 	movhi	r2,8192
 100f4a8:	10bfffc4 	addi	r2,r2,-1
 100f4ac:	d9000f15 	stw	r4,60(sp)
 100f4b0:	d8c01015 	stw	r3,64(sp)
 100f4b4:	1180162e 	bgeu	r2,r6,100f510 <__muldf3+0x28c>
 100f4b8:	1811883a 	mov	r8,r3
 100f4bc:	101f883a 	mov	r15,r2
 100f4c0:	980497fa 	slli	r2,r19,31
 100f4c4:	9016d07a 	srli	r11,r18,1
 100f4c8:	500697fa 	slli	r3,r10,31
 100f4cc:	480cd07a 	srli	r6,r9,1
 100f4d0:	500ed07a 	srli	r7,r10,1
 100f4d4:	12d6b03a 	or	r11,r2,r11
 100f4d8:	00800044 	movi	r2,1
 100f4dc:	198cb03a 	or	r6,r3,r6
 100f4e0:	4888703a 	and	r4,r9,r2
 100f4e4:	9818d07a 	srli	r12,r19,1
 100f4e8:	001b883a 	mov	r13,zero
 100f4ec:	03a00034 	movhi	r14,32768
 100f4f0:	3013883a 	mov	r9,r6
 100f4f4:	3815883a 	mov	r10,r7
 100f4f8:	4091883a 	add	r8,r8,r2
 100f4fc:	20000226 	beq	r4,zero,100f508 <__muldf3+0x284>
 100f500:	5b64b03a 	or	r18,r11,r13
 100f504:	63a6b03a 	or	r19,r12,r14
 100f508:	7abfed36 	bltu	r15,r10,100f4c0 <__muldf3+0x23c>
 100f50c:	da001015 	stw	r8,64(sp)
 100f510:	00840034 	movhi	r2,4096
 100f514:	10bfffc4 	addi	r2,r2,-1
 100f518:	12801436 	bltu	r2,r10,100f56c <__muldf3+0x2e8>
 100f51c:	da001017 	ldw	r8,64(sp)
 100f520:	101f883a 	mov	r15,r2
 100f524:	4a45883a 	add	r2,r9,r9
 100f528:	124d803a 	cmpltu	r6,r2,r9
 100f52c:	5287883a 	add	r3,r10,r10
 100f530:	9497883a 	add	r11,r18,r18
 100f534:	5c8f803a 	cmpltu	r7,r11,r18
 100f538:	9cd9883a 	add	r12,r19,r19
 100f53c:	01000044 	movi	r4,1
 100f540:	30cd883a 	add	r6,r6,r3
 100f544:	3b0f883a 	add	r7,r7,r12
 100f548:	423fffc4 	addi	r8,r8,-1
 100f54c:	1013883a 	mov	r9,r2
 100f550:	3015883a 	mov	r10,r6
 100f554:	111ab03a 	or	r13,r2,r4
 100f558:	98003016 	blt	r19,zero,100f61c <__muldf3+0x398>
 100f55c:	5825883a 	mov	r18,r11
 100f560:	3827883a 	mov	r19,r7
 100f564:	7abfef2e 	bgeu	r15,r10,100f524 <__muldf3+0x2a0>
 100f568:	da001015 	stw	r8,64(sp)
 100f56c:	00803fc4 	movi	r2,255
 100f570:	488e703a 	and	r7,r9,r2
 100f574:	00802004 	movi	r2,128
 100f578:	0007883a 	mov	r3,zero
 100f57c:	0011883a 	mov	r8,zero
 100f580:	38801826 	beq	r7,r2,100f5e4 <__muldf3+0x360>
 100f584:	008000c4 	movi	r2,3
 100f588:	d9000e04 	addi	r4,sp,56
 100f58c:	da801215 	stw	r10,72(sp)
 100f590:	d8800e15 	stw	r2,56(sp)
 100f594:	da401115 	stw	r9,68(sp)
 100f598:	003f6a06 	br	100f344 <__muldf3+0xc0>
 100f59c:	89802126 	beq	r17,r6,100f624 <__muldf3+0x3a0>
 100f5a0:	0009883a 	mov	r4,zero
 100f5a4:	5105883a 	add	r2,r10,r4
 100f5a8:	128d803a 	cmpltu	r6,r2,r10
 100f5ac:	5d07883a 	add	r3,r11,r20
 100f5b0:	30cd883a 	add	r6,r6,r3
 100f5b4:	0021883a 	mov	r16,zero
 100f5b8:	0023883a 	mov	r17,zero
 100f5bc:	1025883a 	mov	r18,r2
 100f5c0:	3027883a 	mov	r19,r6
 100f5c4:	32ff9e2e 	bgeu	r6,r11,100f440 <__muldf3+0x1bc>
 100f5c8:	00800044 	movi	r2,1
 100f5cc:	8089883a 	add	r4,r16,r2
 100f5d0:	240d803a 	cmpltu	r6,r4,r16
 100f5d4:	344d883a 	add	r6,r6,r17
 100f5d8:	2021883a 	mov	r16,r4
 100f5dc:	3023883a 	mov	r17,r6
 100f5e0:	003f9806 	br	100f444 <__muldf3+0x1c0>
 100f5e4:	403fe71e 	bne	r8,zero,100f584 <__muldf3+0x300>
 100f5e8:	01004004 	movi	r4,256
 100f5ec:	4904703a 	and	r2,r9,r4
 100f5f0:	10c4b03a 	or	r2,r2,r3
 100f5f4:	103fe31e 	bne	r2,zero,100f584 <__muldf3+0x300>
 100f5f8:	94c4b03a 	or	r2,r18,r19
 100f5fc:	103fe126 	beq	r2,zero,100f584 <__muldf3+0x300>
 100f600:	49c5883a 	add	r2,r9,r7
 100f604:	1251803a 	cmpltu	r8,r2,r9
 100f608:	4291883a 	add	r8,r8,r10
 100f60c:	013fc004 	movi	r4,-256
 100f610:	1112703a 	and	r9,r2,r4
 100f614:	4015883a 	mov	r10,r8
 100f618:	003fda06 	br	100f584 <__muldf3+0x300>
 100f61c:	6813883a 	mov	r9,r13
 100f620:	003fce06 	br	100f55c <__muldf3+0x2d8>
 100f624:	143f7c36 	bltu	r2,r16,100f418 <__muldf3+0x194>
 100f628:	003fdd06 	br	100f5a0 <__muldf3+0x31c>
 100f62c:	12bf852e 	bgeu	r2,r10,100f444 <__muldf3+0x1c0>
 100f630:	003fe506 	br	100f5c8 <__muldf3+0x344>
 100f634:	00800084 	movi	r2,2
 100f638:	20bf351e 	bne	r4,r2,100f310 <__muldf3+0x8c>
 100f63c:	01004074 	movhi	r4,257
 100f640:	210f5704 	addi	r4,r4,15708
 100f644:	003f3f06 	br	100f344 <__muldf3+0xc0>

0100f648 <__divdf3>:
 100f648:	deffed04 	addi	sp,sp,-76
 100f64c:	dcc01115 	stw	r19,68(sp)
 100f650:	dcc00404 	addi	r19,sp,16
 100f654:	2011883a 	mov	r8,r4
 100f658:	2813883a 	mov	r9,r5
 100f65c:	dc000e15 	stw	r16,56(sp)
 100f660:	d809883a 	mov	r4,sp
 100f664:	980b883a 	mov	r5,r19
 100f668:	dc000904 	addi	r16,sp,36
 100f66c:	dfc01215 	stw	ra,72(sp)
 100f670:	da400115 	stw	r9,4(sp)
 100f674:	d9c00315 	stw	r7,12(sp)
 100f678:	da000015 	stw	r8,0(sp)
 100f67c:	d9800215 	stw	r6,8(sp)
 100f680:	dc801015 	stw	r18,64(sp)
 100f684:	dc400f15 	stw	r17,60(sp)
 100f688:	10104240 	call	1010424 <__unpack_d>
 100f68c:	d9000204 	addi	r4,sp,8
 100f690:	800b883a 	mov	r5,r16
 100f694:	10104240 	call	1010424 <__unpack_d>
 100f698:	d9000417 	ldw	r4,16(sp)
 100f69c:	00800044 	movi	r2,1
 100f6a0:	11000b2e 	bgeu	r2,r4,100f6d0 <__divdf3+0x88>
 100f6a4:	d9400917 	ldw	r5,36(sp)
 100f6a8:	1140762e 	bgeu	r2,r5,100f884 <__divdf3+0x23c>
 100f6ac:	d8800517 	ldw	r2,20(sp)
 100f6b0:	d8c00a17 	ldw	r3,40(sp)
 100f6b4:	01800104 	movi	r6,4
 100f6b8:	10c4f03a 	xor	r2,r2,r3
 100f6bc:	d8800515 	stw	r2,20(sp)
 100f6c0:	21800226 	beq	r4,r6,100f6cc <__divdf3+0x84>
 100f6c4:	00800084 	movi	r2,2
 100f6c8:	2080141e 	bne	r4,r2,100f71c <__divdf3+0xd4>
 100f6cc:	29000926 	beq	r5,r4,100f6f4 <__divdf3+0xac>
 100f6d0:	9809883a 	mov	r4,r19
 100f6d4:	10101100 	call	1010110 <__pack_d>
 100f6d8:	dfc01217 	ldw	ra,72(sp)
 100f6dc:	dcc01117 	ldw	r19,68(sp)
 100f6e0:	dc801017 	ldw	r18,64(sp)
 100f6e4:	dc400f17 	ldw	r17,60(sp)
 100f6e8:	dc000e17 	ldw	r16,56(sp)
 100f6ec:	dec01304 	addi	sp,sp,76
 100f6f0:	f800283a 	ret
 100f6f4:	01004074 	movhi	r4,257
 100f6f8:	210f5704 	addi	r4,r4,15708
 100f6fc:	10101100 	call	1010110 <__pack_d>
 100f700:	dfc01217 	ldw	ra,72(sp)
 100f704:	dcc01117 	ldw	r19,68(sp)
 100f708:	dc801017 	ldw	r18,64(sp)
 100f70c:	dc400f17 	ldw	r17,60(sp)
 100f710:	dc000e17 	ldw	r16,56(sp)
 100f714:	dec01304 	addi	sp,sp,76
 100f718:	f800283a 	ret
 100f71c:	29805b26 	beq	r5,r6,100f88c <__divdf3+0x244>
 100f720:	28802d26 	beq	r5,r2,100f7d8 <__divdf3+0x190>
 100f724:	d8c00617 	ldw	r3,24(sp)
 100f728:	d8800b17 	ldw	r2,44(sp)
 100f72c:	d9c00817 	ldw	r7,32(sp)
 100f730:	dc400d17 	ldw	r17,52(sp)
 100f734:	188bc83a 	sub	r5,r3,r2
 100f738:	d9800717 	ldw	r6,28(sp)
 100f73c:	dc000c17 	ldw	r16,48(sp)
 100f740:	d9400615 	stw	r5,24(sp)
 100f744:	3c403836 	bltu	r7,r17,100f828 <__divdf3+0x1e0>
 100f748:	89c03626 	beq	r17,r7,100f824 <__divdf3+0x1dc>
 100f74c:	0015883a 	mov	r10,zero
 100f750:	001d883a 	mov	r14,zero
 100f754:	02c40034 	movhi	r11,4096
 100f758:	001f883a 	mov	r15,zero
 100f75c:	003f883a 	mov	ra,zero
 100f760:	04800f44 	movi	r18,61
 100f764:	00000f06 	br	100f7a4 <__divdf3+0x15c>
 100f768:	601d883a 	mov	r14,r12
 100f76c:	681f883a 	mov	r15,r13
 100f770:	400d883a 	mov	r6,r8
 100f774:	100f883a 	mov	r7,r2
 100f778:	3191883a 	add	r8,r6,r6
 100f77c:	5808d07a 	srli	r4,r11,1
 100f780:	4185803a 	cmpltu	r2,r8,r6
 100f784:	39d3883a 	add	r9,r7,r7
 100f788:	28c6b03a 	or	r3,r5,r3
 100f78c:	1245883a 	add	r2,r2,r9
 100f790:	1815883a 	mov	r10,r3
 100f794:	2017883a 	mov	r11,r4
 100f798:	400d883a 	mov	r6,r8
 100f79c:	100f883a 	mov	r7,r2
 100f7a0:	fc801726 	beq	ra,r18,100f800 <__divdf3+0x1b8>
 100f7a4:	580a97fa 	slli	r5,r11,31
 100f7a8:	5006d07a 	srli	r3,r10,1
 100f7ac:	ffc00044 	addi	ra,ra,1
 100f7b0:	3c7ff136 	bltu	r7,r17,100f778 <__divdf3+0x130>
 100f7b4:	3411c83a 	sub	r8,r6,r16
 100f7b8:	3205803a 	cmpltu	r2,r6,r8
 100f7bc:	3c53c83a 	sub	r9,r7,r17
 100f7c0:	7298b03a 	or	r12,r14,r10
 100f7c4:	7adab03a 	or	r13,r15,r11
 100f7c8:	4885c83a 	sub	r2,r9,r2
 100f7cc:	89ffe61e 	bne	r17,r7,100f768 <__divdf3+0x120>
 100f7d0:	343fe936 	bltu	r6,r16,100f778 <__divdf3+0x130>
 100f7d4:	003fe406 	br	100f768 <__divdf3+0x120>
 100f7d8:	9809883a 	mov	r4,r19
 100f7dc:	d9800415 	stw	r6,16(sp)
 100f7e0:	10101100 	call	1010110 <__pack_d>
 100f7e4:	dfc01217 	ldw	ra,72(sp)
 100f7e8:	dcc01117 	ldw	r19,68(sp)
 100f7ec:	dc801017 	ldw	r18,64(sp)
 100f7f0:	dc400f17 	ldw	r17,60(sp)
 100f7f4:	dc000e17 	ldw	r16,56(sp)
 100f7f8:	dec01304 	addi	sp,sp,76
 100f7fc:	f800283a 	ret
 100f800:	00803fc4 	movi	r2,255
 100f804:	7090703a 	and	r8,r14,r2
 100f808:	00802004 	movi	r2,128
 100f80c:	0007883a 	mov	r3,zero
 100f810:	0013883a 	mov	r9,zero
 100f814:	40800d26 	beq	r8,r2,100f84c <__divdf3+0x204>
 100f818:	dbc00815 	stw	r15,32(sp)
 100f81c:	db800715 	stw	r14,28(sp)
 100f820:	003fab06 	br	100f6d0 <__divdf3+0x88>
 100f824:	343fc92e 	bgeu	r6,r16,100f74c <__divdf3+0x104>
 100f828:	3185883a 	add	r2,r6,r6
 100f82c:	1189803a 	cmpltu	r4,r2,r6
 100f830:	39c7883a 	add	r3,r7,r7
 100f834:	20c9883a 	add	r4,r4,r3
 100f838:	297fffc4 	addi	r5,r5,-1
 100f83c:	100d883a 	mov	r6,r2
 100f840:	200f883a 	mov	r7,r4
 100f844:	d9400615 	stw	r5,24(sp)
 100f848:	003fc006 	br	100f74c <__divdf3+0x104>
 100f84c:	483ff21e 	bne	r9,zero,100f818 <__divdf3+0x1d0>
 100f850:	01004004 	movi	r4,256
 100f854:	7104703a 	and	r2,r14,r4
 100f858:	10c4b03a 	or	r2,r2,r3
 100f85c:	103fee1e 	bne	r2,zero,100f818 <__divdf3+0x1d0>
 100f860:	31c4b03a 	or	r2,r6,r7
 100f864:	103fec26 	beq	r2,zero,100f818 <__divdf3+0x1d0>
 100f868:	7205883a 	add	r2,r14,r8
 100f86c:	1391803a 	cmpltu	r8,r2,r14
 100f870:	43d1883a 	add	r8,r8,r15
 100f874:	013fc004 	movi	r4,-256
 100f878:	111c703a 	and	r14,r2,r4
 100f87c:	401f883a 	mov	r15,r8
 100f880:	003fe506 	br	100f818 <__divdf3+0x1d0>
 100f884:	8009883a 	mov	r4,r16
 100f888:	003f9206 	br	100f6d4 <__divdf3+0x8c>
 100f88c:	9809883a 	mov	r4,r19
 100f890:	d8000715 	stw	zero,28(sp)
 100f894:	d8000815 	stw	zero,32(sp)
 100f898:	d8000615 	stw	zero,24(sp)
 100f89c:	003f8d06 	br	100f6d4 <__divdf3+0x8c>

0100f8a0 <__eqdf2>:
 100f8a0:	deffef04 	addi	sp,sp,-68
 100f8a4:	dc400f15 	stw	r17,60(sp)
 100f8a8:	dc400404 	addi	r17,sp,16
 100f8ac:	2005883a 	mov	r2,r4
 100f8b0:	2807883a 	mov	r3,r5
 100f8b4:	dc000e15 	stw	r16,56(sp)
 100f8b8:	d809883a 	mov	r4,sp
 100f8bc:	880b883a 	mov	r5,r17
 100f8c0:	dc000904 	addi	r16,sp,36
 100f8c4:	d8c00115 	stw	r3,4(sp)
 100f8c8:	d8800015 	stw	r2,0(sp)
 100f8cc:	d9800215 	stw	r6,8(sp)
 100f8d0:	dfc01015 	stw	ra,64(sp)
 100f8d4:	d9c00315 	stw	r7,12(sp)
 100f8d8:	10104240 	call	1010424 <__unpack_d>
 100f8dc:	d9000204 	addi	r4,sp,8
 100f8e0:	800b883a 	mov	r5,r16
 100f8e4:	10104240 	call	1010424 <__unpack_d>
 100f8e8:	d8800417 	ldw	r2,16(sp)
 100f8ec:	00c00044 	movi	r3,1
 100f8f0:	180d883a 	mov	r6,r3
 100f8f4:	1880062e 	bgeu	r3,r2,100f910 <__eqdf2+0x70>
 100f8f8:	d8800917 	ldw	r2,36(sp)
 100f8fc:	8809883a 	mov	r4,r17
 100f900:	800b883a 	mov	r5,r16
 100f904:	1880022e 	bgeu	r3,r2,100f910 <__eqdf2+0x70>
 100f908:	101055c0 	call	101055c <__fpcmp_parts_d>
 100f90c:	100d883a 	mov	r6,r2
 100f910:	3005883a 	mov	r2,r6
 100f914:	dfc01017 	ldw	ra,64(sp)
 100f918:	dc400f17 	ldw	r17,60(sp)
 100f91c:	dc000e17 	ldw	r16,56(sp)
 100f920:	dec01104 	addi	sp,sp,68
 100f924:	f800283a 	ret

0100f928 <__nedf2>:
 100f928:	deffef04 	addi	sp,sp,-68
 100f92c:	dc400f15 	stw	r17,60(sp)
 100f930:	dc400404 	addi	r17,sp,16
 100f934:	2005883a 	mov	r2,r4
 100f938:	2807883a 	mov	r3,r5
 100f93c:	dc000e15 	stw	r16,56(sp)
 100f940:	d809883a 	mov	r4,sp
 100f944:	880b883a 	mov	r5,r17
 100f948:	dc000904 	addi	r16,sp,36
 100f94c:	d8c00115 	stw	r3,4(sp)
 100f950:	d8800015 	stw	r2,0(sp)
 100f954:	d9800215 	stw	r6,8(sp)
 100f958:	dfc01015 	stw	ra,64(sp)
 100f95c:	d9c00315 	stw	r7,12(sp)
 100f960:	10104240 	call	1010424 <__unpack_d>
 100f964:	d9000204 	addi	r4,sp,8
 100f968:	800b883a 	mov	r5,r16
 100f96c:	10104240 	call	1010424 <__unpack_d>
 100f970:	d8800417 	ldw	r2,16(sp)
 100f974:	00c00044 	movi	r3,1
 100f978:	180d883a 	mov	r6,r3
 100f97c:	1880062e 	bgeu	r3,r2,100f998 <__nedf2+0x70>
 100f980:	d8800917 	ldw	r2,36(sp)
 100f984:	8809883a 	mov	r4,r17
 100f988:	800b883a 	mov	r5,r16
 100f98c:	1880022e 	bgeu	r3,r2,100f998 <__nedf2+0x70>
 100f990:	101055c0 	call	101055c <__fpcmp_parts_d>
 100f994:	100d883a 	mov	r6,r2
 100f998:	3005883a 	mov	r2,r6
 100f99c:	dfc01017 	ldw	ra,64(sp)
 100f9a0:	dc400f17 	ldw	r17,60(sp)
 100f9a4:	dc000e17 	ldw	r16,56(sp)
 100f9a8:	dec01104 	addi	sp,sp,68
 100f9ac:	f800283a 	ret

0100f9b0 <__gtdf2>:
 100f9b0:	deffef04 	addi	sp,sp,-68
 100f9b4:	dc400f15 	stw	r17,60(sp)
 100f9b8:	dc400404 	addi	r17,sp,16
 100f9bc:	2005883a 	mov	r2,r4
 100f9c0:	2807883a 	mov	r3,r5
 100f9c4:	dc000e15 	stw	r16,56(sp)
 100f9c8:	d809883a 	mov	r4,sp
 100f9cc:	880b883a 	mov	r5,r17
 100f9d0:	dc000904 	addi	r16,sp,36
 100f9d4:	d8c00115 	stw	r3,4(sp)
 100f9d8:	d8800015 	stw	r2,0(sp)
 100f9dc:	d9800215 	stw	r6,8(sp)
 100f9e0:	dfc01015 	stw	ra,64(sp)
 100f9e4:	d9c00315 	stw	r7,12(sp)
 100f9e8:	10104240 	call	1010424 <__unpack_d>
 100f9ec:	d9000204 	addi	r4,sp,8
 100f9f0:	800b883a 	mov	r5,r16
 100f9f4:	10104240 	call	1010424 <__unpack_d>
 100f9f8:	d8800417 	ldw	r2,16(sp)
 100f9fc:	00c00044 	movi	r3,1
 100fa00:	01bfffc4 	movi	r6,-1
 100fa04:	1880062e 	bgeu	r3,r2,100fa20 <__gtdf2+0x70>
 100fa08:	d8800917 	ldw	r2,36(sp)
 100fa0c:	8809883a 	mov	r4,r17
 100fa10:	800b883a 	mov	r5,r16
 100fa14:	1880022e 	bgeu	r3,r2,100fa20 <__gtdf2+0x70>
 100fa18:	101055c0 	call	101055c <__fpcmp_parts_d>
 100fa1c:	100d883a 	mov	r6,r2
 100fa20:	3005883a 	mov	r2,r6
 100fa24:	dfc01017 	ldw	ra,64(sp)
 100fa28:	dc400f17 	ldw	r17,60(sp)
 100fa2c:	dc000e17 	ldw	r16,56(sp)
 100fa30:	dec01104 	addi	sp,sp,68
 100fa34:	f800283a 	ret

0100fa38 <__gedf2>:
 100fa38:	deffef04 	addi	sp,sp,-68
 100fa3c:	dc400f15 	stw	r17,60(sp)
 100fa40:	dc400404 	addi	r17,sp,16
 100fa44:	2005883a 	mov	r2,r4
 100fa48:	2807883a 	mov	r3,r5
 100fa4c:	dc000e15 	stw	r16,56(sp)
 100fa50:	d809883a 	mov	r4,sp
 100fa54:	880b883a 	mov	r5,r17
 100fa58:	dc000904 	addi	r16,sp,36
 100fa5c:	d8c00115 	stw	r3,4(sp)
 100fa60:	d8800015 	stw	r2,0(sp)
 100fa64:	d9800215 	stw	r6,8(sp)
 100fa68:	dfc01015 	stw	ra,64(sp)
 100fa6c:	d9c00315 	stw	r7,12(sp)
 100fa70:	10104240 	call	1010424 <__unpack_d>
 100fa74:	d9000204 	addi	r4,sp,8
 100fa78:	800b883a 	mov	r5,r16
 100fa7c:	10104240 	call	1010424 <__unpack_d>
 100fa80:	d8800417 	ldw	r2,16(sp)
 100fa84:	00c00044 	movi	r3,1
 100fa88:	01bfffc4 	movi	r6,-1
 100fa8c:	1880062e 	bgeu	r3,r2,100faa8 <__gedf2+0x70>
 100fa90:	d8800917 	ldw	r2,36(sp)
 100fa94:	8809883a 	mov	r4,r17
 100fa98:	800b883a 	mov	r5,r16
 100fa9c:	1880022e 	bgeu	r3,r2,100faa8 <__gedf2+0x70>
 100faa0:	101055c0 	call	101055c <__fpcmp_parts_d>
 100faa4:	100d883a 	mov	r6,r2
 100faa8:	3005883a 	mov	r2,r6
 100faac:	dfc01017 	ldw	ra,64(sp)
 100fab0:	dc400f17 	ldw	r17,60(sp)
 100fab4:	dc000e17 	ldw	r16,56(sp)
 100fab8:	dec01104 	addi	sp,sp,68
 100fabc:	f800283a 	ret

0100fac0 <__ltdf2>:
 100fac0:	deffef04 	addi	sp,sp,-68
 100fac4:	dc400f15 	stw	r17,60(sp)
 100fac8:	dc400404 	addi	r17,sp,16
 100facc:	2005883a 	mov	r2,r4
 100fad0:	2807883a 	mov	r3,r5
 100fad4:	dc000e15 	stw	r16,56(sp)
 100fad8:	d809883a 	mov	r4,sp
 100fadc:	880b883a 	mov	r5,r17
 100fae0:	dc000904 	addi	r16,sp,36
 100fae4:	d8c00115 	stw	r3,4(sp)
 100fae8:	d8800015 	stw	r2,0(sp)
 100faec:	d9800215 	stw	r6,8(sp)
 100faf0:	dfc01015 	stw	ra,64(sp)
 100faf4:	d9c00315 	stw	r7,12(sp)
 100faf8:	10104240 	call	1010424 <__unpack_d>
 100fafc:	d9000204 	addi	r4,sp,8
 100fb00:	800b883a 	mov	r5,r16
 100fb04:	10104240 	call	1010424 <__unpack_d>
 100fb08:	d8800417 	ldw	r2,16(sp)
 100fb0c:	00c00044 	movi	r3,1
 100fb10:	180d883a 	mov	r6,r3
 100fb14:	1880062e 	bgeu	r3,r2,100fb30 <__ltdf2+0x70>
 100fb18:	d8800917 	ldw	r2,36(sp)
 100fb1c:	8809883a 	mov	r4,r17
 100fb20:	800b883a 	mov	r5,r16
 100fb24:	1880022e 	bgeu	r3,r2,100fb30 <__ltdf2+0x70>
 100fb28:	101055c0 	call	101055c <__fpcmp_parts_d>
 100fb2c:	100d883a 	mov	r6,r2
 100fb30:	3005883a 	mov	r2,r6
 100fb34:	dfc01017 	ldw	ra,64(sp)
 100fb38:	dc400f17 	ldw	r17,60(sp)
 100fb3c:	dc000e17 	ldw	r16,56(sp)
 100fb40:	dec01104 	addi	sp,sp,68
 100fb44:	f800283a 	ret

0100fb48 <__floatsidf>:
 100fb48:	2006d7fa 	srli	r3,r4,31
 100fb4c:	defff604 	addi	sp,sp,-40
 100fb50:	008000c4 	movi	r2,3
 100fb54:	dfc00915 	stw	ra,36(sp)
 100fb58:	dcc00815 	stw	r19,32(sp)
 100fb5c:	dc800715 	stw	r18,28(sp)
 100fb60:	dc400615 	stw	r17,24(sp)
 100fb64:	dc000515 	stw	r16,20(sp)
 100fb68:	d8800015 	stw	r2,0(sp)
 100fb6c:	d8c00115 	stw	r3,4(sp)
 100fb70:	20000f1e 	bne	r4,zero,100fbb0 <__floatsidf+0x68>
 100fb74:	00800084 	movi	r2,2
 100fb78:	d8800015 	stw	r2,0(sp)
 100fb7c:	d809883a 	mov	r4,sp
 100fb80:	10101100 	call	1010110 <__pack_d>
 100fb84:	1009883a 	mov	r4,r2
 100fb88:	180b883a 	mov	r5,r3
 100fb8c:	2005883a 	mov	r2,r4
 100fb90:	2807883a 	mov	r3,r5
 100fb94:	dfc00917 	ldw	ra,36(sp)
 100fb98:	dcc00817 	ldw	r19,32(sp)
 100fb9c:	dc800717 	ldw	r18,28(sp)
 100fba0:	dc400617 	ldw	r17,24(sp)
 100fba4:	dc000517 	ldw	r16,20(sp)
 100fba8:	dec00a04 	addi	sp,sp,40
 100fbac:	f800283a 	ret
 100fbb0:	00800f04 	movi	r2,60
 100fbb4:	1807003a 	cmpeq	r3,r3,zero
 100fbb8:	d8800215 	stw	r2,8(sp)
 100fbbc:	18001126 	beq	r3,zero,100fc04 <__floatsidf+0xbc>
 100fbc0:	0027883a 	mov	r19,zero
 100fbc4:	2025883a 	mov	r18,r4
 100fbc8:	d9000315 	stw	r4,12(sp)
 100fbcc:	dcc00415 	stw	r19,16(sp)
 100fbd0:	10100900 	call	1010090 <__clzsi2>
 100fbd4:	11000744 	addi	r4,r2,29
 100fbd8:	013fe80e 	bge	zero,r4,100fb7c <__floatsidf+0x34>
 100fbdc:	10bfff44 	addi	r2,r2,-3
 100fbe0:	10000c16 	blt	r2,zero,100fc14 <__floatsidf+0xcc>
 100fbe4:	90a2983a 	sll	r17,r18,r2
 100fbe8:	0021883a 	mov	r16,zero
 100fbec:	d8800217 	ldw	r2,8(sp)
 100fbf0:	dc400415 	stw	r17,16(sp)
 100fbf4:	dc000315 	stw	r16,12(sp)
 100fbf8:	1105c83a 	sub	r2,r2,r4
 100fbfc:	d8800215 	stw	r2,8(sp)
 100fc00:	003fde06 	br	100fb7c <__floatsidf+0x34>
 100fc04:	00a00034 	movhi	r2,32768
 100fc08:	20800a26 	beq	r4,r2,100fc34 <__floatsidf+0xec>
 100fc0c:	0109c83a 	sub	r4,zero,r4
 100fc10:	003feb06 	br	100fbc0 <__floatsidf+0x78>
 100fc14:	9006d07a 	srli	r3,r18,1
 100fc18:	008007c4 	movi	r2,31
 100fc1c:	1105c83a 	sub	r2,r2,r4
 100fc20:	1886d83a 	srl	r3,r3,r2
 100fc24:	9922983a 	sll	r17,r19,r4
 100fc28:	9120983a 	sll	r16,r18,r4
 100fc2c:	1c62b03a 	or	r17,r3,r17
 100fc30:	003fee06 	br	100fbec <__floatsidf+0xa4>
 100fc34:	0009883a 	mov	r4,zero
 100fc38:	01707834 	movhi	r5,49632
 100fc3c:	003fd306 	br	100fb8c <__floatsidf+0x44>

0100fc40 <__fixdfsi>:
 100fc40:	defff804 	addi	sp,sp,-32
 100fc44:	2005883a 	mov	r2,r4
 100fc48:	2807883a 	mov	r3,r5
 100fc4c:	d809883a 	mov	r4,sp
 100fc50:	d9400204 	addi	r5,sp,8
 100fc54:	d8c00115 	stw	r3,4(sp)
 100fc58:	d8800015 	stw	r2,0(sp)
 100fc5c:	dfc00715 	stw	ra,28(sp)
 100fc60:	10104240 	call	1010424 <__unpack_d>
 100fc64:	d8c00217 	ldw	r3,8(sp)
 100fc68:	00800084 	movi	r2,2
 100fc6c:	1880051e 	bne	r3,r2,100fc84 <__fixdfsi+0x44>
 100fc70:	0007883a 	mov	r3,zero
 100fc74:	1805883a 	mov	r2,r3
 100fc78:	dfc00717 	ldw	ra,28(sp)
 100fc7c:	dec00804 	addi	sp,sp,32
 100fc80:	f800283a 	ret
 100fc84:	00800044 	movi	r2,1
 100fc88:	10fff92e 	bgeu	r2,r3,100fc70 <__fixdfsi+0x30>
 100fc8c:	00800104 	movi	r2,4
 100fc90:	18800426 	beq	r3,r2,100fca4 <__fixdfsi+0x64>
 100fc94:	d8c00417 	ldw	r3,16(sp)
 100fc98:	183ff516 	blt	r3,zero,100fc70 <__fixdfsi+0x30>
 100fc9c:	00800784 	movi	r2,30
 100fca0:	10c0080e 	bge	r2,r3,100fcc4 <__fixdfsi+0x84>
 100fca4:	d8800317 	ldw	r2,12(sp)
 100fca8:	1000121e 	bne	r2,zero,100fcf4 <__fixdfsi+0xb4>
 100fcac:	00e00034 	movhi	r3,32768
 100fcb0:	18ffffc4 	addi	r3,r3,-1
 100fcb4:	1805883a 	mov	r2,r3
 100fcb8:	dfc00717 	ldw	ra,28(sp)
 100fcbc:	dec00804 	addi	sp,sp,32
 100fcc0:	f800283a 	ret
 100fcc4:	00800f04 	movi	r2,60
 100fcc8:	10d1c83a 	sub	r8,r2,r3
 100fccc:	40bff804 	addi	r2,r8,-32
 100fcd0:	d9800517 	ldw	r6,20(sp)
 100fcd4:	d9c00617 	ldw	r7,24(sp)
 100fcd8:	10000816 	blt	r2,zero,100fcfc <__fixdfsi+0xbc>
 100fcdc:	3888d83a 	srl	r4,r7,r2
 100fce0:	d8800317 	ldw	r2,12(sp)
 100fce4:	2007883a 	mov	r3,r4
 100fce8:	103fe226 	beq	r2,zero,100fc74 <__fixdfsi+0x34>
 100fcec:	0107c83a 	sub	r3,zero,r4
 100fcf0:	003fe006 	br	100fc74 <__fixdfsi+0x34>
 100fcf4:	00e00034 	movhi	r3,32768
 100fcf8:	003fde06 	br	100fc74 <__fixdfsi+0x34>
 100fcfc:	39c7883a 	add	r3,r7,r7
 100fd00:	008007c4 	movi	r2,31
 100fd04:	1205c83a 	sub	r2,r2,r8
 100fd08:	1886983a 	sll	r3,r3,r2
 100fd0c:	3208d83a 	srl	r4,r6,r8
 100fd10:	1908b03a 	or	r4,r3,r4
 100fd14:	003ff206 	br	100fce0 <__fixdfsi+0xa0>

0100fd18 <__floatunsidf>:
 100fd18:	defff204 	addi	sp,sp,-56
 100fd1c:	dfc00d15 	stw	ra,52(sp)
 100fd20:	ddc00c15 	stw	r23,48(sp)
 100fd24:	dd800b15 	stw	r22,44(sp)
 100fd28:	dd400a15 	stw	r21,40(sp)
 100fd2c:	dd000915 	stw	r20,36(sp)
 100fd30:	dcc00815 	stw	r19,32(sp)
 100fd34:	dc800715 	stw	r18,28(sp)
 100fd38:	dc400615 	stw	r17,24(sp)
 100fd3c:	dc000515 	stw	r16,20(sp)
 100fd40:	d8000115 	stw	zero,4(sp)
 100fd44:	20000f1e 	bne	r4,zero,100fd84 <__floatunsidf+0x6c>
 100fd48:	00800084 	movi	r2,2
 100fd4c:	d8800015 	stw	r2,0(sp)
 100fd50:	d809883a 	mov	r4,sp
 100fd54:	10101100 	call	1010110 <__pack_d>
 100fd58:	dfc00d17 	ldw	ra,52(sp)
 100fd5c:	ddc00c17 	ldw	r23,48(sp)
 100fd60:	dd800b17 	ldw	r22,44(sp)
 100fd64:	dd400a17 	ldw	r21,40(sp)
 100fd68:	dd000917 	ldw	r20,36(sp)
 100fd6c:	dcc00817 	ldw	r19,32(sp)
 100fd70:	dc800717 	ldw	r18,28(sp)
 100fd74:	dc400617 	ldw	r17,24(sp)
 100fd78:	dc000517 	ldw	r16,20(sp)
 100fd7c:	dec00e04 	addi	sp,sp,56
 100fd80:	f800283a 	ret
 100fd84:	008000c4 	movi	r2,3
 100fd88:	00c00f04 	movi	r3,60
 100fd8c:	002f883a 	mov	r23,zero
 100fd90:	202d883a 	mov	r22,r4
 100fd94:	d8800015 	stw	r2,0(sp)
 100fd98:	d8c00215 	stw	r3,8(sp)
 100fd9c:	d9000315 	stw	r4,12(sp)
 100fda0:	ddc00415 	stw	r23,16(sp)
 100fda4:	10100900 	call	1010090 <__clzsi2>
 100fda8:	12400744 	addi	r9,r2,29
 100fdac:	48000b16 	blt	r9,zero,100fddc <__floatunsidf+0xc4>
 100fdb0:	483fe726 	beq	r9,zero,100fd50 <__floatunsidf+0x38>
 100fdb4:	10bfff44 	addi	r2,r2,-3
 100fdb8:	10002e16 	blt	r2,zero,100fe74 <__floatunsidf+0x15c>
 100fdbc:	b0a2983a 	sll	r17,r22,r2
 100fdc0:	0021883a 	mov	r16,zero
 100fdc4:	d8800217 	ldw	r2,8(sp)
 100fdc8:	dc400415 	stw	r17,16(sp)
 100fdcc:	dc000315 	stw	r16,12(sp)
 100fdd0:	1245c83a 	sub	r2,r2,r9
 100fdd4:	d8800215 	stw	r2,8(sp)
 100fdd8:	003fdd06 	br	100fd50 <__floatunsidf+0x38>
 100fddc:	0255c83a 	sub	r10,zero,r9
 100fde0:	51bff804 	addi	r6,r10,-32
 100fde4:	30001b16 	blt	r6,zero,100fe54 <__floatunsidf+0x13c>
 100fde8:	b9a8d83a 	srl	r20,r23,r6
 100fdec:	002b883a 	mov	r21,zero
 100fdf0:	000f883a 	mov	r7,zero
 100fdf4:	01000044 	movi	r4,1
 100fdf8:	0011883a 	mov	r8,zero
 100fdfc:	30002516 	blt	r6,zero,100fe94 <__floatunsidf+0x17c>
 100fe00:	21a6983a 	sll	r19,r4,r6
 100fe04:	0025883a 	mov	r18,zero
 100fe08:	00bfffc4 	movi	r2,-1
 100fe0c:	9089883a 	add	r4,r18,r2
 100fe10:	988b883a 	add	r5,r19,r2
 100fe14:	248d803a 	cmpltu	r6,r4,r18
 100fe18:	314b883a 	add	r5,r6,r5
 100fe1c:	b104703a 	and	r2,r22,r4
 100fe20:	b946703a 	and	r3,r23,r5
 100fe24:	10c4b03a 	or	r2,r2,r3
 100fe28:	10000226 	beq	r2,zero,100fe34 <__floatunsidf+0x11c>
 100fe2c:	01c00044 	movi	r7,1
 100fe30:	0011883a 	mov	r8,zero
 100fe34:	d9000217 	ldw	r4,8(sp)
 100fe38:	a1c4b03a 	or	r2,r20,r7
 100fe3c:	aa06b03a 	or	r3,r21,r8
 100fe40:	2249c83a 	sub	r4,r4,r9
 100fe44:	d8c00415 	stw	r3,16(sp)
 100fe48:	d9000215 	stw	r4,8(sp)
 100fe4c:	d8800315 	stw	r2,12(sp)
 100fe50:	003fbf06 	br	100fd50 <__floatunsidf+0x38>
 100fe54:	bdc7883a 	add	r3,r23,r23
 100fe58:	008007c4 	movi	r2,31
 100fe5c:	1285c83a 	sub	r2,r2,r10
 100fe60:	1886983a 	sll	r3,r3,r2
 100fe64:	b2a8d83a 	srl	r20,r22,r10
 100fe68:	baaad83a 	srl	r21,r23,r10
 100fe6c:	1d28b03a 	or	r20,r3,r20
 100fe70:	003fdf06 	br	100fdf0 <__floatunsidf+0xd8>
 100fe74:	b006d07a 	srli	r3,r22,1
 100fe78:	008007c4 	movi	r2,31
 100fe7c:	1245c83a 	sub	r2,r2,r9
 100fe80:	1886d83a 	srl	r3,r3,r2
 100fe84:	ba62983a 	sll	r17,r23,r9
 100fe88:	b260983a 	sll	r16,r22,r9
 100fe8c:	1c62b03a 	or	r17,r3,r17
 100fe90:	003fcc06 	br	100fdc4 <__floatunsidf+0xac>
 100fe94:	2006d07a 	srli	r3,r4,1
 100fe98:	008007c4 	movi	r2,31
 100fe9c:	1285c83a 	sub	r2,r2,r10
 100fea0:	18a6d83a 	srl	r19,r3,r2
 100fea4:	22a4983a 	sll	r18,r4,r10
 100fea8:	003fd706 	br	100fe08 <__floatunsidf+0xf0>

0100feac <udivmodsi4>:
 100feac:	29001b2e 	bgeu	r5,r4,100ff1c <udivmodsi4+0x70>
 100feb0:	28001a16 	blt	r5,zero,100ff1c <udivmodsi4+0x70>
 100feb4:	00800044 	movi	r2,1
 100feb8:	0007883a 	mov	r3,zero
 100febc:	01c007c4 	movi	r7,31
 100fec0:	00000306 	br	100fed0 <udivmodsi4+0x24>
 100fec4:	19c01326 	beq	r3,r7,100ff14 <udivmodsi4+0x68>
 100fec8:	18c00044 	addi	r3,r3,1
 100fecc:	28000416 	blt	r5,zero,100fee0 <udivmodsi4+0x34>
 100fed0:	294b883a 	add	r5,r5,r5
 100fed4:	1085883a 	add	r2,r2,r2
 100fed8:	293ffa36 	bltu	r5,r4,100fec4 <udivmodsi4+0x18>
 100fedc:	10000d26 	beq	r2,zero,100ff14 <udivmodsi4+0x68>
 100fee0:	0007883a 	mov	r3,zero
 100fee4:	21400236 	bltu	r4,r5,100fef0 <udivmodsi4+0x44>
 100fee8:	2149c83a 	sub	r4,r4,r5
 100feec:	1886b03a 	or	r3,r3,r2
 100fef0:	1004d07a 	srli	r2,r2,1
 100fef4:	280ad07a 	srli	r5,r5,1
 100fef8:	103ffa1e 	bne	r2,zero,100fee4 <udivmodsi4+0x38>
 100fefc:	30000226 	beq	r6,zero,100ff08 <udivmodsi4+0x5c>
 100ff00:	2005883a 	mov	r2,r4
 100ff04:	f800283a 	ret
 100ff08:	1809883a 	mov	r4,r3
 100ff0c:	2005883a 	mov	r2,r4
 100ff10:	f800283a 	ret
 100ff14:	0007883a 	mov	r3,zero
 100ff18:	003ff806 	br	100fefc <udivmodsi4+0x50>
 100ff1c:	00800044 	movi	r2,1
 100ff20:	0007883a 	mov	r3,zero
 100ff24:	003fef06 	br	100fee4 <udivmodsi4+0x38>

0100ff28 <__divsi3>:
 100ff28:	defffe04 	addi	sp,sp,-8
 100ff2c:	dc000015 	stw	r16,0(sp)
 100ff30:	dfc00115 	stw	ra,4(sp)
 100ff34:	0021883a 	mov	r16,zero
 100ff38:	20000c16 	blt	r4,zero,100ff6c <__divsi3+0x44>
 100ff3c:	000d883a 	mov	r6,zero
 100ff40:	28000e16 	blt	r5,zero,100ff7c <__divsi3+0x54>
 100ff44:	100feac0 	call	100feac <udivmodsi4>
 100ff48:	1007883a 	mov	r3,r2
 100ff4c:	8005003a 	cmpeq	r2,r16,zero
 100ff50:	1000011e 	bne	r2,zero,100ff58 <__divsi3+0x30>
 100ff54:	00c7c83a 	sub	r3,zero,r3
 100ff58:	1805883a 	mov	r2,r3
 100ff5c:	dfc00117 	ldw	ra,4(sp)
 100ff60:	dc000017 	ldw	r16,0(sp)
 100ff64:	dec00204 	addi	sp,sp,8
 100ff68:	f800283a 	ret
 100ff6c:	0109c83a 	sub	r4,zero,r4
 100ff70:	04000044 	movi	r16,1
 100ff74:	000d883a 	mov	r6,zero
 100ff78:	283ff20e 	bge	r5,zero,100ff44 <__divsi3+0x1c>
 100ff7c:	014bc83a 	sub	r5,zero,r5
 100ff80:	8021003a 	cmpeq	r16,r16,zero
 100ff84:	003fef06 	br	100ff44 <__divsi3+0x1c>

0100ff88 <__modsi3>:
 100ff88:	deffff04 	addi	sp,sp,-4
 100ff8c:	dfc00015 	stw	ra,0(sp)
 100ff90:	01800044 	movi	r6,1
 100ff94:	2807883a 	mov	r3,r5
 100ff98:	20000416 	blt	r4,zero,100ffac <__modsi3+0x24>
 100ff9c:	28000c16 	blt	r5,zero,100ffd0 <__modsi3+0x48>
 100ffa0:	dfc00017 	ldw	ra,0(sp)
 100ffa4:	dec00104 	addi	sp,sp,4
 100ffa8:	100feac1 	jmpi	100feac <udivmodsi4>
 100ffac:	0109c83a 	sub	r4,zero,r4
 100ffb0:	28000b16 	blt	r5,zero,100ffe0 <__modsi3+0x58>
 100ffb4:	180b883a 	mov	r5,r3
 100ffb8:	01800044 	movi	r6,1
 100ffbc:	100feac0 	call	100feac <udivmodsi4>
 100ffc0:	0085c83a 	sub	r2,zero,r2
 100ffc4:	dfc00017 	ldw	ra,0(sp)
 100ffc8:	dec00104 	addi	sp,sp,4
 100ffcc:	f800283a 	ret
 100ffd0:	014bc83a 	sub	r5,zero,r5
 100ffd4:	dfc00017 	ldw	ra,0(sp)
 100ffd8:	dec00104 	addi	sp,sp,4
 100ffdc:	100feac1 	jmpi	100feac <udivmodsi4>
 100ffe0:	0147c83a 	sub	r3,zero,r5
 100ffe4:	003ff306 	br	100ffb4 <__modsi3+0x2c>

0100ffe8 <__udivsi3>:
 100ffe8:	000d883a 	mov	r6,zero
 100ffec:	100feac1 	jmpi	100feac <udivmodsi4>

0100fff0 <__umodsi3>:
 100fff0:	01800044 	movi	r6,1
 100fff4:	100feac1 	jmpi	100feac <udivmodsi4>

0100fff8 <__muldi3>:
 100fff8:	2011883a 	mov	r8,r4
 100fffc:	427fffcc 	andi	r9,r8,65535
 1010000:	4018d43a 	srli	r12,r8,16
 1010004:	32bfffcc 	andi	r10,r6,65535
 1010008:	3016d43a 	srli	r11,r6,16
 101000c:	4a85383a 	mul	r2,r9,r10
 1010010:	6295383a 	mul	r10,r12,r10
 1010014:	4ad3383a 	mul	r9,r9,r11
 1010018:	113fffcc 	andi	r4,r2,65535
 101001c:	1004d43a 	srli	r2,r2,16
 1010020:	4a93883a 	add	r9,r9,r10
 1010024:	3807883a 	mov	r3,r7
 1010028:	1245883a 	add	r2,r2,r9
 101002c:	280f883a 	mov	r7,r5
 1010030:	180b883a 	mov	r5,r3
 1010034:	1006943a 	slli	r3,r2,16
 1010038:	defffd04 	addi	sp,sp,-12
 101003c:	dc800215 	stw	r18,8(sp)
 1010040:	1907883a 	add	r3,r3,r4
 1010044:	dc400115 	stw	r17,4(sp)
 1010048:	dc000015 	stw	r16,0(sp)
 101004c:	4165383a 	mul	r18,r8,r5
 1010050:	31e3383a 	mul	r17,r6,r7
 1010054:	1012d43a 	srli	r9,r2,16
 1010058:	62d9383a 	mul	r12,r12,r11
 101005c:	181f883a 	mov	r15,r3
 1010060:	1280022e 	bgeu	r2,r10,101006c <__muldi3+0x74>
 1010064:	00800074 	movhi	r2,1
 1010068:	6099883a 	add	r12,r12,r2
 101006c:	624d883a 	add	r6,r12,r9
 1010070:	9187883a 	add	r3,r18,r6
 1010074:	88c7883a 	add	r3,r17,r3
 1010078:	7805883a 	mov	r2,r15
 101007c:	dc800217 	ldw	r18,8(sp)
 1010080:	dc400117 	ldw	r17,4(sp)
 1010084:	dc000017 	ldw	r16,0(sp)
 1010088:	dec00304 	addi	sp,sp,12
 101008c:	f800283a 	ret

01010090 <__clzsi2>:
 1010090:	00bfffd4 	movui	r2,65535
 1010094:	11000e36 	bltu	r2,r4,10100d0 <__clzsi2+0x40>
 1010098:	00803fc4 	movi	r2,255
 101009c:	01400204 	movi	r5,8
 10100a0:	0007883a 	mov	r3,zero
 10100a4:	11001036 	bltu	r2,r4,10100e8 <__clzsi2+0x58>
 10100a8:	000b883a 	mov	r5,zero
 10100ac:	20c6d83a 	srl	r3,r4,r3
 10100b0:	00804074 	movhi	r2,257
 10100b4:	108f5c04 	addi	r2,r2,15728
 10100b8:	1887883a 	add	r3,r3,r2
 10100bc:	18800003 	ldbu	r2,0(r3)
 10100c0:	00c00804 	movi	r3,32
 10100c4:	2885883a 	add	r2,r5,r2
 10100c8:	1885c83a 	sub	r2,r3,r2
 10100cc:	f800283a 	ret
 10100d0:	01400404 	movi	r5,16
 10100d4:	00804034 	movhi	r2,256
 10100d8:	10bfffc4 	addi	r2,r2,-1
 10100dc:	2807883a 	mov	r3,r5
 10100e0:	113ff22e 	bgeu	r2,r4,10100ac <__clzsi2+0x1c>
 10100e4:	01400604 	movi	r5,24
 10100e8:	2807883a 	mov	r3,r5
 10100ec:	20c6d83a 	srl	r3,r4,r3
 10100f0:	00804074 	movhi	r2,257
 10100f4:	108f5c04 	addi	r2,r2,15728
 10100f8:	1887883a 	add	r3,r3,r2
 10100fc:	18800003 	ldbu	r2,0(r3)
 1010100:	00c00804 	movi	r3,32
 1010104:	2885883a 	add	r2,r5,r2
 1010108:	1885c83a 	sub	r2,r3,r2
 101010c:	f800283a 	ret

01010110 <__pack_d>:
 1010110:	20c00017 	ldw	r3,0(r4)
 1010114:	defffd04 	addi	sp,sp,-12
 1010118:	dc000015 	stw	r16,0(sp)
 101011c:	dc800215 	stw	r18,8(sp)
 1010120:	dc400115 	stw	r17,4(sp)
 1010124:	00800044 	movi	r2,1
 1010128:	22000317 	ldw	r8,12(r4)
 101012c:	001f883a 	mov	r15,zero
 1010130:	22400417 	ldw	r9,16(r4)
 1010134:	24000117 	ldw	r16,4(r4)
 1010138:	10c0552e 	bgeu	r2,r3,1010290 <__pack_d+0x180>
 101013c:	00800104 	movi	r2,4
 1010140:	18804f26 	beq	r3,r2,1010280 <__pack_d+0x170>
 1010144:	00800084 	movi	r2,2
 1010148:	18800226 	beq	r3,r2,1010154 <__pack_d+0x44>
 101014c:	4244b03a 	or	r2,r8,r9
 1010150:	10001a1e 	bne	r2,zero,10101bc <__pack_d+0xac>
 1010154:	000d883a 	mov	r6,zero
 1010158:	000f883a 	mov	r7,zero
 101015c:	0011883a 	mov	r8,zero
 1010160:	00800434 	movhi	r2,16
 1010164:	10bfffc4 	addi	r2,r2,-1
 1010168:	301d883a 	mov	r14,r6
 101016c:	3884703a 	and	r2,r7,r2
 1010170:	400a953a 	slli	r5,r8,20
 1010174:	79bffc2c 	andhi	r6,r15,65520
 1010178:	308cb03a 	or	r6,r6,r2
 101017c:	00e00434 	movhi	r3,32784
 1010180:	18ffffc4 	addi	r3,r3,-1
 1010184:	800497fa 	slli	r2,r16,31
 1010188:	30c6703a 	and	r3,r6,r3
 101018c:	1946b03a 	or	r3,r3,r5
 1010190:	01600034 	movhi	r5,32768
 1010194:	297fffc4 	addi	r5,r5,-1
 1010198:	194a703a 	and	r5,r3,r5
 101019c:	288ab03a 	or	r5,r5,r2
 10101a0:	2807883a 	mov	r3,r5
 10101a4:	7005883a 	mov	r2,r14
 10101a8:	dc800217 	ldw	r18,8(sp)
 10101ac:	dc400117 	ldw	r17,4(sp)
 10101b0:	dc000017 	ldw	r16,0(sp)
 10101b4:	dec00304 	addi	sp,sp,12
 10101b8:	f800283a 	ret
 10101bc:	21000217 	ldw	r4,8(r4)
 10101c0:	00bf0084 	movi	r2,-1022
 10101c4:	20803f16 	blt	r4,r2,10102c4 <__pack_d+0x1b4>
 10101c8:	0080ffc4 	movi	r2,1023
 10101cc:	11002c16 	blt	r2,r4,1010280 <__pack_d+0x170>
 10101d0:	00803fc4 	movi	r2,255
 10101d4:	408c703a 	and	r6,r8,r2
 10101d8:	00802004 	movi	r2,128
 10101dc:	0007883a 	mov	r3,zero
 10101e0:	000f883a 	mov	r7,zero
 10101e4:	2280ffc4 	addi	r10,r4,1023
 10101e8:	30801e26 	beq	r6,r2,1010264 <__pack_d+0x154>
 10101ec:	00801fc4 	movi	r2,127
 10101f0:	4089883a 	add	r4,r8,r2
 10101f4:	220d803a 	cmpltu	r6,r4,r8
 10101f8:	324d883a 	add	r6,r6,r9
 10101fc:	2011883a 	mov	r8,r4
 1010200:	3013883a 	mov	r9,r6
 1010204:	00880034 	movhi	r2,8192
 1010208:	10bfffc4 	addi	r2,r2,-1
 101020c:	12400d36 	bltu	r2,r9,1010244 <__pack_d+0x134>
 1010210:	4804963a 	slli	r2,r9,24
 1010214:	400cd23a 	srli	r6,r8,8
 1010218:	480ed23a 	srli	r7,r9,8
 101021c:	013fffc4 	movi	r4,-1
 1010220:	118cb03a 	or	r6,r2,r6
 1010224:	01400434 	movhi	r5,16
 1010228:	297fffc4 	addi	r5,r5,-1
 101022c:	3104703a 	and	r2,r6,r4
 1010230:	3946703a 	and	r3,r7,r5
 1010234:	5201ffcc 	andi	r8,r10,2047
 1010238:	100d883a 	mov	r6,r2
 101023c:	180f883a 	mov	r7,r3
 1010240:	003fc706 	br	1010160 <__pack_d+0x50>
 1010244:	480897fa 	slli	r4,r9,31
 1010248:	4004d07a 	srli	r2,r8,1
 101024c:	4806d07a 	srli	r3,r9,1
 1010250:	52800044 	addi	r10,r10,1
 1010254:	2084b03a 	or	r2,r4,r2
 1010258:	1011883a 	mov	r8,r2
 101025c:	1813883a 	mov	r9,r3
 1010260:	003feb06 	br	1010210 <__pack_d+0x100>
 1010264:	383fe11e 	bne	r7,zero,10101ec <__pack_d+0xdc>
 1010268:	01004004 	movi	r4,256
 101026c:	4104703a 	and	r2,r8,r4
 1010270:	10c4b03a 	or	r2,r2,r3
 1010274:	103fe326 	beq	r2,zero,1010204 <__pack_d+0xf4>
 1010278:	3005883a 	mov	r2,r6
 101027c:	003fdc06 	br	10101f0 <__pack_d+0xe0>
 1010280:	000d883a 	mov	r6,zero
 1010284:	000f883a 	mov	r7,zero
 1010288:	0201ffc4 	movi	r8,2047
 101028c:	003fb406 	br	1010160 <__pack_d+0x50>
 1010290:	0005883a 	mov	r2,zero
 1010294:	00c00234 	movhi	r3,8
 1010298:	408cb03a 	or	r6,r8,r2
 101029c:	48ceb03a 	or	r7,r9,r3
 10102a0:	013fffc4 	movi	r4,-1
 10102a4:	01400434 	movhi	r5,16
 10102a8:	297fffc4 	addi	r5,r5,-1
 10102ac:	3104703a 	and	r2,r6,r4
 10102b0:	3946703a 	and	r3,r7,r5
 10102b4:	100d883a 	mov	r6,r2
 10102b8:	180f883a 	mov	r7,r3
 10102bc:	0201ffc4 	movi	r8,2047
 10102c0:	003fa706 	br	1010160 <__pack_d+0x50>
 10102c4:	1109c83a 	sub	r4,r2,r4
 10102c8:	00800e04 	movi	r2,56
 10102cc:	11004316 	blt	r2,r4,10103dc <__pack_d+0x2cc>
 10102d0:	21fff804 	addi	r7,r4,-32
 10102d4:	38004516 	blt	r7,zero,10103ec <__pack_d+0x2dc>
 10102d8:	49d8d83a 	srl	r12,r9,r7
 10102dc:	001b883a 	mov	r13,zero
 10102e0:	0023883a 	mov	r17,zero
 10102e4:	01400044 	movi	r5,1
 10102e8:	0025883a 	mov	r18,zero
 10102ec:	38004716 	blt	r7,zero,101040c <__pack_d+0x2fc>
 10102f0:	29d6983a 	sll	r11,r5,r7
 10102f4:	0015883a 	mov	r10,zero
 10102f8:	00bfffc4 	movi	r2,-1
 10102fc:	5089883a 	add	r4,r10,r2
 1010300:	588b883a 	add	r5,r11,r2
 1010304:	228d803a 	cmpltu	r6,r4,r10
 1010308:	314b883a 	add	r5,r6,r5
 101030c:	4104703a 	and	r2,r8,r4
 1010310:	4946703a 	and	r3,r9,r5
 1010314:	10c4b03a 	or	r2,r2,r3
 1010318:	10000226 	beq	r2,zero,1010324 <__pack_d+0x214>
 101031c:	04400044 	movi	r17,1
 1010320:	0025883a 	mov	r18,zero
 1010324:	00803fc4 	movi	r2,255
 1010328:	644eb03a 	or	r7,r12,r17
 101032c:	3892703a 	and	r9,r7,r2
 1010330:	00802004 	movi	r2,128
 1010334:	6c90b03a 	or	r8,r13,r18
 1010338:	0015883a 	mov	r10,zero
 101033c:	48801626 	beq	r9,r2,1010398 <__pack_d+0x288>
 1010340:	01001fc4 	movi	r4,127
 1010344:	3905883a 	add	r2,r7,r4
 1010348:	11cd803a 	cmpltu	r6,r2,r7
 101034c:	320d883a 	add	r6,r6,r8
 1010350:	100f883a 	mov	r7,r2
 1010354:	00840034 	movhi	r2,4096
 1010358:	10bfffc4 	addi	r2,r2,-1
 101035c:	3011883a 	mov	r8,r6
 1010360:	0007883a 	mov	r3,zero
 1010364:	11801b36 	bltu	r2,r6,10103d4 <__pack_d+0x2c4>
 1010368:	4004963a 	slli	r2,r8,24
 101036c:	3808d23a 	srli	r4,r7,8
 1010370:	400ad23a 	srli	r5,r8,8
 1010374:	1813883a 	mov	r9,r3
 1010378:	1108b03a 	or	r4,r2,r4
 101037c:	00bfffc4 	movi	r2,-1
 1010380:	00c00434 	movhi	r3,16
 1010384:	18ffffc4 	addi	r3,r3,-1
 1010388:	208c703a 	and	r6,r4,r2
 101038c:	28ce703a 	and	r7,r5,r3
 1010390:	4a01ffcc 	andi	r8,r9,2047
 1010394:	003f7206 	br	1010160 <__pack_d+0x50>
 1010398:	503fe91e 	bne	r10,zero,1010340 <__pack_d+0x230>
 101039c:	01004004 	movi	r4,256
 10103a0:	3904703a 	and	r2,r7,r4
 10103a4:	0007883a 	mov	r3,zero
 10103a8:	10c4b03a 	or	r2,r2,r3
 10103ac:	10000626 	beq	r2,zero,10103c8 <__pack_d+0x2b8>
 10103b0:	3a45883a 	add	r2,r7,r9
 10103b4:	11cd803a 	cmpltu	r6,r2,r7
 10103b8:	320d883a 	add	r6,r6,r8
 10103bc:	100f883a 	mov	r7,r2
 10103c0:	3011883a 	mov	r8,r6
 10103c4:	0007883a 	mov	r3,zero
 10103c8:	00840034 	movhi	r2,4096
 10103cc:	10bfffc4 	addi	r2,r2,-1
 10103d0:	123fe52e 	bgeu	r2,r8,1010368 <__pack_d+0x258>
 10103d4:	00c00044 	movi	r3,1
 10103d8:	003fe306 	br	1010368 <__pack_d+0x258>
 10103dc:	0009883a 	mov	r4,zero
 10103e0:	0013883a 	mov	r9,zero
 10103e4:	000b883a 	mov	r5,zero
 10103e8:	003fe406 	br	101037c <__pack_d+0x26c>
 10103ec:	4a47883a 	add	r3,r9,r9
 10103f0:	008007c4 	movi	r2,31
 10103f4:	1105c83a 	sub	r2,r2,r4
 10103f8:	1886983a 	sll	r3,r3,r2
 10103fc:	4118d83a 	srl	r12,r8,r4
 1010400:	491ad83a 	srl	r13,r9,r4
 1010404:	1b18b03a 	or	r12,r3,r12
 1010408:	003fb506 	br	10102e0 <__pack_d+0x1d0>
 101040c:	2806d07a 	srli	r3,r5,1
 1010410:	008007c4 	movi	r2,31
 1010414:	1105c83a 	sub	r2,r2,r4
 1010418:	1896d83a 	srl	r11,r3,r2
 101041c:	2914983a 	sll	r10,r5,r4
 1010420:	003fb506 	br	10102f8 <__pack_d+0x1e8>

01010424 <__unpack_d>:
 1010424:	20c00117 	ldw	r3,4(r4)
 1010428:	22400017 	ldw	r9,0(r4)
 101042c:	00800434 	movhi	r2,16
 1010430:	10bfffc4 	addi	r2,r2,-1
 1010434:	1808d53a 	srli	r4,r3,20
 1010438:	180cd7fa 	srli	r6,r3,31
 101043c:	1894703a 	and	r10,r3,r2
 1010440:	2201ffcc 	andi	r8,r4,2047
 1010444:	281b883a 	mov	r13,r5
 1010448:	4817883a 	mov	r11,r9
 101044c:	29800115 	stw	r6,4(r5)
 1010450:	5019883a 	mov	r12,r10
 1010454:	40001e1e 	bne	r8,zero,10104d0 <__unpack_d+0xac>
 1010458:	4a84b03a 	or	r2,r9,r10
 101045c:	10001926 	beq	r2,zero,10104c4 <__unpack_d+0xa0>
 1010460:	4804d63a 	srli	r2,r9,24
 1010464:	500c923a 	slli	r6,r10,8
 1010468:	013f0084 	movi	r4,-1022
 101046c:	00c40034 	movhi	r3,4096
 1010470:	18ffffc4 	addi	r3,r3,-1
 1010474:	118cb03a 	or	r6,r2,r6
 1010478:	008000c4 	movi	r2,3
 101047c:	480a923a 	slli	r5,r9,8
 1010480:	68800015 	stw	r2,0(r13)
 1010484:	69000215 	stw	r4,8(r13)
 1010488:	19800b36 	bltu	r3,r6,10104b8 <__unpack_d+0x94>
 101048c:	200f883a 	mov	r7,r4
 1010490:	1811883a 	mov	r8,r3
 1010494:	2945883a 	add	r2,r5,r5
 1010498:	1149803a 	cmpltu	r4,r2,r5
 101049c:	3187883a 	add	r3,r6,r6
 10104a0:	20c9883a 	add	r4,r4,r3
 10104a4:	100b883a 	mov	r5,r2
 10104a8:	200d883a 	mov	r6,r4
 10104ac:	39ffffc4 	addi	r7,r7,-1
 10104b0:	413ff82e 	bgeu	r8,r4,1010494 <__unpack_d+0x70>
 10104b4:	69c00215 	stw	r7,8(r13)
 10104b8:	69800415 	stw	r6,16(r13)
 10104bc:	69400315 	stw	r5,12(r13)
 10104c0:	f800283a 	ret
 10104c4:	00800084 	movi	r2,2
 10104c8:	28800015 	stw	r2,0(r5)
 10104cc:	f800283a 	ret
 10104d0:	0081ffc4 	movi	r2,2047
 10104d4:	40800f26 	beq	r8,r2,1010514 <__unpack_d+0xf0>
 10104d8:	480cd63a 	srli	r6,r9,24
 10104dc:	5006923a 	slli	r3,r10,8
 10104e0:	4804923a 	slli	r2,r9,8
 10104e4:	0009883a 	mov	r4,zero
 10104e8:	30c6b03a 	or	r3,r6,r3
 10104ec:	01440034 	movhi	r5,4096
 10104f0:	110cb03a 	or	r6,r2,r4
 10104f4:	423f0044 	addi	r8,r8,-1023
 10104f8:	194eb03a 	or	r7,r3,r5
 10104fc:	008000c4 	movi	r2,3
 1010500:	69c00415 	stw	r7,16(r13)
 1010504:	6a000215 	stw	r8,8(r13)
 1010508:	68800015 	stw	r2,0(r13)
 101050c:	69800315 	stw	r6,12(r13)
 1010510:	f800283a 	ret
 1010514:	4a84b03a 	or	r2,r9,r10
 1010518:	1000031e 	bne	r2,zero,1010528 <__unpack_d+0x104>
 101051c:	00800104 	movi	r2,4
 1010520:	28800015 	stw	r2,0(r5)
 1010524:	f800283a 	ret
 1010528:	0009883a 	mov	r4,zero
 101052c:	01400234 	movhi	r5,8
 1010530:	4904703a 	and	r2,r9,r4
 1010534:	5146703a 	and	r3,r10,r5
 1010538:	10c4b03a 	or	r2,r2,r3
 101053c:	10000526 	beq	r2,zero,1010554 <__unpack_d+0x130>
 1010540:	00800044 	movi	r2,1
 1010544:	68800015 	stw	r2,0(r13)
 1010548:	6b000415 	stw	r12,16(r13)
 101054c:	6ac00315 	stw	r11,12(r13)
 1010550:	f800283a 	ret
 1010554:	68000015 	stw	zero,0(r13)
 1010558:	003ffb06 	br	1010548 <__unpack_d+0x124>

0101055c <__fpcmp_parts_d>:
 101055c:	21800017 	ldw	r6,0(r4)
 1010560:	00c00044 	movi	r3,1
 1010564:	19800a2e 	bgeu	r3,r6,1010590 <__fpcmp_parts_d+0x34>
 1010568:	28800017 	ldw	r2,0(r5)
 101056c:	1880082e 	bgeu	r3,r2,1010590 <__fpcmp_parts_d+0x34>
 1010570:	00c00104 	movi	r3,4
 1010574:	30c02626 	beq	r6,r3,1010610 <__fpcmp_parts_d+0xb4>
 1010578:	10c02226 	beq	r2,r3,1010604 <__fpcmp_parts_d+0xa8>
 101057c:	00c00084 	movi	r3,2
 1010580:	30c00526 	beq	r6,r3,1010598 <__fpcmp_parts_d+0x3c>
 1010584:	10c0071e 	bne	r2,r3,10105a4 <__fpcmp_parts_d+0x48>
 1010588:	20800117 	ldw	r2,4(r4)
 101058c:	1000091e 	bne	r2,zero,10105b4 <__fpcmp_parts_d+0x58>
 1010590:	00800044 	movi	r2,1
 1010594:	f800283a 	ret
 1010598:	10c01a1e 	bne	r2,r3,1010604 <__fpcmp_parts_d+0xa8>
 101059c:	0005883a 	mov	r2,zero
 10105a0:	f800283a 	ret
 10105a4:	22000117 	ldw	r8,4(r4)
 10105a8:	28800117 	ldw	r2,4(r5)
 10105ac:	40800326 	beq	r8,r2,10105bc <__fpcmp_parts_d+0x60>
 10105b0:	403ff726 	beq	r8,zero,1010590 <__fpcmp_parts_d+0x34>
 10105b4:	00bfffc4 	movi	r2,-1
 10105b8:	f800283a 	ret
 10105bc:	20c00217 	ldw	r3,8(r4)
 10105c0:	28800217 	ldw	r2,8(r5)
 10105c4:	10fffa16 	blt	r2,r3,10105b0 <__fpcmp_parts_d+0x54>
 10105c8:	18800916 	blt	r3,r2,10105f0 <__fpcmp_parts_d+0x94>
 10105cc:	21c00417 	ldw	r7,16(r4)
 10105d0:	28c00417 	ldw	r3,16(r5)
 10105d4:	21800317 	ldw	r6,12(r4)
 10105d8:	28800317 	ldw	r2,12(r5)
 10105dc:	19fff436 	bltu	r3,r7,10105b0 <__fpcmp_parts_d+0x54>
 10105e0:	38c00526 	beq	r7,r3,10105f8 <__fpcmp_parts_d+0x9c>
 10105e4:	38c00236 	bltu	r7,r3,10105f0 <__fpcmp_parts_d+0x94>
 10105e8:	19ffec1e 	bne	r3,r7,101059c <__fpcmp_parts_d+0x40>
 10105ec:	30bfeb2e 	bgeu	r6,r2,101059c <__fpcmp_parts_d+0x40>
 10105f0:	403fe71e 	bne	r8,zero,1010590 <__fpcmp_parts_d+0x34>
 10105f4:	003fef06 	br	10105b4 <__fpcmp_parts_d+0x58>
 10105f8:	11bffa2e 	bgeu	r2,r6,10105e4 <__fpcmp_parts_d+0x88>
 10105fc:	403fe426 	beq	r8,zero,1010590 <__fpcmp_parts_d+0x34>
 1010600:	003fec06 	br	10105b4 <__fpcmp_parts_d+0x58>
 1010604:	28800117 	ldw	r2,4(r5)
 1010608:	103fe11e 	bne	r2,zero,1010590 <__fpcmp_parts_d+0x34>
 101060c:	003fe906 	br	10105b4 <__fpcmp_parts_d+0x58>
 1010610:	11bfdd1e 	bne	r2,r6,1010588 <__fpcmp_parts_d+0x2c>
 1010614:	28c00117 	ldw	r3,4(r5)
 1010618:	20800117 	ldw	r2,4(r4)
 101061c:	1885c83a 	sub	r2,r3,r2
 1010620:	f800283a 	ret

01010624 <close>:
 *
 * ALT_CLOSE is mapped onto the close() system call in alt_syscall.h
 */
 
int ALT_CLOSE (int fildes)
{
 1010624:	defff804 	addi	sp,sp,-32
 1010628:	dfc00715 	stw	ra,28(sp)
 101062c:	df000615 	stw	fp,24(sp)
 1010630:	df000604 	addi	fp,sp,24
 1010634:	e13ffc15 	stw	r4,-16(fp)
   * A common error case is that when the file descriptor was created, the call
   * to open() failed resulting in a negative file descriptor. This is trapped
   * below so that we don't try and process an invalid file descriptor.
   */

  fd = (fildes < 0) ? NULL : &alt_fd_list[fildes];
 1010638:	e0bffc17 	ldw	r2,-16(fp)
 101063c:	1004803a 	cmplt	r2,r2,zero
 1010640:	1000081e 	bne	r2,zero,1010664 <close+0x40>
 1010644:	e0bffc17 	ldw	r2,-16(fp)
 1010648:	10800324 	muli	r2,r2,12
 101064c:	1007883a 	mov	r3,r2
 1010650:	00804074 	movhi	r2,257
 1010654:	10928504 	addi	r2,r2,18964
 1010658:	1887883a 	add	r3,r3,r2
 101065c:	e0ffff15 	stw	r3,-4(fp)
 1010660:	00000106 	br	1010668 <close+0x44>
 1010664:	e03fff15 	stw	zero,-4(fp)
 1010668:	e0bfff17 	ldw	r2,-4(fp)
 101066c:	e0bffb15 	stw	r2,-20(fp)

  if (fd)
 1010670:	e0bffb17 	ldw	r2,-20(fp)
 1010674:	1005003a 	cmpeq	r2,r2,zero
 1010678:	10001d1e 	bne	r2,zero,10106f0 <close+0xcc>
    /*
     * If the associated file system/device has a close function, call it so 
     * that any necessary cleanup code can run.
     */

    rval = (fd->dev->close) ? fd->dev->close(fd) : 0;
 101067c:	e0bffb17 	ldw	r2,-20(fp)
 1010680:	10800017 	ldw	r2,0(r2)
 1010684:	10800417 	ldw	r2,16(r2)
 1010688:	1005003a 	cmpeq	r2,r2,zero
 101068c:	1000071e 	bne	r2,zero,10106ac <close+0x88>
 1010690:	e0bffb17 	ldw	r2,-20(fp)
 1010694:	10800017 	ldw	r2,0(r2)
 1010698:	10800417 	ldw	r2,16(r2)
 101069c:	e13ffb17 	ldw	r4,-20(fp)
 10106a0:	103ee83a 	callr	r2
 10106a4:	e0bffe15 	stw	r2,-8(fp)
 10106a8:	00000106 	br	10106b0 <close+0x8c>
 10106ac:	e03ffe15 	stw	zero,-8(fp)
 10106b0:	e0bffe17 	ldw	r2,-8(fp)
 10106b4:	e0bffa15 	stw	r2,-24(fp)

    /* Free the file descriptor structure and return. */

    alt_release_fd (fildes);
 10106b8:	e13ffc17 	ldw	r4,-16(fp)
 10106bc:	10112480 	call	1011248 <alt_release_fd>
    if (rval < 0)
 10106c0:	e0bffa17 	ldw	r2,-24(fp)
 10106c4:	1004403a 	cmpge	r2,r2,zero
 10106c8:	1000071e 	bne	r2,zero,10106e8 <close+0xc4>
    {
      ALT_ERRNO = -rval;
 10106cc:	10107200 	call	1010720 <alt_get_errno>
 10106d0:	e0fffa17 	ldw	r3,-24(fp)
 10106d4:	00c7c83a 	sub	r3,zero,r3
 10106d8:	10c00015 	stw	r3,0(r2)
      return -1;
 10106dc:	00bfffc4 	movi	r2,-1
 10106e0:	e0bffd15 	stw	r2,-12(fp)
 10106e4:	00000806 	br	1010708 <close+0xe4>
    }
    return 0;
 10106e8:	e03ffd15 	stw	zero,-12(fp)
 10106ec:	00000606 	br	1010708 <close+0xe4>
  }
  else
  {
    ALT_ERRNO = EBADFD;
 10106f0:	10107200 	call	1010720 <alt_get_errno>
 10106f4:	1007883a 	mov	r3,r2
 10106f8:	00801444 	movi	r2,81
 10106fc:	18800015 	stw	r2,0(r3)
    return -1;
 1010700:	00bfffc4 	movi	r2,-1
 1010704:	e0bffd15 	stw	r2,-12(fp)
 1010708:	e0bffd17 	ldw	r2,-12(fp)
  }
}
 101070c:	e037883a 	mov	sp,fp
 1010710:	dfc00117 	ldw	ra,4(sp)
 1010714:	df000017 	ldw	fp,0(sp)
 1010718:	dec00204 	addi	sp,sp,8
 101071c:	f800283a 	ret

01010720 <alt_get_errno>:
#undef errno

extern int errno;

static ALT_INLINE int* alt_get_errno(void)
{
 1010720:	defffd04 	addi	sp,sp,-12
 1010724:	dfc00215 	stw	ra,8(sp)
 1010728:	df000115 	stw	fp,4(sp)
 101072c:	df000104 	addi	fp,sp,4
  return ((alt_errno) ? alt_errno() : &errno);
 1010730:	00804074 	movhi	r2,257
 1010734:	10975004 	addi	r2,r2,23872
 1010738:	10800017 	ldw	r2,0(r2)
 101073c:	1005003a 	cmpeq	r2,r2,zero
 1010740:	1000061e 	bne	r2,zero,101075c <alt_get_errno+0x3c>
 1010744:	00804074 	movhi	r2,257
 1010748:	10975004 	addi	r2,r2,23872
 101074c:	10800017 	ldw	r2,0(r2)
 1010750:	103ee83a 	callr	r2
 1010754:	e0bfff15 	stw	r2,-4(fp)
 1010758:	00000306 	br	1010768 <alt_get_errno+0x48>
 101075c:	00804074 	movhi	r2,257
 1010760:	109ef604 	addi	r2,r2,31704
 1010764:	e0bfff15 	stw	r2,-4(fp)
 1010768:	e0bfff17 	ldw	r2,-4(fp)
}
 101076c:	e037883a 	mov	sp,fp
 1010770:	dfc00117 	ldw	ra,4(sp)
 1010774:	df000017 	ldw	fp,0(sp)
 1010778:	dec00204 	addi	sp,sp,8
 101077c:	f800283a 	ret

01010780 <alt_dev_null_write>:
 * by the alt_dev_null device. It simple discards all data passed to it, and
 * indicates that the data has been successfully transmitted.
 */

static int alt_dev_null_write (alt_fd* fd, const char* ptr, int len)
{
 1010780:	defffc04 	addi	sp,sp,-16
 1010784:	df000315 	stw	fp,12(sp)
 1010788:	df000304 	addi	fp,sp,12
 101078c:	e13ffd15 	stw	r4,-12(fp)
 1010790:	e17ffe15 	stw	r5,-8(fp)
 1010794:	e1bfff15 	stw	r6,-4(fp)
  return len;
 1010798:	e0bfff17 	ldw	r2,-4(fp)
}
 101079c:	e037883a 	mov	sp,fp
 10107a0:	df000017 	ldw	fp,0(sp)
 10107a4:	dec00104 	addi	sp,sp,4
 10107a8:	f800283a 	ret

010107ac <alt_sim_halt>:

/*
 * Routine called on exit.
 */
static ALT_ALWAYS_INLINE void alt_sim_halt(int exit_code)
{
 10107ac:	defffd04 	addi	sp,sp,-12
 10107b0:	df000215 	stw	fp,8(sp)
 10107b4:	df000204 	addi	fp,sp,8
 10107b8:	e13fff15 	stw	r4,-4(fp)
  int r2 = exit_code;
 10107bc:	e0bfff17 	ldw	r2,-4(fp)
 10107c0:	e0bffe15 	stw	r2,-8(fp)
  __asm__ volatile ("\n0:\n\taddi %0,%0, -1\n\tbgt %0,zero,0b" : : "r" (ALT_CPU_FREQ/100) ); /* Delay for >30ms */

  __asm__ volatile ("break 2" : : "D02"(r2), "D03"(r3) ALT_GMON_DATA );

#else /* !DEBUG_STUB */
  if (r2) {
 10107c4:	e0bffe17 	ldw	r2,-8(fp)
 10107c8:	1005003a 	cmpeq	r2,r2,zero
 10107cc:	1000021e 	bne	r2,zero,10107d8 <alt_sim_halt+0x2c>
    ALT_SIM_FAIL();
 10107d0:	002af070 	cmpltui	zero,zero,43969
 10107d4:	00000106 	br	10107dc <alt_sim_halt+0x30>
  } else {
    ALT_SIM_PASS();
 10107d8:	002af0b0 	cmpltui	zero,zero,43970
  }
#endif /* DEBUG_STUB */
}
 10107dc:	e037883a 	mov	sp,fp
 10107e0:	df000017 	ldw	fp,0(sp)
 10107e4:	dec00104 	addi	sp,sp,4
 10107e8:	f800283a 	ret

010107ec <_exit>:
 *
 * ALT_EXIT is mapped onto the _exit() system call in alt_syscall.h
 */

void ALT_EXIT (int exit_code)
{
 10107ec:	defffd04 	addi	sp,sp,-12
 10107f0:	dfc00215 	stw	ra,8(sp)
 10107f4:	df000115 	stw	fp,4(sp)
 10107f8:	df000104 	addi	fp,sp,4
 10107fc:	e13fff15 	stw	r4,-4(fp)
  ALT_OS_STOP();

  /* Provide notification to the simulator that we've stopped */

  ALT_LOG_PRINT_BOOT("[alt_exit.c] Calling ALT_SIM_HALT().\r\n");
  ALT_SIM_HALT(exit_code);
 1010800:	e13fff17 	ldw	r4,-4(fp)
 1010804:	10107ac0 	call	10107ac <alt_sim_halt>

  /* spin forever, since there's no where to go back to */

  ALT_LOG_PRINT_BOOT("[alt_exit.c] Spinning forever.\r\n");
  while (1);
 1010808:	003fff06 	br	1010808 <_exit+0x1c>

0101080c <fstat>:
}

#else /* !ALT_USE_DIRECT_DRIVERS */

int ALT_FSTAT (int file, struct stat *st)
{
 101080c:	defff904 	addi	sp,sp,-28
 1010810:	dfc00615 	stw	ra,24(sp)
 1010814:	df000515 	stw	fp,20(sp)
 1010818:	df000504 	addi	fp,sp,20
 101081c:	e13ffc15 	stw	r4,-16(fp)
 1010820:	e17ffd15 	stw	r5,-12(fp)
   * A common error case is that when the file descriptor was created, the call
   * to open() failed resulting in a negative file descriptor. This is trapped
   * below so that we don't try and process an invalid file descriptor.
   */

  fd = (file < 0) ? NULL : &alt_fd_list[file];
 1010824:	e0bffc17 	ldw	r2,-16(fp)
 1010828:	1004803a 	cmplt	r2,r2,zero
 101082c:	1000081e 	bne	r2,zero,1010850 <fstat+0x44>
 1010830:	e0bffc17 	ldw	r2,-16(fp)
 1010834:	10800324 	muli	r2,r2,12
 1010838:	1007883a 	mov	r3,r2
 101083c:	00804074 	movhi	r2,257
 1010840:	10928504 	addi	r2,r2,18964
 1010844:	1887883a 	add	r3,r3,r2
 1010848:	e0ffff15 	stw	r3,-4(fp)
 101084c:	00000106 	br	1010854 <fstat+0x48>
 1010850:	e03fff15 	stw	zero,-4(fp)
 1010854:	e0bfff17 	ldw	r2,-4(fp)
 1010858:	e0bffb15 	stw	r2,-20(fp)
  
  if (fd)
 101085c:	e0bffb17 	ldw	r2,-20(fp)
 1010860:	1005003a 	cmpeq	r2,r2,zero
 1010864:	1000121e 	bne	r2,zero,10108b0 <fstat+0xa4>
  {
    /* Call the drivers fstat() function to fill out the "st" structure. */

    if (fd->dev->fstat)
 1010868:	e0bffb17 	ldw	r2,-20(fp)
 101086c:	10800017 	ldw	r2,0(r2)
 1010870:	10800817 	ldw	r2,32(r2)
 1010874:	1005003a 	cmpeq	r2,r2,zero
 1010878:	1000081e 	bne	r2,zero,101089c <fstat+0x90>
    {
      return fd->dev->fstat(fd, st);
 101087c:	e0bffb17 	ldw	r2,-20(fp)
 1010880:	10800017 	ldw	r2,0(r2)
 1010884:	10800817 	ldw	r2,32(r2)
 1010888:	e13ffb17 	ldw	r4,-20(fp)
 101088c:	e17ffd17 	ldw	r5,-12(fp)
 1010890:	103ee83a 	callr	r2
 1010894:	e0bffe15 	stw	r2,-8(fp)
 1010898:	00000b06 	br	10108c8 <fstat+0xbc>
     * device.
     */
 
    else
    {
      st->st_mode = _IFCHR;
 101089c:	e0fffd17 	ldw	r3,-12(fp)
 10108a0:	00880004 	movi	r2,8192
 10108a4:	18800115 	stw	r2,4(r3)
      return 0;
 10108a8:	e03ffe15 	stw	zero,-8(fp)
 10108ac:	00000606 	br	10108c8 <fstat+0xbc>
    }
  }
  else
  {
    ALT_ERRNO = EBADFD;
 10108b0:	10108e00 	call	10108e0 <alt_get_errno>
 10108b4:	1007883a 	mov	r3,r2
 10108b8:	00801444 	movi	r2,81
 10108bc:	18800015 	stw	r2,0(r3)
    return -1;
 10108c0:	00bfffc4 	movi	r2,-1
 10108c4:	e0bffe15 	stw	r2,-8(fp)
 10108c8:	e0bffe17 	ldw	r2,-8(fp)
  }
}
 10108cc:	e037883a 	mov	sp,fp
 10108d0:	dfc00117 	ldw	ra,4(sp)
 10108d4:	df000017 	ldw	fp,0(sp)
 10108d8:	dec00204 	addi	sp,sp,8
 10108dc:	f800283a 	ret

010108e0 <alt_get_errno>:
#undef errno

extern int errno;

static ALT_INLINE int* alt_get_errno(void)
{
 10108e0:	defffd04 	addi	sp,sp,-12
 10108e4:	dfc00215 	stw	ra,8(sp)
 10108e8:	df000115 	stw	fp,4(sp)
 10108ec:	df000104 	addi	fp,sp,4
  return ((alt_errno) ? alt_errno() : &errno);
 10108f0:	00804074 	movhi	r2,257
 10108f4:	10975004 	addi	r2,r2,23872
 10108f8:	10800017 	ldw	r2,0(r2)
 10108fc:	1005003a 	cmpeq	r2,r2,zero
 1010900:	1000061e 	bne	r2,zero,101091c <alt_get_errno+0x3c>
 1010904:	00804074 	movhi	r2,257
 1010908:	10975004 	addi	r2,r2,23872
 101090c:	10800017 	ldw	r2,0(r2)
 1010910:	103ee83a 	callr	r2
 1010914:	e0bfff15 	stw	r2,-4(fp)
 1010918:	00000306 	br	1010928 <alt_get_errno+0x48>
 101091c:	00804074 	movhi	r2,257
 1010920:	109ef604 	addi	r2,r2,31704
 1010924:	e0bfff15 	stw	r2,-4(fp)
 1010928:	e0bfff17 	ldw	r2,-4(fp)
}
 101092c:	e037883a 	mov	sp,fp
 1010930:	dfc00117 	ldw	ra,4(sp)
 1010934:	df000017 	ldw	fp,0(sp)
 1010938:	dec00204 	addi	sp,sp,8
 101093c:	f800283a 	ret

01010940 <getpid>:
 *
 * ALT_GETPID is mapped onto the getpid() system call in alt_syscall.h
 */
 
int ALT_GETPID (void)
{
 1010940:	deffff04 	addi	sp,sp,-4
 1010944:	df000015 	stw	fp,0(sp)
 1010948:	d839883a 	mov	fp,sp
  return 0;
 101094c:	0005883a 	mov	r2,zero
}
 1010950:	e037883a 	mov	sp,fp
 1010954:	df000017 	ldw	fp,0(sp)
 1010958:	dec00104 	addi	sp,sp,4
 101095c:	f800283a 	ret

01010960 <alt_irq_register>:
 */
 
int alt_irq_register (alt_u32 id, 
                      void* context, 
                      alt_isr_func handler)
{
 1010960:	deffef04 	addi	sp,sp,-68
 1010964:	df001015 	stw	fp,64(sp)
 1010968:	df001004 	addi	fp,sp,64
 101096c:	e13ffc15 	stw	r4,-16(fp)
 1010970:	e17ffd15 	stw	r5,-12(fp)
 1010974:	e1bffe15 	stw	r6,-8(fp)
  int rc = -EINVAL;  
 1010978:	00bffa84 	movi	r2,-22
 101097c:	e0bffb15 	stw	r2,-20(fp)
  alt_irq_context status;

  if (id < ALT_NIRQ)
 1010980:	e0bffc17 	ldw	r2,-16(fp)
 1010984:	10800828 	cmpgeui	r2,r2,32
 1010988:	1000601e 	bne	r2,zero,1010b0c <alt_irq_register+0x1ac>
static ALT_INLINE alt_irq_context ALT_ALWAYS_INLINE 
       alt_irq_disable_all (void)
{
  alt_irq_context context;

  NIOS2_READ_STATUS (context);
 101098c:	0005303a 	rdctl	r2,status
 1010990:	e0bff915 	stw	r2,-28(fp)

  NIOS2_WRITE_STATUS (context & ~NIOS2_STATUS_PIE_MSK);
 1010994:	e0fff917 	ldw	r3,-28(fp)
 1010998:	00bfff84 	movi	r2,-2
 101099c:	1884703a 	and	r2,r3,r2
 10109a0:	1001703a 	wrctl	status,r2
  
  return context;
 10109a4:	e0bff917 	ldw	r2,-28(fp)
     * interrupts are disabled while the handler tables are updated to ensure
     * that an interrupt doesn't occur while the tables are in an inconsistant
     * state.
     */

    status = alt_irq_disable_all ();
 10109a8:	e0bffa15 	stw	r2,-24(fp)

    alt_irq[id].handler = handler;
 10109ac:	e0bffc17 	ldw	r2,-16(fp)
 10109b0:	00c040b4 	movhi	r3,258
 10109b4:	18e51504 	addi	r3,r3,-27564
 10109b8:	100490fa 	slli	r2,r2,3
 10109bc:	10c7883a 	add	r3,r2,r3
 10109c0:	e0bffe17 	ldw	r2,-8(fp)
 10109c4:	18800015 	stw	r2,0(r3)
    alt_irq[id].context = context;
 10109c8:	e0bffc17 	ldw	r2,-16(fp)
 10109cc:	00c040b4 	movhi	r3,258
 10109d0:	18e51504 	addi	r3,r3,-27564
 10109d4:	100490fa 	slli	r2,r2,3
 10109d8:	10c5883a 	add	r2,r2,r3
 10109dc:	10c00104 	addi	r3,r2,4
 10109e0:	e0bffd17 	ldw	r2,-12(fp)
 10109e4:	18800015 	stw	r2,0(r3)

    rc = (handler) ? alt_irq_enable (id): alt_irq_disable (id);
 10109e8:	e0bffe17 	ldw	r2,-8(fp)
 10109ec:	1005003a 	cmpeq	r2,r2,zero
 10109f0:	1000201e 	bne	r2,zero,1010a74 <alt_irq_register+0x114>
 10109f4:	e0bffc17 	ldw	r2,-16(fp)
 10109f8:	e0bff715 	stw	r2,-36(fp)
static ALT_INLINE alt_irq_context ALT_ALWAYS_INLINE 
       alt_irq_disable_all (void)
{
  alt_irq_context context;

  NIOS2_READ_STATUS (context);
 10109fc:	0005303a 	rdctl	r2,status
 1010a00:	e0bff615 	stw	r2,-40(fp)

  NIOS2_WRITE_STATUS (context & ~NIOS2_STATUS_PIE_MSK);
 1010a04:	e0fff617 	ldw	r3,-40(fp)
 1010a08:	00bfff84 	movi	r2,-2
 1010a0c:	1884703a 	and	r2,r3,r2
 1010a10:	1001703a 	wrctl	status,r2
  
  return context;
 1010a14:	e0bff617 	ldw	r2,-40(fp)
static ALT_INLINE int ALT_ALWAYS_INLINE alt_irq_enable (alt_u32 id)
{
  alt_irq_context  status;
  extern volatile alt_u32 alt_irq_active;

  status = alt_irq_disable_all ();
 1010a18:	e0bff815 	stw	r2,-32(fp)

  alt_irq_active |= (1 << id);
 1010a1c:	e0fff717 	ldw	r3,-36(fp)
 1010a20:	00800044 	movi	r2,1
 1010a24:	10c4983a 	sll	r2,r2,r3
 1010a28:	1007883a 	mov	r3,r2
 1010a2c:	00804074 	movhi	r2,257
 1010a30:	109efa04 	addi	r2,r2,31720
 1010a34:	10800017 	ldw	r2,0(r2)
 1010a38:	1886b03a 	or	r3,r3,r2
 1010a3c:	00804074 	movhi	r2,257
 1010a40:	109efa04 	addi	r2,r2,31720
 1010a44:	10c00015 	stw	r3,0(r2)
  NIOS2_WRITE_IENABLE (alt_irq_active);
 1010a48:	00804074 	movhi	r2,257
 1010a4c:	109efa04 	addi	r2,r2,31720
 1010a50:	10800017 	ldw	r2,0(r2)
 1010a54:	100170fa 	wrctl	ienable,r2
 1010a58:	e0bff817 	ldw	r2,-32(fp)
 1010a5c:	e0bff515 	stw	r2,-44(fp)
  status &= ~NIOS2_STATUS_PIE_MSK;
  status |= (context & NIOS2_STATUS_PIE_MSK);
  
  NIOS2_WRITE_STATUS (status);
#else
  NIOS2_WRITE_STATUS (context);
 1010a60:	e0bff517 	ldw	r2,-44(fp)
 1010a64:	1001703a 	wrctl	status,r2

  alt_irq_enable_all(status);

  return 0;
 1010a68:	0005883a 	mov	r2,zero
 1010a6c:	e0bfff15 	stw	r2,-4(fp)
 1010a70:	00002006 	br	1010af4 <alt_irq_register+0x194>
 1010a74:	e0bffc17 	ldw	r2,-16(fp)
 1010a78:	e0bff315 	stw	r2,-52(fp)
static ALT_INLINE alt_irq_context ALT_ALWAYS_INLINE 
       alt_irq_disable_all (void)
{
  alt_irq_context context;

  NIOS2_READ_STATUS (context);
 1010a7c:	0005303a 	rdctl	r2,status
 1010a80:	e0bff215 	stw	r2,-56(fp)

  NIOS2_WRITE_STATUS (context & ~NIOS2_STATUS_PIE_MSK);
 1010a84:	e0fff217 	ldw	r3,-56(fp)
 1010a88:	00bfff84 	movi	r2,-2
 1010a8c:	1884703a 	and	r2,r3,r2
 1010a90:	1001703a 	wrctl	status,r2
  
  return context;
 1010a94:	e0bff217 	ldw	r2,-56(fp)
static ALT_INLINE int ALT_ALWAYS_INLINE alt_irq_disable (alt_u32 id)
{
  alt_irq_context  status;
  extern volatile alt_u32 alt_irq_active;

  status = alt_irq_disable_all ();
 1010a98:	e0bff415 	stw	r2,-48(fp)

  alt_irq_active &= ~(1 << id);
 1010a9c:	e0fff317 	ldw	r3,-52(fp)
 1010aa0:	00800044 	movi	r2,1
 1010aa4:	10c4983a 	sll	r2,r2,r3
 1010aa8:	0084303a 	nor	r2,zero,r2
 1010aac:	1007883a 	mov	r3,r2
 1010ab0:	00804074 	movhi	r2,257
 1010ab4:	109efa04 	addi	r2,r2,31720
 1010ab8:	10800017 	ldw	r2,0(r2)
 1010abc:	1886703a 	and	r3,r3,r2
 1010ac0:	00804074 	movhi	r2,257
 1010ac4:	109efa04 	addi	r2,r2,31720
 1010ac8:	10c00015 	stw	r3,0(r2)
  NIOS2_WRITE_IENABLE (alt_irq_active);
 1010acc:	00804074 	movhi	r2,257
 1010ad0:	109efa04 	addi	r2,r2,31720
 1010ad4:	10800017 	ldw	r2,0(r2)
 1010ad8:	100170fa 	wrctl	ienable,r2
 1010adc:	e0bff417 	ldw	r2,-48(fp)
 1010ae0:	e0bff115 	stw	r2,-60(fp)
  status &= ~NIOS2_STATUS_PIE_MSK;
  status |= (context & NIOS2_STATUS_PIE_MSK);
  
  NIOS2_WRITE_STATUS (status);
#else
  NIOS2_WRITE_STATUS (context);
 1010ae4:	e0bff117 	ldw	r2,-60(fp)
 1010ae8:	1001703a 	wrctl	status,r2

  alt_irq_enable_all(status);

  return 0;
 1010aec:	0005883a 	mov	r2,zero
 1010af0:	e0bfff15 	stw	r2,-4(fp)
 1010af4:	e0bfff17 	ldw	r2,-4(fp)
 1010af8:	e0bffb15 	stw	r2,-20(fp)
 1010afc:	e0bffa17 	ldw	r2,-24(fp)
 1010b00:	e0bff015 	stw	r2,-64(fp)
 1010b04:	e0bff017 	ldw	r2,-64(fp)
 1010b08:	1001703a 	wrctl	status,r2

    alt_irq_enable_all(status);
  }
  return rc; 
 1010b0c:	e0bffb17 	ldw	r2,-20(fp)
}
 1010b10:	e037883a 	mov	sp,fp
 1010b14:	df000017 	ldw	fp,0(sp)
 1010b18:	dec00104 	addi	sp,sp,4
 1010b1c:	f800283a 	ret

01010b20 <isatty>:
 *
 * ALT_ISATTY is mapped onto the isatty() system call in alt_syscall.h
 */
 
int ALT_ISATTY (int file)
{
 1010b20:	deffeb04 	addi	sp,sp,-84
 1010b24:	dfc01415 	stw	ra,80(sp)
 1010b28:	df001315 	stw	fp,76(sp)
 1010b2c:	df001304 	addi	fp,sp,76
 1010b30:	e13ffd15 	stw	r4,-12(fp)
   * A common error case is that when the file descriptor was created, the call
   * to open() failed resulting in a negative file descriptor. This is trapped
   * below so that we don't try and process an invalid file descriptor.
   */

  fd = (file < 0) ? NULL : &alt_fd_list[file];
 1010b34:	e0bffd17 	ldw	r2,-12(fp)
 1010b38:	1004803a 	cmplt	r2,r2,zero
 1010b3c:	1000081e 	bne	r2,zero,1010b60 <isatty+0x40>
 1010b40:	e0bffd17 	ldw	r2,-12(fp)
 1010b44:	10800324 	muli	r2,r2,12
 1010b48:	1007883a 	mov	r3,r2
 1010b4c:	00804074 	movhi	r2,257
 1010b50:	10928504 	addi	r2,r2,18964
 1010b54:	1887883a 	add	r3,r3,r2
 1010b58:	e0ffff15 	stw	r3,-4(fp)
 1010b5c:	00000106 	br	1010b64 <isatty+0x44>
 1010b60:	e03fff15 	stw	zero,-4(fp)
 1010b64:	e0bfff17 	ldw	r2,-4(fp)
 1010b68:	e0bfed15 	stw	r2,-76(fp)
  
  if (fd)
 1010b6c:	e0bfed17 	ldw	r2,-76(fp)
 1010b70:	1005003a 	cmpeq	r2,r2,zero
 1010b74:	10000f1e 	bne	r2,zero,1010bb4 <isatty+0x94>
    /*
     * If a device driver does not provide an fstat() function, then it is 
     * treated as a terminal device by default.
     */

    if (!fd->dev->fstat)
 1010b78:	e0bfed17 	ldw	r2,-76(fp)
 1010b7c:	10800017 	ldw	r2,0(r2)
 1010b80:	10800817 	ldw	r2,32(r2)
 1010b84:	1004c03a 	cmpne	r2,r2,zero
 1010b88:	1000031e 	bne	r2,zero,1010b98 <isatty+0x78>
    {
      return 1;
 1010b8c:	00800044 	movi	r2,1
 1010b90:	e0bffe15 	stw	r2,-8(fp)
 1010b94:	00000c06 	br	1010bc8 <isatty+0xa8>
     * this is called so that the device can identify itself.
     */ 

    else
    {
      fstat (file, &stat);
 1010b98:	e17fee04 	addi	r5,fp,-72
 1010b9c:	e13ffd17 	ldw	r4,-12(fp)
 1010ba0:	101080c0 	call	101080c <fstat>
      return (stat.st_mode == _IFCHR) ? 1 : 0;
 1010ba4:	e0bfef17 	ldw	r2,-68(fp)
 1010ba8:	10880020 	cmpeqi	r2,r2,8192
 1010bac:	e0bffe15 	stw	r2,-8(fp)
 1010bb0:	00000506 	br	1010bc8 <isatty+0xa8>
    }
  }
  else
  {
    ALT_ERRNO = EBADFD;
 1010bb4:	1010be00 	call	1010be0 <alt_get_errno>
 1010bb8:	1007883a 	mov	r3,r2
 1010bbc:	00801444 	movi	r2,81
 1010bc0:	18800015 	stw	r2,0(r3)
    return 0;
 1010bc4:	e03ffe15 	stw	zero,-8(fp)
 1010bc8:	e0bffe17 	ldw	r2,-8(fp)
  }
}
 1010bcc:	e037883a 	mov	sp,fp
 1010bd0:	dfc00117 	ldw	ra,4(sp)
 1010bd4:	df000017 	ldw	fp,0(sp)
 1010bd8:	dec00204 	addi	sp,sp,8
 1010bdc:	f800283a 	ret

01010be0 <alt_get_errno>:
#undef errno

extern int errno;

static ALT_INLINE int* alt_get_errno(void)
{
 1010be0:	defffd04 	addi	sp,sp,-12
 1010be4:	dfc00215 	stw	ra,8(sp)
 1010be8:	df000115 	stw	fp,4(sp)
 1010bec:	df000104 	addi	fp,sp,4
  return ((alt_errno) ? alt_errno() : &errno);
 1010bf0:	00804074 	movhi	r2,257
 1010bf4:	10975004 	addi	r2,r2,23872
 1010bf8:	10800017 	ldw	r2,0(r2)
 1010bfc:	1005003a 	cmpeq	r2,r2,zero
 1010c00:	1000061e 	bne	r2,zero,1010c1c <alt_get_errno+0x3c>
 1010c04:	00804074 	movhi	r2,257
 1010c08:	10975004 	addi	r2,r2,23872
 1010c0c:	10800017 	ldw	r2,0(r2)
 1010c10:	103ee83a 	callr	r2
 1010c14:	e0bfff15 	stw	r2,-4(fp)
 1010c18:	00000306 	br	1010c28 <alt_get_errno+0x48>
 1010c1c:	00804074 	movhi	r2,257
 1010c20:	109ef604 	addi	r2,r2,31704
 1010c24:	e0bfff15 	stw	r2,-4(fp)
 1010c28:	e0bfff17 	ldw	r2,-4(fp)
}
 1010c2c:	e037883a 	mov	sp,fp
 1010c30:	dfc00117 	ldw	ra,4(sp)
 1010c34:	df000017 	ldw	fp,0(sp)
 1010c38:	dec00204 	addi	sp,sp,8
 1010c3c:	f800283a 	ret

01010c40 <kill>:
 *
 * ALT_KILL is mapped onto the kill() system call in alt_syscall.h
 */

int ALT_KILL (int pid, int sig)
{
 1010c40:	defffa04 	addi	sp,sp,-24
 1010c44:	dfc00515 	stw	ra,20(sp)
 1010c48:	df000415 	stw	fp,16(sp)
 1010c4c:	df000404 	addi	fp,sp,16
 1010c50:	e13ffd15 	stw	r4,-12(fp)
 1010c54:	e17ffe15 	stw	r5,-8(fp)
  int status = 0;
 1010c58:	e03ffc15 	stw	zero,-16(fp)

  if (pid <= 0)
 1010c5c:	e0bffd17 	ldw	r2,-12(fp)
 1010c60:	10800048 	cmpgei	r2,r2,1
 1010c64:	1000301e 	bne	r2,zero,1010d28 <kill+0xe8>
  {
    switch (sig)
 1010c68:	e0bffe17 	ldw	r2,-8(fp)
 1010c6c:	10800828 	cmpgeui	r2,r2,32
 1010c70:	10002a1e 	bne	r2,zero,1010d1c <kill+0xdc>
 1010c74:	e0bffe17 	ldw	r2,-8(fp)
 1010c78:	1085883a 	add	r2,r2,r2
 1010c7c:	1087883a 	add	r3,r2,r2
 1010c80:	00804074 	movhi	r2,257
 1010c84:	10832504 	addi	r2,r2,3220
 1010c88:	1885883a 	add	r2,r3,r2
 1010c8c:	10800017 	ldw	r2,0(r2)
 1010c90:	1000683a 	jmp	r2
 1010c94:	01010d3c 	xorhi	r4,zero,1076
 1010c98:	01010d1c 	xori	r4,zero,1076
 1010c9c:	01010d1c 	xori	r4,zero,1076
 1010ca0:	01010d14 	movui	r4,1076
 1010ca4:	01010d14 	movui	r4,1076
 1010ca8:	01010d14 	movui	r4,1076
 1010cac:	01010d14 	movui	r4,1076
 1010cb0:	01010d1c 	xori	r4,zero,1076
 1010cb4:	01010d14 	movui	r4,1076
 1010cb8:	01010d14 	movui	r4,1076
 1010cbc:	01010d14 	movui	r4,1076
 1010cc0:	01010d14 	movui	r4,1076
 1010cc4:	01010d14 	movui	r4,1076
 1010cc8:	01010d14 	movui	r4,1076
 1010ccc:	01010d14 	movui	r4,1076
 1010cd0:	01010d14 	movui	r4,1076
 1010cd4:	01010d3c 	xorhi	r4,zero,1076
 1010cd8:	01010d1c 	xori	r4,zero,1076
 1010cdc:	01010d1c 	xori	r4,zero,1076
 1010ce0:	01010d1c 	xori	r4,zero,1076
 1010ce4:	01010d3c 	xorhi	r4,zero,1076
 1010ce8:	01010d1c 	xori	r4,zero,1076
 1010cec:	01010d1c 	xori	r4,zero,1076
 1010cf0:	01010d14 	movui	r4,1076
 1010cf4:	01010d14 	movui	r4,1076
 1010cf8:	01010d14 	movui	r4,1076
 1010cfc:	01010d14 	movui	r4,1076
 1010d00:	01010d14 	movui	r4,1076
 1010d04:	01010d1c 	xori	r4,zero,1076
 1010d08:	01010d1c 	xori	r4,zero,1076
 1010d0c:	01010d14 	movui	r4,1076
 1010d10:	01010d14 	movui	r4,1076
       * The Posix standard defines the default behaviour for all these signals 
       * as being eqivalent to a call to _exit(). No mechanism is provided to 
       * change this behaviour.
       */

      _exit(0);
 1010d14:	0009883a 	mov	r4,zero
 1010d18:	10107ec0 	call	10107ec <_exit>
      break;
    default:

      /* Tried to send an unsupported signal */

      status = EINVAL;
 1010d1c:	00800584 	movi	r2,22
 1010d20:	e0bffc15 	stw	r2,-16(fp)
 1010d24:	00000506 	br	1010d3c <kill+0xfc>
    }
  }

  else if (pid > 0)
 1010d28:	e0bffd17 	ldw	r2,-12(fp)
 1010d2c:	10800050 	cmplti	r2,r2,1
 1010d30:	1000021e 	bne	r2,zero,1010d3c <kill+0xfc>
  {
    /* Attempted to signal a non-existant process */

    status = ESRCH;
 1010d34:	008000c4 	movi	r2,3
 1010d38:	e0bffc15 	stw	r2,-16(fp)
  }

  if (status)
 1010d3c:	e0bffc17 	ldw	r2,-16(fp)
 1010d40:	1005003a 	cmpeq	r2,r2,zero
 1010d44:	1000071e 	bne	r2,zero,1010d64 <kill+0x124>
  {
    ALT_ERRNO = status;
 1010d48:	1010d800 	call	1010d80 <alt_get_errno>
 1010d4c:	1007883a 	mov	r3,r2
 1010d50:	e0bffc17 	ldw	r2,-16(fp)
 1010d54:	18800015 	stw	r2,0(r3)
    return -1;
 1010d58:	00bfffc4 	movi	r2,-1
 1010d5c:	e0bfff15 	stw	r2,-4(fp)
 1010d60:	00000106 	br	1010d68 <kill+0x128>
  }

  return 0;
 1010d64:	e03fff15 	stw	zero,-4(fp)
 1010d68:	e0bfff17 	ldw	r2,-4(fp)
}
 1010d6c:	e037883a 	mov	sp,fp
 1010d70:	dfc00117 	ldw	ra,4(sp)
 1010d74:	df000017 	ldw	fp,0(sp)
 1010d78:	dec00204 	addi	sp,sp,8
 1010d7c:	f800283a 	ret

01010d80 <alt_get_errno>:
#undef errno

extern int errno;

static ALT_INLINE int* alt_get_errno(void)
{
 1010d80:	defffd04 	addi	sp,sp,-12
 1010d84:	dfc00215 	stw	ra,8(sp)
 1010d88:	df000115 	stw	fp,4(sp)
 1010d8c:	df000104 	addi	fp,sp,4
  return ((alt_errno) ? alt_errno() : &errno);
 1010d90:	00804074 	movhi	r2,257
 1010d94:	10975004 	addi	r2,r2,23872
 1010d98:	10800017 	ldw	r2,0(r2)
 1010d9c:	1005003a 	cmpeq	r2,r2,zero
 1010da0:	1000061e 	bne	r2,zero,1010dbc <alt_get_errno+0x3c>
 1010da4:	00804074 	movhi	r2,257
 1010da8:	10975004 	addi	r2,r2,23872
 1010dac:	10800017 	ldw	r2,0(r2)
 1010db0:	103ee83a 	callr	r2
 1010db4:	e0bfff15 	stw	r2,-4(fp)
 1010db8:	00000306 	br	1010dc8 <alt_get_errno+0x48>
 1010dbc:	00804074 	movhi	r2,257
 1010dc0:	109ef604 	addi	r2,r2,31704
 1010dc4:	e0bfff15 	stw	r2,-4(fp)
 1010dc8:	e0bfff17 	ldw	r2,-4(fp)
}
 1010dcc:	e037883a 	mov	sp,fp
 1010dd0:	dfc00117 	ldw	ra,4(sp)
 1010dd4:	df000017 	ldw	fp,0(sp)
 1010dd8:	dec00204 	addi	sp,sp,8
 1010ddc:	f800283a 	ret

01010de0 <alt_load>:
 * there is no bootloader, so this application is responsible for loading to
 * RAM any sections that are required.
 */  

void alt_load (void)
{
 1010de0:	defffe04 	addi	sp,sp,-8
 1010de4:	dfc00115 	stw	ra,4(sp)
 1010de8:	df000015 	stw	fp,0(sp)
 1010dec:	d839883a 	mov	fp,sp
  /* 
   * Copy the .rwdata section. 
   */

  alt_load_section (&__flash_rwdata_start, 
 1010df0:	01004074 	movhi	r4,257
 1010df4:	21175504 	addi	r4,r4,23892
 1010df8:	01404074 	movhi	r5,257
 1010dfc:	294fc904 	addi	r5,r5,16164
 1010e00:	01804074 	movhi	r6,257
 1010e04:	31975504 	addi	r6,r6,23892
 1010e08:	1010e600 	call	1010e60 <alt_load_section>

  /*
   * Copy the exception handler.
   */

  alt_load_section (&__flash_exceptions_start, 
 1010e0c:	01004034 	movhi	r4,256
 1010e10:	21000804 	addi	r4,r4,32
 1010e14:	01404034 	movhi	r5,256
 1010e18:	29400804 	addi	r5,r5,32
 1010e1c:	01804034 	movhi	r6,256
 1010e20:	31806e04 	addi	r6,r6,440
 1010e24:	1010e600 	call	1010e60 <alt_load_section>

  /*
   * Copy the .rodata section.
   */

  alt_load_section (&__flash_rodata_start, 
 1010e28:	01004074 	movhi	r4,257
 1010e2c:	210cbd04 	addi	r4,r4,13044
 1010e30:	01404074 	movhi	r5,257
 1010e34:	294cbd04 	addi	r5,r5,13044
 1010e38:	01804074 	movhi	r6,257
 1010e3c:	318fc904 	addi	r6,r6,16164
 1010e40:	1010e600 	call	1010e60 <alt_load_section>
  
  /*
   * Now ensure that the caches are in synch.
   */
  
  alt_dcache_flush_all();
 1010e44:	10126240 	call	1012624 <alt_dcache_flush_all>
  alt_icache_flush_all();
 1010e48:	10128d80 	call	10128d8 <alt_icache_flush_all>
}
 1010e4c:	e037883a 	mov	sp,fp
 1010e50:	dfc00117 	ldw	ra,4(sp)
 1010e54:	df000017 	ldw	fp,0(sp)
 1010e58:	dec00204 	addi	sp,sp,8
 1010e5c:	f800283a 	ret

01010e60 <alt_load_section>:
 */

static void ALT_INLINE alt_load_section (alt_u32* from, 
                                         alt_u32* to, 
                                         alt_u32* end)
{
 1010e60:	defffc04 	addi	sp,sp,-16
 1010e64:	df000315 	stw	fp,12(sp)
 1010e68:	df000304 	addi	fp,sp,12
 1010e6c:	e13ffd15 	stw	r4,-12(fp)
 1010e70:	e17ffe15 	stw	r5,-8(fp)
 1010e74:	e1bfff15 	stw	r6,-4(fp)
  if (to != from)
 1010e78:	e0fffe17 	ldw	r3,-8(fp)
 1010e7c:	e0bffd17 	ldw	r2,-12(fp)
 1010e80:	18800e26 	beq	r3,r2,1010ebc <alt_load_section+0x5c>
  {
    while( to != end )
 1010e84:	00000a06 	br	1010eb0 <alt_load_section+0x50>
    {
      *to++ = *from++;
 1010e88:	e0bffd17 	ldw	r2,-12(fp)
 1010e8c:	10c00017 	ldw	r3,0(r2)
 1010e90:	e0bffe17 	ldw	r2,-8(fp)
 1010e94:	10c00015 	stw	r3,0(r2)
 1010e98:	e0bffe17 	ldw	r2,-8(fp)
 1010e9c:	10800104 	addi	r2,r2,4
 1010ea0:	e0bffe15 	stw	r2,-8(fp)
 1010ea4:	e0bffd17 	ldw	r2,-12(fp)
 1010ea8:	10800104 	addi	r2,r2,4
 1010eac:	e0bffd15 	stw	r2,-12(fp)
                                         alt_u32* to, 
                                         alt_u32* end)
{
  if (to != from)
  {
    while( to != end )
 1010eb0:	e0fffe17 	ldw	r3,-8(fp)
 1010eb4:	e0bfff17 	ldw	r2,-4(fp)
 1010eb8:	18bff31e 	bne	r3,r2,1010e88 <alt_load_section+0x28>
    {
      *to++ = *from++;
    }
  }
}
 1010ebc:	e037883a 	mov	sp,fp
 1010ec0:	df000017 	ldw	fp,0(sp)
 1010ec4:	dec00104 	addi	sp,sp,4
 1010ec8:	f800283a 	ret

01010ecc <lseek>:
 * ALT_LSEEK is mapped onto the lseek() system call in alt_syscall.h
 *
 */

off_t ALT_LSEEK (int file, off_t ptr, int dir)
{
 1010ecc:	defff804 	addi	sp,sp,-32
 1010ed0:	dfc00715 	stw	ra,28(sp)
 1010ed4:	df000615 	stw	fp,24(sp)
 1010ed8:	df000604 	addi	fp,sp,24
 1010edc:	e13ffc15 	stw	r4,-16(fp)
 1010ee0:	e17ffd15 	stw	r5,-12(fp)
 1010ee4:	e1bffe15 	stw	r6,-8(fp)
  alt_fd* fd;
  off_t   rc = 0; 
 1010ee8:	e03ffa15 	stw	zero,-24(fp)
   * A common error case is that when the file descriptor was created, the call
   * to open() failed resulting in a negative file descriptor. This is trapped
   * below so that we don't try and process an invalid file descriptor.
   */

  fd = (file < 0) ? NULL : &alt_fd_list[file];
 1010eec:	e0bffc17 	ldw	r2,-16(fp)
 1010ef0:	1004803a 	cmplt	r2,r2,zero
 1010ef4:	1000081e 	bne	r2,zero,1010f18 <lseek+0x4c>
 1010ef8:	e0bffc17 	ldw	r2,-16(fp)
 1010efc:	10800324 	muli	r2,r2,12
 1010f00:	1007883a 	mov	r3,r2
 1010f04:	00804074 	movhi	r2,257
 1010f08:	10928504 	addi	r2,r2,18964
 1010f0c:	1887883a 	add	r3,r3,r2
 1010f10:	e0ffff15 	stw	r3,-4(fp)
 1010f14:	00000106 	br	1010f1c <lseek+0x50>
 1010f18:	e03fff15 	stw	zero,-4(fp)
 1010f1c:	e0bfff17 	ldw	r2,-4(fp)
 1010f20:	e0bffb15 	stw	r2,-20(fp)
  
  if (fd) 
 1010f24:	e0bffb17 	ldw	r2,-20(fp)
 1010f28:	1005003a 	cmpeq	r2,r2,zero
 1010f2c:	1000111e 	bne	r2,zero,1010f74 <lseek+0xa8>
    /*
     * If the device driver provides an implementation of the lseek() function,
     * then call that to process the request.
     */
 
    if (fd->dev->lseek)
 1010f30:	e0bffb17 	ldw	r2,-20(fp)
 1010f34:	10800017 	ldw	r2,0(r2)
 1010f38:	10800717 	ldw	r2,28(r2)
 1010f3c:	1005003a 	cmpeq	r2,r2,zero
 1010f40:	1000091e 	bne	r2,zero,1010f68 <lseek+0x9c>
    {
      rc = fd->dev->lseek(fd, ptr, dir);
 1010f44:	e0bffb17 	ldw	r2,-20(fp)
 1010f48:	10800017 	ldw	r2,0(r2)
 1010f4c:	10800717 	ldw	r2,28(r2)
 1010f50:	e13ffb17 	ldw	r4,-20(fp)
 1010f54:	e17ffd17 	ldw	r5,-12(fp)
 1010f58:	e1bffe17 	ldw	r6,-8(fp)
 1010f5c:	103ee83a 	callr	r2
 1010f60:	e0bffa15 	stw	r2,-24(fp)
 1010f64:	00000506 	br	1010f7c <lseek+0xb0>
     * Otherwise return an error.
     */

    else
    {
      rc = -ENOTSUP;
 1010f68:	00bfde84 	movi	r2,-134
 1010f6c:	e0bffa15 	stw	r2,-24(fp)
 1010f70:	00000206 	br	1010f7c <lseek+0xb0>
    }
  }
  else  
  {
    rc = -EBADFD;
 1010f74:	00bfebc4 	movi	r2,-81
 1010f78:	e0bffa15 	stw	r2,-24(fp)
  }

  if (rc < 0)
 1010f7c:	e0bffa17 	ldw	r2,-24(fp)
 1010f80:	1004403a 	cmpge	r2,r2,zero
 1010f84:	1000071e 	bne	r2,zero,1010fa4 <lseek+0xd8>
  {
    ALT_ERRNO = -rc;
 1010f88:	1010fbc0 	call	1010fbc <alt_get_errno>
 1010f8c:	1007883a 	mov	r3,r2
 1010f90:	e0bffa17 	ldw	r2,-24(fp)
 1010f94:	0085c83a 	sub	r2,zero,r2
 1010f98:	18800015 	stw	r2,0(r3)
    rc = -1;
 1010f9c:	00bfffc4 	movi	r2,-1
 1010fa0:	e0bffa15 	stw	r2,-24(fp)
  }

  return rc;
 1010fa4:	e0bffa17 	ldw	r2,-24(fp)
}
 1010fa8:	e037883a 	mov	sp,fp
 1010fac:	dfc00117 	ldw	ra,4(sp)
 1010fb0:	df000017 	ldw	fp,0(sp)
 1010fb4:	dec00204 	addi	sp,sp,8
 1010fb8:	f800283a 	ret

01010fbc <alt_get_errno>:
#undef errno

extern int errno;

static ALT_INLINE int* alt_get_errno(void)
{
 1010fbc:	defffd04 	addi	sp,sp,-12
 1010fc0:	dfc00215 	stw	ra,8(sp)
 1010fc4:	df000115 	stw	fp,4(sp)
 1010fc8:	df000104 	addi	fp,sp,4
  return ((alt_errno) ? alt_errno() : &errno);
 1010fcc:	00804074 	movhi	r2,257
 1010fd0:	10975004 	addi	r2,r2,23872
 1010fd4:	10800017 	ldw	r2,0(r2)
 1010fd8:	1005003a 	cmpeq	r2,r2,zero
 1010fdc:	1000061e 	bne	r2,zero,1010ff8 <alt_get_errno+0x3c>
 1010fe0:	00804074 	movhi	r2,257
 1010fe4:	10975004 	addi	r2,r2,23872
 1010fe8:	10800017 	ldw	r2,0(r2)
 1010fec:	103ee83a 	callr	r2
 1010ff0:	e0bfff15 	stw	r2,-4(fp)
 1010ff4:	00000306 	br	1011004 <alt_get_errno+0x48>
 1010ff8:	00804074 	movhi	r2,257
 1010ffc:	109ef604 	addi	r2,r2,31704
 1011000:	e0bfff15 	stw	r2,-4(fp)
 1011004:	e0bfff17 	ldw	r2,-4(fp)
}
 1011008:	e037883a 	mov	sp,fp
 101100c:	dfc00117 	ldw	ra,4(sp)
 1011010:	df000017 	ldw	fp,0(sp)
 1011014:	dec00204 	addi	sp,sp,8
 1011018:	f800283a 	ret

0101101c <alt_main>:
 * devices/filesystems/components in the system; and call the entry point for
 * the users application, i.e. main().
 */

void alt_main (void)
{
 101101c:	defffd04 	addi	sp,sp,-12
 1011020:	dfc00215 	stw	ra,8(sp)
 1011024:	df000115 	stw	fp,4(sp)
 1011028:	df000104 	addi	fp,sp,4
#endif

  /* ALT LOG - please see HAL/sys/alt_log_printf.h for details */
  ALT_LOG_PRINT_BOOT("[alt_main.c] Entering alt_main, calling alt_irq_init.\r\n");
  /* Initialize the interrupt controller. */
  alt_irq_init (NULL);
 101102c:	0009883a 	mov	r4,zero
 1011030:	10115140 	call	1011514 <alt_irq_init>
  ALT_LOG_PRINT_BOOT("[alt_main.c] Done OS Init, calling alt_sem_create.\r\n");
  ALT_SEM_CREATE (&alt_fd_list_lock, 1);

  /* Initialize the device drivers/software components. */
  ALT_LOG_PRINT_BOOT("[alt_main.c] Calling alt_sys_init.\r\n");
  alt_sys_init();
 1011034:	10115480 	call	1011548 <alt_sys_init>
   * devices be present (not equal to /dev/null) and if direct drivers
   * aren't being used.
   */

    ALT_LOG_PRINT_BOOT("[alt_main.c] Redirecting IO.\r\n");
    alt_io_redirect(ALT_STDOUT, ALT_STDIN, ALT_STDERR);
 1011038:	01004074 	movhi	r4,257
 101103c:	210f9f04 	addi	r4,r4,15996
 1011040:	01404074 	movhi	r5,257
 1011044:	294f9f04 	addi	r5,r5,15996
 1011048:	01804074 	movhi	r6,257
 101104c:	318f9f04 	addi	r6,r6,15996
 1011050:	10129cc0 	call	10129cc <alt_io_redirect>
  /* 
   * Call the C++ constructors 
   */

  ALT_LOG_PRINT_BOOT("[alt_main.c] Calling C++ constructors.\r\n");
  _do_ctors ();
 1011054:	101277c0 	call	101277c <_do_ctors>
   * redefined as _exit()). This is in the interest of reducing code footprint,
   * in that the atexit() overhead is removed when it's not needed.
   */

  ALT_LOG_PRINT_BOOT("[alt_main.c] Calling atexit.\r\n");
  atexit (_do_dtors);
 1011058:	01004074 	movhi	r4,257
 101105c:	2109f804 	addi	r4,r4,10208
 1011060:	10131340 	call	1013134 <atexit>
  ALT_LOG_PRINT_BOOT("[alt_main.c] Calling main.\r\n");

#ifdef ALT_NO_EXIT
  main (alt_argc, alt_argv, alt_envp);
#else
  result = main (alt_argc, alt_argv, alt_envp);
 1011064:	d127c317 	ldw	r4,-24820(gp)
 1011068:	d167c417 	ldw	r5,-24816(gp)
 101106c:	d1a7c517 	ldw	r6,-24812(gp)
 1011070:	10002040 	call	1000204 <main>
 1011074:	e0bfff15 	stw	r2,-4(fp)
  close(STDOUT_FILENO);
 1011078:	01000044 	movi	r4,1
 101107c:	10106240 	call	1010624 <close>
  exit (result);
 1011080:	e13fff17 	ldw	r4,-4(fp)
 1011084:	10055140 	call	1005514 <exit>

01011088 <__malloc_lock>:
 * configuration is single threaded, so there is nothing to do here. Note that 
 * this requires that malloc is never called by an interrupt service routine.
 */

void __malloc_lock ( struct _reent *_r )
{
 1011088:	defffe04 	addi	sp,sp,-8
 101108c:	df000115 	stw	fp,4(sp)
 1011090:	df000104 	addi	fp,sp,4
 1011094:	e13fff15 	stw	r4,-4(fp)
}
 1011098:	e037883a 	mov	sp,fp
 101109c:	df000017 	ldw	fp,0(sp)
 10110a0:	dec00104 	addi	sp,sp,4
 10110a4:	f800283a 	ret

010110a8 <__malloc_unlock>:
/*
 *
 */

void __malloc_unlock ( struct _reent *_r )
{
 10110a8:	defffe04 	addi	sp,sp,-8
 10110ac:	df000115 	stw	fp,4(sp)
 10110b0:	df000104 	addi	fp,sp,4
 10110b4:	e13fff15 	stw	r4,-4(fp)
}
 10110b8:	e037883a 	mov	sp,fp
 10110bc:	df000017 	ldw	fp,0(sp)
 10110c0:	dec00104 	addi	sp,sp,4
 10110c4:	f800283a 	ret

010110c8 <read>:
}

#else /* !ALT_USE_DIRECT_DRIVERS */

int ALT_READ (int file, void *ptr, size_t len)
{
 10110c8:	defff704 	addi	sp,sp,-36
 10110cc:	dfc00815 	stw	ra,32(sp)
 10110d0:	df000715 	stw	fp,28(sp)
 10110d4:	df000704 	addi	fp,sp,28
 10110d8:	e13ffb15 	stw	r4,-20(fp)
 10110dc:	e17ffc15 	stw	r5,-16(fp)
 10110e0:	e1bffd15 	stw	r6,-12(fp)
   * A common error case is that when the file descriptor was created, the call
   * to open() failed resulting in a negative file descriptor. This is trapped
   * below so that we don't try and process an invalid file descriptor.
   */

  fd = (file < 0) ? NULL : &alt_fd_list[file];
 10110e4:	e0bffb17 	ldw	r2,-20(fp)
 10110e8:	1004803a 	cmplt	r2,r2,zero
 10110ec:	1000081e 	bne	r2,zero,1011110 <read+0x48>
 10110f0:	e0bffb17 	ldw	r2,-20(fp)
 10110f4:	10800324 	muli	r2,r2,12
 10110f8:	1007883a 	mov	r3,r2
 10110fc:	00804074 	movhi	r2,257
 1011100:	10928504 	addi	r2,r2,18964
 1011104:	1887883a 	add	r3,r3,r2
 1011108:	e0ffff15 	stw	r3,-4(fp)
 101110c:	00000106 	br	1011114 <read+0x4c>
 1011110:	e03fff15 	stw	zero,-4(fp)
 1011114:	e0bfff17 	ldw	r2,-4(fp)
 1011118:	e0bffa15 	stw	r2,-24(fp)
  
  if (fd)
 101111c:	e0bffa17 	ldw	r2,-24(fp)
 1011120:	1005003a 	cmpeq	r2,r2,zero
 1011124:	1000241e 	bne	r2,zero,10111b8 <read+0xf0>
     * If the file has not been opened with read access, or if the driver does
     * not provide an implementation of read(), generate an error. Otherwise
     * call the drivers read() function to process the request.
     */

    if (((fd->fd_flags & O_ACCMODE) != O_WRONLY) && 
 1011128:	e0bffa17 	ldw	r2,-24(fp)
 101112c:	10800217 	ldw	r2,8(r2)
 1011130:	108000cc 	andi	r2,r2,3
 1011134:	10800060 	cmpeqi	r2,r2,1
 1011138:	10001a1e 	bne	r2,zero,10111a4 <read+0xdc>
 101113c:	e0bffa17 	ldw	r2,-24(fp)
 1011140:	10800017 	ldw	r2,0(r2)
 1011144:	10800517 	ldw	r2,20(r2)
 1011148:	1005003a 	cmpeq	r2,r2,zero
 101114c:	1000151e 	bne	r2,zero,10111a4 <read+0xdc>
        (fd->dev->read))
      {
        if ((rval = fd->dev->read(fd, ptr, len)) < 0)
 1011150:	e0bffa17 	ldw	r2,-24(fp)
 1011154:	10800017 	ldw	r2,0(r2)
 1011158:	10800517 	ldw	r2,20(r2)
 101115c:	e17ffc17 	ldw	r5,-16(fp)
 1011160:	e1bffd17 	ldw	r6,-12(fp)
 1011164:	e13ffa17 	ldw	r4,-24(fp)
 1011168:	103ee83a 	callr	r2
 101116c:	e0bff915 	stw	r2,-28(fp)
 1011170:	e0bff917 	ldw	r2,-28(fp)
 1011174:	1004403a 	cmpge	r2,r2,zero
 1011178:	1000071e 	bne	r2,zero,1011198 <read+0xd0>
        {
          ALT_ERRNO = -rval;
 101117c:	10111e80 	call	10111e8 <alt_get_errno>
 1011180:	e0fff917 	ldw	r3,-28(fp)
 1011184:	00c7c83a 	sub	r3,zero,r3
 1011188:	10c00015 	stw	r3,0(r2)
          return -1;
 101118c:	00bfffc4 	movi	r2,-1
 1011190:	e0bffe15 	stw	r2,-8(fp)
 1011194:	00000e06 	br	10111d0 <read+0x108>
        }
        return rval;
 1011198:	e0bff917 	ldw	r2,-28(fp)
 101119c:	e0bffe15 	stw	r2,-8(fp)
 10111a0:	00000b06 	br	10111d0 <read+0x108>
      }
      else
      {
        ALT_ERRNO = EACCES;
 10111a4:	10111e80 	call	10111e8 <alt_get_errno>
 10111a8:	1007883a 	mov	r3,r2
 10111ac:	00800344 	movi	r2,13
 10111b0:	18800015 	stw	r2,0(r3)
 10111b4:	00000406 	br	10111c8 <read+0x100>
      }
    }
  else
  {
    ALT_ERRNO = EBADFD;
 10111b8:	10111e80 	call	10111e8 <alt_get_errno>
 10111bc:	1007883a 	mov	r3,r2
 10111c0:	00801444 	movi	r2,81
 10111c4:	18800015 	stw	r2,0(r3)
  }
  return -1;
 10111c8:	00bfffc4 	movi	r2,-1
 10111cc:	e0bffe15 	stw	r2,-8(fp)
 10111d0:	e0bffe17 	ldw	r2,-8(fp)
}
 10111d4:	e037883a 	mov	sp,fp
 10111d8:	dfc00117 	ldw	ra,4(sp)
 10111dc:	df000017 	ldw	fp,0(sp)
 10111e0:	dec00204 	addi	sp,sp,8
 10111e4:	f800283a 	ret

010111e8 <alt_get_errno>:
#undef errno

extern int errno;

static ALT_INLINE int* alt_get_errno(void)
{
 10111e8:	defffd04 	addi	sp,sp,-12
 10111ec:	dfc00215 	stw	ra,8(sp)
 10111f0:	df000115 	stw	fp,4(sp)
 10111f4:	df000104 	addi	fp,sp,4
  return ((alt_errno) ? alt_errno() : &errno);
 10111f8:	00804074 	movhi	r2,257
 10111fc:	10975004 	addi	r2,r2,23872
 1011200:	10800017 	ldw	r2,0(r2)
 1011204:	1005003a 	cmpeq	r2,r2,zero
 1011208:	1000061e 	bne	r2,zero,1011224 <alt_get_errno+0x3c>
 101120c:	00804074 	movhi	r2,257
 1011210:	10975004 	addi	r2,r2,23872
 1011214:	10800017 	ldw	r2,0(r2)
 1011218:	103ee83a 	callr	r2
 101121c:	e0bfff15 	stw	r2,-4(fp)
 1011220:	00000306 	br	1011230 <alt_get_errno+0x48>
 1011224:	00804074 	movhi	r2,257
 1011228:	109ef604 	addi	r2,r2,31704
 101122c:	e0bfff15 	stw	r2,-4(fp)
 1011230:	e0bfff17 	ldw	r2,-4(fp)
}
 1011234:	e037883a 	mov	sp,fp
 1011238:	dfc00117 	ldw	ra,4(sp)
 101123c:	df000017 	ldw	fp,0(sp)
 1011240:	dec00204 	addi	sp,sp,8
 1011244:	f800283a 	ret

01011248 <alt_release_fd>:
 * File descriptors correcponding to standard in, standard out and standard 
 * error cannont be released backed to the pool. They are always reserved.
 */

void alt_release_fd (int fd)
{
 1011248:	defffe04 	addi	sp,sp,-8
 101124c:	df000115 	stw	fp,4(sp)
 1011250:	df000104 	addi	fp,sp,4
 1011254:	e13fff15 	stw	r4,-4(fp)
  if (fd > 2)
 1011258:	e0bfff17 	ldw	r2,-4(fp)
 101125c:	108000d0 	cmplti	r2,r2,3
 1011260:	10000d1e 	bne	r2,zero,1011298 <alt_release_fd+0x50>
  {
    alt_fd_list[fd].fd_flags = 0;
 1011264:	e0bfff17 	ldw	r2,-4(fp)
 1011268:	00c04074 	movhi	r3,257
 101126c:	18d28504 	addi	r3,r3,18964
 1011270:	10800324 	muli	r2,r2,12
 1011274:	10c5883a 	add	r2,r2,r3
 1011278:	10800204 	addi	r2,r2,8
 101127c:	10000015 	stw	zero,0(r2)
    alt_fd_list[fd].dev      = 0;
 1011280:	e0bfff17 	ldw	r2,-4(fp)
 1011284:	00c04074 	movhi	r3,257
 1011288:	18d28504 	addi	r3,r3,18964
 101128c:	10800324 	muli	r2,r2,12
 1011290:	10c5883a 	add	r2,r2,r3
 1011294:	10000015 	stw	zero,0(r2)
  }
}
 1011298:	e037883a 	mov	sp,fp
 101129c:	df000017 	ldw	fp,0(sp)
 10112a0:	dec00104 	addi	sp,sp,4
 10112a4:	f800283a 	ret

010112a8 <sbrk>:
#endif
 
caddr_t ALT_SBRK (int incr) __attribute__ ((no_instrument_function ));

caddr_t ALT_SBRK (int incr)
{ 
 10112a8:	defff804 	addi	sp,sp,-32
 10112ac:	df000715 	stw	fp,28(sp)
 10112b0:	df000704 	addi	fp,sp,28
 10112b4:	e13ffe15 	stw	r4,-8(fp)
static ALT_INLINE alt_irq_context ALT_ALWAYS_INLINE 
       alt_irq_disable_all (void)
{
  alt_irq_context context;

  NIOS2_READ_STATUS (context);
 10112b8:	0005303a 	rdctl	r2,status
 10112bc:	e0bffb15 	stw	r2,-20(fp)

  NIOS2_WRITE_STATUS (context & ~NIOS2_STATUS_PIE_MSK);
 10112c0:	e0fffb17 	ldw	r3,-20(fp)
 10112c4:	00bfff84 	movi	r2,-2
 10112c8:	1884703a 	and	r2,r3,r2
 10112cc:	1001703a 	wrctl	status,r2
  
  return context;
 10112d0:	e0bffb17 	ldw	r2,-20(fp)
  alt_irq_context context;
  char *prev_heap_end; 

  context = alt_irq_disable_all();
 10112d4:	e0bffd15 	stw	r2,-12(fp)

  /* Always return data aligned on a word boundary */
  heap_end = (char *)(((unsigned int)heap_end + 3) & ~3);
 10112d8:	d0a01a17 	ldw	r2,-32664(gp)
 10112dc:	10c000c4 	addi	r3,r2,3
 10112e0:	00bfff04 	movi	r2,-4
 10112e4:	1884703a 	and	r2,r3,r2
 10112e8:	d0a01a15 	stw	r2,-32664(gp)
  if (((heap_end + incr) - __alt_heap_start) > ALT_MAX_HEAP_BYTES) {
    alt_irq_enable_all(context);
    return (caddr_t)-1;
  }
#else
  if ((heap_end + incr) > __alt_heap_limit) {
 10112ec:	d0e01a17 	ldw	r3,-32664(gp)
 10112f0:	e0bffe17 	ldw	r2,-8(fp)
 10112f4:	1887883a 	add	r3,r3,r2
 10112f8:	00806034 	movhi	r2,384
 10112fc:	10800004 	addi	r2,r2,0
 1011300:	10c0072e 	bgeu	r2,r3,1011320 <sbrk+0x78>
 1011304:	e0bffd17 	ldw	r2,-12(fp)
 1011308:	e0bffa15 	stw	r2,-24(fp)
  status &= ~NIOS2_STATUS_PIE_MSK;
  status |= (context & NIOS2_STATUS_PIE_MSK);
  
  NIOS2_WRITE_STATUS (status);
#else
  NIOS2_WRITE_STATUS (context);
 101130c:	e0bffa17 	ldw	r2,-24(fp)
 1011310:	1001703a 	wrctl	status,r2
    alt_irq_enable_all(context);
    return (caddr_t)-1;
 1011314:	00bfffc4 	movi	r2,-1
 1011318:	e0bfff15 	stw	r2,-4(fp)
 101131c:	00000c06 	br	1011350 <sbrk+0xa8>
  }
#endif

  prev_heap_end = heap_end; 
 1011320:	d0a01a17 	ldw	r2,-32664(gp)
 1011324:	e0bffc15 	stw	r2,-16(fp)
  heap_end += incr; 
 1011328:	d0e01a17 	ldw	r3,-32664(gp)
 101132c:	e0bffe17 	ldw	r2,-8(fp)
 1011330:	1885883a 	add	r2,r3,r2
 1011334:	d0a01a15 	stw	r2,-32664(gp)
 1011338:	e0bffd17 	ldw	r2,-12(fp)
 101133c:	e0bff915 	stw	r2,-28(fp)
 1011340:	e0bff917 	ldw	r2,-28(fp)
 1011344:	1001703a 	wrctl	status,r2

#endif

  alt_irq_enable_all(context);

  return (caddr_t) prev_heap_end; 
 1011348:	e0bffc17 	ldw	r2,-16(fp)
 101134c:	e0bfff15 	stw	r2,-4(fp)
 1011350:	e0bfff17 	ldw	r2,-4(fp)
} 
 1011354:	e037883a 	mov	sp,fp
 1011358:	df000017 	ldw	fp,0(sp)
 101135c:	dec00104 	addi	sp,sp,4
 1011360:	f800283a 	ret

01011364 <usleep>:
#if defined (__GNUC__) && __GNUC__ >= 4
int ALT_USLEEP (useconds_t us)
#else
unsigned int ALT_USLEEP (unsigned int us)
#endif
{
 1011364:	defffd04 	addi	sp,sp,-12
 1011368:	dfc00215 	stw	ra,8(sp)
 101136c:	df000115 	stw	fp,4(sp)
 1011370:	df000104 	addi	fp,sp,4
 1011374:	e13fff15 	stw	r4,-4(fp)
  return alt_busy_sleep(us);
 1011378:	e13fff17 	ldw	r4,-4(fp)
 101137c:	10124d80 	call	10124d8 <alt_busy_sleep>
}
 1011380:	e037883a 	mov	sp,fp
 1011384:	dfc00117 	ldw	ra,4(sp)
 1011388:	df000017 	ldw	fp,0(sp)
 101138c:	dec00204 	addi	sp,sp,8
 1011390:	f800283a 	ret

01011394 <write>:
}

#else /* !ALT_USE_DIRECT_DRIVERS */

int ALT_WRITE (int file, const void *ptr, size_t len)
{
 1011394:	defff704 	addi	sp,sp,-36
 1011398:	dfc00815 	stw	ra,32(sp)
 101139c:	df000715 	stw	fp,28(sp)
 10113a0:	df000704 	addi	fp,sp,28
 10113a4:	e13ffb15 	stw	r4,-20(fp)
 10113a8:	e17ffc15 	stw	r5,-16(fp)
 10113ac:	e1bffd15 	stw	r6,-12(fp)
   * A common error case is that when the file descriptor was created, the call
   * to open() failed resulting in a negative file descriptor. This is trapped
   * below so that we don't try and process an invalid file descriptor.
   */

  fd = (file < 0) ? NULL : &alt_fd_list[file];
 10113b0:	e0bffb17 	ldw	r2,-20(fp)
 10113b4:	1004803a 	cmplt	r2,r2,zero
 10113b8:	1000081e 	bne	r2,zero,10113dc <write+0x48>
 10113bc:	e0bffb17 	ldw	r2,-20(fp)
 10113c0:	10800324 	muli	r2,r2,12
 10113c4:	1007883a 	mov	r3,r2
 10113c8:	00804074 	movhi	r2,257
 10113cc:	10928504 	addi	r2,r2,18964
 10113d0:	1887883a 	add	r3,r3,r2
 10113d4:	e0ffff15 	stw	r3,-4(fp)
 10113d8:	00000106 	br	10113e0 <write+0x4c>
 10113dc:	e03fff15 	stw	zero,-4(fp)
 10113e0:	e0bfff17 	ldw	r2,-4(fp)
 10113e4:	e0bffa15 	stw	r2,-24(fp)
  
  if (fd)
 10113e8:	e0bffa17 	ldw	r2,-24(fp)
 10113ec:	1005003a 	cmpeq	r2,r2,zero
 10113f0:	1000241e 	bne	r2,zero,1011484 <write+0xf0>
     * If the file has not been opened with write access, or if the driver does
     * not provide an implementation of write(), generate an error. Otherwise
     * call the drivers write() function to process the request.
     */

    if (((fd->fd_flags & O_ACCMODE) != O_RDONLY) && fd->dev->write)
 10113f4:	e0bffa17 	ldw	r2,-24(fp)
 10113f8:	10800217 	ldw	r2,8(r2)
 10113fc:	108000cc 	andi	r2,r2,3
 1011400:	1005003a 	cmpeq	r2,r2,zero
 1011404:	10001a1e 	bne	r2,zero,1011470 <write+0xdc>
 1011408:	e0bffa17 	ldw	r2,-24(fp)
 101140c:	10800017 	ldw	r2,0(r2)
 1011410:	10800617 	ldw	r2,24(r2)
 1011414:	1005003a 	cmpeq	r2,r2,zero
 1011418:	1000151e 	bne	r2,zero,1011470 <write+0xdc>
    {
      
      /* ALT_LOG - see altera_hal/HAL/inc/sys/alt_log_printf.h */
      ALT_LOG_WRITE_FUNCTION(ptr,len);

      if ((rval = fd->dev->write(fd, ptr, len)) < 0)
 101141c:	e0bffa17 	ldw	r2,-24(fp)
 1011420:	10800017 	ldw	r2,0(r2)
 1011424:	10800617 	ldw	r2,24(r2)
 1011428:	e17ffc17 	ldw	r5,-16(fp)
 101142c:	e1bffd17 	ldw	r6,-12(fp)
 1011430:	e13ffa17 	ldw	r4,-24(fp)
 1011434:	103ee83a 	callr	r2
 1011438:	e0bff915 	stw	r2,-28(fp)
 101143c:	e0bff917 	ldw	r2,-28(fp)
 1011440:	1004403a 	cmpge	r2,r2,zero
 1011444:	1000071e 	bne	r2,zero,1011464 <write+0xd0>
      {
        ALT_ERRNO = -rval;
 1011448:	10114b40 	call	10114b4 <alt_get_errno>
 101144c:	e0fff917 	ldw	r3,-28(fp)
 1011450:	00c7c83a 	sub	r3,zero,r3
 1011454:	10c00015 	stw	r3,0(r2)
        return -1;
 1011458:	00bfffc4 	movi	r2,-1
 101145c:	e0bffe15 	stw	r2,-8(fp)
 1011460:	00000e06 	br	101149c <write+0x108>
      }
      return rval;
 1011464:	e0bff917 	ldw	r2,-28(fp)
 1011468:	e0bffe15 	stw	r2,-8(fp)
 101146c:	00000b06 	br	101149c <write+0x108>
    }
    else
    {
      ALT_ERRNO = EACCES;
 1011470:	10114b40 	call	10114b4 <alt_get_errno>
 1011474:	1007883a 	mov	r3,r2
 1011478:	00800344 	movi	r2,13
 101147c:	18800015 	stw	r2,0(r3)
 1011480:	00000406 	br	1011494 <write+0x100>
    }
  }
  else  
  {
    ALT_ERRNO = EBADFD;
 1011484:	10114b40 	call	10114b4 <alt_get_errno>
 1011488:	1007883a 	mov	r3,r2
 101148c:	00801444 	movi	r2,81
 1011490:	18800015 	stw	r2,0(r3)
  }
  return -1;
 1011494:	00bfffc4 	movi	r2,-1
 1011498:	e0bffe15 	stw	r2,-8(fp)
 101149c:	e0bffe17 	ldw	r2,-8(fp)
}
 10114a0:	e037883a 	mov	sp,fp
 10114a4:	dfc00117 	ldw	ra,4(sp)
 10114a8:	df000017 	ldw	fp,0(sp)
 10114ac:	dec00204 	addi	sp,sp,8
 10114b0:	f800283a 	ret

010114b4 <alt_get_errno>:
#undef errno

extern int errno;

static ALT_INLINE int* alt_get_errno(void)
{
 10114b4:	defffd04 	addi	sp,sp,-12
 10114b8:	dfc00215 	stw	ra,8(sp)
 10114bc:	df000115 	stw	fp,4(sp)
 10114c0:	df000104 	addi	fp,sp,4
  return ((alt_errno) ? alt_errno() : &errno);
 10114c4:	00804074 	movhi	r2,257
 10114c8:	10975004 	addi	r2,r2,23872
 10114cc:	10800017 	ldw	r2,0(r2)
 10114d0:	1005003a 	cmpeq	r2,r2,zero
 10114d4:	1000061e 	bne	r2,zero,10114f0 <alt_get_errno+0x3c>
 10114d8:	00804074 	movhi	r2,257
 10114dc:	10975004 	addi	r2,r2,23872
 10114e0:	10800017 	ldw	r2,0(r2)
 10114e4:	103ee83a 	callr	r2
 10114e8:	e0bfff15 	stw	r2,-4(fp)
 10114ec:	00000306 	br	10114fc <alt_get_errno+0x48>
 10114f0:	00804074 	movhi	r2,257
 10114f4:	109ef604 	addi	r2,r2,31704
 10114f8:	e0bfff15 	stw	r2,-4(fp)
 10114fc:	e0bfff17 	ldw	r2,-4(fp)
}
 1011500:	e037883a 	mov	sp,fp
 1011504:	dfc00117 	ldw	ra,4(sp)
 1011508:	df000017 	ldw	fp,0(sp)
 101150c:	dec00204 	addi	sp,sp,8
 1011510:	f800283a 	ret

01011514 <alt_irq_init>:
 * The "base" parameter is ignored and only
 * present for backwards-compatibility.
 */

void alt_irq_init ( const void* base )
{
 1011514:	defffd04 	addi	sp,sp,-12
 1011518:	dfc00215 	stw	ra,8(sp)
 101151c:	df000115 	stw	fp,4(sp)
 1011520:	df000104 	addi	fp,sp,4
 1011524:	e13fff15 	stw	r4,-4(fp)
    ALTERA_NIOS2_QSYS_IRQ_INIT ( NIOS2_QSYS_0, nios2_qsys_0);
 1011528:	1012eac0 	call	1012eac <altera_nios2_qsys_irq_init>
 * alt_irq_cpu_enable_interrupts() enables the CPU to start taking interrupts.
 */
static ALT_INLINE void ALT_ALWAYS_INLINE 
       alt_irq_cpu_enable_interrupts ()
{
    NIOS2_WRITE_STATUS(NIOS2_STATUS_PIE_MSK
 101152c:	00800044 	movi	r2,1
 1011530:	1001703a 	wrctl	status,r2
    alt_irq_cpu_enable_interrupts();
}
 1011534:	e037883a 	mov	sp,fp
 1011538:	dfc00117 	ldw	ra,4(sp)
 101153c:	df000017 	ldw	fp,0(sp)
 1011540:	dec00204 	addi	sp,sp,8
 1011544:	f800283a 	ret

01011548 <alt_sys_init>:
 * Initialize the non-interrupt controller devices.
 * Called after alt_irq_init().
 */

void alt_sys_init( void )
{
 1011548:	defffe04 	addi	sp,sp,-8
 101154c:	dfc00115 	stw	ra,4(sp)
 1011550:	df000015 	stw	fp,0(sp)
 1011554:	d839883a 	mov	fp,sp
    ALTERA_AVALON_TIMER_INIT ( CONTINUOUS_TIMER, continuous_timer);
 1011558:	00c04074 	movhi	r3,257
 101155c:	18defe04 	addi	r3,r3,31736
 1011560:	00840004 	movi	r2,4096
 1011564:	18800015 	stw	r2,0(r3)
 1011568:	00c04074 	movhi	r3,257
 101156c:	18deff04 	addi	r3,r3,31740
 1011570:	0080bef4 	movhi	r2,763
 1011574:	10bc2004 	addi	r2,r2,-3968
 1011578:	18800015 	stw	r2,0(r3)
    ALTERA_AVALON_TIMER_INIT ( TIMER_0, timer_0);
 101157c:	01080004 	movi	r4,8192
 1011580:	000b883a 	mov	r5,zero
 1011584:	01800044 	movi	r6,1
 1011588:	01c0fa04 	movi	r7,1000
 101158c:	10121540 	call	1012154 <alt_avalon_timer_sc_init>
    ALTERA_AVALON_JTAG_UART_INIT ( JTAG_UART_0, jtag_uart_0);
 1011590:	01004074 	movhi	r4,257
 1011594:	2112ef04 	addi	r4,r4,19388
 1011598:	000b883a 	mov	r5,zero
 101159c:	01800144 	movi	r6,5
 10115a0:	10117800 	call	1011780 <altera_avalon_jtag_uart_init>
 10115a4:	01004074 	movhi	r4,257
 10115a8:	2112e504 	addi	r4,r4,19348
 10115ac:	10116000 	call	1011600 <alt_dev_reg>
    ALTERA_UP_AVALON_AUDIO_AND_VIDEO_CONFIG_INIT ( AUDIO_AND_VIDEO_CONFIG_0, audio_and_video_config_0);
 10115b0:	01004074 	movhi	r4,257
 10115b4:	2116fd04 	addi	r4,r4,23540
 10115b8:	10116000 	call	1011600 <alt_dev_reg>
    ALTERA_UP_AVALON_AUDIO_INIT ( AUDIO_0, audio_0);
 10115bc:	01004074 	movhi	r4,257
 10115c0:	21170904 	addi	r4,r4,23588
 10115c4:	10116000 	call	1011600 <alt_dev_reg>
    ALTERA_UP_AVALON_PARALLEL_PORT_INIT ( PARALLEL_PORT_0, parallel_port_0);
 10115c8:	01004074 	movhi	r4,257
 10115cc:	21171504 	addi	r4,r4,23636
 10115d0:	10116000 	call	1011600 <alt_dev_reg>
    ALTERA_UP_AVALON_USB_INIT ( USB_0, usb_0);
 10115d4:	01004074 	movhi	r4,257
 10115d8:	21172004 	addi	r4,r4,23680
 10115dc:	10116000 	call	1011600 <alt_dev_reg>
    ALTERA_UP_SD_CARD_AVALON_INTERFACE_INIT ( ALTERA_UP_SD_CARD_AVALON_INTERFACE_0, Altera_UP_SD_Card_Avalon_Interface_0);
 10115e0:	01004074 	movhi	r4,257
 10115e4:	21172d04 	addi	r4,r4,23732
 10115e8:	10116000 	call	1011600 <alt_dev_reg>
}
 10115ec:	e037883a 	mov	sp,fp
 10115f0:	dfc00117 	ldw	ra,4(sp)
 10115f4:	df000017 	ldw	fp,0(sp)
 10115f8:	dec00204 	addi	sp,sp,8
 10115fc:	f800283a 	ret

01011600 <alt_dev_reg>:
 */

extern int alt_fs_reg  (alt_dev* dev); 

static ALT_INLINE int alt_dev_reg (alt_dev* dev)
{
 1011600:	defffd04 	addi	sp,sp,-12
 1011604:	dfc00215 	stw	ra,8(sp)
 1011608:	df000115 	stw	fp,4(sp)
 101160c:	df000104 	addi	fp,sp,4
 1011610:	e13fff15 	stw	r4,-4(fp)
  extern alt_llist alt_dev_list;

  return alt_dev_llist_insert ((alt_dev_llist*) dev, &alt_dev_list);
 1011614:	e13fff17 	ldw	r4,-4(fp)
 1011618:	01404074 	movhi	r5,257
 101161c:	29574d04 	addi	r5,r5,23860
 1011620:	10126680 	call	1012668 <alt_dev_llist_insert>
}
 1011624:	e037883a 	mov	sp,fp
 1011628:	dfc00117 	ldw	ra,4(sp)
 101162c:	df000017 	ldw	fp,0(sp)
 1011630:	dec00204 	addi	sp,sp,8
 1011634:	f800283a 	ret

01011638 <altera_avalon_jtag_uart_read_fd>:
 *
 */

int 
altera_avalon_jtag_uart_read_fd(alt_fd* fd, char* buffer, int space)
{
 1011638:	defffa04 	addi	sp,sp,-24
 101163c:	dfc00515 	stw	ra,20(sp)
 1011640:	df000415 	stw	fp,16(sp)
 1011644:	df000404 	addi	fp,sp,16
 1011648:	e13ffd15 	stw	r4,-12(fp)
 101164c:	e17ffe15 	stw	r5,-8(fp)
 1011650:	e1bfff15 	stw	r6,-4(fp)
    altera_avalon_jtag_uart_dev* dev = (altera_avalon_jtag_uart_dev*) fd->dev; 
 1011654:	e0bffd17 	ldw	r2,-12(fp)
 1011658:	10800017 	ldw	r2,0(r2)
 101165c:	e0bffc15 	stw	r2,-16(fp)

    return altera_avalon_jtag_uart_read(&dev->state, buffer, space,
 1011660:	e0bffc17 	ldw	r2,-16(fp)
 1011664:	11000a04 	addi	r4,r2,40
 1011668:	e0bffd17 	ldw	r2,-12(fp)
 101166c:	11c00217 	ldw	r7,8(r2)
 1011670:	e17ffe17 	ldw	r5,-8(fp)
 1011674:	e1bfff17 	ldw	r6,-4(fp)
 1011678:	1011c7c0 	call	1011c7c <altera_avalon_jtag_uart_read>
      fd->fd_flags);
}
 101167c:	e037883a 	mov	sp,fp
 1011680:	dfc00117 	ldw	ra,4(sp)
 1011684:	df000017 	ldw	fp,0(sp)
 1011688:	dec00204 	addi	sp,sp,8
 101168c:	f800283a 	ret

01011690 <altera_avalon_jtag_uart_write_fd>:

int 
altera_avalon_jtag_uart_write_fd(alt_fd* fd, const char* buffer, int space)
{
 1011690:	defffa04 	addi	sp,sp,-24
 1011694:	dfc00515 	stw	ra,20(sp)
 1011698:	df000415 	stw	fp,16(sp)
 101169c:	df000404 	addi	fp,sp,16
 10116a0:	e13ffd15 	stw	r4,-12(fp)
 10116a4:	e17ffe15 	stw	r5,-8(fp)
 10116a8:	e1bfff15 	stw	r6,-4(fp)
    altera_avalon_jtag_uart_dev* dev = (altera_avalon_jtag_uart_dev*) fd->dev; 
 10116ac:	e0bffd17 	ldw	r2,-12(fp)
 10116b0:	10800017 	ldw	r2,0(r2)
 10116b4:	e0bffc15 	stw	r2,-16(fp)

    return altera_avalon_jtag_uart_write(&dev->state, buffer, space,
 10116b8:	e0bffc17 	ldw	r2,-16(fp)
 10116bc:	11000a04 	addi	r4,r2,40
 10116c0:	e0bffd17 	ldw	r2,-12(fp)
 10116c4:	11c00217 	ldw	r7,8(r2)
 10116c8:	e17ffe17 	ldw	r5,-8(fp)
 10116cc:	e1bfff17 	ldw	r6,-4(fp)
 10116d0:	1011ea00 	call	1011ea0 <altera_avalon_jtag_uart_write>
      fd->fd_flags);
}
 10116d4:	e037883a 	mov	sp,fp
 10116d8:	dfc00117 	ldw	ra,4(sp)
 10116dc:	df000017 	ldw	fp,0(sp)
 10116e0:	dec00204 	addi	sp,sp,8
 10116e4:	f800283a 	ret

010116e8 <altera_avalon_jtag_uart_close_fd>:

#ifndef ALTERA_AVALON_JTAG_UART_SMALL

int 
altera_avalon_jtag_uart_close_fd(alt_fd* fd)
{
 10116e8:	defffc04 	addi	sp,sp,-16
 10116ec:	dfc00315 	stw	ra,12(sp)
 10116f0:	df000215 	stw	fp,8(sp)
 10116f4:	df000204 	addi	fp,sp,8
 10116f8:	e13fff15 	stw	r4,-4(fp)
    altera_avalon_jtag_uart_dev* dev = (altera_avalon_jtag_uart_dev*) fd->dev; 
 10116fc:	e0bfff17 	ldw	r2,-4(fp)
 1011700:	10800017 	ldw	r2,0(r2)
 1011704:	e0bffe15 	stw	r2,-8(fp)

    return altera_avalon_jtag_uart_close(&dev->state, fd->fd_flags);
 1011708:	e0bffe17 	ldw	r2,-8(fp)
 101170c:	11000a04 	addi	r4,r2,40
 1011710:	e0bfff17 	ldw	r2,-4(fp)
 1011714:	11400217 	ldw	r5,8(r2)
 1011718:	1011b140 	call	1011b14 <altera_avalon_jtag_uart_close>
}
 101171c:	e037883a 	mov	sp,fp
 1011720:	dfc00117 	ldw	ra,4(sp)
 1011724:	df000017 	ldw	fp,0(sp)
 1011728:	dec00204 	addi	sp,sp,8
 101172c:	f800283a 	ret

01011730 <altera_avalon_jtag_uart_ioctl_fd>:

int 
altera_avalon_jtag_uart_ioctl_fd(alt_fd* fd, int req, void* arg)
{
 1011730:	defffa04 	addi	sp,sp,-24
 1011734:	dfc00515 	stw	ra,20(sp)
 1011738:	df000415 	stw	fp,16(sp)
 101173c:	df000404 	addi	fp,sp,16
 1011740:	e13ffd15 	stw	r4,-12(fp)
 1011744:	e17ffe15 	stw	r5,-8(fp)
 1011748:	e1bfff15 	stw	r6,-4(fp)
    altera_avalon_jtag_uart_dev* dev = (altera_avalon_jtag_uart_dev*) fd->dev;
 101174c:	e0bffd17 	ldw	r2,-12(fp)
 1011750:	10800017 	ldw	r2,0(r2)
 1011754:	e0bffc15 	stw	r2,-16(fp)

    return altera_avalon_jtag_uart_ioctl(&dev->state, req, arg);
 1011758:	e0bffc17 	ldw	r2,-16(fp)
 101175c:	11000a04 	addi	r4,r2,40
 1011760:	e17ffe17 	ldw	r5,-8(fp)
 1011764:	e1bfff17 	ldw	r6,-4(fp)
 1011768:	1011b880 	call	1011b88 <altera_avalon_jtag_uart_ioctl>
}
 101176c:	e037883a 	mov	sp,fp
 1011770:	dfc00117 	ldw	ra,4(sp)
 1011774:	df000017 	ldw	fp,0(sp)
 1011778:	dec00204 	addi	sp,sp,8
 101177c:	f800283a 	ret

01011780 <altera_avalon_jtag_uart_init>:
 * Return 1 on sucessful IRQ register and 0 on failure.
 */

void altera_avalon_jtag_uart_init(altera_avalon_jtag_uart_state* sp, 
                                  int irq_controller_id, int irq)
{
 1011780:	defffb04 	addi	sp,sp,-20
 1011784:	dfc00415 	stw	ra,16(sp)
 1011788:	df000315 	stw	fp,12(sp)
 101178c:	df000304 	addi	fp,sp,12
 1011790:	e13ffd15 	stw	r4,-12(fp)
 1011794:	e17ffe15 	stw	r5,-8(fp)
 1011798:	e1bfff15 	stw	r6,-4(fp)
  ALT_FLAG_CREATE(&sp->events, 0);
  ALT_SEM_CREATE(&sp->read_lock, 1);
  ALT_SEM_CREATE(&sp->write_lock, 1);

  /* enable read interrupts at the device */
  sp->irq_enable = ALTERA_AVALON_JTAG_UART_CONTROL_RE_MSK;
 101179c:	e0fffd17 	ldw	r3,-12(fp)
 10117a0:	00800044 	movi	r2,1
 10117a4:	18800815 	stw	r2,32(r3)

  IOWR_ALTERA_AVALON_JTAG_UART_CONTROL(sp->base, sp->irq_enable); 
 10117a8:	e0bffd17 	ldw	r2,-12(fp)
 10117ac:	10800017 	ldw	r2,0(r2)
 10117b0:	11000104 	addi	r4,r2,4
 10117b4:	e0bffd17 	ldw	r2,-12(fp)
 10117b8:	10800817 	ldw	r2,32(r2)
 10117bc:	1007883a 	mov	r3,r2
 10117c0:	2005883a 	mov	r2,r4
 10117c4:	10c00035 	stwio	r3,0(r2)
  /* register the interrupt handler */
#ifdef ALT_ENHANCED_INTERRUPT_API_PRESENT
  alt_ic_isr_register(irq_controller_id, irq, altera_avalon_jtag_uart_irq, 
                      sp, NULL);
#else
  alt_irq_register(irq, sp, altera_avalon_jtag_uart_irq);
 10117c8:	e13fff17 	ldw	r4,-4(fp)
 10117cc:	e17ffd17 	ldw	r5,-12(fp)
 10117d0:	01804074 	movhi	r6,257
 10117d4:	31860e04 	addi	r6,r6,6200
 10117d8:	10109600 	call	1010960 <alt_irq_register>
#endif  

  /* Register an alarm to go off every second to check for presence of host */
  sp->host_inactive = 0;
 10117dc:	e0bffd17 	ldw	r2,-12(fp)
 10117e0:	10000915 	stw	zero,36(r2)

  if (alt_alarm_start(&sp->alarm, alt_ticks_per_second(), 
 10117e4:	e0bffd17 	ldw	r2,-12(fp)
 10117e8:	11000204 	addi	r4,r2,8
 * Obtain the system clock rate in ticks/s. 
 */

static ALT_INLINE alt_u32 ALT_ALWAYS_INLINE alt_ticks_per_second (void)
{
  return _alt_tick_rate;
 10117ec:	00804074 	movhi	r2,257
 10117f0:	109f0004 	addi	r2,r2,31744
 10117f4:	10800017 	ldw	r2,0(r2)
 10117f8:	100b883a 	mov	r5,r2
 10117fc:	01804074 	movhi	r6,257
 1011800:	31869904 	addi	r6,r6,6756
 1011804:	e1fffd17 	ldw	r7,-12(fp)
 1011808:	10123840 	call	1012384 <alt_alarm_start>
 101180c:	1004403a 	cmpge	r2,r2,zero
 1011810:	1000041e 	bne	r2,zero,1011824 <altera_avalon_jtag_uart_init+0xa4>
    &altera_avalon_jtag_uart_timeout, sp) < 0)
  {
    /* If we can't set the alarm then record "don't know if host present" 
     * and behave as though the host is present.
     */
    sp->timeout = INT_MAX;
 1011814:	e0fffd17 	ldw	r3,-12(fp)
 1011818:	00a00034 	movhi	r2,32768
 101181c:	10bfffc4 	addi	r2,r2,-1
 1011820:	18800115 	stw	r2,4(r3)
  }

  /* ALT_LOG - see altera_hal/HAL/inc/sys/alt_log_printf.h */ 
  ALT_LOG_JTAG_UART_ALARM_REGISTER(sp, sp->base);
}
 1011824:	e037883a 	mov	sp,fp
 1011828:	dfc00117 	ldw	ra,4(sp)
 101182c:	df000017 	ldw	fp,0(sp)
 1011830:	dec00204 	addi	sp,sp,8
 1011834:	f800283a 	ret

01011838 <altera_avalon_jtag_uart_irq>:
#ifdef ALT_ENHANCED_INTERRUPT_API_PRESENT
static void altera_avalon_jtag_uart_irq(void* context)
#else
static void altera_avalon_jtag_uart_irq(void* context, alt_u32 id)
#endif
{
 1011838:	defff704 	addi	sp,sp,-36
 101183c:	df000815 	stw	fp,32(sp)
 1011840:	df000804 	addi	fp,sp,32
 1011844:	e13ffe15 	stw	r4,-8(fp)
 1011848:	e17fff15 	stw	r5,-4(fp)
  altera_avalon_jtag_uart_state* sp = (altera_avalon_jtag_uart_state*) context;
 101184c:	e0bffe17 	ldw	r2,-8(fp)
 1011850:	e0bffd15 	stw	r2,-12(fp)
  unsigned int base = sp->base;
 1011854:	e0bffd17 	ldw	r2,-12(fp)
 1011858:	10800017 	ldw	r2,0(r2)
 101185c:	e0bffc15 	stw	r2,-16(fp)
 1011860:	00000006 	br	1011864 <altera_avalon_jtag_uart_irq+0x2c>
  /* ALT_LOG - see altera_hal/HAL/inc/sys/alt_log_printf.h */ 
  ALT_LOG_JTAG_UART_ISR_FUNCTION(base, sp);

  for ( ; ; )
  {
    unsigned int control = IORD_ALTERA_AVALON_JTAG_UART_CONTROL(base);
 1011864:	e0bffc17 	ldw	r2,-16(fp)
 1011868:	10800104 	addi	r2,r2,4
 101186c:	10800037 	ldwio	r2,0(r2)
 1011870:	e0bffb15 	stw	r2,-20(fp)

    /* Return once nothing more to do */
    if ((control & (ALTERA_AVALON_JTAG_UART_CONTROL_RI_MSK | ALTERA_AVALON_JTAG_UART_CONTROL_WI_MSK)) == 0)
 1011874:	e0bffb17 	ldw	r2,-20(fp)
 1011878:	1080c00c 	andi	r2,r2,768
 101187c:	1005003a 	cmpeq	r2,r2,zero
 1011880:	1000741e 	bne	r2,zero,1011a54 <altera_avalon_jtag_uart_irq+0x21c>
      break;

    if (control & ALTERA_AVALON_JTAG_UART_CONTROL_RI_MSK)
 1011884:	e0bffb17 	ldw	r2,-20(fp)
 1011888:	1080400c 	andi	r2,r2,256
 101188c:	1005003a 	cmpeq	r2,r2,zero
 1011890:	1000351e 	bne	r2,zero,1011968 <altera_avalon_jtag_uart_irq+0x130>
    {
      /* process a read irq.  Start by assuming that there is data in the
       * receive FIFO (otherwise why would we have been interrupted?)
       */
      unsigned int data = 1 << ALTERA_AVALON_JTAG_UART_DATA_RAVAIL_OFST;
 1011894:	00800074 	movhi	r2,1
 1011898:	e0bffa15 	stw	r2,-24(fp)
      for ( ; ; )
      {
        /* Check whether there is space in the buffer.  If not then we must not
         * read any characters from the buffer as they will be lost.
         */
        unsigned int next = (sp->rx_in + 1) % ALTERA_AVALON_JTAG_UART_BUF_LEN;
 101189c:	e0bffd17 	ldw	r2,-12(fp)
 10118a0:	10800a17 	ldw	r2,40(r2)
 10118a4:	10800044 	addi	r2,r2,1
 10118a8:	1081ffcc 	andi	r2,r2,2047
 10118ac:	e0bff915 	stw	r2,-28(fp)
        if (next == sp->rx_out)
 10118b0:	e0bffd17 	ldw	r2,-12(fp)
 10118b4:	10c00b17 	ldw	r3,44(r2)
 10118b8:	e0bff917 	ldw	r2,-28(fp)
 10118bc:	18801626 	beq	r3,r2,1011918 <altera_avalon_jtag_uart_irq+0xe0>
          break;

        /* Try to remove a character from the FIFO and find out whether there
         * are any more characters remaining.
         */
        data = IORD_ALTERA_AVALON_JTAG_UART_DATA(base);
 10118c0:	e0bffc17 	ldw	r2,-16(fp)
 10118c4:	10800037 	ldwio	r2,0(r2)
 10118c8:	e0bffa15 	stw	r2,-24(fp)
        
        if ((data & ALTERA_AVALON_JTAG_UART_DATA_RVALID_MSK) == 0)
 10118cc:	e0bffa17 	ldw	r2,-24(fp)
 10118d0:	10a0000c 	andi	r2,r2,32768
 10118d4:	1005003a 	cmpeq	r2,r2,zero
 10118d8:	10000f1e 	bne	r2,zero,1011918 <altera_avalon_jtag_uart_irq+0xe0>
          break;

        sp->rx_buf[sp->rx_in] = (data & ALTERA_AVALON_JTAG_UART_DATA_DATA_MSK) >> ALTERA_AVALON_JTAG_UART_DATA_DATA_OFST;
 10118dc:	e0bffd17 	ldw	r2,-12(fp)
 10118e0:	10c00a17 	ldw	r3,40(r2)
 10118e4:	e0bffa17 	ldw	r2,-24(fp)
 10118e8:	1009883a 	mov	r4,r2
 10118ec:	e0bffd17 	ldw	r2,-12(fp)
 10118f0:	1885883a 	add	r2,r3,r2
 10118f4:	10800e04 	addi	r2,r2,56
 10118f8:	11000005 	stb	r4,0(r2)
        sp->rx_in = (sp->rx_in + 1) % ALTERA_AVALON_JTAG_UART_BUF_LEN;
 10118fc:	e0bffd17 	ldw	r2,-12(fp)
 1011900:	10800a17 	ldw	r2,40(r2)
 1011904:	10800044 	addi	r2,r2,1
 1011908:	10c1ffcc 	andi	r3,r2,2047
 101190c:	e0bffd17 	ldw	r2,-12(fp)
 1011910:	10c00a15 	stw	r3,40(r2)

        /* Post an event to notify jtag_uart_read that a character has been read */
        ALT_FLAG_POST (sp->events, ALT_JTAG_UART_READ_RDY, OS_FLAG_SET);
      }
 1011914:	003fe106 	br	101189c <altera_avalon_jtag_uart_irq+0x64>

      if (data & ALTERA_AVALON_JTAG_UART_DATA_RAVAIL_MSK)
 1011918:	e0bffa17 	ldw	r2,-24(fp)
 101191c:	10bfffec 	andhi	r2,r2,65535
 1011920:	1005003a 	cmpeq	r2,r2,zero
 1011924:	1000101e 	bne	r2,zero,1011968 <altera_avalon_jtag_uart_irq+0x130>
      {
        /* If there is still data available here then the buffer is full 
         * so turn off receive interrupts until some space becomes available.
         */
        sp->irq_enable &= ~ALTERA_AVALON_JTAG_UART_CONTROL_RE_MSK;
 1011928:	e0bffd17 	ldw	r2,-12(fp)
 101192c:	10c00817 	ldw	r3,32(r2)
 1011930:	00bfff84 	movi	r2,-2
 1011934:	1886703a 	and	r3,r3,r2
 1011938:	e0bffd17 	ldw	r2,-12(fp)
 101193c:	10c00815 	stw	r3,32(r2)
        IOWR_ALTERA_AVALON_JTAG_UART_CONTROL(base, sp->irq_enable);
 1011940:	e0bffc17 	ldw	r2,-16(fp)
 1011944:	11000104 	addi	r4,r2,4
 1011948:	e0bffd17 	ldw	r2,-12(fp)
 101194c:	10800817 	ldw	r2,32(r2)
 1011950:	1007883a 	mov	r3,r2
 1011954:	2005883a 	mov	r2,r4
 1011958:	10c00035 	stwio	r3,0(r2)
        
        /* Dummy read to ensure IRQ is cleared prior to ISR completion */
        IORD_ALTERA_AVALON_JTAG_UART_CONTROL(base);
 101195c:	e0bffc17 	ldw	r2,-16(fp)
 1011960:	10800104 	addi	r2,r2,4
 1011964:	10800037 	ldwio	r2,0(r2)
      }
    }

    if (control & ALTERA_AVALON_JTAG_UART_CONTROL_WI_MSK)
 1011968:	e0bffb17 	ldw	r2,-20(fp)
 101196c:	1080800c 	andi	r2,r2,512
 1011970:	1005003a 	cmpeq	r2,r2,zero
 1011974:	103fbb1e 	bne	r2,zero,1011864 <altera_avalon_jtag_uart_irq+0x2c>
    {
      /* process a write irq */
      unsigned int space = (control & ALTERA_AVALON_JTAG_UART_CONTROL_WSPACE_MSK) >> ALTERA_AVALON_JTAG_UART_CONTROL_WSPACE_OFST;
 1011978:	e0bffb17 	ldw	r2,-20(fp)
 101197c:	10bfffec 	andhi	r2,r2,65535
 1011980:	1004d43a 	srli	r2,r2,16
 1011984:	e0bff815 	stw	r2,-32(fp)

      while (space > 0 && sp->tx_out != sp->tx_in)
 1011988:	00001506 	br	10119e0 <altera_avalon_jtag_uart_irq+0x1a8>
      {
        IOWR_ALTERA_AVALON_JTAG_UART_DATA(base, sp->tx_buf[sp->tx_out]);
 101198c:	e13ffc17 	ldw	r4,-16(fp)
 1011990:	e0bffd17 	ldw	r2,-12(fp)
 1011994:	10c00d17 	ldw	r3,52(r2)
 1011998:	e0bffd17 	ldw	r2,-12(fp)
 101199c:	1885883a 	add	r2,r3,r2
 10119a0:	10820e04 	addi	r2,r2,2104
 10119a4:	10800003 	ldbu	r2,0(r2)
 10119a8:	10c03fcc 	andi	r3,r2,255
 10119ac:	18c0201c 	xori	r3,r3,128
 10119b0:	18ffe004 	addi	r3,r3,-128
 10119b4:	2005883a 	mov	r2,r4
 10119b8:	10c00035 	stwio	r3,0(r2)

        sp->tx_out = (sp->tx_out + 1) % ALTERA_AVALON_JTAG_UART_BUF_LEN;
 10119bc:	e0bffd17 	ldw	r2,-12(fp)
 10119c0:	10800d17 	ldw	r2,52(r2)
 10119c4:	10800044 	addi	r2,r2,1
 10119c8:	10c1ffcc 	andi	r3,r2,2047
 10119cc:	e0bffd17 	ldw	r2,-12(fp)
 10119d0:	10c00d15 	stw	r3,52(r2)

        /* Post an event to notify jtag_uart_write that a character has been written */
        ALT_FLAG_POST (sp->events, ALT_JTAG_UART_WRITE_RDY, OS_FLAG_SET);

        space--;
 10119d4:	e0bff817 	ldw	r2,-32(fp)
 10119d8:	10bfffc4 	addi	r2,r2,-1
 10119dc:	e0bff815 	stw	r2,-32(fp)
    if (control & ALTERA_AVALON_JTAG_UART_CONTROL_WI_MSK)
    {
      /* process a write irq */
      unsigned int space = (control & ALTERA_AVALON_JTAG_UART_CONTROL_WSPACE_MSK) >> ALTERA_AVALON_JTAG_UART_CONTROL_WSPACE_OFST;

      while (space > 0 && sp->tx_out != sp->tx_in)
 10119e0:	e0bff817 	ldw	r2,-32(fp)
 10119e4:	1005003a 	cmpeq	r2,r2,zero
 10119e8:	1000051e 	bne	r2,zero,1011a00 <altera_avalon_jtag_uart_irq+0x1c8>
 10119ec:	e0bffd17 	ldw	r2,-12(fp)
 10119f0:	10c00d17 	ldw	r3,52(r2)
 10119f4:	e0bffd17 	ldw	r2,-12(fp)
 10119f8:	10800c17 	ldw	r2,48(r2)
 10119fc:	18bfe31e 	bne	r3,r2,101198c <altera_avalon_jtag_uart_irq+0x154>
        ALT_FLAG_POST (sp->events, ALT_JTAG_UART_WRITE_RDY, OS_FLAG_SET);

        space--;
      }

      if (space > 0)
 1011a00:	e0bff817 	ldw	r2,-32(fp)
 1011a04:	1005003a 	cmpeq	r2,r2,zero
 1011a08:	103f961e 	bne	r2,zero,1011864 <altera_avalon_jtag_uart_irq+0x2c>
      {
        /* If we don't have any more data available then turn off the TX interrupt */
        sp->irq_enable &= ~ALTERA_AVALON_JTAG_UART_CONTROL_WE_MSK;
 1011a0c:	e0bffd17 	ldw	r2,-12(fp)
 1011a10:	10c00817 	ldw	r3,32(r2)
 1011a14:	00bfff44 	movi	r2,-3
 1011a18:	1886703a 	and	r3,r3,r2
 1011a1c:	e0bffd17 	ldw	r2,-12(fp)
 1011a20:	10c00815 	stw	r3,32(r2)
        IOWR_ALTERA_AVALON_JTAG_UART_CONTROL(sp->base, sp->irq_enable);
 1011a24:	e0bffd17 	ldw	r2,-12(fp)
 1011a28:	10800017 	ldw	r2,0(r2)
 1011a2c:	11000104 	addi	r4,r2,4
 1011a30:	e0bffd17 	ldw	r2,-12(fp)
 1011a34:	10800817 	ldw	r2,32(r2)
 1011a38:	1007883a 	mov	r3,r2
 1011a3c:	2005883a 	mov	r2,r4
 1011a40:	10c00035 	stwio	r3,0(r2)
        
        /* Dummy read to ensure IRQ is cleared prior to ISR completion */
        IORD_ALTERA_AVALON_JTAG_UART_CONTROL(base);
 1011a44:	e0bffc17 	ldw	r2,-16(fp)
 1011a48:	10800104 	addi	r2,r2,4
 1011a4c:	10800037 	ldwio	r2,0(r2)
      }
    }
  }
 1011a50:	003f8406 	br	1011864 <altera_avalon_jtag_uart_irq+0x2c>
}
 1011a54:	e037883a 	mov	sp,fp
 1011a58:	df000017 	ldw	fp,0(sp)
 1011a5c:	dec00104 	addi	sp,sp,4
 1011a60:	f800283a 	ret

01011a64 <altera_avalon_jtag_uart_timeout>:
 * Timeout routine is called every second
 */

static alt_u32 
altera_avalon_jtag_uart_timeout(void* context) 
{
 1011a64:	defffc04 	addi	sp,sp,-16
 1011a68:	df000315 	stw	fp,12(sp)
 1011a6c:	df000304 	addi	fp,sp,12
 1011a70:	e13fff15 	stw	r4,-4(fp)
  altera_avalon_jtag_uart_state* sp = (altera_avalon_jtag_uart_state *) context;
 1011a74:	e0bfff17 	ldw	r2,-4(fp)
 1011a78:	e0bffe15 	stw	r2,-8(fp)

  unsigned int control = IORD_ALTERA_AVALON_JTAG_UART_CONTROL(sp->base);
 1011a7c:	e0bffe17 	ldw	r2,-8(fp)
 1011a80:	10800017 	ldw	r2,0(r2)
 1011a84:	10800104 	addi	r2,r2,4
 1011a88:	10800037 	ldwio	r2,0(r2)
 1011a8c:	e0bffd15 	stw	r2,-12(fp)

  if (control & ALTERA_AVALON_JTAG_UART_CONTROL_AC_MSK)
 1011a90:	e0bffd17 	ldw	r2,-12(fp)
 1011a94:	1081000c 	andi	r2,r2,1024
 1011a98:	1005003a 	cmpeq	r2,r2,zero
 1011a9c:	10000c1e 	bne	r2,zero,1011ad0 <altera_avalon_jtag_uart_timeout+0x6c>
  {
    IOWR_ALTERA_AVALON_JTAG_UART_CONTROL(sp->base, sp->irq_enable | ALTERA_AVALON_JTAG_UART_CONTROL_AC_MSK);
 1011aa0:	e0bffe17 	ldw	r2,-8(fp)
 1011aa4:	10800017 	ldw	r2,0(r2)
 1011aa8:	11000104 	addi	r4,r2,4
 1011aac:	e0bffe17 	ldw	r2,-8(fp)
 1011ab0:	10800817 	ldw	r2,32(r2)
 1011ab4:	10810014 	ori	r2,r2,1024
 1011ab8:	1007883a 	mov	r3,r2
 1011abc:	2005883a 	mov	r2,r4
 1011ac0:	10c00035 	stwio	r3,0(r2)
    sp->host_inactive = 0;
 1011ac4:	e0bffe17 	ldw	r2,-8(fp)
 1011ac8:	10000915 	stw	zero,36(r2)
 1011acc:	00000a06 	br	1011af8 <altera_avalon_jtag_uart_timeout+0x94>
  }
  else if (sp->host_inactive < INT_MAX - 2) {
 1011ad0:	e0bffe17 	ldw	r2,-8(fp)
 1011ad4:	10c00917 	ldw	r3,36(r2)
 1011ad8:	00a00034 	movhi	r2,32768
 1011adc:	10bfff04 	addi	r2,r2,-4
 1011ae0:	10c00536 	bltu	r2,r3,1011af8 <altera_avalon_jtag_uart_timeout+0x94>
    sp->host_inactive++;
 1011ae4:	e0bffe17 	ldw	r2,-8(fp)
 1011ae8:	10800917 	ldw	r2,36(r2)
 1011aec:	10c00044 	addi	r3,r2,1
 1011af0:	e0bffe17 	ldw	r2,-8(fp)
 1011af4:	10c00915 	stw	r3,36(r2)
 1011af8:	00804074 	movhi	r2,257
 1011afc:	109f0004 	addi	r2,r2,31744
 1011b00:	10800017 	ldw	r2,0(r2)
      ALT_FLAG_POST (sp->events, ALT_JTAG_UART_TIMEOUT, OS_FLAG_SET);
    }
  }

  return alt_ticks_per_second();
}
 1011b04:	e037883a 	mov	sp,fp
 1011b08:	df000017 	ldw	fp,0(sp)
 1011b0c:	dec00104 	addi	sp,sp,4
 1011b10:	f800283a 	ret

01011b14 <altera_avalon_jtag_uart_close>:
 * The close routine is not implemented for the small driver; instead it will
 * map to null. This is because the small driver simply waits while characters
 * are transmitted; there is no interrupt-serviced buffer to empty 
 */
int altera_avalon_jtag_uart_close(altera_avalon_jtag_uart_state* sp, int flags)
{
 1011b14:	defffc04 	addi	sp,sp,-16
 1011b18:	df000315 	stw	fp,12(sp)
 1011b1c:	df000304 	addi	fp,sp,12
 1011b20:	e13ffd15 	stw	r4,-12(fp)
 1011b24:	e17ffe15 	stw	r5,-8(fp)
  /* 
   * Wait for all transmit data to be emptied by the JTAG UART ISR, or
   * for a host-inactivity timeout, in which case transmit data will be lost
   */
  while ( (sp->tx_out != sp->tx_in) && (sp->host_inactive < sp->timeout) ) {
 1011b28:	00000706 	br	1011b48 <altera_avalon_jtag_uart_close+0x34>
    if (flags & O_NONBLOCK) {
 1011b2c:	e0bffe17 	ldw	r2,-8(fp)
 1011b30:	1090000c 	andi	r2,r2,16384
 1011b34:	1005003a 	cmpeq	r2,r2,zero
 1011b38:	1000031e 	bne	r2,zero,1011b48 <altera_avalon_jtag_uart_close+0x34>
      return -EWOULDBLOCK; 
 1011b3c:	00bffd44 	movi	r2,-11
 1011b40:	e0bfff15 	stw	r2,-4(fp)
 1011b44:	00000b06 	br	1011b74 <altera_avalon_jtag_uart_close+0x60>
{
  /* 
   * Wait for all transmit data to be emptied by the JTAG UART ISR, or
   * for a host-inactivity timeout, in which case transmit data will be lost
   */
  while ( (sp->tx_out != sp->tx_in) && (sp->host_inactive < sp->timeout) ) {
 1011b48:	e0bffd17 	ldw	r2,-12(fp)
 1011b4c:	10c00d17 	ldw	r3,52(r2)
 1011b50:	e0bffd17 	ldw	r2,-12(fp)
 1011b54:	10800c17 	ldw	r2,48(r2)
 1011b58:	18800526 	beq	r3,r2,1011b70 <altera_avalon_jtag_uart_close+0x5c>
 1011b5c:	e0bffd17 	ldw	r2,-12(fp)
 1011b60:	10c00917 	ldw	r3,36(r2)
 1011b64:	e0bffd17 	ldw	r2,-12(fp)
 1011b68:	10800117 	ldw	r2,4(r2)
 1011b6c:	18bfef36 	bltu	r3,r2,1011b2c <altera_avalon_jtag_uart_close+0x18>
    if (flags & O_NONBLOCK) {
      return -EWOULDBLOCK; 
    }
  }

  return 0;
 1011b70:	e03fff15 	stw	zero,-4(fp)
 1011b74:	e0bfff17 	ldw	r2,-4(fp)
}
 1011b78:	e037883a 	mov	sp,fp
 1011b7c:	df000017 	ldw	fp,0(sp)
 1011b80:	dec00104 	addi	sp,sp,4
 1011b84:	f800283a 	ret

01011b88 <altera_avalon_jtag_uart_ioctl>:
/* ----------------------------------------------------------- */

int 
altera_avalon_jtag_uart_ioctl(altera_avalon_jtag_uart_state* sp, int req,
  void* arg)
{
 1011b88:	defff804 	addi	sp,sp,-32
 1011b8c:	df000715 	stw	fp,28(sp)
 1011b90:	df000704 	addi	fp,sp,28
 1011b94:	e13ffb15 	stw	r4,-20(fp)
 1011b98:	e17ffc15 	stw	r5,-16(fp)
 1011b9c:	e1bffd15 	stw	r6,-12(fp)
  int rc = -ENOTTY;
 1011ba0:	00bff9c4 	movi	r2,-25
 1011ba4:	e0bffa15 	stw	r2,-24(fp)

  switch (req)
 1011ba8:	e0bffc17 	ldw	r2,-16(fp)
 1011bac:	e0bfff15 	stw	r2,-4(fp)
 1011bb0:	e0ffff17 	ldw	r3,-4(fp)
 1011bb4:	189a8060 	cmpeqi	r2,r3,27137
 1011bb8:	1000041e 	bne	r2,zero,1011bcc <altera_avalon_jtag_uart_ioctl+0x44>
 1011bbc:	e0ffff17 	ldw	r3,-4(fp)
 1011bc0:	189a80a0 	cmpeqi	r2,r3,27138
 1011bc4:	10001b1e 	bne	r2,zero,1011c34 <altera_avalon_jtag_uart_ioctl+0xac>
 1011bc8:	00002706 	br	1011c68 <altera_avalon_jtag_uart_ioctl+0xe0>
  {
  case TIOCSTIMEOUT:
    /* Set the time to wait until assuming host is not connected */
    if (sp->timeout != INT_MAX)
 1011bcc:	e0bffb17 	ldw	r2,-20(fp)
 1011bd0:	10c00117 	ldw	r3,4(r2)
 1011bd4:	00a00034 	movhi	r2,32768
 1011bd8:	10bfffc4 	addi	r2,r2,-1
 1011bdc:	18802226 	beq	r3,r2,1011c68 <altera_avalon_jtag_uart_ioctl+0xe0>
    {
      int timeout = *((int *)arg);
 1011be0:	e0bffd17 	ldw	r2,-12(fp)
 1011be4:	10800017 	ldw	r2,0(r2)
 1011be8:	e0bff915 	stw	r2,-28(fp)
      sp->timeout = (timeout >= 2 && timeout < INT_MAX) ? timeout : INT_MAX - 1;
 1011bec:	e0bff917 	ldw	r2,-28(fp)
 1011bf0:	10800090 	cmplti	r2,r2,2
 1011bf4:	1000071e 	bne	r2,zero,1011c14 <altera_avalon_jtag_uart_ioctl+0x8c>
 1011bf8:	e0fff917 	ldw	r3,-28(fp)
 1011bfc:	00a00034 	movhi	r2,32768
 1011c00:	10bfffc4 	addi	r2,r2,-1
 1011c04:	18800326 	beq	r3,r2,1011c14 <altera_avalon_jtag_uart_ioctl+0x8c>
 1011c08:	e0bff917 	ldw	r2,-28(fp)
 1011c0c:	e0bffe15 	stw	r2,-8(fp)
 1011c10:	00000306 	br	1011c20 <altera_avalon_jtag_uart_ioctl+0x98>
 1011c14:	00e00034 	movhi	r3,32768
 1011c18:	18ffff84 	addi	r3,r3,-2
 1011c1c:	e0fffe15 	stw	r3,-8(fp)
 1011c20:	e0bffb17 	ldw	r2,-20(fp)
 1011c24:	e0fffe17 	ldw	r3,-8(fp)
 1011c28:	10c00115 	stw	r3,4(r2)
      rc = 0;
 1011c2c:	e03ffa15 	stw	zero,-24(fp)
    }
    break;
 1011c30:	00000d06 	br	1011c68 <altera_avalon_jtag_uart_ioctl+0xe0>

  case TIOCGCONNECTED:
    /* Find out whether host is connected */
    if (sp->timeout != INT_MAX)
 1011c34:	e0bffb17 	ldw	r2,-20(fp)
 1011c38:	10c00117 	ldw	r3,4(r2)
 1011c3c:	00a00034 	movhi	r2,32768
 1011c40:	10bfffc4 	addi	r2,r2,-1
 1011c44:	18800826 	beq	r3,r2,1011c68 <altera_avalon_jtag_uart_ioctl+0xe0>
    {
      *((int *)arg) = (sp->host_inactive < sp->timeout) ? 1 : 0;
 1011c48:	e13ffd17 	ldw	r4,-12(fp)
 1011c4c:	e0bffb17 	ldw	r2,-20(fp)
 1011c50:	10c00917 	ldw	r3,36(r2)
 1011c54:	e0bffb17 	ldw	r2,-20(fp)
 1011c58:	10800117 	ldw	r2,4(r2)
 1011c5c:	1885803a 	cmpltu	r2,r3,r2
 1011c60:	20800015 	stw	r2,0(r4)
      rc = 0;
 1011c64:	e03ffa15 	stw	zero,-24(fp)

  default:
    break;
  }

  return rc;
 1011c68:	e0bffa17 	ldw	r2,-24(fp)
}
 1011c6c:	e037883a 	mov	sp,fp
 1011c70:	df000017 	ldw	fp,0(sp)
 1011c74:	dec00104 	addi	sp,sp,4
 1011c78:	f800283a 	ret

01011c7c <altera_avalon_jtag_uart_read>:
/* ----------------------------------------------------------- */

int 
altera_avalon_jtag_uart_read(altera_avalon_jtag_uart_state* sp, 
  char * buffer, int space, int flags)
{
 1011c7c:	defff204 	addi	sp,sp,-56
 1011c80:	dfc00d15 	stw	ra,52(sp)
 1011c84:	df000c15 	stw	fp,48(sp)
 1011c88:	df000c04 	addi	fp,sp,48
 1011c8c:	e13ffb15 	stw	r4,-20(fp)
 1011c90:	e17ffc15 	stw	r5,-16(fp)
 1011c94:	e1bffd15 	stw	r6,-12(fp)
 1011c98:	e1fffe15 	stw	r7,-8(fp)
  char * ptr = buffer;
 1011c9c:	e0bffc17 	ldw	r2,-16(fp)
 1011ca0:	e0bffa15 	stw	r2,-24(fp)
   * When running in a multi threaded environment, obtain the "read_lock"
   * semaphore. This ensures that reading from the device is thread-safe.
   */
  ALT_SEM_PEND (sp->read_lock, 0);

  while (space > 0)
 1011ca4:	00004806 	br	1011dc8 <altera_avalon_jtag_uart_read+0x14c>
    unsigned int in, out;

    /* Read as much data as possible */
    do
    {
      in  = sp->rx_in;
 1011ca8:	e0bffb17 	ldw	r2,-20(fp)
 1011cac:	10800a17 	ldw	r2,40(r2)
 1011cb0:	e0bff715 	stw	r2,-36(fp)
      out = sp->rx_out;
 1011cb4:	e0bffb17 	ldw	r2,-20(fp)
 1011cb8:	10800b17 	ldw	r2,44(r2)
 1011cbc:	e0bff615 	stw	r2,-40(fp)

      if (in >= out)
 1011cc0:	e0fff717 	ldw	r3,-36(fp)
 1011cc4:	e0bff617 	ldw	r2,-40(fp)
 1011cc8:	18800536 	bltu	r3,r2,1011ce0 <altera_avalon_jtag_uart_read+0x64>
        n = in - out;
 1011ccc:	e0bff717 	ldw	r2,-36(fp)
 1011cd0:	e0fff617 	ldw	r3,-40(fp)
 1011cd4:	10c5c83a 	sub	r2,r2,r3
 1011cd8:	e0bff815 	stw	r2,-32(fp)
 1011cdc:	00000406 	br	1011cf0 <altera_avalon_jtag_uart_read+0x74>
      else
        n = ALTERA_AVALON_JTAG_UART_BUF_LEN - out;
 1011ce0:	00820004 	movi	r2,2048
 1011ce4:	e0fff617 	ldw	r3,-40(fp)
 1011ce8:	10c5c83a 	sub	r2,r2,r3
 1011cec:	e0bff815 	stw	r2,-32(fp)

      if (n == 0)
 1011cf0:	e0bff817 	ldw	r2,-32(fp)
 1011cf4:	1005003a 	cmpeq	r2,r2,zero
 1011cf8:	10001f1e 	bne	r2,zero,1011d78 <altera_avalon_jtag_uart_read+0xfc>
        break; /* No more data available */

      if (n > space)
 1011cfc:	e0fffd17 	ldw	r3,-12(fp)
 1011d00:	e0bff817 	ldw	r2,-32(fp)
 1011d04:	1880022e 	bgeu	r3,r2,1011d10 <altera_avalon_jtag_uart_read+0x94>
        n = space;
 1011d08:	e0bffd17 	ldw	r2,-12(fp)
 1011d0c:	e0bff815 	stw	r2,-32(fp)

      memcpy(ptr, sp->rx_buf + out, n);
 1011d10:	e0bffb17 	ldw	r2,-20(fp)
 1011d14:	10c00e04 	addi	r3,r2,56
 1011d18:	e0bff617 	ldw	r2,-40(fp)
 1011d1c:	1887883a 	add	r3,r3,r2
 1011d20:	e0bffa17 	ldw	r2,-24(fp)
 1011d24:	1009883a 	mov	r4,r2
 1011d28:	180b883a 	mov	r5,r3
 1011d2c:	e1bff817 	ldw	r6,-32(fp)
 1011d30:	1005d200 	call	1005d20 <memcpy>
      ptr   += n;
 1011d34:	e0fff817 	ldw	r3,-32(fp)
 1011d38:	e0bffa17 	ldw	r2,-24(fp)
 1011d3c:	10c5883a 	add	r2,r2,r3
 1011d40:	e0bffa15 	stw	r2,-24(fp)
      space -= n;
 1011d44:	e0fffd17 	ldw	r3,-12(fp)
 1011d48:	e0bff817 	ldw	r2,-32(fp)
 1011d4c:	1885c83a 	sub	r2,r3,r2
 1011d50:	e0bffd15 	stw	r2,-12(fp)

      sp->rx_out = (out + n) % ALTERA_AVALON_JTAG_UART_BUF_LEN;
 1011d54:	e0fff617 	ldw	r3,-40(fp)
 1011d58:	e0bff817 	ldw	r2,-32(fp)
 1011d5c:	1885883a 	add	r2,r3,r2
 1011d60:	10c1ffcc 	andi	r3,r2,2047
 1011d64:	e0bffb17 	ldw	r2,-20(fp)
 1011d68:	10c00b15 	stw	r3,44(r2)
    }
    while (space > 0);
 1011d6c:	e0bffd17 	ldw	r2,-12(fp)
 1011d70:	10800048 	cmpgei	r2,r2,1
 1011d74:	103fcc1e 	bne	r2,zero,1011ca8 <altera_avalon_jtag_uart_read+0x2c>

    /* If we read any data then return it */
    if (ptr != buffer)
 1011d78:	e0fffa17 	ldw	r3,-24(fp)
 1011d7c:	e0bffc17 	ldw	r2,-16(fp)
 1011d80:	1880141e 	bne	r3,r2,1011dd4 <altera_avalon_jtag_uart_read+0x158>
      break;

    /* If in non-blocking mode then return error */
    if (flags & O_NONBLOCK)
 1011d84:	e0bffe17 	ldw	r2,-8(fp)
 1011d88:	1090000c 	andi	r2,r2,16384
 1011d8c:	1004c03a 	cmpne	r2,r2,zero
 1011d90:	1000101e 	bne	r2,zero,1011dd4 <altera_avalon_jtag_uart_read+0x158>
      while (in == sp->rx_in && sp->host_inactive < sp->timeout)
        ;
    }
#else
    /* No OS: Always spin */
    while (in == sp->rx_in && sp->host_inactive < sp->timeout)
 1011d94:	e0bffb17 	ldw	r2,-20(fp)
 1011d98:	10c00a17 	ldw	r3,40(r2)
 1011d9c:	e0bff717 	ldw	r2,-36(fp)
 1011da0:	1880051e 	bne	r3,r2,1011db8 <altera_avalon_jtag_uart_read+0x13c>
 1011da4:	e0bffb17 	ldw	r2,-20(fp)
 1011da8:	10c00917 	ldw	r3,36(r2)
 1011dac:	e0bffb17 	ldw	r2,-20(fp)
 1011db0:	10800117 	ldw	r2,4(r2)
 1011db4:	18bff736 	bltu	r3,r2,1011d94 <altera_avalon_jtag_uart_read+0x118>
      ;
#endif /* __ucosii__ */

    if (in == sp->rx_in)
 1011db8:	e0bffb17 	ldw	r2,-20(fp)
 1011dbc:	10c00a17 	ldw	r3,40(r2)
 1011dc0:	e0bff717 	ldw	r2,-36(fp)
 1011dc4:	18800326 	beq	r3,r2,1011dd4 <altera_avalon_jtag_uart_read+0x158>
   * When running in a multi threaded environment, obtain the "read_lock"
   * semaphore. This ensures that reading from the device is thread-safe.
   */
  ALT_SEM_PEND (sp->read_lock, 0);

  while (space > 0)
 1011dc8:	e0bffd17 	ldw	r2,-12(fp)
 1011dcc:	10800048 	cmpgei	r2,r2,1
 1011dd0:	103fb51e 	bne	r2,zero,1011ca8 <altera_avalon_jtag_uart_read+0x2c>
   * semaphore so that other threads can access the buffer.
   */

  ALT_SEM_POST (sp->read_lock);

  if (ptr != buffer)
 1011dd4:	e0fffa17 	ldw	r3,-24(fp)
 1011dd8:	e0bffc17 	ldw	r2,-16(fp)
 1011ddc:	18801926 	beq	r3,r2,1011e44 <altera_avalon_jtag_uart_read+0x1c8>
static ALT_INLINE alt_irq_context ALT_ALWAYS_INLINE 
       alt_irq_disable_all (void)
{
  alt_irq_context context;

  NIOS2_READ_STATUS (context);
 1011de0:	0005303a 	rdctl	r2,status
 1011de4:	e0bff515 	stw	r2,-44(fp)

  NIOS2_WRITE_STATUS (context & ~NIOS2_STATUS_PIE_MSK);
 1011de8:	e0fff517 	ldw	r3,-44(fp)
 1011dec:	00bfff84 	movi	r2,-2
 1011df0:	1884703a 	and	r2,r3,r2
 1011df4:	1001703a 	wrctl	status,r2
  
  return context;
 1011df8:	e0bff517 	ldw	r2,-44(fp)
  {
    /* If we read any data then there is space in the buffer so enable interrupts */
    context = alt_irq_disable_all();
 1011dfc:	e0bff915 	stw	r2,-28(fp)
    sp->irq_enable |= ALTERA_AVALON_JTAG_UART_CONTROL_RE_MSK;
 1011e00:	e0bffb17 	ldw	r2,-20(fp)
 1011e04:	10800817 	ldw	r2,32(r2)
 1011e08:	10c00054 	ori	r3,r2,1
 1011e0c:	e0bffb17 	ldw	r2,-20(fp)
 1011e10:	10c00815 	stw	r3,32(r2)
    IOWR_ALTERA_AVALON_JTAG_UART_CONTROL(sp->base, sp->irq_enable);
 1011e14:	e0bffb17 	ldw	r2,-20(fp)
 1011e18:	10800017 	ldw	r2,0(r2)
 1011e1c:	11000104 	addi	r4,r2,4
 1011e20:	e0bffb17 	ldw	r2,-20(fp)
 1011e24:	10800817 	ldw	r2,32(r2)
 1011e28:	1007883a 	mov	r3,r2
 1011e2c:	2005883a 	mov	r2,r4
 1011e30:	10c00035 	stwio	r3,0(r2)
 1011e34:	e0bff917 	ldw	r2,-28(fp)
 1011e38:	e0bff415 	stw	r2,-48(fp)
  status &= ~NIOS2_STATUS_PIE_MSK;
  status |= (context & NIOS2_STATUS_PIE_MSK);
  
  NIOS2_WRITE_STATUS (status);
#else
  NIOS2_WRITE_STATUS (context);
 1011e3c:	e0bff417 	ldw	r2,-48(fp)
 1011e40:	1001703a 	wrctl	status,r2
    alt_irq_enable_all(context);
  }

  if (ptr != buffer)
 1011e44:	e0fffa17 	ldw	r3,-24(fp)
 1011e48:	e0bffc17 	ldw	r2,-16(fp)
 1011e4c:	18800526 	beq	r3,r2,1011e64 <altera_avalon_jtag_uart_read+0x1e8>
    return ptr - buffer;
 1011e50:	e0fffa17 	ldw	r3,-24(fp)
 1011e54:	e0bffc17 	ldw	r2,-16(fp)
 1011e58:	1887c83a 	sub	r3,r3,r2
 1011e5c:	e0ffff15 	stw	r3,-4(fp)
 1011e60:	00000906 	br	1011e88 <altera_avalon_jtag_uart_read+0x20c>
  else if (flags & O_NONBLOCK)
 1011e64:	e0bffe17 	ldw	r2,-8(fp)
 1011e68:	1090000c 	andi	r2,r2,16384
 1011e6c:	1005003a 	cmpeq	r2,r2,zero
 1011e70:	1000031e 	bne	r2,zero,1011e80 <altera_avalon_jtag_uart_read+0x204>
    return -EWOULDBLOCK;
 1011e74:	00bffd44 	movi	r2,-11
 1011e78:	e0bfff15 	stw	r2,-4(fp)
 1011e7c:	00000206 	br	1011e88 <altera_avalon_jtag_uart_read+0x20c>
  else
    return -EIO;
 1011e80:	00bffec4 	movi	r2,-5
 1011e84:	e0bfff15 	stw	r2,-4(fp)
 1011e88:	e0bfff17 	ldw	r2,-4(fp)
}
 1011e8c:	e037883a 	mov	sp,fp
 1011e90:	dfc00117 	ldw	ra,4(sp)
 1011e94:	df000017 	ldw	fp,0(sp)
 1011e98:	dec00204 	addi	sp,sp,8
 1011e9c:	f800283a 	ret

01011ea0 <altera_avalon_jtag_uart_write>:
/* ----------------------------------------------------------- */

int 
altera_avalon_jtag_uart_write(altera_avalon_jtag_uart_state* sp, 
  const char * ptr, int count, int flags)
{
 1011ea0:	defff204 	addi	sp,sp,-56
 1011ea4:	dfc00d15 	stw	ra,52(sp)
 1011ea8:	df000c15 	stw	fp,48(sp)
 1011eac:	df000c04 	addi	fp,sp,48
 1011eb0:	e13ffb15 	stw	r4,-20(fp)
 1011eb4:	e17ffc15 	stw	r5,-16(fp)
 1011eb8:	e1bffd15 	stw	r6,-12(fp)
 1011ebc:	e1fffe15 	stw	r7,-8(fp)
  /* Remove warning at optimisation level 03 by seting out to 0 */
  unsigned int in, out=0;
 1011ec0:	e03ff915 	stw	zero,-28(fp)
  unsigned int n;
  alt_irq_context context;

  const char * start = ptr;
 1011ec4:	e0bffc17 	ldw	r2,-16(fp)
 1011ec8:	e0bff615 	stw	r2,-40(fp)
  ALT_SEM_PEND (sp->write_lock, 0);

  do
  {
    /* Copy as much as we can into the transmit buffer */
    while (count > 0)
 1011ecc:	00003a06 	br	1011fb8 <altera_avalon_jtag_uart_write+0x118>
    {
      /* We need a stable value of the out pointer to calculate the space available */
      in  = sp->tx_in;
 1011ed0:	e0bffb17 	ldw	r2,-20(fp)
 1011ed4:	10800c17 	ldw	r2,48(r2)
 1011ed8:	e0bffa15 	stw	r2,-24(fp)
      out = sp->tx_out;
 1011edc:	e0bffb17 	ldw	r2,-20(fp)
 1011ee0:	10800d17 	ldw	r2,52(r2)
 1011ee4:	e0bff915 	stw	r2,-28(fp)

      if (in < out)
 1011ee8:	e0fffa17 	ldw	r3,-24(fp)
 1011eec:	e0bff917 	ldw	r2,-28(fp)
 1011ef0:	1880062e 	bgeu	r3,r2,1011f0c <altera_avalon_jtag_uart_write+0x6c>
        n = out - 1 - in;
 1011ef4:	e0fff917 	ldw	r3,-28(fp)
 1011ef8:	e0bffa17 	ldw	r2,-24(fp)
 1011efc:	1885c83a 	sub	r2,r3,r2
 1011f00:	10bfffc4 	addi	r2,r2,-1
 1011f04:	e0bff815 	stw	r2,-32(fp)
 1011f08:	00000c06 	br	1011f3c <altera_avalon_jtag_uart_write+0x9c>
      else if (out > 0)
 1011f0c:	e0bff917 	ldw	r2,-28(fp)
 1011f10:	1005003a 	cmpeq	r2,r2,zero
 1011f14:	1000051e 	bne	r2,zero,1011f2c <altera_avalon_jtag_uart_write+0x8c>
        n = ALTERA_AVALON_JTAG_UART_BUF_LEN - in;
 1011f18:	00820004 	movi	r2,2048
 1011f1c:	e0fffa17 	ldw	r3,-24(fp)
 1011f20:	10c5c83a 	sub	r2,r2,r3
 1011f24:	e0bff815 	stw	r2,-32(fp)
 1011f28:	00000406 	br	1011f3c <altera_avalon_jtag_uart_write+0x9c>
      else
        n = ALTERA_AVALON_JTAG_UART_BUF_LEN - 1 - in;
 1011f2c:	0081ffc4 	movi	r2,2047
 1011f30:	e0fffa17 	ldw	r3,-24(fp)
 1011f34:	10c5c83a 	sub	r2,r2,r3
 1011f38:	e0bff815 	stw	r2,-32(fp)

      if (n == 0)
 1011f3c:	e0bff817 	ldw	r2,-32(fp)
 1011f40:	1005003a 	cmpeq	r2,r2,zero
 1011f44:	10001f1e 	bne	r2,zero,1011fc4 <altera_avalon_jtag_uart_write+0x124>
        break;

      if (n > count)
 1011f48:	e0fffd17 	ldw	r3,-12(fp)
 1011f4c:	e0bff817 	ldw	r2,-32(fp)
 1011f50:	1880022e 	bgeu	r3,r2,1011f5c <altera_avalon_jtag_uart_write+0xbc>
        n = count;
 1011f54:	e0bffd17 	ldw	r2,-12(fp)
 1011f58:	e0bff815 	stw	r2,-32(fp)

      memcpy(sp->tx_buf + in, ptr, n);
 1011f5c:	e0bffb17 	ldw	r2,-20(fp)
 1011f60:	10c20e04 	addi	r3,r2,2104
 1011f64:	e0bffa17 	ldw	r2,-24(fp)
 1011f68:	1885883a 	add	r2,r3,r2
 1011f6c:	e0fffc17 	ldw	r3,-16(fp)
 1011f70:	1009883a 	mov	r4,r2
 1011f74:	180b883a 	mov	r5,r3
 1011f78:	e1bff817 	ldw	r6,-32(fp)
 1011f7c:	1005d200 	call	1005d20 <memcpy>
      ptr   += n;
 1011f80:	e0fff817 	ldw	r3,-32(fp)
 1011f84:	e0bffc17 	ldw	r2,-16(fp)
 1011f88:	10c5883a 	add	r2,r2,r3
 1011f8c:	e0bffc15 	stw	r2,-16(fp)
      count -= n;
 1011f90:	e0fffd17 	ldw	r3,-12(fp)
 1011f94:	e0bff817 	ldw	r2,-32(fp)
 1011f98:	1885c83a 	sub	r2,r3,r2
 1011f9c:	e0bffd15 	stw	r2,-12(fp)

      sp->tx_in = (in + n) % ALTERA_AVALON_JTAG_UART_BUF_LEN;
 1011fa0:	e0fffa17 	ldw	r3,-24(fp)
 1011fa4:	e0bff817 	ldw	r2,-32(fp)
 1011fa8:	1885883a 	add	r2,r3,r2
 1011fac:	10c1ffcc 	andi	r3,r2,2047
 1011fb0:	e0bffb17 	ldw	r2,-20(fp)
 1011fb4:	10c00c15 	stw	r3,48(r2)
  ALT_SEM_PEND (sp->write_lock, 0);

  do
  {
    /* Copy as much as we can into the transmit buffer */
    while (count > 0)
 1011fb8:	e0bffd17 	ldw	r2,-12(fp)
 1011fbc:	10800048 	cmpgei	r2,r2,1
 1011fc0:	103fc31e 	bne	r2,zero,1011ed0 <altera_avalon_jtag_uart_write+0x30>
static ALT_INLINE alt_irq_context ALT_ALWAYS_INLINE 
       alt_irq_disable_all (void)
{
  alt_irq_context context;

  NIOS2_READ_STATUS (context);
 1011fc4:	0005303a 	rdctl	r2,status
 1011fc8:	e0bff515 	stw	r2,-44(fp)

  NIOS2_WRITE_STATUS (context & ~NIOS2_STATUS_PIE_MSK);
 1011fcc:	e0fff517 	ldw	r3,-44(fp)
 1011fd0:	00bfff84 	movi	r2,-2
 1011fd4:	1884703a 	and	r2,r3,r2
 1011fd8:	1001703a 	wrctl	status,r2
  
  return context;
 1011fdc:	e0bff517 	ldw	r2,-44(fp)
     * to enable interrupts if there is no space left in the FIFO
     *
     * For now kick the interrupt routine every time to make it transmit 
     * the data 
     */
    context = alt_irq_disable_all();
 1011fe0:	e0bff715 	stw	r2,-36(fp)
    sp->irq_enable |= ALTERA_AVALON_JTAG_UART_CONTROL_WE_MSK;
 1011fe4:	e0bffb17 	ldw	r2,-20(fp)
 1011fe8:	10800817 	ldw	r2,32(r2)
 1011fec:	10c00094 	ori	r3,r2,2
 1011ff0:	e0bffb17 	ldw	r2,-20(fp)
 1011ff4:	10c00815 	stw	r3,32(r2)
    IOWR_ALTERA_AVALON_JTAG_UART_CONTROL(sp->base, sp->irq_enable);
 1011ff8:	e0bffb17 	ldw	r2,-20(fp)
 1011ffc:	10800017 	ldw	r2,0(r2)
 1012000:	11000104 	addi	r4,r2,4
 1012004:	e0bffb17 	ldw	r2,-20(fp)
 1012008:	10800817 	ldw	r2,32(r2)
 101200c:	1007883a 	mov	r3,r2
 1012010:	2005883a 	mov	r2,r4
 1012014:	10c00035 	stwio	r3,0(r2)
 1012018:	e0bff717 	ldw	r2,-36(fp)
 101201c:	e0bff415 	stw	r2,-48(fp)
  status &= ~NIOS2_STATUS_PIE_MSK;
  status |= (context & NIOS2_STATUS_PIE_MSK);
  
  NIOS2_WRITE_STATUS (status);
#else
  NIOS2_WRITE_STATUS (context);
 1012020:	e0bff417 	ldw	r2,-48(fp)
 1012024:	1001703a 	wrctl	status,r2
    /* 
     * If there is any data left then either return now or block until 
     * some has been sent 
     */
    /* consider: test whether there is anything there while doing this and delay for at most 2s. */
    if (count > 0)
 1012028:	e0bffd17 	ldw	r2,-12(fp)
 101202c:	10800050 	cmplti	r2,r2,1
 1012030:	1000111e 	bne	r2,zero,1012078 <altera_avalon_jtag_uart_write+0x1d8>
    {
      if (flags & O_NONBLOCK)
 1012034:	e0bffe17 	ldw	r2,-8(fp)
 1012038:	1090000c 	andi	r2,r2,16384
 101203c:	1004c03a 	cmpne	r2,r2,zero
 1012040:	1000101e 	bne	r2,zero,1012084 <altera_avalon_jtag_uart_write+0x1e4>
      /*
       * No OS present: Always wait for data to be removed from buffer.  Once
       * the interrupt routine has removed some data then we will be able to
       * insert some more.
       */
      while (out == sp->tx_out && sp->host_inactive < sp->timeout)
 1012044:	e0bffb17 	ldw	r2,-20(fp)
 1012048:	10c00d17 	ldw	r3,52(r2)
 101204c:	e0bff917 	ldw	r2,-28(fp)
 1012050:	1880051e 	bne	r3,r2,1012068 <altera_avalon_jtag_uart_write+0x1c8>
 1012054:	e0bffb17 	ldw	r2,-20(fp)
 1012058:	10c00917 	ldw	r3,36(r2)
 101205c:	e0bffb17 	ldw	r2,-20(fp)
 1012060:	10800117 	ldw	r2,4(r2)
 1012064:	18bff736 	bltu	r3,r2,1012044 <altera_avalon_jtag_uart_write+0x1a4>
        ;
#endif /* __ucosii__ */

      if (out == sp->tx_out)
 1012068:	e0bffb17 	ldw	r2,-20(fp)
 101206c:	10c00d17 	ldw	r3,52(r2)
 1012070:	e0bff917 	ldw	r2,-28(fp)
 1012074:	18800326 	beq	r3,r2,1012084 <altera_avalon_jtag_uart_write+0x1e4>
         break;
    }
  }
  while (count > 0);
 1012078:	e0bffd17 	ldw	r2,-12(fp)
 101207c:	10800048 	cmpgei	r2,r2,1
 1012080:	103fcd1e 	bne	r2,zero,1011fb8 <altera_avalon_jtag_uart_write+0x118>
   * Now that access to the circular buffer is complete, release the write
   * semaphore so that other threads can access the buffer.
   */
  ALT_SEM_POST (sp->write_lock);

  if (ptr != start)
 1012084:	e0fffc17 	ldw	r3,-16(fp)
 1012088:	e0bff617 	ldw	r2,-40(fp)
 101208c:	18800526 	beq	r3,r2,10120a4 <altera_avalon_jtag_uart_write+0x204>
    return ptr - start;
 1012090:	e0fffc17 	ldw	r3,-16(fp)
 1012094:	e0bff617 	ldw	r2,-40(fp)
 1012098:	1887c83a 	sub	r3,r3,r2
 101209c:	e0ffff15 	stw	r3,-4(fp)
 10120a0:	00000906 	br	10120c8 <altera_avalon_jtag_uart_write+0x228>
  else if (flags & O_NONBLOCK)
 10120a4:	e0bffe17 	ldw	r2,-8(fp)
 10120a8:	1090000c 	andi	r2,r2,16384
 10120ac:	1005003a 	cmpeq	r2,r2,zero
 10120b0:	1000031e 	bne	r2,zero,10120c0 <altera_avalon_jtag_uart_write+0x220>
    return -EWOULDBLOCK;
 10120b4:	00bffd44 	movi	r2,-11
 10120b8:	e0bfff15 	stw	r2,-4(fp)
 10120bc:	00000206 	br	10120c8 <altera_avalon_jtag_uart_write+0x228>
    sp->tx_out = sp->tx_in = 0;
    return ptr - start + count;
  }
#endif
  else
    return -EIO; /* Host not connected */
 10120c0:	00bffec4 	movi	r2,-5
 10120c4:	e0bfff15 	stw	r2,-4(fp)
 10120c8:	e0bfff17 	ldw	r2,-4(fp)
}
 10120cc:	e037883a 	mov	sp,fp
 10120d0:	dfc00117 	ldw	ra,4(sp)
 10120d4:	df000017 	ldw	fp,0(sp)
 10120d8:	dec00204 	addi	sp,sp,8
 10120dc:	f800283a 	ret

010120e0 <alt_avalon_timer_sc_irq>:
#ifdef ALT_ENHANCED_INTERRUPT_API_PRESENT
static void alt_avalon_timer_sc_irq (void* base)
#else
static void alt_avalon_timer_sc_irq (void* base, alt_u32 id)
#endif
{
 10120e0:	defff904 	addi	sp,sp,-28
 10120e4:	dfc00615 	stw	ra,24(sp)
 10120e8:	df000515 	stw	fp,20(sp)
 10120ec:	df000504 	addi	fp,sp,20
 10120f0:	e13ffe15 	stw	r4,-8(fp)
 10120f4:	e17fff15 	stw	r5,-4(fp)
  alt_irq_context cpu_sr;
  
  /* clear the interrupt */
  IOWR_ALTERA_AVALON_TIMER_STATUS (base, 0);
 10120f8:	e0bffe17 	ldw	r2,-8(fp)
 10120fc:	10000035 	stwio	zero,0(r2)
  /* 
   * Dummy read to ensure IRQ is negated before the ISR returns.
   * The control register is read because reading the status
   * register has side-effects per the register map documentation.
   */
  IORD_ALTERA_AVALON_TIMER_CONTROL (base);
 1012100:	e0bffe17 	ldw	r2,-8(fp)
 1012104:	10800104 	addi	r2,r2,4
 1012108:	10800037 	ldwio	r2,0(r2)
static ALT_INLINE alt_irq_context ALT_ALWAYS_INLINE 
       alt_irq_disable_all (void)
{
  alt_irq_context context;

  NIOS2_READ_STATUS (context);
 101210c:	0005303a 	rdctl	r2,status
 1012110:	e0bffc15 	stw	r2,-16(fp)

  NIOS2_WRITE_STATUS (context & ~NIOS2_STATUS_PIE_MSK);
 1012114:	e0fffc17 	ldw	r3,-16(fp)
 1012118:	00bfff84 	movi	r2,-2
 101211c:	1884703a 	and	r2,r3,r2
 1012120:	1001703a 	wrctl	status,r2
  
  return context;
 1012124:	e0bffc17 	ldw	r2,-16(fp)

  /* 
   * Notify the system of a clock tick. disable interrupts 
   * during this time to safely support ISR preemption
   */
  cpu_sr = alt_irq_disable_all();
 1012128:	e0bffd15 	stw	r2,-12(fp)
  alt_tick ();
 101212c:	1012da00 	call	1012da0 <alt_tick>
 1012130:	e0bffd17 	ldw	r2,-12(fp)
 1012134:	e0bffb15 	stw	r2,-20(fp)
  status &= ~NIOS2_STATUS_PIE_MSK;
  status |= (context & NIOS2_STATUS_PIE_MSK);
  
  NIOS2_WRITE_STATUS (status);
#else
  NIOS2_WRITE_STATUS (context);
 1012138:	e0bffb17 	ldw	r2,-20(fp)
 101213c:	1001703a 	wrctl	status,r2
  alt_irq_enable_all(cpu_sr);
}
 1012140:	e037883a 	mov	sp,fp
 1012144:	dfc00117 	ldw	ra,4(sp)
 1012148:	df000017 	ldw	fp,0(sp)
 101214c:	dec00204 	addi	sp,sp,8
 1012150:	f800283a 	ret

01012154 <alt_avalon_timer_sc_init>:
 * auto-generated alt_sys_init() function.
 */

void alt_avalon_timer_sc_init (void* base, alt_u32 irq_controller_id, 
                                alt_u32 irq, alt_u32 freq)
{
 1012154:	defff904 	addi	sp,sp,-28
 1012158:	dfc00615 	stw	ra,24(sp)
 101215c:	df000515 	stw	fp,20(sp)
 1012160:	df000504 	addi	fp,sp,20
 1012164:	e13ffc15 	stw	r4,-16(fp)
 1012168:	e17ffd15 	stw	r5,-12(fp)
 101216c:	e1bffe15 	stw	r6,-8(fp)
 1012170:	e1ffff15 	stw	r7,-4(fp)
 1012174:	e0bfff17 	ldw	r2,-4(fp)
 1012178:	e0bffb15 	stw	r2,-20(fp)
 * in order to initialise the value of the clock frequency.
 */

static ALT_INLINE int ALT_ALWAYS_INLINE alt_sysclk_init (alt_u32 nticks)
{
  if (! _alt_tick_rate)
 101217c:	00804074 	movhi	r2,257
 1012180:	109f0004 	addi	r2,r2,31744
 1012184:	10800017 	ldw	r2,0(r2)
 1012188:	1004c03a 	cmpne	r2,r2,zero
 101218c:	1000041e 	bne	r2,zero,10121a0 <alt_avalon_timer_sc_init+0x4c>
  {
    _alt_tick_rate = nticks;
 1012190:	00c04074 	movhi	r3,257
 1012194:	18df0004 	addi	r3,r3,31744
 1012198:	e0bffb17 	ldw	r2,-20(fp)
 101219c:	18800015 	stw	r2,0(r3)
  
  alt_sysclk_init (freq);
  
  /* set to free running mode */
  
  IOWR_ALTERA_AVALON_TIMER_CONTROL (base, 
 10121a0:	e0bffc17 	ldw	r2,-16(fp)
 10121a4:	10800104 	addi	r2,r2,4
 10121a8:	1007883a 	mov	r3,r2
 10121ac:	008001c4 	movi	r2,7
 10121b0:	18800035 	stwio	r2,0(r3)
  /* register the interrupt handler, and enable the interrupt */
#ifdef ALT_ENHANCED_INTERRUPT_API_PRESENT
  alt_ic_isr_register(irq_controller_id, irq, alt_avalon_timer_sc_irq, 
                      base, NULL);
#else
  alt_irq_register (irq, base, alt_avalon_timer_sc_irq);
 10121b4:	e13ffe17 	ldw	r4,-8(fp)
 10121b8:	e17ffc17 	ldw	r5,-16(fp)
 10121bc:	01804074 	movhi	r6,257
 10121c0:	31883804 	addi	r6,r6,8416
 10121c4:	10109600 	call	1010960 <alt_irq_register>
#endif  
}
 10121c8:	e037883a 	mov	sp,fp
 10121cc:	dfc00117 	ldw	ra,4(sp)
 10121d0:	df000017 	ldw	fp,0(sp)
 10121d4:	dec00204 	addi	sp,sp,8
 10121d8:	f800283a 	ret

010121dc <alt_timestamp_start>:
 * The return value of this function is 0 upon sucess and -1 if in timestamp
 * device has not been registered. 
 */

int alt_timestamp_start(void)
{
 10121dc:	defffd04 	addi	sp,sp,-12
 10121e0:	df000215 	stw	fp,8(sp)
 10121e4:	df000204 	addi	fp,sp,8
  void* base = altera_avalon_timer_ts_base;
 10121e8:	00804074 	movhi	r2,257
 10121ec:	109efe04 	addi	r2,r2,31736
 10121f0:	10800017 	ldw	r2,0(r2)
 10121f4:	e0bffe15 	stw	r2,-8(fp)

  if (!altera_avalon_timer_ts_freq)
 10121f8:	00804074 	movhi	r2,257
 10121fc:	109eff04 	addi	r2,r2,31740
 1012200:	10800017 	ldw	r2,0(r2)
 1012204:	1004c03a 	cmpne	r2,r2,zero
 1012208:	1000031e 	bne	r2,zero,1012218 <alt_timestamp_start+0x3c>
  {
    return -1;
 101220c:	00bfffc4 	movi	r2,-1
 1012210:	e0bfff15 	stw	r2,-4(fp)
 1012214:	00001506 	br	101226c <alt_timestamp_start+0x90>
        IOWR_ALTERA_AVALON_TIMER_PERIOD_1 (base, 0xFFFF);;
        IOWR_ALTERA_AVALON_TIMER_PERIOD_2 (base, 0xFFFF);
        IOWR_ALTERA_AVALON_TIMER_PERIOD_3 (base, 0xFFFF);
        IOWR_ALTERA_AVALON_TIMER_CONTROL (base, ALTERA_AVALON_TIMER_CONTROL_START_MSK);
    } else {
        IOWR_ALTERA_AVALON_TIMER_CONTROL (base,ALTERA_AVALON_TIMER_CONTROL_STOP_MSK);
 1012218:	e0bffe17 	ldw	r2,-8(fp)
 101221c:	10800104 	addi	r2,r2,4
 1012220:	1007883a 	mov	r3,r2
 1012224:	00800204 	movi	r2,8
 1012228:	18800035 	stwio	r2,0(r3)
        IOWR_ALTERA_AVALON_TIMER_PERIODL (base, 0xFFFF);
 101222c:	e0bffe17 	ldw	r2,-8(fp)
 1012230:	10800204 	addi	r2,r2,8
 1012234:	1007883a 	mov	r3,r2
 1012238:	00bfffd4 	movui	r2,65535
 101223c:	18800035 	stwio	r2,0(r3)
        IOWR_ALTERA_AVALON_TIMER_PERIODH (base, 0xFFFF);
 1012240:	e0bffe17 	ldw	r2,-8(fp)
 1012244:	10800304 	addi	r2,r2,12
 1012248:	1007883a 	mov	r3,r2
 101224c:	00bfffd4 	movui	r2,65535
 1012250:	18800035 	stwio	r2,0(r3)
        IOWR_ALTERA_AVALON_TIMER_CONTROL (base, ALTERA_AVALON_TIMER_CONTROL_START_MSK); 
 1012254:	e0bffe17 	ldw	r2,-8(fp)
 1012258:	10800104 	addi	r2,r2,4
 101225c:	1007883a 	mov	r3,r2
 1012260:	00800104 	movi	r2,4
 1012264:	18800035 	stwio	r2,0(r3)
    } 
  }
  return 0;
 1012268:	e03fff15 	stw	zero,-4(fp)
 101226c:	e0bfff17 	ldw	r2,-4(fp)
}
 1012270:	e037883a 	mov	sp,fp
 1012274:	df000017 	ldw	fp,0(sp)
 1012278:	dec00104 	addi	sp,sp,4
 101227c:	f800283a 	ret

01012280 <alt_timestamp>:
 * The returned timestamp counts up from the last time the period register
 * was reset. 
 */

alt_timestamp_type alt_timestamp(void)
{
 1012280:	defffb04 	addi	sp,sp,-20
 1012284:	df000415 	stw	fp,16(sp)
 1012288:	df000404 	addi	fp,sp,16

  void* base = altera_avalon_timer_ts_base;
 101228c:	00804074 	movhi	r2,257
 1012290:	109efe04 	addi	r2,r2,31736
 1012294:	10800017 	ldw	r2,0(r2)
 1012298:	e0bffe15 	stw	r2,-8(fp)

  if (!altera_avalon_timer_ts_freq)
 101229c:	00804074 	movhi	r2,257
 10122a0:	109eff04 	addi	r2,r2,31740
 10122a4:	10800017 	ldw	r2,0(r2)
 10122a8:	1004c03a 	cmpne	r2,r2,zero
 10122ac:	1000031e 	bne	r2,zero,10122bc <alt_timestamp+0x3c>
  {
	if(ALT_TIMESTAMP_COUNTER_SIZE == 64) {
        return 0xFFFFFFFFFFFFFFFFULL;
    } else {
        return 0xFFFFFFFF;
 10122b0:	00bfffc4 	movi	r2,-1
 10122b4:	e0bfff15 	stw	r2,-4(fp)
 10122b8:	00001306 	br	1012308 <alt_timestamp+0x88>
        alt_timestamp_type snap_2 = IORD_ALTERA_AVALON_TIMER_SNAP_2(base) & ALTERA_AVALON_TIMER_SNAP_2_MSK;
        alt_timestamp_type snap_3 = IORD_ALTERA_AVALON_TIMER_SNAP_3(base) & ALTERA_AVALON_TIMER_SNAP_3_MSK;
        
        return (0xFFFFFFFFFFFFFFFFULL - ( (snap_3 << 48) | (snap_2 << 32) | (snap_1 << 16) | (snap_0) ));
    } else {
        IOWR_ALTERA_AVALON_TIMER_SNAPL (base, 0);
 10122bc:	e0bffe17 	ldw	r2,-8(fp)
 10122c0:	10800404 	addi	r2,r2,16
 10122c4:	10000035 	stwio	zero,0(r2)
        alt_timestamp_type lower = IORD_ALTERA_AVALON_TIMER_SNAPL(base) & ALTERA_AVALON_TIMER_SNAPL_MSK;
 10122c8:	e0bffe17 	ldw	r2,-8(fp)
 10122cc:	10800404 	addi	r2,r2,16
 10122d0:	10800037 	ldwio	r2,0(r2)
 10122d4:	10bfffcc 	andi	r2,r2,65535
 10122d8:	e0bffd15 	stw	r2,-12(fp)
        alt_timestamp_type upper = IORD_ALTERA_AVALON_TIMER_SNAPH(base) & ALTERA_AVALON_TIMER_SNAPH_MSK;
 10122dc:	e0bffe17 	ldw	r2,-8(fp)
 10122e0:	10800504 	addi	r2,r2,20
 10122e4:	10800037 	ldwio	r2,0(r2)
 10122e8:	10bfffcc 	andi	r2,r2,65535
 10122ec:	e0bffc15 	stw	r2,-16(fp)
        
        return (0xFFFFFFFF - ((upper << 16) | lower)); 
 10122f0:	e0bffc17 	ldw	r2,-16(fp)
 10122f4:	1006943a 	slli	r3,r2,16
 10122f8:	e0bffd17 	ldw	r2,-12(fp)
 10122fc:	1884b03a 	or	r2,r3,r2
 1012300:	0084303a 	nor	r2,zero,r2
 1012304:	e0bfff15 	stw	r2,-4(fp)
 1012308:	e0bfff17 	ldw	r2,-4(fp)
    }  
  }
}
 101230c:	e037883a 	mov	sp,fp
 1012310:	df000017 	ldw	fp,0(sp)
 1012314:	dec00104 	addi	sp,sp,4
 1012318:	f800283a 	ret

0101231c <alt_timestamp_freq>:
 * Return the number of timestamp ticks per second. This will be 0 if no
 * timestamp device has been registered.
 */

alt_u32 alt_timestamp_freq(void)
{
 101231c:	deffff04 	addi	sp,sp,-4
 1012320:	df000015 	stw	fp,0(sp)
 1012324:	d839883a 	mov	fp,sp
  return altera_avalon_timer_ts_freq;
 1012328:	00804074 	movhi	r2,257
 101232c:	109eff04 	addi	r2,r2,31740
 1012330:	10800017 	ldw	r2,0(r2)
}
 1012334:	e037883a 	mov	sp,fp
 1012338:	df000017 	ldw	fp,0(sp)
 101233c:	dec00104 	addi	sp,sp,4
 1012340:	f800283a 	ret

01012344 <alt_up_usb_open_dev>:
#include <priv/alt_file.h>

#include "altera_up_avalon_usb.h"
#include "altera_up_avalon_usb_regs.h"

alt_up_usb_dev* alt_up_usb_open_dev(const char* name) {
 1012344:	defffc04 	addi	sp,sp,-16
 1012348:	dfc00315 	stw	ra,12(sp)
 101234c:	df000215 	stw	fp,8(sp)
 1012350:	df000204 	addi	fp,sp,8
 1012354:	e13fff15 	stw	r4,-4(fp)
    // find the device from the device list 
    // (see altera_hal/HAL/inc/priv/alt_file.h 
    // and altera_hal/HAL/src/alt_find_dev.c 
    // for details)
    alt_up_usb_dev *dev = (alt_up_usb_dev*) alt_find_dev(name, &alt_dev_list);
 1012358:	e13fff17 	ldw	r4,-4(fp)
 101235c:	01404074 	movhi	r5,257
 1012360:	29574d04 	addi	r5,r5,23860
 1012364:	10128440 	call	1012844 <alt_find_dev>
 1012368:	e0bffe15 	stw	r2,-8(fp)

    return dev;
 101236c:	e0bffe17 	ldw	r2,-8(fp)
}
 1012370:	e037883a 	mov	sp,fp
 1012374:	dfc00117 	ldw	ra,4(sp)
 1012378:	df000017 	ldw	fp,0(sp)
 101237c:	dec00204 	addi	sp,sp,8
 1012380:	f800283a 	ret

01012384 <alt_alarm_start>:
 */ 

int alt_alarm_start (alt_alarm* alarm, alt_u32 nticks,
                     alt_u32 (*callback) (void* context),
                     void* context)
{
 1012384:	defff404 	addi	sp,sp,-48
 1012388:	df000b15 	stw	fp,44(sp)
 101238c:	df000b04 	addi	fp,sp,44
 1012390:	e13ffb15 	stw	r4,-20(fp)
 1012394:	e17ffc15 	stw	r5,-16(fp)
 1012398:	e1bffd15 	stw	r6,-12(fp)
 101239c:	e1fffe15 	stw	r7,-8(fp)
  alt_irq_context irq_context;
  alt_u32 current_nticks = 0;
 10123a0:	e03ff915 	stw	zero,-28(fp)
 * Obtain the system clock rate in ticks/s. 
 */

static ALT_INLINE alt_u32 ALT_ALWAYS_INLINE alt_ticks_per_second (void)
{
  return _alt_tick_rate;
 10123a4:	00804074 	movhi	r2,257
 10123a8:	109f0004 	addi	r2,r2,31744
 10123ac:	10800017 	ldw	r2,0(r2)
  
  if (alt_ticks_per_second ())
 10123b0:	1005003a 	cmpeq	r2,r2,zero
 10123b4:	1000411e 	bne	r2,zero,10124bc <alt_alarm_start+0x138>
  {
    if (alarm)
 10123b8:	e0bffb17 	ldw	r2,-20(fp)
 10123bc:	1005003a 	cmpeq	r2,r2,zero
 10123c0:	10003b1e 	bne	r2,zero,10124b0 <alt_alarm_start+0x12c>
    {
      alarm->callback = callback;
 10123c4:	e0fffb17 	ldw	r3,-20(fp)
 10123c8:	e0bffd17 	ldw	r2,-12(fp)
 10123cc:	18800315 	stw	r2,12(r3)
      alarm->context  = context;
 10123d0:	e0fffb17 	ldw	r3,-20(fp)
 10123d4:	e0bffe17 	ldw	r2,-8(fp)
 10123d8:	18800515 	stw	r2,20(r3)
static ALT_INLINE alt_irq_context ALT_ALWAYS_INLINE 
       alt_irq_disable_all (void)
{
  alt_irq_context context;

  NIOS2_READ_STATUS (context);
 10123dc:	0005303a 	rdctl	r2,status
 10123e0:	e0bff815 	stw	r2,-32(fp)

  NIOS2_WRITE_STATUS (context & ~NIOS2_STATUS_PIE_MSK);
 10123e4:	e0fff817 	ldw	r3,-32(fp)
 10123e8:	00bfff84 	movi	r2,-2
 10123ec:	1884703a 	and	r2,r3,r2
 10123f0:	1001703a 	wrctl	status,r2
  
  return context;
 10123f4:	e0bff817 	ldw	r2,-32(fp)
 
      irq_context = alt_irq_disable_all ();
 10123f8:	e0bffa15 	stw	r2,-24(fp)
 * alt_nticks() returns the elapsed number of system clock ticks since reset.
 */

static ALT_INLINE alt_u32 ALT_ALWAYS_INLINE alt_nticks (void)
{
  return _alt_nticks;
 10123fc:	00804074 	movhi	r2,257
 1012400:	109f0104 	addi	r2,r2,31748
 1012404:	10800017 	ldw	r2,0(r2)
      
      current_nticks = alt_nticks();
 1012408:	e0bff915 	stw	r2,-28(fp)
      
      alarm->time = nticks + current_nticks + 1; 
 101240c:	e0fffc17 	ldw	r3,-16(fp)
 1012410:	e0bff917 	ldw	r2,-28(fp)
 1012414:	1885883a 	add	r2,r3,r2
 1012418:	10c00044 	addi	r3,r2,1
 101241c:	e0bffb17 	ldw	r2,-20(fp)
 1012420:	10c00215 	stw	r3,8(r2)
      /* 
       * If the desired alarm time causes a roll-over, set the rollover
       * flag. This will prevent the subsequent tick event from causing
       * an alarm too early.
       */
      if(alarm->time < current_nticks)
 1012424:	e0bffb17 	ldw	r2,-20(fp)
 1012428:	10c00217 	ldw	r3,8(r2)
 101242c:	e0bff917 	ldw	r2,-28(fp)
 1012430:	1880042e 	bgeu	r3,r2,1012444 <alt_alarm_start+0xc0>
      {
        alarm->rollover = 1;
 1012434:	e0fffb17 	ldw	r3,-20(fp)
 1012438:	00800044 	movi	r2,1
 101243c:	18800405 	stb	r2,16(r3)
 1012440:	00000206 	br	101244c <alt_alarm_start+0xc8>
      }
      else
      {
        alarm->rollover = 0;
 1012444:	e0bffb17 	ldw	r2,-20(fp)
 1012448:	10000405 	stb	zero,16(r2)
      }
    
      alt_llist_insert (&alt_alarm_list, &alarm->llist);
 101244c:	e0fffb17 	ldw	r3,-20(fp)
 1012450:	00804074 	movhi	r2,257
 1012454:	10975304 	addi	r2,r2,23884
 1012458:	e0bff615 	stw	r2,-40(fp)
 101245c:	e0fff715 	stw	r3,-36(fp)
 */

static ALT_INLINE void ALT_ALWAYS_INLINE alt_llist_insert(alt_llist* list, 
                alt_llist* entry)
{
  entry->previous = list;
 1012460:	e0fff717 	ldw	r3,-36(fp)
 1012464:	e0bff617 	ldw	r2,-40(fp)
 1012468:	18800115 	stw	r2,4(r3)
  entry->next     = list->next;
 101246c:	e0bff617 	ldw	r2,-40(fp)
 1012470:	10c00017 	ldw	r3,0(r2)
 1012474:	e0bff717 	ldw	r2,-36(fp)
 1012478:	10c00015 	stw	r3,0(r2)

  list->next->previous = entry;
 101247c:	e0bff617 	ldw	r2,-40(fp)
 1012480:	10c00017 	ldw	r3,0(r2)
 1012484:	e0bff717 	ldw	r2,-36(fp)
 1012488:	18800115 	stw	r2,4(r3)
  list->next           = entry;
 101248c:	e0fff617 	ldw	r3,-40(fp)
 1012490:	e0bff717 	ldw	r2,-36(fp)
 1012494:	18800015 	stw	r2,0(r3)
 1012498:	e0bffa17 	ldw	r2,-24(fp)
 101249c:	e0bff515 	stw	r2,-44(fp)
  status &= ~NIOS2_STATUS_PIE_MSK;
  status |= (context & NIOS2_STATUS_PIE_MSK);
  
  NIOS2_WRITE_STATUS (status);
#else
  NIOS2_WRITE_STATUS (context);
 10124a0:	e0bff517 	ldw	r2,-44(fp)
 10124a4:	1001703a 	wrctl	status,r2
      alt_irq_enable_all (irq_context);

      return 0;
 10124a8:	e03fff15 	stw	zero,-4(fp)
 10124ac:	00000506 	br	10124c4 <alt_alarm_start+0x140>
    }
    else
    {
      return -EINVAL;
 10124b0:	00bffa84 	movi	r2,-22
 10124b4:	e0bfff15 	stw	r2,-4(fp)
 10124b8:	00000206 	br	10124c4 <alt_alarm_start+0x140>
    }
  }
  else
  {
    return -ENOTSUP;
 10124bc:	00bfde84 	movi	r2,-134
 10124c0:	e0bfff15 	stw	r2,-4(fp)
 10124c4:	e0bfff17 	ldw	r2,-4(fp)
  }
}
 10124c8:	e037883a 	mov	sp,fp
 10124cc:	df000017 	ldw	fp,0(sp)
 10124d0:	dec00104 	addi	sp,sp,4
 10124d4:	f800283a 	ret

010124d8 <alt_busy_sleep>:
#include "alt_types.h"

#include "priv/alt_busy_sleep.h"

unsigned int alt_busy_sleep (unsigned int us)
{
 10124d8:	defffa04 	addi	sp,sp,-24
 10124dc:	dfc00515 	stw	ra,20(sp)
 10124e0:	df000415 	stw	fp,16(sp)
 10124e4:	df000404 	addi	fp,sp,16
 10124e8:	e13fff15 	stw	r4,-4(fp)
  {
    cycles_per_loop = 9;
  }
  else  
  {
    cycles_per_loop = 3;
 10124ec:	008000c4 	movi	r2,3
 10124f0:	e0bffc15 	stw	r2,-16(fp)
  }
  

  big_loops = us / (INT_MAX/
 10124f4:	e0fffc17 	ldw	r3,-16(fp)
 10124f8:	008003f4 	movhi	r2,15
 10124fc:	10909004 	addi	r2,r2,16960
 1012500:	188b383a 	mul	r5,r3,r2
 1012504:	0100bef4 	movhi	r4,763
 1012508:	213c2004 	addi	r4,r4,-3968
 101250c:	100ffe80 	call	100ffe8 <__udivsi3>
 1012510:	100b883a 	mov	r5,r2
 1012514:	01200034 	movhi	r4,32768
 1012518:	213fffc4 	addi	r4,r4,-1
 101251c:	100ffe80 	call	100ffe8 <__udivsi3>
 1012520:	100b883a 	mov	r5,r2
 1012524:	e13fff17 	ldw	r4,-4(fp)
 1012528:	100ffe80 	call	100ffe8 <__udivsi3>
 101252c:	e0bffd15 	stw	r2,-12(fp)
  (ALT_CPU_FREQ/(cycles_per_loop * 1000000)));

  if (big_loops)
 1012530:	e0bffd17 	ldw	r2,-12(fp)
 1012534:	1005003a 	cmpeq	r2,r2,zero
 1012538:	1000281e 	bne	r2,zero,10125dc <alt_busy_sleep+0x104>
  {
    for(i=0;i<big_loops;i++)
 101253c:	e03ffe15 	stw	zero,-8(fp)
 1012540:	00001606 	br	101259c <alt_busy_sleep+0xc4>
      /*
      * Do NOT Try to single step the asm statement below 
      * (single step will never return)
      * Step out of this function or set a breakpoint after the asm statements
      */
      __asm__ volatile (
 1012544:	00a00034 	movhi	r2,32768
 1012548:	10bfffc4 	addi	r2,r2,-1
 101254c:	10bfffc4 	addi	r2,r2,-1
 1012550:	103ffe1e 	bne	r2,zero,101254c <alt_busy_sleep+0x74>
        "\n1:"
        "\n\t.pushsection .debug_alt_sim_info"
        "\n\t.int 4, 0, 0b, 1b"
        "\n\t.popsection"
        :: "r" (INT_MAX));
      us -= (INT_MAX/(ALT_CPU_FREQ/
 1012554:	e0fffc17 	ldw	r3,-16(fp)
 1012558:	008003f4 	movhi	r2,15
 101255c:	10909004 	addi	r2,r2,16960
 1012560:	188b383a 	mul	r5,r3,r2
 1012564:	0100bef4 	movhi	r4,763
 1012568:	213c2004 	addi	r4,r4,-3968
 101256c:	100ffe80 	call	100ffe8 <__udivsi3>
 1012570:	100b883a 	mov	r5,r2
 1012574:	01200034 	movhi	r4,32768
 1012578:	213fffc4 	addi	r4,r4,-1
 101257c:	100ffe80 	call	100ffe8 <__udivsi3>
 1012580:	1007883a 	mov	r3,r2
 1012584:	e0bfff17 	ldw	r2,-4(fp)
 1012588:	10c5c83a 	sub	r2,r2,r3
 101258c:	e0bfff15 	stw	r2,-4(fp)
  big_loops = us / (INT_MAX/
  (ALT_CPU_FREQ/(cycles_per_loop * 1000000)));

  if (big_loops)
  {
    for(i=0;i<big_loops;i++)
 1012590:	e0bffe17 	ldw	r2,-8(fp)
 1012594:	10800044 	addi	r2,r2,1
 1012598:	e0bffe15 	stw	r2,-8(fp)
 101259c:	e0fffe17 	ldw	r3,-8(fp)
 10125a0:	e0bffd17 	ldw	r2,-12(fp)
 10125a4:	18bfe716 	blt	r3,r2,1012544 <alt_busy_sleep+0x6c>
    /*
    * Do NOT Try to single step the asm statement below 
    * (single step will never return)
    * Step out of this function or set a breakpoint after the asm statements
    */
    __asm__ volatile (
 10125a8:	e0fffc17 	ldw	r3,-16(fp)
 10125ac:	008003f4 	movhi	r2,15
 10125b0:	10909004 	addi	r2,r2,16960
 10125b4:	188b383a 	mul	r5,r3,r2
 10125b8:	0100bef4 	movhi	r4,763
 10125bc:	213c2004 	addi	r4,r4,-3968
 10125c0:	100ffe80 	call	100ffe8 <__udivsi3>
 10125c4:	1007883a 	mov	r3,r2
 10125c8:	e0bfff17 	ldw	r2,-4(fp)
 10125cc:	1885383a 	mul	r2,r3,r2
 10125d0:	10bfffc4 	addi	r2,r2,-1
 10125d4:	103ffe1e 	bne	r2,zero,10125d0 <alt_busy_sleep+0xf8>
 10125d8:	00000c06 	br	101260c <alt_busy_sleep+0x134>
    /*
    * Do NOT Try to single step the asm statement below 
    * (single step will never return)
    * Step out of this function or set a breakpoint after the asm statements
    */
    __asm__ volatile (
 10125dc:	e0fffc17 	ldw	r3,-16(fp)
 10125e0:	008003f4 	movhi	r2,15
 10125e4:	10909004 	addi	r2,r2,16960
 10125e8:	188b383a 	mul	r5,r3,r2
 10125ec:	0100bef4 	movhi	r4,763
 10125f0:	213c2004 	addi	r4,r4,-3968
 10125f4:	100ffe80 	call	100ffe8 <__udivsi3>
 10125f8:	1007883a 	mov	r3,r2
 10125fc:	e0bfff17 	ldw	r2,-4(fp)
 1012600:	1885383a 	mul	r2,r3,r2
 1012604:	10bfffc4 	addi	r2,r2,-1
 1012608:	00bffe16 	blt	zero,r2,1012604 <alt_busy_sleep+0x12c>
      "\n\t.int 4, 0, 0b, 1b"
      "\n\t.popsection"
      :: "r" (us*(ALT_CPU_FREQ/(cycles_per_loop * 1000000))));
  }
#endif /* #ifndef ALT_SIM_OPTIMIZE */
  return 0;
 101260c:	0005883a 	mov	r2,zero
}
 1012610:	e037883a 	mov	sp,fp
 1012614:	dfc00117 	ldw	ra,4(sp)
 1012618:	df000017 	ldw	fp,0(sp)
 101261c:	dec00204 	addi	sp,sp,8
 1012620:	f800283a 	ret

01012624 <alt_dcache_flush_all>:
/*
 * alt_dcache_flush_all() is called to flush the entire data cache.
 */

void alt_dcache_flush_all (void)
{
 1012624:	defffe04 	addi	sp,sp,-8
 1012628:	df000115 	stw	fp,4(sp)
 101262c:	df000104 	addi	fp,sp,4
#if NIOS2_DCACHE_SIZE > 0
  char* i;
  
  for (i = (char*) 0; i < (char*) NIOS2_DCACHE_SIZE; i+= NIOS2_DCACHE_LINE_SIZE)
 1012630:	e03fff15 	stw	zero,-4(fp)
 1012634:	00000506 	br	101264c <alt_dcache_flush_all+0x28>
  { 
    __asm__ volatile ("flushd (%0)" :: "r" (i));
 1012638:	e0bfff17 	ldw	r2,-4(fp)
 101263c:	1000003b 	flushd	0(r2)
void alt_dcache_flush_all (void)
{
#if NIOS2_DCACHE_SIZE > 0
  char* i;
  
  for (i = (char*) 0; i < (char*) NIOS2_DCACHE_SIZE; i+= NIOS2_DCACHE_LINE_SIZE)
 1012640:	e0bfff17 	ldw	r2,-4(fp)
 1012644:	10800804 	addi	r2,r2,32
 1012648:	e0bfff15 	stw	r2,-4(fp)
 101264c:	e0bfff17 	ldw	r2,-4(fp)
 1012650:	10820030 	cmpltui	r2,r2,2048
 1012654:	103ff81e 	bne	r2,zero,1012638 <alt_dcache_flush_all+0x14>
  { 
    __asm__ volatile ("flushd (%0)" :: "r" (i));
  }
#endif /* NIOS2_DCACHE_SIZE > 0 */
}
 1012658:	e037883a 	mov	sp,fp
 101265c:	df000017 	ldw	fp,0(sp)
 1012660:	dec00104 	addi	sp,sp,4
 1012664:	f800283a 	ret

01012668 <alt_dev_llist_insert>:
/*
 *
 */

int alt_dev_llist_insert (alt_dev_llist* dev, alt_llist* list)
{
 1012668:	defff904 	addi	sp,sp,-28
 101266c:	dfc00615 	stw	ra,24(sp)
 1012670:	df000515 	stw	fp,20(sp)
 1012674:	df000504 	addi	fp,sp,20
 1012678:	e13ffd15 	stw	r4,-12(fp)
 101267c:	e17ffe15 	stw	r5,-8(fp)
  /*
   * check that the device exists, and that it has a valid name.
   */

  if (!dev || !dev->name)
 1012680:	e0bffd17 	ldw	r2,-12(fp)
 1012684:	1005003a 	cmpeq	r2,r2,zero
 1012688:	1000041e 	bne	r2,zero,101269c <alt_dev_llist_insert+0x34>
 101268c:	e0bffd17 	ldw	r2,-12(fp)
 1012690:	10800217 	ldw	r2,8(r2)
 1012694:	1004c03a 	cmpne	r2,r2,zero
 1012698:	1000071e 	bne	r2,zero,10126b8 <alt_dev_llist_insert+0x50>
  {
    ALT_ERRNO = EINVAL;
 101269c:	101271c0 	call	101271c <alt_get_errno>
 10126a0:	1007883a 	mov	r3,r2
 10126a4:	00800584 	movi	r2,22
 10126a8:	18800015 	stw	r2,0(r3)
    return -EINVAL;
 10126ac:	00bffa84 	movi	r2,-22
 10126b0:	e0bfff15 	stw	r2,-4(fp)
 10126b4:	00001306 	br	1012704 <alt_dev_llist_insert+0x9c>
  
  /*
   * register the device.
   */
  
  alt_llist_insert(list, &dev->llist);
 10126b8:	e0fffd17 	ldw	r3,-12(fp)
 10126bc:	e0bffe17 	ldw	r2,-8(fp)
 10126c0:	e0bffb15 	stw	r2,-20(fp)
 10126c4:	e0fffc15 	stw	r3,-16(fp)
 */

static ALT_INLINE void ALT_ALWAYS_INLINE alt_llist_insert(alt_llist* list, 
                alt_llist* entry)
{
  entry->previous = list;
 10126c8:	e0fffc17 	ldw	r3,-16(fp)
 10126cc:	e0bffb17 	ldw	r2,-20(fp)
 10126d0:	18800115 	stw	r2,4(r3)
  entry->next     = list->next;
 10126d4:	e0bffb17 	ldw	r2,-20(fp)
 10126d8:	10c00017 	ldw	r3,0(r2)
 10126dc:	e0bffc17 	ldw	r2,-16(fp)
 10126e0:	10c00015 	stw	r3,0(r2)

  list->next->previous = entry;
 10126e4:	e0bffb17 	ldw	r2,-20(fp)
 10126e8:	10c00017 	ldw	r3,0(r2)
 10126ec:	e0bffc17 	ldw	r2,-16(fp)
 10126f0:	18800115 	stw	r2,4(r3)
  list->next           = entry;
 10126f4:	e0fffb17 	ldw	r3,-20(fp)
 10126f8:	e0bffc17 	ldw	r2,-16(fp)
 10126fc:	18800015 	stw	r2,0(r3)

  return 0;  
 1012700:	e03fff15 	stw	zero,-4(fp)
 1012704:	e0bfff17 	ldw	r2,-4(fp)
}
 1012708:	e037883a 	mov	sp,fp
 101270c:	dfc00117 	ldw	ra,4(sp)
 1012710:	df000017 	ldw	fp,0(sp)
 1012714:	dec00204 	addi	sp,sp,8
 1012718:	f800283a 	ret

0101271c <alt_get_errno>:
#undef errno

extern int errno;

static ALT_INLINE int* alt_get_errno(void)
{
 101271c:	defffd04 	addi	sp,sp,-12
 1012720:	dfc00215 	stw	ra,8(sp)
 1012724:	df000115 	stw	fp,4(sp)
 1012728:	df000104 	addi	fp,sp,4
  return ((alt_errno) ? alt_errno() : &errno);
 101272c:	00804074 	movhi	r2,257
 1012730:	10975004 	addi	r2,r2,23872
 1012734:	10800017 	ldw	r2,0(r2)
 1012738:	1005003a 	cmpeq	r2,r2,zero
 101273c:	1000061e 	bne	r2,zero,1012758 <alt_get_errno+0x3c>
 1012740:	00804074 	movhi	r2,257
 1012744:	10975004 	addi	r2,r2,23872
 1012748:	10800017 	ldw	r2,0(r2)
 101274c:	103ee83a 	callr	r2
 1012750:	e0bfff15 	stw	r2,-4(fp)
 1012754:	00000306 	br	1012764 <alt_get_errno+0x48>
 1012758:	00804074 	movhi	r2,257
 101275c:	109ef604 	addi	r2,r2,31704
 1012760:	e0bfff15 	stw	r2,-4(fp)
 1012764:	e0bfff17 	ldw	r2,-4(fp)
}
 1012768:	e037883a 	mov	sp,fp
 101276c:	dfc00117 	ldw	ra,4(sp)
 1012770:	df000017 	ldw	fp,0(sp)
 1012774:	dec00204 	addi	sp,sp,8
 1012778:	f800283a 	ret

0101277c <_do_ctors>:
/*
 * Run the C++ static constructors.
 */

void _do_ctors(void)
{
 101277c:	defffd04 	addi	sp,sp,-12
 1012780:	dfc00215 	stw	ra,8(sp)
 1012784:	df000115 	stw	fp,4(sp)
 1012788:	df000104 	addi	fp,sp,4
  constructor* ctor;

  for (ctor = &__CTOR_END__[-1]; ctor >= __CTOR_LIST__; ctor--)
 101278c:	00bfff04 	movi	r2,-4
 1012790:	00c04074 	movhi	r3,257
 1012794:	18ccbd04 	addi	r3,r3,13044
 1012798:	1885883a 	add	r2,r3,r2
 101279c:	e0bfff15 	stw	r2,-4(fp)
 10127a0:	00000606 	br	10127bc <_do_ctors+0x40>
        (*ctor) (); 
 10127a4:	e0bfff17 	ldw	r2,-4(fp)
 10127a8:	10800017 	ldw	r2,0(r2)
 10127ac:	103ee83a 	callr	r2

void _do_ctors(void)
{
  constructor* ctor;

  for (ctor = &__CTOR_END__[-1]; ctor >= __CTOR_LIST__; ctor--)
 10127b0:	e0bfff17 	ldw	r2,-4(fp)
 10127b4:	10bfff04 	addi	r2,r2,-4
 10127b8:	e0bfff15 	stw	r2,-4(fp)
 10127bc:	e0ffff17 	ldw	r3,-4(fp)
 10127c0:	00804074 	movhi	r2,257
 10127c4:	108cbc04 	addi	r2,r2,13040
 10127c8:	18bff62e 	bgeu	r3,r2,10127a4 <_do_ctors+0x28>
        (*ctor) (); 
}
 10127cc:	e037883a 	mov	sp,fp
 10127d0:	dfc00117 	ldw	ra,4(sp)
 10127d4:	df000017 	ldw	fp,0(sp)
 10127d8:	dec00204 	addi	sp,sp,8
 10127dc:	f800283a 	ret

010127e0 <_do_dtors>:
/*
 * Run the C++ static destructors.
 */

void _do_dtors(void)
{
 10127e0:	defffd04 	addi	sp,sp,-12
 10127e4:	dfc00215 	stw	ra,8(sp)
 10127e8:	df000115 	stw	fp,4(sp)
 10127ec:	df000104 	addi	fp,sp,4
  destructor* dtor;

  for (dtor = &__DTOR_END__[-1]; dtor >= __DTOR_LIST__; dtor--)
 10127f0:	00bfff04 	movi	r2,-4
 10127f4:	00c04074 	movhi	r3,257
 10127f8:	18ccbd04 	addi	r3,r3,13044
 10127fc:	1885883a 	add	r2,r3,r2
 1012800:	e0bfff15 	stw	r2,-4(fp)
 1012804:	00000606 	br	1012820 <_do_dtors+0x40>
        (*dtor) (); 
 1012808:	e0bfff17 	ldw	r2,-4(fp)
 101280c:	10800017 	ldw	r2,0(r2)
 1012810:	103ee83a 	callr	r2

void _do_dtors(void)
{
  destructor* dtor;

  for (dtor = &__DTOR_END__[-1]; dtor >= __DTOR_LIST__; dtor--)
 1012814:	e0bfff17 	ldw	r2,-4(fp)
 1012818:	10bfff04 	addi	r2,r2,-4
 101281c:	e0bfff15 	stw	r2,-4(fp)
 1012820:	e0ffff17 	ldw	r3,-4(fp)
 1012824:	00804074 	movhi	r2,257
 1012828:	108cbd04 	addi	r2,r2,13044
 101282c:	18bff62e 	bgeu	r3,r2,1012808 <_do_dtors+0x28>
        (*dtor) (); 
}
 1012830:	e037883a 	mov	sp,fp
 1012834:	dfc00117 	ldw	ra,4(sp)
 1012838:	df000017 	ldw	fp,0(sp)
 101283c:	dec00204 	addi	sp,sp,8
 1012840:	f800283a 	ret

01012844 <alt_find_dev>:
 * "name" must be an exact match for the devices registered name for a match to
 * be found.
 */
 
alt_dev* alt_find_dev(const char* name, alt_llist* llist)
{
 1012844:	defff904 	addi	sp,sp,-28
 1012848:	dfc00615 	stw	ra,24(sp)
 101284c:	df000515 	stw	fp,20(sp)
 1012850:	df000504 	addi	fp,sp,20
 1012854:	e13ffd15 	stw	r4,-12(fp)
 1012858:	e17ffe15 	stw	r5,-8(fp)
  alt_dev* next = (alt_dev*) llist->next;
 101285c:	e0bffe17 	ldw	r2,-8(fp)
 1012860:	10800017 	ldw	r2,0(r2)
 1012864:	e0bffc15 	stw	r2,-16(fp)
  alt_32 len;

  len  = strlen(name) + 1;
 1012868:	e13ffd17 	ldw	r4,-12(fp)
 101286c:	10060180 	call	1006018 <strlen>
 1012870:	10800044 	addi	r2,r2,1
 1012874:	e0bffb15 	stw	r2,-20(fp)
  /*
   * Check each list entry in turn, until a match is found, or we reach the
   * end of the list (i.e. next winds up pointing back to the list head).
   */ 

  while (next != (alt_dev*) llist)
 1012878:	00000d06 	br	10128b0 <alt_find_dev+0x6c>
    /* 
     * memcmp() is used here rather than strcmp() in order to reduce the size
     * of the executable.
     */

    if (!memcmp (next->name, name, len))
 101287c:	e0bffc17 	ldw	r2,-16(fp)
 1012880:	11000217 	ldw	r4,8(r2)
 1012884:	e1bffb17 	ldw	r6,-20(fp)
 1012888:	e17ffd17 	ldw	r5,-12(fp)
 101288c:	10131480 	call	1013148 <memcmp>
 1012890:	1004c03a 	cmpne	r2,r2,zero
 1012894:	1000031e 	bne	r2,zero,10128a4 <alt_find_dev+0x60>
    {
      /* match found */

      return next;
 1012898:	e0bffc17 	ldw	r2,-16(fp)
 101289c:	e0bfff15 	stw	r2,-4(fp)
 10128a0:	00000706 	br	10128c0 <alt_find_dev+0x7c>
    }
    next = (alt_dev*) next->llist.next;
 10128a4:	e0bffc17 	ldw	r2,-16(fp)
 10128a8:	10800017 	ldw	r2,0(r2)
 10128ac:	e0bffc15 	stw	r2,-16(fp)
  /*
   * Check each list entry in turn, until a match is found, or we reach the
   * end of the list (i.e. next winds up pointing back to the list head).
   */ 

  while (next != (alt_dev*) llist)
 10128b0:	e0fffe17 	ldw	r3,-8(fp)
 10128b4:	e0bffc17 	ldw	r2,-16(fp)
 10128b8:	10fff01e 	bne	r2,r3,101287c <alt_find_dev+0x38>
    next = (alt_dev*) next->llist.next;
  }
  
  /* No match found */
  
  return NULL;
 10128bc:	e03fff15 	stw	zero,-4(fp)
 10128c0:	e0bfff17 	ldw	r2,-4(fp)
}
 10128c4:	e037883a 	mov	sp,fp
 10128c8:	dfc00117 	ldw	ra,4(sp)
 10128cc:	df000017 	ldw	fp,0(sp)
 10128d0:	dec00204 	addi	sp,sp,8
 10128d4:	f800283a 	ret

010128d8 <alt_icache_flush_all>:
/*
 * alt_icache_flush_all() is called to flush the entire instruction cache.
 */

void alt_icache_flush_all (void)
{
 10128d8:	defffe04 	addi	sp,sp,-8
 10128dc:	dfc00115 	stw	ra,4(sp)
 10128e0:	df000015 	stw	fp,0(sp)
 10128e4:	d839883a 	mov	fp,sp
#if NIOS2_ICACHE_SIZE > 0
  alt_icache_flush (0, NIOS2_ICACHE_SIZE);
 10128e8:	0009883a 	mov	r4,zero
 10128ec:	01440004 	movi	r5,4096
 10128f0:	10130a40 	call	10130a4 <alt_icache_flush>
#endif
}
 10128f4:	e037883a 	mov	sp,fp
 10128f8:	dfc00117 	ldw	ra,4(sp)
 10128fc:	df000017 	ldw	fp,0(sp)
 1012900:	dec00204 	addi	sp,sp,8
 1012904:	f800283a 	ret

01012908 <alt_open_fd>:
 * If the device can not be succesfully opened, then the input file descriptor
 * remains unchanged.
 */

static void alt_open_fd(alt_fd* fd, const char* name, int flags, int mode)
{
 1012908:	defff904 	addi	sp,sp,-28
 101290c:	dfc00615 	stw	ra,24(sp)
 1012910:	df000515 	stw	fp,20(sp)
 1012914:	df000504 	addi	fp,sp,20
 1012918:	e13ffc15 	stw	r4,-16(fp)
 101291c:	e17ffd15 	stw	r5,-12(fp)
 1012920:	e1bffe15 	stw	r6,-8(fp)
 1012924:	e1ffff15 	stw	r7,-4(fp)
  int old;

  old = open (name, flags, mode);
 1012928:	e13ffd17 	ldw	r4,-12(fp)
 101292c:	e17ffe17 	ldw	r5,-8(fp)
 1012930:	e1bfff17 	ldw	r6,-4(fp)
 1012934:	1012b200 	call	1012b20 <open>
 1012938:	e0bffb15 	stw	r2,-20(fp)

  if (old >= 0)
 101293c:	e0bffb17 	ldw	r2,-20(fp)
 1012940:	1004803a 	cmplt	r2,r2,zero
 1012944:	10001c1e 	bne	r2,zero,10129b8 <alt_open_fd+0xb0>
  {
    fd->dev      = alt_fd_list[old].dev;
 1012948:	e0bffb17 	ldw	r2,-20(fp)
 101294c:	00c04074 	movhi	r3,257
 1012950:	18d28504 	addi	r3,r3,18964
 1012954:	10800324 	muli	r2,r2,12
 1012958:	10c5883a 	add	r2,r2,r3
 101295c:	10c00017 	ldw	r3,0(r2)
 1012960:	e0bffc17 	ldw	r2,-16(fp)
 1012964:	10c00015 	stw	r3,0(r2)
    fd->priv     = alt_fd_list[old].priv;
 1012968:	e0bffb17 	ldw	r2,-20(fp)
 101296c:	00c04074 	movhi	r3,257
 1012970:	18d28504 	addi	r3,r3,18964
 1012974:	10800324 	muli	r2,r2,12
 1012978:	10c5883a 	add	r2,r2,r3
 101297c:	10800104 	addi	r2,r2,4
 1012980:	10c00017 	ldw	r3,0(r2)
 1012984:	e0bffc17 	ldw	r2,-16(fp)
 1012988:	10c00115 	stw	r3,4(r2)
    fd->fd_flags = alt_fd_list[old].fd_flags;
 101298c:	e0bffb17 	ldw	r2,-20(fp)
 1012990:	00c04074 	movhi	r3,257
 1012994:	18d28504 	addi	r3,r3,18964
 1012998:	10800324 	muli	r2,r2,12
 101299c:	10c5883a 	add	r2,r2,r3
 10129a0:	10800204 	addi	r2,r2,8
 10129a4:	10c00017 	ldw	r3,0(r2)
 10129a8:	e0bffc17 	ldw	r2,-16(fp)
 10129ac:	10c00215 	stw	r3,8(r2)

    alt_release_fd (old);
 10129b0:	e13ffb17 	ldw	r4,-20(fp)
 10129b4:	10112480 	call	1011248 <alt_release_fd>
  }
} 
 10129b8:	e037883a 	mov	sp,fp
 10129bc:	dfc00117 	ldw	ra,4(sp)
 10129c0:	df000017 	ldw	fp,0(sp)
 10129c4:	dec00204 	addi	sp,sp,8
 10129c8:	f800283a 	ret

010129cc <alt_io_redirect>:
 */
 
void alt_io_redirect(const char* stdout_dev, 
                     const char* stdin_dev, 
                     const char* stderr_dev)
{
 10129cc:	defffb04 	addi	sp,sp,-20
 10129d0:	dfc00415 	stw	ra,16(sp)
 10129d4:	df000315 	stw	fp,12(sp)
 10129d8:	df000304 	addi	fp,sp,12
 10129dc:	e13ffd15 	stw	r4,-12(fp)
 10129e0:	e17ffe15 	stw	r5,-8(fp)
 10129e4:	e1bfff15 	stw	r6,-4(fp)
  /* Redirect the channels */

  alt_open_fd (&alt_fd_list[STDOUT_FILENO], stdout_dev, O_WRONLY, 0777);
 10129e8:	01004074 	movhi	r4,257
 10129ec:	21128804 	addi	r4,r4,18976
 10129f0:	e17ffd17 	ldw	r5,-12(fp)
 10129f4:	01800044 	movi	r6,1
 10129f8:	01c07fc4 	movi	r7,511
 10129fc:	10129080 	call	1012908 <alt_open_fd>
  alt_open_fd (&alt_fd_list[STDIN_FILENO], stdin_dev, O_RDONLY, 0777);
 1012a00:	01004074 	movhi	r4,257
 1012a04:	21128504 	addi	r4,r4,18964
 1012a08:	e17ffe17 	ldw	r5,-8(fp)
 1012a0c:	000d883a 	mov	r6,zero
 1012a10:	01c07fc4 	movi	r7,511
 1012a14:	10129080 	call	1012908 <alt_open_fd>
  alt_open_fd (&alt_fd_list[STDERR_FILENO], stderr_dev, O_WRONLY, 0777);
 1012a18:	01004074 	movhi	r4,257
 1012a1c:	21128b04 	addi	r4,r4,18988
 1012a20:	e17fff17 	ldw	r5,-4(fp)
 1012a24:	01800044 	movi	r6,1
 1012a28:	01c07fc4 	movi	r7,511
 1012a2c:	10129080 	call	1012908 <alt_open_fd>
}  
 1012a30:	e037883a 	mov	sp,fp
 1012a34:	dfc00117 	ldw	ra,4(sp)
 1012a38:	df000017 	ldw	fp,0(sp)
 1012a3c:	dec00204 	addi	sp,sp,8
 1012a40:	f800283a 	ret

01012a44 <alt_file_locked>:
 * performed for devices. Filesystems are required to handle the ioctl() call
 * themselves, and report the error from the filesystems open() function. 
 */ 

static int alt_file_locked (alt_fd* fd)
{
 1012a44:	defffc04 	addi	sp,sp,-16
 1012a48:	df000315 	stw	fp,12(sp)
 1012a4c:	df000304 	addi	fp,sp,12
 1012a50:	e13ffe15 	stw	r4,-8(fp)

  /*
   * Mark the file descriptor as belonging to a device.
   */

  fd->fd_flags |= ALT_FD_DEV;
 1012a54:	e0bffe17 	ldw	r2,-8(fp)
 1012a58:	10800217 	ldw	r2,8(r2)
 1012a5c:	10d00034 	orhi	r3,r2,16384
 1012a60:	e0bffe17 	ldw	r2,-8(fp)
 1012a64:	10c00215 	stw	r3,8(r2)
  /*
   * Loop through all current file descriptors searching for one that's locked
   * for exclusive access. If a match is found, generate an error.
   */

  for (i = 0; i <= alt_max_fd; i++)
 1012a68:	e03ffd15 	stw	zero,-12(fp)
 1012a6c:	00002006 	br	1012af0 <alt_file_locked+0xac>
  {
    if ((alt_fd_list[i].dev == fd->dev) &&
 1012a70:	e0bffd17 	ldw	r2,-12(fp)
 1012a74:	00c04074 	movhi	r3,257
 1012a78:	18d28504 	addi	r3,r3,18964
 1012a7c:	10800324 	muli	r2,r2,12
 1012a80:	10c5883a 	add	r2,r2,r3
 1012a84:	10c00017 	ldw	r3,0(r2)
 1012a88:	e0bffe17 	ldw	r2,-8(fp)
 1012a8c:	10800017 	ldw	r2,0(r2)
 1012a90:	1880141e 	bne	r3,r2,1012ae4 <alt_file_locked+0xa0>
 1012a94:	e0bffd17 	ldw	r2,-12(fp)
 1012a98:	00c04074 	movhi	r3,257
 1012a9c:	18d28504 	addi	r3,r3,18964
 1012aa0:	10800324 	muli	r2,r2,12
 1012aa4:	10c5883a 	add	r2,r2,r3
 1012aa8:	10800204 	addi	r2,r2,8
 1012aac:	10800017 	ldw	r2,0(r2)
 1012ab0:	1004403a 	cmpge	r2,r2,zero
 1012ab4:	10000b1e 	bne	r2,zero,1012ae4 <alt_file_locked+0xa0>
 1012ab8:	e0bffd17 	ldw	r2,-12(fp)
 1012abc:	10800324 	muli	r2,r2,12
 1012ac0:	1007883a 	mov	r3,r2
 1012ac4:	00804074 	movhi	r2,257
 1012ac8:	10928504 	addi	r2,r2,18964
 1012acc:	1887883a 	add	r3,r3,r2
 1012ad0:	e0bffe17 	ldw	r2,-8(fp)
 1012ad4:	18800326 	beq	r3,r2,1012ae4 <alt_file_locked+0xa0>
        (alt_fd_list[i].fd_flags & ALT_FD_EXCL) &&
        (&alt_fd_list[i] != fd))
    {
      return -EACCES;
 1012ad8:	00bffcc4 	movi	r2,-13
 1012adc:	e0bfff15 	stw	r2,-4(fp)
 1012ae0:	00000a06 	br	1012b0c <alt_file_locked+0xc8>
  /*
   * Loop through all current file descriptors searching for one that's locked
   * for exclusive access. If a match is found, generate an error.
   */

  for (i = 0; i <= alt_max_fd; i++)
 1012ae4:	e0bffd17 	ldw	r2,-12(fp)
 1012ae8:	10800044 	addi	r2,r2,1
 1012aec:	e0bffd15 	stw	r2,-12(fp)
 1012af0:	00804074 	movhi	r2,257
 1012af4:	10974f04 	addi	r2,r2,23868
 1012af8:	10800017 	ldw	r2,0(r2)
 1012afc:	1007883a 	mov	r3,r2
 1012b00:	e0bffd17 	ldw	r2,-12(fp)
 1012b04:	18bfda2e 	bgeu	r3,r2,1012a70 <alt_file_locked+0x2c>
    }
  }
  
  /* The device is not locked */
 
  return 0;
 1012b08:	e03fff15 	stw	zero,-4(fp)
 1012b0c:	e0bfff17 	ldw	r2,-4(fp)
}
 1012b10:	e037883a 	mov	sp,fp
 1012b14:	df000017 	ldw	fp,0(sp)
 1012b18:	dec00104 	addi	sp,sp,4
 1012b1c:	f800283a 	ret

01012b20 <open>:
 *
 * ALT_OPEN is mapped onto the open() system call in alt_syscall.h
 */
 
int ALT_OPEN (const char* file, int flags, int mode)
{ 
 1012b20:	defff404 	addi	sp,sp,-48
 1012b24:	dfc00b15 	stw	ra,44(sp)
 1012b28:	df000a15 	stw	fp,40(sp)
 1012b2c:	df000a04 	addi	fp,sp,40
 1012b30:	e13ffb15 	stw	r4,-20(fp)
 1012b34:	e17ffc15 	stw	r5,-16(fp)
 1012b38:	e1bffd15 	stw	r6,-12(fp)
  alt_dev* dev;
  alt_fd*  fd;
  int index  = -1;
 1012b3c:	00bfffc4 	movi	r2,-1
 1012b40:	e0bff815 	stw	r2,-32(fp)
  int status = -ENODEV;
 1012b44:	00bffb44 	movi	r2,-19
 1012b48:	e0bff715 	stw	r2,-36(fp)
  int isafs = 0;
 1012b4c:	e03ff615 	stw	zero,-40(fp)
  /* 
   * Check the device list, to see if a device with a matching name is 
   * registered.
   */
  
  if (!(dev = alt_find_dev (file, &alt_dev_list)))
 1012b50:	e13ffb17 	ldw	r4,-20(fp)
 1012b54:	01404074 	movhi	r5,257
 1012b58:	29574d04 	addi	r5,r5,23860
 1012b5c:	10128440 	call	1012844 <alt_find_dev>
 1012b60:	e0bffa15 	stw	r2,-24(fp)
 1012b64:	e0bffa17 	ldw	r2,-24(fp)
 1012b68:	1004c03a 	cmpne	r2,r2,zero
 1012b6c:	1000051e 	bne	r2,zero,1012b84 <open+0x64>
  {
    /* No matching device, so try the filesystem list */

    dev   = alt_find_file (file);
 1012b70:	e13ffb17 	ldw	r4,-20(fp)
 1012b74:	1012ecc0 	call	1012ecc <alt_find_file>
 1012b78:	e0bffa15 	stw	r2,-24(fp)
    isafs = 1;
 1012b7c:	00800044 	movi	r2,1
 1012b80:	e0bff615 	stw	r2,-40(fp)

  /* 
   * If a matching device or filesystem is found, allocate a file descriptor. 
   */

  if (dev)
 1012b84:	e0bffa17 	ldw	r2,-24(fp)
 1012b88:	1005003a 	cmpeq	r2,r2,zero
 1012b8c:	1000301e 	bne	r2,zero,1012c50 <open+0x130>
  {
    if ((index = alt_get_fd (dev)) < 0)
 1012b90:	e13ffa17 	ldw	r4,-24(fp)
 1012b94:	1012fec0 	call	1012fec <alt_get_fd>
 1012b98:	e0bff815 	stw	r2,-32(fp)
 1012b9c:	e0bff817 	ldw	r2,-32(fp)
 1012ba0:	1004403a 	cmpge	r2,r2,zero
 1012ba4:	1000031e 	bne	r2,zero,1012bb4 <open+0x94>
    {
      status = index;
 1012ba8:	e0bff817 	ldw	r2,-32(fp)
 1012bac:	e0bff715 	stw	r2,-36(fp)
 1012bb0:	00002906 	br	1012c58 <open+0x138>
    }
    else
    {
      fd = &alt_fd_list[index];
 1012bb4:	e0bff817 	ldw	r2,-32(fp)
 1012bb8:	10800324 	muli	r2,r2,12
 1012bbc:	1007883a 	mov	r3,r2
 1012bc0:	00804074 	movhi	r2,257
 1012bc4:	10928504 	addi	r2,r2,18964
 1012bc8:	1885883a 	add	r2,r3,r2
 1012bcc:	e0bff915 	stw	r2,-28(fp)
      fd->fd_flags = (flags & ~ALT_FD_FLAGS_MASK);
 1012bd0:	e0fffc17 	ldw	r3,-16(fp)
 1012bd4:	00900034 	movhi	r2,16384
 1012bd8:	10bfffc4 	addi	r2,r2,-1
 1012bdc:	1886703a 	and	r3,r3,r2
 1012be0:	e0bff917 	ldw	r2,-28(fp)
 1012be4:	10c00215 	stw	r3,8(r2)
      
      /* If this is a device, ensure it isn't already locked */

      if (isafs || ((status = alt_file_locked (fd)) >= 0))
 1012be8:	e0bff617 	ldw	r2,-40(fp)
 1012bec:	1004c03a 	cmpne	r2,r2,zero
 1012bf0:	1000061e 	bne	r2,zero,1012c0c <open+0xec>
 1012bf4:	e13ff917 	ldw	r4,-28(fp)
 1012bf8:	1012a440 	call	1012a44 <alt_file_locked>
 1012bfc:	e0bff715 	stw	r2,-36(fp)
 1012c00:	e0bff717 	ldw	r2,-36(fp)
 1012c04:	1004803a 	cmplt	r2,r2,zero
 1012c08:	1000131e 	bne	r2,zero,1012c58 <open+0x138>
        /* 
         * If the device or filesystem provides an open() callback function,
         * call it now to perform any device/filesystem specific operations.
         */
    
        status = (dev->open) ? dev->open(fd, file, flags, mode): 0;
 1012c0c:	e0bffa17 	ldw	r2,-24(fp)
 1012c10:	10800317 	ldw	r2,12(r2)
 1012c14:	1005003a 	cmpeq	r2,r2,zero
 1012c18:	1000091e 	bne	r2,zero,1012c40 <open+0x120>
 1012c1c:	e0bffa17 	ldw	r2,-24(fp)
 1012c20:	10800317 	ldw	r2,12(r2)
 1012c24:	e13ff917 	ldw	r4,-28(fp)
 1012c28:	e17ffb17 	ldw	r5,-20(fp)
 1012c2c:	e1bffc17 	ldw	r6,-16(fp)
 1012c30:	e1fffd17 	ldw	r7,-12(fp)
 1012c34:	103ee83a 	callr	r2
 1012c38:	e0bfff15 	stw	r2,-4(fp)
 1012c3c:	00000106 	br	1012c44 <open+0x124>
 1012c40:	e03fff15 	stw	zero,-4(fp)
 1012c44:	e0bfff17 	ldw	r2,-4(fp)
 1012c48:	e0bff715 	stw	r2,-36(fp)
 1012c4c:	00000206 	br	1012c58 <open+0x138>
      }
    }
  }
  else
  {
    status = -ENODEV;
 1012c50:	00bffb44 	movi	r2,-19
 1012c54:	e0bff715 	stw	r2,-36(fp)
  }

  /* Allocation failed, so clean up and return an error */ 

  if (status < 0)
 1012c58:	e0bff717 	ldw	r2,-36(fp)
 1012c5c:	1004403a 	cmpge	r2,r2,zero
 1012c60:	1000091e 	bne	r2,zero,1012c88 <open+0x168>
  {
    alt_release_fd (index);  
 1012c64:	e13ff817 	ldw	r4,-32(fp)
 1012c68:	10112480 	call	1011248 <alt_release_fd>
    ALT_ERRNO = -status;
 1012c6c:	1012ca80 	call	1012ca8 <alt_get_errno>
 1012c70:	e0fff717 	ldw	r3,-36(fp)
 1012c74:	00c7c83a 	sub	r3,zero,r3
 1012c78:	10c00015 	stw	r3,0(r2)
    return -1;
 1012c7c:	00bfffc4 	movi	r2,-1
 1012c80:	e0bffe15 	stw	r2,-8(fp)
 1012c84:	00000206 	br	1012c90 <open+0x170>
  }
  
  /* return the reference upon success */

  return index;
 1012c88:	e0bff817 	ldw	r2,-32(fp)
 1012c8c:	e0bffe15 	stw	r2,-8(fp)
 1012c90:	e0bffe17 	ldw	r2,-8(fp)
}
 1012c94:	e037883a 	mov	sp,fp
 1012c98:	dfc00117 	ldw	ra,4(sp)
 1012c9c:	df000017 	ldw	fp,0(sp)
 1012ca0:	dec00204 	addi	sp,sp,8
 1012ca4:	f800283a 	ret

01012ca8 <alt_get_errno>:
#undef errno

extern int errno;

static ALT_INLINE int* alt_get_errno(void)
{
 1012ca8:	defffd04 	addi	sp,sp,-12
 1012cac:	dfc00215 	stw	ra,8(sp)
 1012cb0:	df000115 	stw	fp,4(sp)
 1012cb4:	df000104 	addi	fp,sp,4
  return ((alt_errno) ? alt_errno() : &errno);
 1012cb8:	00804074 	movhi	r2,257
 1012cbc:	10975004 	addi	r2,r2,23872
 1012cc0:	10800017 	ldw	r2,0(r2)
 1012cc4:	1005003a 	cmpeq	r2,r2,zero
 1012cc8:	1000061e 	bne	r2,zero,1012ce4 <alt_get_errno+0x3c>
 1012ccc:	00804074 	movhi	r2,257
 1012cd0:	10975004 	addi	r2,r2,23872
 1012cd4:	10800017 	ldw	r2,0(r2)
 1012cd8:	103ee83a 	callr	r2
 1012cdc:	e0bfff15 	stw	r2,-4(fp)
 1012ce0:	00000306 	br	1012cf0 <alt_get_errno+0x48>
 1012ce4:	00804074 	movhi	r2,257
 1012ce8:	109ef604 	addi	r2,r2,31704
 1012cec:	e0bfff15 	stw	r2,-4(fp)
 1012cf0:	e0bfff17 	ldw	r2,-4(fp)
}
 1012cf4:	e037883a 	mov	sp,fp
 1012cf8:	dfc00117 	ldw	ra,4(sp)
 1012cfc:	df000017 	ldw	fp,0(sp)
 1012d00:	dec00204 	addi	sp,sp,8
 1012d04:	f800283a 	ret

01012d08 <alt_alarm_stop>:
 * alarms. Alternatively an alarm can unregister itself by returning zero when 
 * the alarm executes.
 */

void alt_alarm_stop (alt_alarm* alarm)
{
 1012d08:	defffa04 	addi	sp,sp,-24
 1012d0c:	df000515 	stw	fp,20(sp)
 1012d10:	df000504 	addi	fp,sp,20
 1012d14:	e13fff15 	stw	r4,-4(fp)
static ALT_INLINE alt_irq_context ALT_ALWAYS_INLINE 
       alt_irq_disable_all (void)
{
  alt_irq_context context;

  NIOS2_READ_STATUS (context);
 1012d18:	0005303a 	rdctl	r2,status
 1012d1c:	e0bffd15 	stw	r2,-12(fp)

  NIOS2_WRITE_STATUS (context & ~NIOS2_STATUS_PIE_MSK);
 1012d20:	e0fffd17 	ldw	r3,-12(fp)
 1012d24:	00bfff84 	movi	r2,-2
 1012d28:	1884703a 	and	r2,r3,r2
 1012d2c:	1001703a 	wrctl	status,r2
  
  return context;
 1012d30:	e0bffd17 	ldw	r2,-12(fp)
  alt_irq_context irq_context;

  irq_context = alt_irq_disable_all();
 1012d34:	e0bffe15 	stw	r2,-8(fp)
  alt_llist_remove (&alarm->llist);
 1012d38:	e0bfff17 	ldw	r2,-4(fp)
 1012d3c:	e0bffc15 	stw	r2,-16(fp)
 * input argument is the element to remove.
 */
     
static ALT_INLINE void ALT_ALWAYS_INLINE alt_llist_remove(alt_llist* entry)
{
  entry->next->previous = entry->previous;
 1012d40:	e0bffc17 	ldw	r2,-16(fp)
 1012d44:	10c00017 	ldw	r3,0(r2)
 1012d48:	e0bffc17 	ldw	r2,-16(fp)
 1012d4c:	10800117 	ldw	r2,4(r2)
 1012d50:	18800115 	stw	r2,4(r3)
  entry->previous->next = entry->next;
 1012d54:	e0bffc17 	ldw	r2,-16(fp)
 1012d58:	10c00117 	ldw	r3,4(r2)
 1012d5c:	e0bffc17 	ldw	r2,-16(fp)
 1012d60:	10800017 	ldw	r2,0(r2)
 1012d64:	18800015 	stw	r2,0(r3)
  /* 
   * Set the entry to point to itself, so that any further calls to
   * alt_llist_remove() are harmless.
   */

  entry->previous = entry;
 1012d68:	e0fffc17 	ldw	r3,-16(fp)
 1012d6c:	e0bffc17 	ldw	r2,-16(fp)
 1012d70:	18800115 	stw	r2,4(r3)
  entry->next     = entry;
 1012d74:	e0fffc17 	ldw	r3,-16(fp)
 1012d78:	e0bffc17 	ldw	r2,-16(fp)
 1012d7c:	18800015 	stw	r2,0(r3)
 1012d80:	e0bffe17 	ldw	r2,-8(fp)
 1012d84:	e0bffb15 	stw	r2,-20(fp)
  status &= ~NIOS2_STATUS_PIE_MSK;
  status |= (context & NIOS2_STATUS_PIE_MSK);
  
  NIOS2_WRITE_STATUS (status);
#else
  NIOS2_WRITE_STATUS (context);
 1012d88:	e0bffb17 	ldw	r2,-20(fp)
 1012d8c:	1001703a 	wrctl	status,r2
  alt_irq_enable_all (irq_context);
}
 1012d90:	e037883a 	mov	sp,fp
 1012d94:	df000017 	ldw	fp,0(sp)
 1012d98:	dec00104 	addi	sp,sp,4
 1012d9c:	f800283a 	ret

01012da0 <alt_tick>:
 * 
 * alt_tick() is expected to run at interrupt level.
 */

void alt_tick (void)
{
 1012da0:	defffb04 	addi	sp,sp,-20
 1012da4:	dfc00415 	stw	ra,16(sp)
 1012da8:	df000315 	stw	fp,12(sp)
 1012dac:	df000304 	addi	fp,sp,12
  alt_alarm* next;
  alt_alarm* alarm = (alt_alarm*) alt_alarm_list.next;
 1012db0:	d0a01b17 	ldw	r2,-32660(gp)
 1012db4:	e0bffe15 	stw	r2,-8(fp)

  alt_u32    next_callback;

  /* update the tick counter */

  _alt_nticks++;
 1012db8:	d0a7c917 	ldw	r2,-24796(gp)
 1012dbc:	10800044 	addi	r2,r2,1
 1012dc0:	d0a7c915 	stw	r2,-24796(gp)

  /* process the registered callbacks */

  while (alarm != (alt_alarm*) &alt_alarm_list)
 1012dc4:	00003106 	br	1012e8c <alt_tick+0xec>
  {
    next = (alt_alarm*) alarm->llist.next;
 1012dc8:	e0bffe17 	ldw	r2,-8(fp)
 1012dcc:	10800017 	ldw	r2,0(r2)
 1012dd0:	e0bfff15 	stw	r2,-4(fp)
    /* 
     * Upon the tick-counter rolling over it is safe to clear the 
     * roll-over flag; once the flag is cleared this (or subsequnt)
     * tick events are enabled to generate an alarm event. 
     */
    if ((alarm->rollover) && (_alt_nticks == 0))
 1012dd4:	e0bffe17 	ldw	r2,-8(fp)
 1012dd8:	10800403 	ldbu	r2,16(r2)
 1012ddc:	10803fcc 	andi	r2,r2,255
 1012de0:	1005003a 	cmpeq	r2,r2,zero
 1012de4:	1000051e 	bne	r2,zero,1012dfc <alt_tick+0x5c>
 1012de8:	d0a7c917 	ldw	r2,-24796(gp)
 1012dec:	1004c03a 	cmpne	r2,r2,zero
 1012df0:	1000021e 	bne	r2,zero,1012dfc <alt_tick+0x5c>
    {
      alarm->rollover = 0;
 1012df4:	e0bffe17 	ldw	r2,-8(fp)
 1012df8:	10000405 	stb	zero,16(r2)
    }
    
    /* if the alarm period has expired, make the callback */    
    if ((alarm->time <= _alt_nticks) && (alarm->rollover == 0))
 1012dfc:	e0bffe17 	ldw	r2,-8(fp)
 1012e00:	10c00217 	ldw	r3,8(r2)
 1012e04:	d0a7c917 	ldw	r2,-24796(gp)
 1012e08:	10c01e36 	bltu	r2,r3,1012e84 <alt_tick+0xe4>
 1012e0c:	e0bffe17 	ldw	r2,-8(fp)
 1012e10:	10800403 	ldbu	r2,16(r2)
 1012e14:	10803fcc 	andi	r2,r2,255
 1012e18:	1004c03a 	cmpne	r2,r2,zero
 1012e1c:	1000191e 	bne	r2,zero,1012e84 <alt_tick+0xe4>
    {
      next_callback = alarm->callback (alarm->context);
 1012e20:	e0bffe17 	ldw	r2,-8(fp)
 1012e24:	10c00317 	ldw	r3,12(r2)
 1012e28:	e0bffe17 	ldw	r2,-8(fp)
 1012e2c:	11000517 	ldw	r4,20(r2)
 1012e30:	183ee83a 	callr	r3
 1012e34:	e0bffd15 	stw	r2,-12(fp)

      /* deactivate the alarm if the return value is zero */

      if (next_callback == 0)
 1012e38:	e0bffd17 	ldw	r2,-12(fp)
 1012e3c:	1004c03a 	cmpne	r2,r2,zero
 1012e40:	1000031e 	bne	r2,zero,1012e50 <alt_tick+0xb0>
      {
        alt_alarm_stop (alarm);
 1012e44:	e13ffe17 	ldw	r4,-8(fp)
 1012e48:	1012d080 	call	1012d08 <alt_alarm_stop>
 1012e4c:	00000d06 	br	1012e84 <alt_tick+0xe4>
      }
      else
      {
        alarm->time += next_callback;
 1012e50:	e0bffe17 	ldw	r2,-8(fp)
 1012e54:	10c00217 	ldw	r3,8(r2)
 1012e58:	e0bffd17 	ldw	r2,-12(fp)
 1012e5c:	1887883a 	add	r3,r3,r2
 1012e60:	e0bffe17 	ldw	r2,-8(fp)
 1012e64:	10c00215 	stw	r3,8(r2)
        /* 
         * If the desired alarm time causes a roll-over, set the rollover
         * flag. This will prevent the subsequent tick event from causing
         * an alarm too early.
         */
        if(alarm->time < _alt_nticks)
 1012e68:	e0bffe17 	ldw	r2,-8(fp)
 1012e6c:	10c00217 	ldw	r3,8(r2)
 1012e70:	d0a7c917 	ldw	r2,-24796(gp)
 1012e74:	1880032e 	bgeu	r3,r2,1012e84 <alt_tick+0xe4>
        {
          alarm->rollover = 1;
 1012e78:	e0fffe17 	ldw	r3,-8(fp)
 1012e7c:	00800044 	movi	r2,1
 1012e80:	18800405 	stb	r2,16(r3)
        }
      }
    }
    alarm = next;
 1012e84:	e0bfff17 	ldw	r2,-4(fp)
 1012e88:	e0bffe15 	stw	r2,-8(fp)

  _alt_nticks++;

  /* process the registered callbacks */

  while (alarm != (alt_alarm*) &alt_alarm_list)
 1012e8c:	d0e01b04 	addi	r3,gp,-32660
 1012e90:	e0bffe17 	ldw	r2,-8(fp)
 1012e94:	10ffcc1e 	bne	r2,r3,1012dc8 <alt_tick+0x28>
  /* 
   * Update the operating system specific timer facilities.
   */

  ALT_OS_TIME_TICK();
}
 1012e98:	e037883a 	mov	sp,fp
 1012e9c:	dfc00117 	ldw	ra,4(sp)
 1012ea0:	df000017 	ldw	fp,0(sp)
 1012ea4:	dec00204 	addi	sp,sp,8
 1012ea8:	f800283a 	ret

01012eac <altera_nios2_qsys_irq_init>:
/*
 * To initialize the internal interrupt controller, just clear the IENABLE
 * register so that all possible IRQs are disabled.
 */
void altera_nios2_qsys_irq_init(void) 
{
 1012eac:	deffff04 	addi	sp,sp,-4
 1012eb0:	df000015 	stw	fp,0(sp)
 1012eb4:	d839883a 	mov	fp,sp
    NIOS2_WRITE_IENABLE(0);
 1012eb8:	000170fa 	wrctl	ienable,zero
}
 1012ebc:	e037883a 	mov	sp,fp
 1012ec0:	df000017 	ldw	fp,0(sp)
 1012ec4:	dec00104 	addi	sp,sp,4
 1012ec8:	f800283a 	ret

01012ecc <alt_find_file>:
 * either '/' or '\0' is the prefix of the filename. For example the filename:
 * "/myfilesystem/junk.txt" would match: "/myfilesystem", but not: "/myfile". 
 */
 
alt_dev* alt_find_file (const char* name)
{
 1012ecc:	defffa04 	addi	sp,sp,-24
 1012ed0:	dfc00515 	stw	ra,20(sp)
 1012ed4:	df000415 	stw	fp,16(sp)
 1012ed8:	df000404 	addi	fp,sp,16
 1012edc:	e13ffe15 	stw	r4,-8(fp)
  alt_dev* next = (alt_dev*) alt_fs_list.next;   
 1012ee0:	00804074 	movhi	r2,257
 1012ee4:	10974b04 	addi	r2,r2,23852
 1012ee8:	10800017 	ldw	r2,0(r2)
 1012eec:	e0bffd15 	stw	r2,-12(fp)
  /*
   * Check each list entry in turn, until a match is found, or we reach the
   * end of the list (i.e. next winds up pointing back to the list head).
   */ 
 
  while (next != (alt_dev*) &alt_fs_list)
 1012ef0:	00003306 	br	1012fc0 <alt_find_file+0xf4>
  {
    len = strlen(next->name);
 1012ef4:	e0bffd17 	ldw	r2,-12(fp)
 1012ef8:	11000217 	ldw	r4,8(r2)
 1012efc:	10060180 	call	1006018 <strlen>
 1012f00:	e0bffc15 	stw	r2,-16(fp)
    
    if (next->name[len-1] == '/')
 1012f04:	e0bffd17 	ldw	r2,-12(fp)
 1012f08:	10c00217 	ldw	r3,8(r2)
 1012f0c:	e0bffc17 	ldw	r2,-16(fp)
 1012f10:	1885883a 	add	r2,r3,r2
 1012f14:	10bfffc4 	addi	r2,r2,-1
 1012f18:	10800003 	ldbu	r2,0(r2)
 1012f1c:	10803fcc 	andi	r2,r2,255
 1012f20:	1080201c 	xori	r2,r2,128
 1012f24:	10bfe004 	addi	r2,r2,-128
 1012f28:	10800bd8 	cmpnei	r2,r2,47
 1012f2c:	1000031e 	bne	r2,zero,1012f3c <alt_find_file+0x70>
    {
      len -= 1;
 1012f30:	e0bffc17 	ldw	r2,-16(fp)
 1012f34:	10bfffc4 	addi	r2,r2,-1
 1012f38:	e0bffc15 	stw	r2,-16(fp)
    }

    if (((name[len] == '/') || (name[len] == '\0')) && 
 1012f3c:	e0bffc17 	ldw	r2,-16(fp)
 1012f40:	1007883a 	mov	r3,r2
 1012f44:	e0bffe17 	ldw	r2,-8(fp)
 1012f48:	1885883a 	add	r2,r3,r2
 1012f4c:	10800003 	ldbu	r2,0(r2)
 1012f50:	10803fcc 	andi	r2,r2,255
 1012f54:	1080201c 	xori	r2,r2,128
 1012f58:	10bfe004 	addi	r2,r2,-128
 1012f5c:	10800be0 	cmpeqi	r2,r2,47
 1012f60:	10000a1e 	bne	r2,zero,1012f8c <alt_find_file+0xc0>
 1012f64:	e0bffc17 	ldw	r2,-16(fp)
 1012f68:	1007883a 	mov	r3,r2
 1012f6c:	e0bffe17 	ldw	r2,-8(fp)
 1012f70:	1885883a 	add	r2,r3,r2
 1012f74:	10800003 	ldbu	r2,0(r2)
 1012f78:	10803fcc 	andi	r2,r2,255
 1012f7c:	1080201c 	xori	r2,r2,128
 1012f80:	10bfe004 	addi	r2,r2,-128
 1012f84:	1004c03a 	cmpne	r2,r2,zero
 1012f88:	10000a1e 	bne	r2,zero,1012fb4 <alt_find_file+0xe8>
 1012f8c:	e0bffd17 	ldw	r2,-12(fp)
 1012f90:	11000217 	ldw	r4,8(r2)
 1012f94:	e1bffc17 	ldw	r6,-16(fp)
 1012f98:	e17ffe17 	ldw	r5,-8(fp)
 1012f9c:	10131480 	call	1013148 <memcmp>
 1012fa0:	1004c03a 	cmpne	r2,r2,zero
 1012fa4:	1000031e 	bne	r2,zero,1012fb4 <alt_find_file+0xe8>
        !memcmp (next->name, name, len))
    {
      /* match found */

      return next;
 1012fa8:	e0bffd17 	ldw	r2,-12(fp)
 1012fac:	e0bfff15 	stw	r2,-4(fp)
 1012fb0:	00000806 	br	1012fd4 <alt_find_file+0x108>
    }
    next = (alt_dev*) next->llist.next;
 1012fb4:	e0bffd17 	ldw	r2,-12(fp)
 1012fb8:	10800017 	ldw	r2,0(r2)
 1012fbc:	e0bffd15 	stw	r2,-12(fp)
  /*
   * Check each list entry in turn, until a match is found, or we reach the
   * end of the list (i.e. next winds up pointing back to the list head).
   */ 
 
  while (next != (alt_dev*) &alt_fs_list)
 1012fc0:	00c04074 	movhi	r3,257
 1012fc4:	18d74b04 	addi	r3,r3,23852
 1012fc8:	e0bffd17 	ldw	r2,-12(fp)
 1012fcc:	10ffc91e 	bne	r2,r3,1012ef4 <alt_find_file+0x28>
    next = (alt_dev*) next->llist.next;
  }
  
  /* No match found */
  
  return NULL;     
 1012fd0:	e03fff15 	stw	zero,-4(fp)
 1012fd4:	e0bfff17 	ldw	r2,-4(fp)
}
 1012fd8:	e037883a 	mov	sp,fp
 1012fdc:	dfc00117 	ldw	ra,4(sp)
 1012fe0:	df000017 	ldw	fp,0(sp)
 1012fe4:	dec00204 	addi	sp,sp,8
 1012fe8:	f800283a 	ret

01012fec <alt_get_fd>:
 * the offset of the file descriptor within the file descriptor array). A
 * negative value indicates failure.
 */

int alt_get_fd (alt_dev* dev)
{
 1012fec:	defffc04 	addi	sp,sp,-16
 1012ff0:	df000315 	stw	fp,12(sp)
 1012ff4:	df000304 	addi	fp,sp,12
 1012ff8:	e13fff15 	stw	r4,-4(fp)
  alt_32 i;
  int rc = -EMFILE;
 1012ffc:	00bffa04 	movi	r2,-24
 1013000:	e0bffd15 	stw	r2,-12(fp)
   * indicates the highest file descriptor ever allocated. This is used to
   * improve efficency when searching the file descriptor list, and 
   * therefore reduce contention on the alt_fd_list_lock semaphore. 
   */

  for (i = 0; i < ALT_MAX_FD; i++)
 1013004:	e03ffe15 	stw	zero,-8(fp)
 1013008:	00001e06 	br	1013084 <alt_get_fd+0x98>
  {
    if (!alt_fd_list[i].dev)
 101300c:	e0bffe17 	ldw	r2,-8(fp)
 1013010:	00c04074 	movhi	r3,257
 1013014:	18d28504 	addi	r3,r3,18964
 1013018:	10800324 	muli	r2,r2,12
 101301c:	10c5883a 	add	r2,r2,r3
 1013020:	10800017 	ldw	r2,0(r2)
 1013024:	1004c03a 	cmpne	r2,r2,zero
 1013028:	1000131e 	bne	r2,zero,1013078 <alt_get_fd+0x8c>
    {
      alt_fd_list[i].dev = dev;
 101302c:	e0bffe17 	ldw	r2,-8(fp)
 1013030:	00c04074 	movhi	r3,257
 1013034:	18d28504 	addi	r3,r3,18964
 1013038:	10800324 	muli	r2,r2,12
 101303c:	10c7883a 	add	r3,r2,r3
 1013040:	e0bfff17 	ldw	r2,-4(fp)
 1013044:	18800015 	stw	r2,0(r3)
      if (i > alt_max_fd)
 1013048:	00804074 	movhi	r2,257
 101304c:	10974f04 	addi	r2,r2,23868
 1013050:	10c00017 	ldw	r3,0(r2)
 1013054:	e0bffe17 	ldw	r2,-8(fp)
 1013058:	1880040e 	bge	r3,r2,101306c <alt_get_fd+0x80>
      {
        alt_max_fd = i;
 101305c:	00c04074 	movhi	r3,257
 1013060:	18d74f04 	addi	r3,r3,23868
 1013064:	e0bffe17 	ldw	r2,-8(fp)
 1013068:	18800015 	stw	r2,0(r3)
      }
      rc = i;
 101306c:	e0bffe17 	ldw	r2,-8(fp)
 1013070:	e0bffd15 	stw	r2,-12(fp)
      goto alt_get_fd_exit;
 1013074:	00000606 	br	1013090 <alt_get_fd+0xa4>
   * indicates the highest file descriptor ever allocated. This is used to
   * improve efficency when searching the file descriptor list, and 
   * therefore reduce contention on the alt_fd_list_lock semaphore. 
   */

  for (i = 0; i < ALT_MAX_FD; i++)
 1013078:	e0bffe17 	ldw	r2,-8(fp)
 101307c:	10800044 	addi	r2,r2,1
 1013080:	e0bffe15 	stw	r2,-8(fp)
 1013084:	e0bffe17 	ldw	r2,-8(fp)
 1013088:	10800810 	cmplti	r2,r2,32
 101308c:	103fdf1e 	bne	r2,zero,101300c <alt_get_fd+0x20>
   * file descriptor pool.
   */

  ALT_SEM_POST(alt_fd_list_lock);

  return rc;
 1013090:	e0bffd17 	ldw	r2,-12(fp)
}
 1013094:	e037883a 	mov	sp,fp
 1013098:	df000017 	ldw	fp,0(sp)
 101309c:	dec00104 	addi	sp,sp,4
 10130a0:	f800283a 	ret

010130a4 <alt_icache_flush>:
 * alt_icache_flush() is called to flush the instruction cache for a memory
 * region of length "len" bytes, starting at address "start".
 */

void alt_icache_flush (void* start, alt_u32 len)
{
 10130a4:	defffb04 	addi	sp,sp,-20
 10130a8:	df000415 	stw	fp,16(sp)
 10130ac:	df000404 	addi	fp,sp,16
 10130b0:	e13ffe15 	stw	r4,-8(fp)
 10130b4:	e17fff15 	stw	r5,-4(fp)

  /*
   * This is the most we would ever need to flush.
   */
 
  if (len > NIOS2_ICACHE_SIZE)
 10130b8:	e0bfff17 	ldw	r2,-4(fp)
 10130bc:	10840070 	cmpltui	r2,r2,4097
 10130c0:	1000021e 	bne	r2,zero,10130cc <alt_icache_flush+0x28>
  {
    len = NIOS2_ICACHE_SIZE;
 10130c4:	00840004 	movi	r2,4096
 10130c8:	e0bfff15 	stw	r2,-4(fp)
  }

  end = ((char*) start) + len;
 10130cc:	e0fffe17 	ldw	r3,-8(fp)
 10130d0:	e0bfff17 	ldw	r2,-4(fp)
 10130d4:	1885883a 	add	r2,r3,r2
 10130d8:	e0bffc15 	stw	r2,-16(fp)

  for (i = start; i < end; i+= NIOS2_ICACHE_LINE_SIZE)
 10130dc:	e0bffe17 	ldw	r2,-8(fp)
 10130e0:	e0bffd15 	stw	r2,-12(fp)
 10130e4:	00000506 	br	10130fc <alt_icache_flush+0x58>
  { 
    __asm__ volatile ("flushi %0" :: "r" (i)); 
 10130e8:	e0bffd17 	ldw	r2,-12(fp)
 10130ec:	1000603a 	flushi	r2
    len = NIOS2_ICACHE_SIZE;
  }

  end = ((char*) start) + len;

  for (i = start; i < end; i+= NIOS2_ICACHE_LINE_SIZE)
 10130f0:	e0bffd17 	ldw	r2,-12(fp)
 10130f4:	10800804 	addi	r2,r2,32
 10130f8:	e0bffd15 	stw	r2,-12(fp)
 10130fc:	e0fffd17 	ldw	r3,-12(fp)
 1013100:	e0bffc17 	ldw	r2,-16(fp)
 1013104:	18bff836 	bltu	r3,r2,10130e8 <alt_icache_flush+0x44>
   * For an unaligned flush request, we've got one more line left.
   * Note that this is dependent on NIOS2_ICACHE_LINE_SIZE to be a 
   * multiple of 2 (which it always is).
   */

  if (((alt_u32) start) & (NIOS2_ICACHE_LINE_SIZE - 1))
 1013108:	e0bffe17 	ldw	r2,-8(fp)
 101310c:	108007cc 	andi	r2,r2,31
 1013110:	1005003a 	cmpeq	r2,r2,zero
 1013114:	1000021e 	bne	r2,zero,1013120 <alt_icache_flush+0x7c>
  {
    __asm__ volatile ("flushi %0" :: "r" (i));
 1013118:	e0bffd17 	ldw	r2,-12(fp)
 101311c:	1000603a 	flushi	r2
  /* 
   * Having flushed the cache, flush any stale instructions in the 
   * pipeline 
   */

  __asm__ volatile ("flushp");
 1013120:	0000203a 	flushp

#endif /* NIOS2_ICACHE_SIZE > 0 */
}
 1013124:	e037883a 	mov	sp,fp
 1013128:	df000017 	ldw	fp,0(sp)
 101312c:	dec00104 	addi	sp,sp,4
 1013130:	f800283a 	ret

01013134 <atexit>:
 1013134:	200b883a 	mov	r5,r4
 1013138:	000d883a 	mov	r6,zero
 101313c:	0009883a 	mov	r4,zero
 1013140:	000f883a 	mov	r7,zero
 1013144:	10131bc1 	jmpi	10131bc <__register_exitproc>

01013148 <memcmp>:
 1013148:	00c000c4 	movi	r3,3
 101314c:	1980032e 	bgeu	r3,r6,101315c <memcmp+0x14>
 1013150:	2144b03a 	or	r2,r4,r5
 1013154:	10c4703a 	and	r2,r2,r3
 1013158:	10000f26 	beq	r2,zero,1013198 <memcmp+0x50>
 101315c:	31ffffc4 	addi	r7,r6,-1
 1013160:	3000061e 	bne	r6,zero,101317c <memcmp+0x34>
 1013164:	00000a06 	br	1013190 <memcmp+0x48>
 1013168:	39ffffc4 	addi	r7,r7,-1
 101316c:	00bfffc4 	movi	r2,-1
 1013170:	21000044 	addi	r4,r4,1
 1013174:	29400044 	addi	r5,r5,1
 1013178:	38800526 	beq	r7,r2,1013190 <memcmp+0x48>
 101317c:	20c00003 	ldbu	r3,0(r4)
 1013180:	28800003 	ldbu	r2,0(r5)
 1013184:	18bff826 	beq	r3,r2,1013168 <memcmp+0x20>
 1013188:	1885c83a 	sub	r2,r3,r2
 101318c:	f800283a 	ret
 1013190:	0005883a 	mov	r2,zero
 1013194:	f800283a 	ret
 1013198:	180f883a 	mov	r7,r3
 101319c:	20c00017 	ldw	r3,0(r4)
 10131a0:	28800017 	ldw	r2,0(r5)
 10131a4:	18bfed1e 	bne	r3,r2,101315c <memcmp+0x14>
 10131a8:	31bfff04 	addi	r6,r6,-4
 10131ac:	21000104 	addi	r4,r4,4
 10131b0:	29400104 	addi	r5,r5,4
 10131b4:	39bff936 	bltu	r7,r6,101319c <memcmp+0x54>
 10131b8:	003fe806 	br	101315c <memcmp+0x14>

010131bc <__register_exitproc>:
 10131bc:	defffa04 	addi	sp,sp,-24
 10131c0:	00804074 	movhi	r2,257
 10131c4:	10974604 	addi	r2,r2,23832
 10131c8:	dc000015 	stw	r16,0(sp)
 10131cc:	14000017 	ldw	r16,0(r2)
 10131d0:	dd000415 	stw	r20,16(sp)
 10131d4:	2829883a 	mov	r20,r5
 10131d8:	81405217 	ldw	r5,328(r16)
 10131dc:	dcc00315 	stw	r19,12(sp)
 10131e0:	dc800215 	stw	r18,8(sp)
 10131e4:	dc400115 	stw	r17,4(sp)
 10131e8:	dfc00515 	stw	ra,20(sp)
 10131ec:	2023883a 	mov	r17,r4
 10131f0:	3027883a 	mov	r19,r6
 10131f4:	3825883a 	mov	r18,r7
 10131f8:	28002526 	beq	r5,zero,1013290 <__register_exitproc+0xd4>
 10131fc:	29000117 	ldw	r4,4(r5)
 1013200:	008007c4 	movi	r2,31
 1013204:	11002716 	blt	r2,r4,10132a4 <__register_exitproc+0xe8>
 1013208:	8800101e 	bne	r17,zero,101324c <__register_exitproc+0x90>
 101320c:	2105883a 	add	r2,r4,r4
 1013210:	1085883a 	add	r2,r2,r2
 1013214:	20c00044 	addi	r3,r4,1
 1013218:	1145883a 	add	r2,r2,r5
 101321c:	0009883a 	mov	r4,zero
 1013220:	15000215 	stw	r20,8(r2)
 1013224:	28c00115 	stw	r3,4(r5)
 1013228:	2005883a 	mov	r2,r4
 101322c:	dfc00517 	ldw	ra,20(sp)
 1013230:	dd000417 	ldw	r20,16(sp)
 1013234:	dcc00317 	ldw	r19,12(sp)
 1013238:	dc800217 	ldw	r18,8(sp)
 101323c:	dc400117 	ldw	r17,4(sp)
 1013240:	dc000017 	ldw	r16,0(sp)
 1013244:	dec00604 	addi	sp,sp,24
 1013248:	f800283a 	ret
 101324c:	29802204 	addi	r6,r5,136
 1013250:	00800044 	movi	r2,1
 1013254:	110e983a 	sll	r7,r2,r4
 1013258:	30c04017 	ldw	r3,256(r6)
 101325c:	2105883a 	add	r2,r4,r4
 1013260:	1085883a 	add	r2,r2,r2
 1013264:	1185883a 	add	r2,r2,r6
 1013268:	19c6b03a 	or	r3,r3,r7
 101326c:	14802015 	stw	r18,128(r2)
 1013270:	14c00015 	stw	r19,0(r2)
 1013274:	00800084 	movi	r2,2
 1013278:	30c04015 	stw	r3,256(r6)
 101327c:	88bfe31e 	bne	r17,r2,101320c <__register_exitproc+0x50>
 1013280:	30804117 	ldw	r2,260(r6)
 1013284:	11c4b03a 	or	r2,r2,r7
 1013288:	30804115 	stw	r2,260(r6)
 101328c:	003fdf06 	br	101320c <__register_exitproc+0x50>
 1013290:	008040b4 	movhi	r2,258
 1013294:	10a55504 	addi	r2,r2,-27308
 1013298:	100b883a 	mov	r5,r2
 101329c:	80805215 	stw	r2,328(r16)
 10132a0:	003fd606 	br	10131fc <__register_exitproc+0x40>
 10132a4:	00804034 	movhi	r2,256
 10132a8:	10957304 	addi	r2,r2,21964
 10132ac:	1000021e 	bne	r2,zero,10132b8 <__register_exitproc+0xfc>
 10132b0:	013fffc4 	movi	r4,-1
 10132b4:	003fdc06 	br	1013228 <__register_exitproc+0x6c>
 10132b8:	01006404 	movi	r4,400
 10132bc:	103ee83a 	callr	r2
 10132c0:	1007883a 	mov	r3,r2
 10132c4:	103ffa26 	beq	r2,zero,10132b0 <__register_exitproc+0xf4>
 10132c8:	80805217 	ldw	r2,328(r16)
 10132cc:	180b883a 	mov	r5,r3
 10132d0:	18000115 	stw	zero,4(r3)
 10132d4:	18800015 	stw	r2,0(r3)
 10132d8:	80c05215 	stw	r3,328(r16)
 10132dc:	18006215 	stw	zero,392(r3)
 10132e0:	18006315 	stw	zero,396(r3)
 10132e4:	0009883a 	mov	r4,zero
 10132e8:	883fc826 	beq	r17,zero,101320c <__register_exitproc+0x50>
 10132ec:	003fd706 	br	101324c <__register_exitproc+0x90>
 10132f0:	0100810c 	andi	r4,zero,516
